
BlackCatTensors4:     file format elf64-x86-64


Disassembly of section .init:

00000000004006b8 <_init>:
  4006b8:	48 83 ec 08          	sub    $0x8,%rsp
  4006bc:	48 8b 05 35 39 20 00 	mov    0x203935(%rip),%rax        # 603ff8 <_DYNAMIC+0x1f0>
  4006c3:	48 85 c0             	test   %rax,%rax
  4006c6:	74 05                	je     4006cd <_init+0x15>
  4006c8:	e8 b3 00 00 00       	callq  400780 <_ZNSt8ios_base4InitD1Ev@plt+0x10>
  4006cd:	48 83 c4 08          	add    $0x8,%rsp
  4006d1:	c3                   	retq   

Disassembly of section .plt:

00000000004006e0 <__printf_chk@plt-0x10>:
  4006e0:	ff 35 22 39 20 00    	pushq  0x203922(%rip)        # 604008 <_GLOBAL_OFFSET_TABLE_+0x8>
  4006e6:	ff 25 24 39 20 00    	jmpq   *0x203924(%rip)        # 604010 <_GLOBAL_OFFSET_TABLE_+0x10>
  4006ec:	0f 1f 40 00          	nopl   0x0(%rax)

00000000004006f0 <__printf_chk@plt>:
  4006f0:	ff 25 22 39 20 00    	jmpq   *0x203922(%rip)        # 604018 <_GLOBAL_OFFSET_TABLE_+0x18>
  4006f6:	68 00 00 00 00       	pushq  $0x0
  4006fb:	e9 e0 ff ff ff       	jmpq   4006e0 <_init+0x28>

0000000000400700 <_Znam@plt>:
  400700:	ff 25 1a 39 20 00    	jmpq   *0x20391a(%rip)        # 604020 <_GLOBAL_OFFSET_TABLE_+0x20>
  400706:	68 01 00 00 00       	pushq  $0x1
  40070b:	e9 d0 ff ff ff       	jmpq   4006e0 <_init+0x28>

0000000000400710 <rand@plt>:
  400710:	ff 25 12 39 20 00    	jmpq   *0x203912(%rip)        # 604028 <_GLOBAL_OFFSET_TABLE_+0x28>
  400716:	68 02 00 00 00       	pushq  $0x2
  40071b:	e9 c0 ff ff ff       	jmpq   4006e0 <_init+0x28>

0000000000400720 <__cxa_atexit@plt>:
  400720:	ff 25 0a 39 20 00    	jmpq   *0x20390a(%rip)        # 604030 <_GLOBAL_OFFSET_TABLE_+0x30>
  400726:	68 03 00 00 00       	pushq  $0x3
  40072b:	e9 b0 ff ff ff       	jmpq   4006e0 <_init+0x28>

0000000000400730 <_ZdaPv@plt>:
  400730:	ff 25 02 39 20 00    	jmpq   *0x203902(%rip)        # 604038 <_GLOBAL_OFFSET_TABLE_+0x38>
  400736:	68 04 00 00 00       	pushq  $0x4
  40073b:	e9 a0 ff ff ff       	jmpq   4006e0 <_init+0x28>

0000000000400740 <_ZNSt8ios_base4InitC1Ev@plt>:
  400740:	ff 25 fa 38 20 00    	jmpq   *0x2038fa(%rip)        # 604040 <_GLOBAL_OFFSET_TABLE_+0x40>
  400746:	68 05 00 00 00       	pushq  $0x5
  40074b:	e9 90 ff ff ff       	jmpq   4006e0 <_init+0x28>

0000000000400750 <omp_get_wtime@plt>:
  400750:	ff 25 f2 38 20 00    	jmpq   *0x2038f2(%rip)        # 604048 <_GLOBAL_OFFSET_TABLE_+0x48>
  400756:	68 06 00 00 00       	pushq  $0x6
  40075b:	e9 80 ff ff ff       	jmpq   4006e0 <_init+0x28>

0000000000400760 <__libc_start_main@plt>:
  400760:	ff 25 ea 38 20 00    	jmpq   *0x2038ea(%rip)        # 604050 <_GLOBAL_OFFSET_TABLE_+0x50>
  400766:	68 07 00 00 00       	pushq  $0x7
  40076b:	e9 70 ff ff ff       	jmpq   4006e0 <_init+0x28>

0000000000400770 <_ZNSt8ios_base4InitD1Ev@plt>:
  400770:	ff 25 e2 38 20 00    	jmpq   *0x2038e2(%rip)        # 604058 <_GLOBAL_OFFSET_TABLE_+0x58>
  400776:	68 08 00 00 00       	pushq  $0x8
  40077b:	e9 60 ff ff ff       	jmpq   4006e0 <_init+0x28>

Disassembly of section .plt.got:

0000000000400780 <.plt.got>:
  400780:	ff 25 72 38 20 00    	jmpq   *0x203872(%rip)        # 603ff8 <_DYNAMIC+0x1f0>
  400786:	66 90                	xchg   %ax,%ax

Disassembly of section .text:

0000000000400790 <main>:
  400790:	41 57                	push   %r15
  400792:	41 56                	push   %r14
  400794:	bf 00 35 0c 00       	mov    $0xc3500,%edi
  400799:	41 55                	push   %r13
  40079b:	41 54                	push   %r12
  40079d:	45 31 ff             	xor    %r15d,%r15d
  4007a0:	55                   	push   %rbp
  4007a1:	53                   	push   %rbx
  4007a2:	41 be d3 4d 62 10    	mov    $0x10624dd3,%r14d
  4007a8:	48 83 ec 18          	sub    $0x18,%rsp
  4007ac:	e8 4f ff ff ff       	callq  400700 <_Znam@plt>
  4007b1:	bf 00 35 0c 00       	mov    $0xc3500,%edi
  4007b6:	49 89 c4             	mov    %rax,%r12
  4007b9:	e8 42 ff ff ff       	callq  400700 <_Znam@plt>
  4007be:	bf 00 35 0c 00       	mov    $0xc3500,%edi
  4007c3:	49 89 c5             	mov    %rax,%r13
  4007c6:	e8 35 ff ff ff       	callq  400700 <_Znam@plt>
  4007cb:	bf 00 35 0c 00       	mov    $0xc3500,%edi
  4007d0:	48 89 c3             	mov    %rax,%rbx
  4007d3:	e8 28 ff ff ff       	callq  400700 <_Znam@plt>
  4007d8:	48 89 c5             	mov    %rax,%rbp
  4007db:	0f 1f 44 00 00       	nopl   0x0(%rax,%rax,1)
  4007e0:	4b c7 04 3c 00 00 00 	movq   $0x0,(%r12,%r15,1)
  4007e7:	00 
  4007e8:	4b c7 44 3d 00 00 00 	movq   $0x0,0x0(%r13,%r15,1)
  4007ef:	00 00 
  4007f1:	e8 1a ff ff ff       	callq  400710 <rand@plt>
  4007f6:	89 c1                	mov    %eax,%ecx
  4007f8:	66 0f ef c0          	pxor   %xmm0,%xmm0
  4007fc:	41 f7 ee             	imul   %r14d
  4007ff:	89 c8                	mov    %ecx,%eax
  400801:	c1 f8 1f             	sar    $0x1f,%eax
  400804:	c1 fa 06             	sar    $0x6,%edx
  400807:	29 c2                	sub    %eax,%edx
  400809:	69 c2 e8 03 00 00    	imul   $0x3e8,%edx,%eax
  40080f:	29 c1                	sub    %eax,%ecx
  400811:	f2 0f 2a c1          	cvtsi2sd %ecx,%xmm0
  400815:	f2 42 0f 11 04 3b    	movsd  %xmm0,(%rbx,%r15,1)
  40081b:	e8 f0 fe ff ff       	callq  400710 <rand@plt>
  400820:	89 c1                	mov    %eax,%ecx
  400822:	66 0f ef c0          	pxor   %xmm0,%xmm0
  400826:	41 f7 ee             	imul   %r14d
  400829:	89 c8                	mov    %ecx,%eax
  40082b:	c1 f8 1f             	sar    $0x1f,%eax
  40082e:	c1 fa 06             	sar    $0x6,%edx
  400831:	29 c2                	sub    %eax,%edx
  400833:	69 c2 e8 03 00 00    	imul   $0x3e8,%edx,%eax
  400839:	29 c1                	sub    %eax,%ecx
  40083b:	f2 0f 2a c1          	cvtsi2sd %ecx,%xmm0
  40083f:	f2 42 0f 11 44 3d 00 	movsd  %xmm0,0x0(%rbp,%r15,1)
  400846:	49 83 c7 08          	add    $0x8,%r15
  40084a:	49 81 ff 00 35 0c 00 	cmp    $0xc3500,%r15
  400851:	75 8d                	jne    4007e0 <main+0x50>
  400853:	e8 f8 fe ff ff       	callq  400750 <omp_get_wtime@plt>
  400858:	66 0f ef e4          	pxor   %xmm4,%xmm4
  40085c:	be 08 34 40 00       	mov    $0x403408,%esi
  400861:	bf 01 00 00 00       	mov    $0x1,%edi
  400866:	31 c0                	xor    %eax,%eax
  400868:	49 89 df             	mov    %rbx,%r15
  40086b:	49 c1 e7 3c          	shl    $0x3c,%r15
  40086f:	f2 0f 5a e0          	cvtsd2ss %xmm0,%xmm4
  400873:	49 c1 ef 3f          	shr    $0x3f,%r15
  400877:	f3 0f 11 64 24 0c    	movss  %xmm4,0xc(%rsp)
  40087d:	e8 6e fe ff ff       	callq  4006f0 <__printf_chk@plt>
  400882:	f2 0f 10 1b          	movsd  (%rbx),%xmm3
  400886:	41 ba 7e 00 00 00    	mov    $0x7e,%r10d
  40088c:	45 29 fa             	sub    %r15d,%r10d
  40088f:	b8 80 00 00 00       	mov    $0x80,%eax
  400894:	45 89 f9             	mov    %r15d,%r9d
  400897:	f2 0f 58 5d 00       	addsd  0x0(%rbp),%xmm3
  40089c:	41 d1 ea             	shr    %r10d
  40089f:	44 29 f8             	sub    %r15d,%eax
  4008a2:	41 83 c2 01          	add    $0x1,%r10d
  4008a6:	89 44 24 08          	mov    %eax,0x8(%rsp)
  4008aa:	49 81 c1 20 86 01 00 	add    $0x18620,%r9
  4008b1:	43 8d 04 12          	lea    (%r10,%r10,1),%eax
  4008b5:	49 c1 e1 03          	shl    $0x3,%r9
  4008b9:	41 b8 10 27 00 00    	mov    $0x2710,%r8d
  4008bf:	4e 8d 34 0b          	lea    (%rbx,%r9,1),%r14
  4008c3:	4e 8d 5c 0d 00       	lea    0x0(%rbp,%r9,1),%r11
  4008c8:	4d 01 e1             	add    %r12,%r9
  4008cb:	89 44 24 04          	mov    %eax,0x4(%rsp)
  4008cf:	90                   	nop
  4008d0:	66 0f 28 d3          	movapd %xmm3,%xmm2
  4008d4:	be 0d 03 00 00       	mov    $0x30d,%esi
  4008d9:	31 ff                	xor    %edi,%edi
  4008db:	0f 1f 44 00 00       	nopl   0x0(%rax,%rax,1)
  4008e0:	48 63 c7             	movslq %edi,%rax
  4008e3:	83 ef 80             	sub    $0xffffff80,%edi
  4008e6:	48 c1 e0 03          	shl    $0x3,%rax
  4008ea:	48 8d 0c 03          	lea    (%rbx,%rax,1),%rcx
  4008ee:	48 8d 54 05 00       	lea    0x0(%rbp,%rax,1),%rdx
  4008f3:	4c 01 e0             	add    %r12,%rax
  4008f6:	83 ee 01             	sub    $0x1,%esi
  4008f9:	f2 0f 10 89 f8 03 00 	movsd  0x3f8(%rcx),%xmm1
  400900:	00 
  400901:	f2 0f 10 81 00 04 00 	movsd  0x400(%rcx),%xmm0
  400908:	00 
  400909:	f2 0f 58 8a f8 03 00 	addsd  0x3f8(%rdx),%xmm1
  400910:	00 
  400911:	f2 0f 58 82 00 04 00 	addsd  0x400(%rdx),%xmm0
  400918:	00 
  400919:	f2 0f 11 88 f8 03 00 	movsd  %xmm1,0x3f8(%rax)
  400920:	00 
  400921:	f2 0f 10 89 f0 03 00 	movsd  0x3f0(%rcx),%xmm1
  400928:	00 
  400929:	f2 0f 11 80 00 04 00 	movsd  %xmm0,0x400(%rax)
  400930:	00 
  400931:	f2 0f 58 8a f0 03 00 	addsd  0x3f0(%rdx),%xmm1
  400938:	00 
  400939:	f2 0f 11 88 f0 03 00 	movsd  %xmm1,0x3f0(%rax)
  400940:	00 
  400941:	f2 0f 10 89 e8 03 00 	movsd  0x3e8(%rcx),%xmm1
  400948:	00 
  400949:	f2 0f 58 8a e8 03 00 	addsd  0x3e8(%rdx),%xmm1
  400950:	00 
  400951:	f2 0f 11 88 e8 03 00 	movsd  %xmm1,0x3e8(%rax)
  400958:	00 
  400959:	f2 0f 10 89 e0 03 00 	movsd  0x3e0(%rcx),%xmm1
  400960:	00 
  400961:	f2 0f 58 8a e0 03 00 	addsd  0x3e0(%rdx),%xmm1
  400968:	00 
  400969:	f2 0f 11 88 e0 03 00 	movsd  %xmm1,0x3e0(%rax)
  400970:	00 
  400971:	f2 0f 10 89 d8 03 00 	movsd  0x3d8(%rcx),%xmm1
  400978:	00 
  400979:	f2 0f 58 8a d8 03 00 	addsd  0x3d8(%rdx),%xmm1
  400980:	00 
  400981:	f2 0f 11 88 d8 03 00 	movsd  %xmm1,0x3d8(%rax)
  400988:	00 
  400989:	f2 0f 10 89 d0 03 00 	movsd  0x3d0(%rcx),%xmm1
  400990:	00 
  400991:	f2 0f 58 8a d0 03 00 	addsd  0x3d0(%rdx),%xmm1
  400998:	00 
  400999:	f2 0f 11 88 d0 03 00 	movsd  %xmm1,0x3d0(%rax)
  4009a0:	00 
  4009a1:	f2 0f 10 89 c8 03 00 	movsd  0x3c8(%rcx),%xmm1
  4009a8:	00 
  4009a9:	f2 0f 58 8a c8 03 00 	addsd  0x3c8(%rdx),%xmm1
  4009b0:	00 
  4009b1:	f2 0f 11 88 c8 03 00 	movsd  %xmm1,0x3c8(%rax)
  4009b8:	00 
  4009b9:	f2 0f 10 89 c0 03 00 	movsd  0x3c0(%rcx),%xmm1
  4009c0:	00 
  4009c1:	f2 0f 58 8a c0 03 00 	addsd  0x3c0(%rdx),%xmm1
  4009c8:	00 
  4009c9:	f2 0f 11 88 c0 03 00 	movsd  %xmm1,0x3c0(%rax)
  4009d0:	00 
  4009d1:	f2 0f 10 89 b8 03 00 	movsd  0x3b8(%rcx),%xmm1
  4009d8:	00 
  4009d9:	f2 0f 58 8a b8 03 00 	addsd  0x3b8(%rdx),%xmm1
  4009e0:	00 
  4009e1:	f2 0f 11 88 b8 03 00 	movsd  %xmm1,0x3b8(%rax)
  4009e8:	00 
  4009e9:	f2 0f 10 89 b0 03 00 	movsd  0x3b0(%rcx),%xmm1
  4009f0:	00 
  4009f1:	f2 0f 58 8a b0 03 00 	addsd  0x3b0(%rdx),%xmm1
  4009f8:	00 
  4009f9:	f2 0f 11 88 b0 03 00 	movsd  %xmm1,0x3b0(%rax)
  400a00:	00 
  400a01:	f2 0f 10 89 a8 03 00 	movsd  0x3a8(%rcx),%xmm1
  400a08:	00 
  400a09:	f2 0f 58 8a a8 03 00 	addsd  0x3a8(%rdx),%xmm1
  400a10:	00 
  400a11:	f2 0f 11 88 a8 03 00 	movsd  %xmm1,0x3a8(%rax)
  400a18:	00 
  400a19:	f2 0f 10 89 a0 03 00 	movsd  0x3a0(%rcx),%xmm1
  400a20:	00 
  400a21:	f2 0f 58 8a a0 03 00 	addsd  0x3a0(%rdx),%xmm1
  400a28:	00 
  400a29:	f2 0f 11 88 a0 03 00 	movsd  %xmm1,0x3a0(%rax)
  400a30:	00 
  400a31:	f2 0f 10 89 98 03 00 	movsd  0x398(%rcx),%xmm1
  400a38:	00 
  400a39:	f2 0f 58 8a 98 03 00 	addsd  0x398(%rdx),%xmm1
  400a40:	00 
  400a41:	f2 0f 11 88 98 03 00 	movsd  %xmm1,0x398(%rax)
  400a48:	00 
  400a49:	f2 0f 10 89 90 03 00 	movsd  0x390(%rcx),%xmm1
  400a50:	00 
  400a51:	f2 0f 58 8a 90 03 00 	addsd  0x390(%rdx),%xmm1
  400a58:	00 
  400a59:	f2 0f 11 88 90 03 00 	movsd  %xmm1,0x390(%rax)
  400a60:	00 
  400a61:	f2 0f 10 89 88 03 00 	movsd  0x388(%rcx),%xmm1
  400a68:	00 
  400a69:	f2 0f 58 8a 88 03 00 	addsd  0x388(%rdx),%xmm1
  400a70:	00 
  400a71:	f2 0f 11 88 88 03 00 	movsd  %xmm1,0x388(%rax)
  400a78:	00 
  400a79:	f2 0f 10 89 80 03 00 	movsd  0x380(%rcx),%xmm1
  400a80:	00 
  400a81:	f2 0f 58 8a 80 03 00 	addsd  0x380(%rdx),%xmm1
  400a88:	00 
  400a89:	f2 0f 11 88 80 03 00 	movsd  %xmm1,0x380(%rax)
  400a90:	00 
  400a91:	f2 0f 10 89 78 03 00 	movsd  0x378(%rcx),%xmm1
  400a98:	00 
  400a99:	f2 0f 58 8a 78 03 00 	addsd  0x378(%rdx),%xmm1
  400aa0:	00 
  400aa1:	f2 0f 11 88 78 03 00 	movsd  %xmm1,0x378(%rax)
  400aa8:	00 
  400aa9:	f2 0f 10 89 70 03 00 	movsd  0x370(%rcx),%xmm1
  400ab0:	00 
  400ab1:	f2 0f 58 8a 70 03 00 	addsd  0x370(%rdx),%xmm1
  400ab8:	00 
  400ab9:	f2 0f 11 88 70 03 00 	movsd  %xmm1,0x370(%rax)
  400ac0:	00 
  400ac1:	f2 0f 10 89 68 03 00 	movsd  0x368(%rcx),%xmm1
  400ac8:	00 
  400ac9:	f2 0f 58 8a 68 03 00 	addsd  0x368(%rdx),%xmm1
  400ad0:	00 
  400ad1:	f2 0f 11 88 68 03 00 	movsd  %xmm1,0x368(%rax)
  400ad8:	00 
  400ad9:	f2 0f 10 89 60 03 00 	movsd  0x360(%rcx),%xmm1
  400ae0:	00 
  400ae1:	f2 0f 58 8a 60 03 00 	addsd  0x360(%rdx),%xmm1
  400ae8:	00 
  400ae9:	f2 0f 11 88 60 03 00 	movsd  %xmm1,0x360(%rax)
  400af0:	00 
  400af1:	f2 0f 10 89 58 03 00 	movsd  0x358(%rcx),%xmm1
  400af8:	00 
  400af9:	f2 0f 58 8a 58 03 00 	addsd  0x358(%rdx),%xmm1
  400b00:	00 
  400b01:	f2 0f 11 88 58 03 00 	movsd  %xmm1,0x358(%rax)
  400b08:	00 
  400b09:	f2 0f 10 89 50 03 00 	movsd  0x350(%rcx),%xmm1
  400b10:	00 
  400b11:	f2 0f 58 8a 50 03 00 	addsd  0x350(%rdx),%xmm1
  400b18:	00 
  400b19:	f2 0f 11 88 50 03 00 	movsd  %xmm1,0x350(%rax)
  400b20:	00 
  400b21:	f2 0f 10 89 48 03 00 	movsd  0x348(%rcx),%xmm1
  400b28:	00 
  400b29:	f2 0f 58 8a 48 03 00 	addsd  0x348(%rdx),%xmm1
  400b30:	00 
  400b31:	f2 0f 11 88 48 03 00 	movsd  %xmm1,0x348(%rax)
  400b38:	00 
  400b39:	f2 0f 10 89 40 03 00 	movsd  0x340(%rcx),%xmm1
  400b40:	00 
  400b41:	f2 0f 58 8a 40 03 00 	addsd  0x340(%rdx),%xmm1
  400b48:	00 
  400b49:	f2 0f 11 88 40 03 00 	movsd  %xmm1,0x340(%rax)
  400b50:	00 
  400b51:	f2 0f 10 89 38 03 00 	movsd  0x338(%rcx),%xmm1
  400b58:	00 
  400b59:	f2 0f 58 8a 38 03 00 	addsd  0x338(%rdx),%xmm1
  400b60:	00 
  400b61:	f2 0f 11 88 38 03 00 	movsd  %xmm1,0x338(%rax)
  400b68:	00 
  400b69:	f2 0f 10 89 30 03 00 	movsd  0x330(%rcx),%xmm1
  400b70:	00 
  400b71:	f2 0f 58 8a 30 03 00 	addsd  0x330(%rdx),%xmm1
  400b78:	00 
  400b79:	f2 0f 11 88 30 03 00 	movsd  %xmm1,0x330(%rax)
  400b80:	00 
  400b81:	f2 0f 10 89 28 03 00 	movsd  0x328(%rcx),%xmm1
  400b88:	00 
  400b89:	f2 0f 58 8a 28 03 00 	addsd  0x328(%rdx),%xmm1
  400b90:	00 
  400b91:	f2 0f 11 88 28 03 00 	movsd  %xmm1,0x328(%rax)
  400b98:	00 
  400b99:	f2 0f 10 89 20 03 00 	movsd  0x320(%rcx),%xmm1
  400ba0:	00 
  400ba1:	f2 0f 58 8a 20 03 00 	addsd  0x320(%rdx),%xmm1
  400ba8:	00 
  400ba9:	f2 0f 11 88 20 03 00 	movsd  %xmm1,0x320(%rax)
  400bb0:	00 
  400bb1:	f2 0f 10 89 18 03 00 	movsd  0x318(%rcx),%xmm1
  400bb8:	00 
  400bb9:	f2 0f 58 8a 18 03 00 	addsd  0x318(%rdx),%xmm1
  400bc0:	00 
  400bc1:	f2 0f 11 88 18 03 00 	movsd  %xmm1,0x318(%rax)
  400bc8:	00 
  400bc9:	f2 0f 10 89 10 03 00 	movsd  0x310(%rcx),%xmm1
  400bd0:	00 
  400bd1:	f2 0f 58 8a 10 03 00 	addsd  0x310(%rdx),%xmm1
  400bd8:	00 
  400bd9:	f2 0f 11 88 10 03 00 	movsd  %xmm1,0x310(%rax)
  400be0:	00 
  400be1:	f2 0f 10 89 08 03 00 	movsd  0x308(%rcx),%xmm1
  400be8:	00 
  400be9:	f2 0f 58 8a 08 03 00 	addsd  0x308(%rdx),%xmm1
  400bf0:	00 
  400bf1:	f2 0f 11 88 08 03 00 	movsd  %xmm1,0x308(%rax)
  400bf8:	00 
  400bf9:	f2 0f 10 89 00 03 00 	movsd  0x300(%rcx),%xmm1
  400c00:	00 
  400c01:	f2 0f 58 8a 00 03 00 	addsd  0x300(%rdx),%xmm1
  400c08:	00 
  400c09:	f2 0f 11 88 00 03 00 	movsd  %xmm1,0x300(%rax)
  400c10:	00 
  400c11:	f2 0f 10 89 f8 02 00 	movsd  0x2f8(%rcx),%xmm1
  400c18:	00 
  400c19:	f2 0f 58 8a f8 02 00 	addsd  0x2f8(%rdx),%xmm1
  400c20:	00 
  400c21:	f2 0f 11 88 f8 02 00 	movsd  %xmm1,0x2f8(%rax)
  400c28:	00 
  400c29:	f2 0f 10 89 f0 02 00 	movsd  0x2f0(%rcx),%xmm1
  400c30:	00 
  400c31:	f2 0f 58 8a f0 02 00 	addsd  0x2f0(%rdx),%xmm1
  400c38:	00 
  400c39:	f2 0f 11 88 f0 02 00 	movsd  %xmm1,0x2f0(%rax)
  400c40:	00 
  400c41:	f2 0f 10 89 e8 02 00 	movsd  0x2e8(%rcx),%xmm1
  400c48:	00 
  400c49:	f2 0f 58 8a e8 02 00 	addsd  0x2e8(%rdx),%xmm1
  400c50:	00 
  400c51:	f2 0f 11 88 e8 02 00 	movsd  %xmm1,0x2e8(%rax)
  400c58:	00 
  400c59:	f2 0f 10 89 e0 02 00 	movsd  0x2e0(%rcx),%xmm1
  400c60:	00 
  400c61:	f2 0f 58 8a e0 02 00 	addsd  0x2e0(%rdx),%xmm1
  400c68:	00 
  400c69:	f2 0f 11 88 e0 02 00 	movsd  %xmm1,0x2e0(%rax)
  400c70:	00 
  400c71:	f2 0f 10 89 d8 02 00 	movsd  0x2d8(%rcx),%xmm1
  400c78:	00 
  400c79:	f2 0f 58 8a d8 02 00 	addsd  0x2d8(%rdx),%xmm1
  400c80:	00 
  400c81:	f2 0f 11 88 d8 02 00 	movsd  %xmm1,0x2d8(%rax)
  400c88:	00 
  400c89:	f2 0f 10 89 d0 02 00 	movsd  0x2d0(%rcx),%xmm1
  400c90:	00 
  400c91:	f2 0f 58 8a d0 02 00 	addsd  0x2d0(%rdx),%xmm1
  400c98:	00 
  400c99:	f2 0f 11 88 d0 02 00 	movsd  %xmm1,0x2d0(%rax)
  400ca0:	00 
  400ca1:	f2 0f 10 89 c8 02 00 	movsd  0x2c8(%rcx),%xmm1
  400ca8:	00 
  400ca9:	f2 0f 58 8a c8 02 00 	addsd  0x2c8(%rdx),%xmm1
  400cb0:	00 
  400cb1:	f2 0f 11 88 c8 02 00 	movsd  %xmm1,0x2c8(%rax)
  400cb8:	00 
  400cb9:	f2 0f 10 89 c0 02 00 	movsd  0x2c0(%rcx),%xmm1
  400cc0:	00 
  400cc1:	f2 0f 58 8a c0 02 00 	addsd  0x2c0(%rdx),%xmm1
  400cc8:	00 
  400cc9:	f2 0f 11 88 c0 02 00 	movsd  %xmm1,0x2c0(%rax)
  400cd0:	00 
  400cd1:	f2 0f 10 89 b8 02 00 	movsd  0x2b8(%rcx),%xmm1
  400cd8:	00 
  400cd9:	f2 0f 58 8a b8 02 00 	addsd  0x2b8(%rdx),%xmm1
  400ce0:	00 
  400ce1:	f2 0f 11 88 b8 02 00 	movsd  %xmm1,0x2b8(%rax)
  400ce8:	00 
  400ce9:	f2 0f 10 89 b0 02 00 	movsd  0x2b0(%rcx),%xmm1
  400cf0:	00 
  400cf1:	f2 0f 58 8a b0 02 00 	addsd  0x2b0(%rdx),%xmm1
  400cf8:	00 
  400cf9:	f2 0f 11 88 b0 02 00 	movsd  %xmm1,0x2b0(%rax)
  400d00:	00 
  400d01:	f2 0f 10 89 a8 02 00 	movsd  0x2a8(%rcx),%xmm1
  400d08:	00 
  400d09:	f2 0f 58 8a a8 02 00 	addsd  0x2a8(%rdx),%xmm1
  400d10:	00 
  400d11:	f2 0f 11 88 a8 02 00 	movsd  %xmm1,0x2a8(%rax)
  400d18:	00 
  400d19:	f2 0f 10 89 a0 02 00 	movsd  0x2a0(%rcx),%xmm1
  400d20:	00 
  400d21:	f2 0f 58 8a a0 02 00 	addsd  0x2a0(%rdx),%xmm1
  400d28:	00 
  400d29:	f2 0f 11 88 a0 02 00 	movsd  %xmm1,0x2a0(%rax)
  400d30:	00 
  400d31:	f2 0f 10 89 98 02 00 	movsd  0x298(%rcx),%xmm1
  400d38:	00 
  400d39:	f2 0f 58 8a 98 02 00 	addsd  0x298(%rdx),%xmm1
  400d40:	00 
  400d41:	f2 0f 11 88 98 02 00 	movsd  %xmm1,0x298(%rax)
  400d48:	00 
  400d49:	f2 0f 10 89 90 02 00 	movsd  0x290(%rcx),%xmm1
  400d50:	00 
  400d51:	f2 0f 58 8a 90 02 00 	addsd  0x290(%rdx),%xmm1
  400d58:	00 
  400d59:	f2 0f 11 88 90 02 00 	movsd  %xmm1,0x290(%rax)
  400d60:	00 
  400d61:	f2 0f 10 89 88 02 00 	movsd  0x288(%rcx),%xmm1
  400d68:	00 
  400d69:	f2 0f 58 8a 88 02 00 	addsd  0x288(%rdx),%xmm1
  400d70:	00 
  400d71:	f2 0f 11 88 88 02 00 	movsd  %xmm1,0x288(%rax)
  400d78:	00 
  400d79:	f2 0f 10 89 80 02 00 	movsd  0x280(%rcx),%xmm1
  400d80:	00 
  400d81:	f2 0f 58 8a 80 02 00 	addsd  0x280(%rdx),%xmm1
  400d88:	00 
  400d89:	f2 0f 11 88 80 02 00 	movsd  %xmm1,0x280(%rax)
  400d90:	00 
  400d91:	f2 0f 10 89 78 02 00 	movsd  0x278(%rcx),%xmm1
  400d98:	00 
  400d99:	f2 0f 58 8a 78 02 00 	addsd  0x278(%rdx),%xmm1
  400da0:	00 
  400da1:	f2 0f 11 88 78 02 00 	movsd  %xmm1,0x278(%rax)
  400da8:	00 
  400da9:	f2 0f 10 89 70 02 00 	movsd  0x270(%rcx),%xmm1
  400db0:	00 
  400db1:	f2 0f 58 8a 70 02 00 	addsd  0x270(%rdx),%xmm1
  400db8:	00 
  400db9:	f2 0f 11 88 70 02 00 	movsd  %xmm1,0x270(%rax)
  400dc0:	00 
  400dc1:	f2 0f 10 89 68 02 00 	movsd  0x268(%rcx),%xmm1
  400dc8:	00 
  400dc9:	f2 0f 58 8a 68 02 00 	addsd  0x268(%rdx),%xmm1
  400dd0:	00 
  400dd1:	f2 0f 11 88 68 02 00 	movsd  %xmm1,0x268(%rax)
  400dd8:	00 
  400dd9:	f2 0f 10 89 60 02 00 	movsd  0x260(%rcx),%xmm1
  400de0:	00 
  400de1:	f2 0f 58 8a 60 02 00 	addsd  0x260(%rdx),%xmm1
  400de8:	00 
  400de9:	f2 0f 11 88 60 02 00 	movsd  %xmm1,0x260(%rax)
  400df0:	00 
  400df1:	f2 0f 10 89 58 02 00 	movsd  0x258(%rcx),%xmm1
  400df8:	00 
  400df9:	f2 0f 58 8a 58 02 00 	addsd  0x258(%rdx),%xmm1
  400e00:	00 
  400e01:	f2 0f 11 88 58 02 00 	movsd  %xmm1,0x258(%rax)
  400e08:	00 
  400e09:	f2 0f 10 89 50 02 00 	movsd  0x250(%rcx),%xmm1
  400e10:	00 
  400e11:	f2 0f 58 8a 50 02 00 	addsd  0x250(%rdx),%xmm1
  400e18:	00 
  400e19:	f2 0f 11 88 50 02 00 	movsd  %xmm1,0x250(%rax)
  400e20:	00 
  400e21:	f2 0f 10 89 48 02 00 	movsd  0x248(%rcx),%xmm1
  400e28:	00 
  400e29:	f2 0f 58 8a 48 02 00 	addsd  0x248(%rdx),%xmm1
  400e30:	00 
  400e31:	f2 0f 11 88 48 02 00 	movsd  %xmm1,0x248(%rax)
  400e38:	00 
  400e39:	f2 0f 10 89 40 02 00 	movsd  0x240(%rcx),%xmm1
  400e40:	00 
  400e41:	f2 0f 58 8a 40 02 00 	addsd  0x240(%rdx),%xmm1
  400e48:	00 
  400e49:	f2 0f 11 88 40 02 00 	movsd  %xmm1,0x240(%rax)
  400e50:	00 
  400e51:	f2 0f 10 89 38 02 00 	movsd  0x238(%rcx),%xmm1
  400e58:	00 
  400e59:	f2 0f 58 8a 38 02 00 	addsd  0x238(%rdx),%xmm1
  400e60:	00 
  400e61:	f2 0f 11 88 38 02 00 	movsd  %xmm1,0x238(%rax)
  400e68:	00 
  400e69:	f2 0f 10 89 30 02 00 	movsd  0x230(%rcx),%xmm1
  400e70:	00 
  400e71:	f2 0f 58 8a 30 02 00 	addsd  0x230(%rdx),%xmm1
  400e78:	00 
  400e79:	f2 0f 11 88 30 02 00 	movsd  %xmm1,0x230(%rax)
  400e80:	00 
  400e81:	f2 0f 10 89 28 02 00 	movsd  0x228(%rcx),%xmm1
  400e88:	00 
  400e89:	f2 0f 58 8a 28 02 00 	addsd  0x228(%rdx),%xmm1
  400e90:	00 
  400e91:	f2 0f 11 88 28 02 00 	movsd  %xmm1,0x228(%rax)
  400e98:	00 
  400e99:	f2 0f 10 89 20 02 00 	movsd  0x220(%rcx),%xmm1
  400ea0:	00 
  400ea1:	f2 0f 58 8a 20 02 00 	addsd  0x220(%rdx),%xmm1
  400ea8:	00 
  400ea9:	f2 0f 11 88 20 02 00 	movsd  %xmm1,0x220(%rax)
  400eb0:	00 
  400eb1:	f2 0f 10 89 18 02 00 	movsd  0x218(%rcx),%xmm1
  400eb8:	00 
  400eb9:	f2 0f 58 8a 18 02 00 	addsd  0x218(%rdx),%xmm1
  400ec0:	00 
  400ec1:	f2 0f 11 88 18 02 00 	movsd  %xmm1,0x218(%rax)
  400ec8:	00 
  400ec9:	f2 0f 10 89 10 02 00 	movsd  0x210(%rcx),%xmm1
  400ed0:	00 
  400ed1:	f2 0f 58 8a 10 02 00 	addsd  0x210(%rdx),%xmm1
  400ed8:	00 
  400ed9:	f2 0f 11 88 10 02 00 	movsd  %xmm1,0x210(%rax)
  400ee0:	00 
  400ee1:	f2 0f 10 89 08 02 00 	movsd  0x208(%rcx),%xmm1
  400ee8:	00 
  400ee9:	f2 0f 58 8a 08 02 00 	addsd  0x208(%rdx),%xmm1
  400ef0:	00 
  400ef1:	f2 0f 11 88 08 02 00 	movsd  %xmm1,0x208(%rax)
  400ef8:	00 
  400ef9:	f2 0f 10 89 00 02 00 	movsd  0x200(%rcx),%xmm1
  400f00:	00 
  400f01:	f2 0f 58 8a 00 02 00 	addsd  0x200(%rdx),%xmm1
  400f08:	00 
  400f09:	f2 0f 11 88 00 02 00 	movsd  %xmm1,0x200(%rax)
  400f10:	00 
  400f11:	f2 0f 10 89 f8 01 00 	movsd  0x1f8(%rcx),%xmm1
  400f18:	00 
  400f19:	f2 0f 58 8a f8 01 00 	addsd  0x1f8(%rdx),%xmm1
  400f20:	00 
  400f21:	f2 0f 11 88 f8 01 00 	movsd  %xmm1,0x1f8(%rax)
  400f28:	00 
  400f29:	f2 0f 10 89 f0 01 00 	movsd  0x1f0(%rcx),%xmm1
  400f30:	00 
  400f31:	f2 0f 58 8a f0 01 00 	addsd  0x1f0(%rdx),%xmm1
  400f38:	00 
  400f39:	f2 0f 11 88 f0 01 00 	movsd  %xmm1,0x1f0(%rax)
  400f40:	00 
  400f41:	f2 0f 10 89 e8 01 00 	movsd  0x1e8(%rcx),%xmm1
  400f48:	00 
  400f49:	f2 0f 58 8a e8 01 00 	addsd  0x1e8(%rdx),%xmm1
  400f50:	00 
  400f51:	f2 0f 11 88 e8 01 00 	movsd  %xmm1,0x1e8(%rax)
  400f58:	00 
  400f59:	f2 0f 10 89 e0 01 00 	movsd  0x1e0(%rcx),%xmm1
  400f60:	00 
  400f61:	f2 0f 58 8a e0 01 00 	addsd  0x1e0(%rdx),%xmm1
  400f68:	00 
  400f69:	f2 0f 11 88 e0 01 00 	movsd  %xmm1,0x1e0(%rax)
  400f70:	00 
  400f71:	f2 0f 10 89 d8 01 00 	movsd  0x1d8(%rcx),%xmm1
  400f78:	00 
  400f79:	f2 0f 58 8a d8 01 00 	addsd  0x1d8(%rdx),%xmm1
  400f80:	00 
  400f81:	f2 0f 11 88 d8 01 00 	movsd  %xmm1,0x1d8(%rax)
  400f88:	00 
  400f89:	f2 0f 10 89 d0 01 00 	movsd  0x1d0(%rcx),%xmm1
  400f90:	00 
  400f91:	f2 0f 58 8a d0 01 00 	addsd  0x1d0(%rdx),%xmm1
  400f98:	00 
  400f99:	f2 0f 11 88 d0 01 00 	movsd  %xmm1,0x1d0(%rax)
  400fa0:	00 
  400fa1:	f2 0f 10 89 c8 01 00 	movsd  0x1c8(%rcx),%xmm1
  400fa8:	00 
  400fa9:	f2 0f 58 8a c8 01 00 	addsd  0x1c8(%rdx),%xmm1
  400fb0:	00 
  400fb1:	f2 0f 11 88 c8 01 00 	movsd  %xmm1,0x1c8(%rax)
  400fb8:	00 
  400fb9:	f2 0f 10 89 c0 01 00 	movsd  0x1c0(%rcx),%xmm1
  400fc0:	00 
  400fc1:	f2 0f 58 8a c0 01 00 	addsd  0x1c0(%rdx),%xmm1
  400fc8:	00 
  400fc9:	f2 0f 11 88 c0 01 00 	movsd  %xmm1,0x1c0(%rax)
  400fd0:	00 
  400fd1:	f2 0f 10 89 b8 01 00 	movsd  0x1b8(%rcx),%xmm1
  400fd8:	00 
  400fd9:	f2 0f 58 8a b8 01 00 	addsd  0x1b8(%rdx),%xmm1
  400fe0:	00 
  400fe1:	f2 0f 11 88 b8 01 00 	movsd  %xmm1,0x1b8(%rax)
  400fe8:	00 
  400fe9:	f2 0f 10 89 b0 01 00 	movsd  0x1b0(%rcx),%xmm1
  400ff0:	00 
  400ff1:	f2 0f 58 8a b0 01 00 	addsd  0x1b0(%rdx),%xmm1
  400ff8:	00 
  400ff9:	f2 0f 11 88 b0 01 00 	movsd  %xmm1,0x1b0(%rax)
  401000:	00 
  401001:	f2 0f 10 89 a8 01 00 	movsd  0x1a8(%rcx),%xmm1
  401008:	00 
  401009:	f2 0f 58 8a a8 01 00 	addsd  0x1a8(%rdx),%xmm1
  401010:	00 
  401011:	f2 0f 11 88 a8 01 00 	movsd  %xmm1,0x1a8(%rax)
  401018:	00 
  401019:	f2 0f 10 89 a0 01 00 	movsd  0x1a0(%rcx),%xmm1
  401020:	00 
  401021:	f2 0f 58 8a a0 01 00 	addsd  0x1a0(%rdx),%xmm1
  401028:	00 
  401029:	f2 0f 11 88 a0 01 00 	movsd  %xmm1,0x1a0(%rax)
  401030:	00 
  401031:	f2 0f 10 89 98 01 00 	movsd  0x198(%rcx),%xmm1
  401038:	00 
  401039:	f2 0f 58 8a 98 01 00 	addsd  0x198(%rdx),%xmm1
  401040:	00 
  401041:	f2 0f 11 88 98 01 00 	movsd  %xmm1,0x198(%rax)
  401048:	00 
  401049:	f2 0f 10 89 90 01 00 	movsd  0x190(%rcx),%xmm1
  401050:	00 
  401051:	f2 0f 58 8a 90 01 00 	addsd  0x190(%rdx),%xmm1
  401058:	00 
  401059:	f2 0f 11 88 90 01 00 	movsd  %xmm1,0x190(%rax)
  401060:	00 
  401061:	f2 0f 10 89 88 01 00 	movsd  0x188(%rcx),%xmm1
  401068:	00 
  401069:	f2 0f 58 8a 88 01 00 	addsd  0x188(%rdx),%xmm1
  401070:	00 
  401071:	f2 0f 11 88 88 01 00 	movsd  %xmm1,0x188(%rax)
  401078:	00 
  401079:	f2 0f 10 89 80 01 00 	movsd  0x180(%rcx),%xmm1
  401080:	00 
  401081:	f2 0f 58 8a 80 01 00 	addsd  0x180(%rdx),%xmm1
  401088:	00 
  401089:	f2 0f 11 88 80 01 00 	movsd  %xmm1,0x180(%rax)
  401090:	00 
  401091:	f2 0f 10 89 78 01 00 	movsd  0x178(%rcx),%xmm1
  401098:	00 
  401099:	f2 0f 58 8a 78 01 00 	addsd  0x178(%rdx),%xmm1
  4010a0:	00 
  4010a1:	f2 0f 11 88 78 01 00 	movsd  %xmm1,0x178(%rax)
  4010a8:	00 
  4010a9:	f2 0f 10 89 70 01 00 	movsd  0x170(%rcx),%xmm1
  4010b0:	00 
  4010b1:	f2 0f 58 8a 70 01 00 	addsd  0x170(%rdx),%xmm1
  4010b8:	00 
  4010b9:	f2 0f 11 88 70 01 00 	movsd  %xmm1,0x170(%rax)
  4010c0:	00 
  4010c1:	f2 0f 10 89 68 01 00 	movsd  0x168(%rcx),%xmm1
  4010c8:	00 
  4010c9:	f2 0f 58 8a 68 01 00 	addsd  0x168(%rdx),%xmm1
  4010d0:	00 
  4010d1:	f2 0f 11 88 68 01 00 	movsd  %xmm1,0x168(%rax)
  4010d8:	00 
  4010d9:	f2 0f 10 89 60 01 00 	movsd  0x160(%rcx),%xmm1
  4010e0:	00 
  4010e1:	f2 0f 58 8a 60 01 00 	addsd  0x160(%rdx),%xmm1
  4010e8:	00 
  4010e9:	f2 0f 11 88 60 01 00 	movsd  %xmm1,0x160(%rax)
  4010f0:	00 
  4010f1:	f2 0f 10 89 58 01 00 	movsd  0x158(%rcx),%xmm1
  4010f8:	00 
  4010f9:	f2 0f 58 8a 58 01 00 	addsd  0x158(%rdx),%xmm1
  401100:	00 
  401101:	f2 0f 11 88 58 01 00 	movsd  %xmm1,0x158(%rax)
  401108:	00 
  401109:	f2 0f 10 89 50 01 00 	movsd  0x150(%rcx),%xmm1
  401110:	00 
  401111:	f2 0f 58 8a 50 01 00 	addsd  0x150(%rdx),%xmm1
  401118:	00 
  401119:	f2 0f 11 88 50 01 00 	movsd  %xmm1,0x150(%rax)
  401120:	00 
  401121:	f2 0f 10 89 48 01 00 	movsd  0x148(%rcx),%xmm1
  401128:	00 
  401129:	f2 0f 58 8a 48 01 00 	addsd  0x148(%rdx),%xmm1
  401130:	00 
  401131:	f2 0f 11 88 48 01 00 	movsd  %xmm1,0x148(%rax)
  401138:	00 
  401139:	f2 0f 10 89 40 01 00 	movsd  0x140(%rcx),%xmm1
  401140:	00 
  401141:	f2 0f 58 8a 40 01 00 	addsd  0x140(%rdx),%xmm1
  401148:	00 
  401149:	f2 0f 11 88 40 01 00 	movsd  %xmm1,0x140(%rax)
  401150:	00 
  401151:	f2 0f 10 89 38 01 00 	movsd  0x138(%rcx),%xmm1
  401158:	00 
  401159:	f2 0f 58 8a 38 01 00 	addsd  0x138(%rdx),%xmm1
  401160:	00 
  401161:	f2 0f 11 88 38 01 00 	movsd  %xmm1,0x138(%rax)
  401168:	00 
  401169:	f2 0f 10 89 30 01 00 	movsd  0x130(%rcx),%xmm1
  401170:	00 
  401171:	f2 0f 58 8a 30 01 00 	addsd  0x130(%rdx),%xmm1
  401178:	00 
  401179:	f2 0f 11 88 30 01 00 	movsd  %xmm1,0x130(%rax)
  401180:	00 
  401181:	f2 0f 10 89 28 01 00 	movsd  0x128(%rcx),%xmm1
  401188:	00 
  401189:	f2 0f 58 8a 28 01 00 	addsd  0x128(%rdx),%xmm1
  401190:	00 
  401191:	f2 0f 11 88 28 01 00 	movsd  %xmm1,0x128(%rax)
  401198:	00 
  401199:	f2 0f 10 89 20 01 00 	movsd  0x120(%rcx),%xmm1
  4011a0:	00 
  4011a1:	f2 0f 58 8a 20 01 00 	addsd  0x120(%rdx),%xmm1
  4011a8:	00 
  4011a9:	f2 0f 11 88 20 01 00 	movsd  %xmm1,0x120(%rax)
  4011b0:	00 
  4011b1:	f2 0f 10 89 18 01 00 	movsd  0x118(%rcx),%xmm1
  4011b8:	00 
  4011b9:	f2 0f 58 8a 18 01 00 	addsd  0x118(%rdx),%xmm1
  4011c0:	00 
  4011c1:	f2 0f 11 88 18 01 00 	movsd  %xmm1,0x118(%rax)
  4011c8:	00 
  4011c9:	f2 0f 10 89 10 01 00 	movsd  0x110(%rcx),%xmm1
  4011d0:	00 
  4011d1:	f2 0f 58 8a 10 01 00 	addsd  0x110(%rdx),%xmm1
  4011d8:	00 
  4011d9:	f2 0f 11 88 10 01 00 	movsd  %xmm1,0x110(%rax)
  4011e0:	00 
  4011e1:	f2 0f 10 89 08 01 00 	movsd  0x108(%rcx),%xmm1
  4011e8:	00 
  4011e9:	f2 0f 58 8a 08 01 00 	addsd  0x108(%rdx),%xmm1
  4011f0:	00 
  4011f1:	f2 0f 11 88 08 01 00 	movsd  %xmm1,0x108(%rax)
  4011f8:	00 
  4011f9:	f2 0f 10 89 00 01 00 	movsd  0x100(%rcx),%xmm1
  401200:	00 
  401201:	f2 0f 58 8a 00 01 00 	addsd  0x100(%rdx),%xmm1
  401208:	00 
  401209:	f2 0f 11 88 00 01 00 	movsd  %xmm1,0x100(%rax)
  401210:	00 
  401211:	f2 0f 10 89 f8 00 00 	movsd  0xf8(%rcx),%xmm1
  401218:	00 
  401219:	f2 0f 58 8a f8 00 00 	addsd  0xf8(%rdx),%xmm1
  401220:	00 
  401221:	f2 0f 11 88 f8 00 00 	movsd  %xmm1,0xf8(%rax)
  401228:	00 
  401229:	f2 0f 10 89 f0 00 00 	movsd  0xf0(%rcx),%xmm1
  401230:	00 
  401231:	f2 0f 58 8a f0 00 00 	addsd  0xf0(%rdx),%xmm1
  401238:	00 
  401239:	f2 0f 11 88 f0 00 00 	movsd  %xmm1,0xf0(%rax)
  401240:	00 
  401241:	f2 0f 10 89 e8 00 00 	movsd  0xe8(%rcx),%xmm1
  401248:	00 
  401249:	f2 0f 58 8a e8 00 00 	addsd  0xe8(%rdx),%xmm1
  401250:	00 
  401251:	f2 0f 11 88 e8 00 00 	movsd  %xmm1,0xe8(%rax)
  401258:	00 
  401259:	f2 0f 10 89 e0 00 00 	movsd  0xe0(%rcx),%xmm1
  401260:	00 
  401261:	f2 0f 58 8a e0 00 00 	addsd  0xe0(%rdx),%xmm1
  401268:	00 
  401269:	f2 0f 11 88 e0 00 00 	movsd  %xmm1,0xe0(%rax)
  401270:	00 
  401271:	f2 0f 10 89 d8 00 00 	movsd  0xd8(%rcx),%xmm1
  401278:	00 
  401279:	f2 0f 58 8a d8 00 00 	addsd  0xd8(%rdx),%xmm1
  401280:	00 
  401281:	f2 0f 11 88 d8 00 00 	movsd  %xmm1,0xd8(%rax)
  401288:	00 
  401289:	f2 0f 10 89 d0 00 00 	movsd  0xd0(%rcx),%xmm1
  401290:	00 
  401291:	f2 0f 58 8a d0 00 00 	addsd  0xd0(%rdx),%xmm1
  401298:	00 
  401299:	f2 0f 11 88 d0 00 00 	movsd  %xmm1,0xd0(%rax)
  4012a0:	00 
  4012a1:	f2 0f 10 89 c8 00 00 	movsd  0xc8(%rcx),%xmm1
  4012a8:	00 
  4012a9:	f2 0f 58 8a c8 00 00 	addsd  0xc8(%rdx),%xmm1
  4012b0:	00 
  4012b1:	f2 0f 11 88 c8 00 00 	movsd  %xmm1,0xc8(%rax)
  4012b8:	00 
  4012b9:	f2 0f 10 89 c0 00 00 	movsd  0xc0(%rcx),%xmm1
  4012c0:	00 
  4012c1:	f2 0f 58 8a c0 00 00 	addsd  0xc0(%rdx),%xmm1
  4012c8:	00 
  4012c9:	f2 0f 11 88 c0 00 00 	movsd  %xmm1,0xc0(%rax)
  4012d0:	00 
  4012d1:	f2 0f 10 89 b8 00 00 	movsd  0xb8(%rcx),%xmm1
  4012d8:	00 
  4012d9:	f2 0f 58 8a b8 00 00 	addsd  0xb8(%rdx),%xmm1
  4012e0:	00 
  4012e1:	f2 0f 11 88 b8 00 00 	movsd  %xmm1,0xb8(%rax)
  4012e8:	00 
  4012e9:	f2 0f 10 89 b0 00 00 	movsd  0xb0(%rcx),%xmm1
  4012f0:	00 
  4012f1:	f2 0f 58 8a b0 00 00 	addsd  0xb0(%rdx),%xmm1
  4012f8:	00 
  4012f9:	f2 0f 11 88 b0 00 00 	movsd  %xmm1,0xb0(%rax)
  401300:	00 
  401301:	f2 0f 10 89 a8 00 00 	movsd  0xa8(%rcx),%xmm1
  401308:	00 
  401309:	f2 0f 58 8a a8 00 00 	addsd  0xa8(%rdx),%xmm1
  401310:	00 
  401311:	f2 0f 11 88 a8 00 00 	movsd  %xmm1,0xa8(%rax)
  401318:	00 
  401319:	f2 0f 10 89 a0 00 00 	movsd  0xa0(%rcx),%xmm1
  401320:	00 
  401321:	f2 0f 58 8a a0 00 00 	addsd  0xa0(%rdx),%xmm1
  401328:	00 
  401329:	f2 0f 11 88 a0 00 00 	movsd  %xmm1,0xa0(%rax)
  401330:	00 
  401331:	f2 0f 10 89 98 00 00 	movsd  0x98(%rcx),%xmm1
  401338:	00 
  401339:	f2 0f 58 8a 98 00 00 	addsd  0x98(%rdx),%xmm1
  401340:	00 
  401341:	f2 0f 11 88 98 00 00 	movsd  %xmm1,0x98(%rax)
  401348:	00 
  401349:	f2 0f 10 89 90 00 00 	movsd  0x90(%rcx),%xmm1
  401350:	00 
  401351:	f2 0f 58 8a 90 00 00 	addsd  0x90(%rdx),%xmm1
  401358:	00 
  401359:	f2 0f 11 88 90 00 00 	movsd  %xmm1,0x90(%rax)
  401360:	00 
  401361:	f2 0f 10 89 88 00 00 	movsd  0x88(%rcx),%xmm1
  401368:	00 
  401369:	f2 0f 58 8a 88 00 00 	addsd  0x88(%rdx),%xmm1
  401370:	00 
  401371:	f2 0f 11 88 88 00 00 	movsd  %xmm1,0x88(%rax)
  401378:	00 
  401379:	f2 0f 10 89 80 00 00 	movsd  0x80(%rcx),%xmm1
  401380:	00 
  401381:	f2 0f 58 8a 80 00 00 	addsd  0x80(%rdx),%xmm1
  401388:	00 
  401389:	f2 0f 11 88 80 00 00 	movsd  %xmm1,0x80(%rax)
  401390:	00 
  401391:	f2 0f 10 49 78       	movsd  0x78(%rcx),%xmm1
  401396:	f2 0f 58 4a 78       	addsd  0x78(%rdx),%xmm1
  40139b:	f2 0f 11 48 78       	movsd  %xmm1,0x78(%rax)
  4013a0:	f2 0f 10 49 70       	movsd  0x70(%rcx),%xmm1
  4013a5:	f2 0f 58 4a 70       	addsd  0x70(%rdx),%xmm1
  4013aa:	f2 0f 11 48 70       	movsd  %xmm1,0x70(%rax)
  4013af:	f2 0f 10 49 68       	movsd  0x68(%rcx),%xmm1
  4013b4:	f2 0f 58 4a 68       	addsd  0x68(%rdx),%xmm1
  4013b9:	f2 0f 11 48 68       	movsd  %xmm1,0x68(%rax)
  4013be:	f2 0f 10 49 60       	movsd  0x60(%rcx),%xmm1
  4013c3:	f2 0f 58 4a 60       	addsd  0x60(%rdx),%xmm1
  4013c8:	f2 0f 11 48 60       	movsd  %xmm1,0x60(%rax)
  4013cd:	f2 0f 10 49 58       	movsd  0x58(%rcx),%xmm1
  4013d2:	f2 0f 58 4a 58       	addsd  0x58(%rdx),%xmm1
  4013d7:	f2 0f 11 48 58       	movsd  %xmm1,0x58(%rax)
  4013dc:	f2 0f 10 49 50       	movsd  0x50(%rcx),%xmm1
  4013e1:	f2 0f 58 4a 50       	addsd  0x50(%rdx),%xmm1
  4013e6:	f2 0f 11 48 50       	movsd  %xmm1,0x50(%rax)
  4013eb:	f2 0f 10 49 48       	movsd  0x48(%rcx),%xmm1
  4013f0:	f2 0f 58 4a 48       	addsd  0x48(%rdx),%xmm1
  4013f5:	f2 0f 11 48 48       	movsd  %xmm1,0x48(%rax)
  4013fa:	f2 0f 10 49 40       	movsd  0x40(%rcx),%xmm1
  4013ff:	f2 0f 58 4a 40       	addsd  0x40(%rdx),%xmm1
  401404:	f2 0f 11 48 40       	movsd  %xmm1,0x40(%rax)
  401409:	f2 0f 10 49 38       	movsd  0x38(%rcx),%xmm1
  40140e:	f2 0f 11 10          	movsd  %xmm2,(%rax)
  401412:	66 0f 28 d0          	movapd %xmm0,%xmm2
  401416:	f2 0f 58 4a 38       	addsd  0x38(%rdx),%xmm1
  40141b:	f2 0f 11 48 38       	movsd  %xmm1,0x38(%rax)
  401420:	f2 0f 10 49 30       	movsd  0x30(%rcx),%xmm1
  401425:	f2 0f 58 4a 30       	addsd  0x30(%rdx),%xmm1
  40142a:	f2 0f 11 48 30       	movsd  %xmm1,0x30(%rax)
  40142f:	f2 0f 10 49 28       	movsd  0x28(%rcx),%xmm1
  401434:	f2 0f 58 4a 28       	addsd  0x28(%rdx),%xmm1
  401439:	f2 0f 11 48 28       	movsd  %xmm1,0x28(%rax)
  40143e:	f2 0f 10 49 20       	movsd  0x20(%rcx),%xmm1
  401443:	f2 0f 58 4a 20       	addsd  0x20(%rdx),%xmm1
  401448:	f2 0f 11 48 20       	movsd  %xmm1,0x20(%rax)
  40144d:	f2 0f 10 49 18       	movsd  0x18(%rcx),%xmm1
  401452:	f2 0f 58 4a 18       	addsd  0x18(%rdx),%xmm1
  401457:	f2 0f 11 48 18       	movsd  %xmm1,0x18(%rax)
  40145c:	f2 0f 10 49 10       	movsd  0x10(%rcx),%xmm1
  401461:	f2 0f 58 4a 10       	addsd  0x10(%rdx),%xmm1
  401466:	f2 0f 11 48 10       	movsd  %xmm1,0x10(%rax)
  40146b:	f2 0f 10 49 08       	movsd  0x8(%rcx),%xmm1
  401470:	f2 0f 58 4a 08       	addsd  0x8(%rdx),%xmm1
  401475:	f2 0f 11 48 08       	movsd  %xmm1,0x8(%rax)
  40147a:	0f 85 60 f4 ff ff    	jne    4008e0 <main+0x150>
  401480:	45 85 ff             	test   %r15d,%r15d
  401483:	ba 20 86 01 00       	mov    $0x18620,%edx
  401488:	74 1f                	je     4014a9 <main+0xd19>
  40148a:	f2 0f 10 85 00 31 0c 	movsd  0xc3100(%rbp),%xmm0
  401491:	00 
  401492:	ba 21 86 01 00       	mov    $0x18621,%edx
  401497:	f2 0f 58 83 00 31 0c 	addsd  0xc3100(%rbx),%xmm0
  40149e:	00 
  40149f:	f2 41 0f 11 84 24 00 	movsd  %xmm0,0xc3100(%r12)
  4014a6:	31 0c 00 
  4014a9:	31 c0                	xor    %eax,%eax
  4014ab:	0f 1f 44 00 00       	nopl   0x0(%rax,%rax,1)
  4014b0:	83 c6 01             	add    $0x1,%esi
  4014b3:	66 41 0f 10 04 03    	movupd (%r11,%rax,1),%xmm0
  4014b9:	66 41 0f 58 04 06    	addpd  (%r14,%rax,1),%xmm0
  4014bf:	41 0f 11 04 01       	movups %xmm0,(%r9,%rax,1)
  4014c4:	48 83 c0 10          	add    $0x10,%rax
  4014c8:	41 39 f2             	cmp    %esi,%r10d
  4014cb:	77 e3                	ja     4014b0 <main+0xd20>
  4014cd:	8b 74 24 04          	mov    0x4(%rsp),%esi
  4014d1:	89 f0                	mov    %esi,%eax
  4014d3:	01 d0                	add    %edx,%eax
  4014d5:	3b 74 24 08          	cmp    0x8(%rsp),%esi
  4014d9:	74 13                	je     4014ee <main+0xd5e>
  4014db:	48 98                	cltq   
  4014dd:	f2 0f 10 44 c5 00    	movsd  0x0(%rbp,%rax,8),%xmm0
  4014e3:	f2 0f 58 04 c3       	addsd  (%rbx,%rax,8),%xmm0
  4014e8:	f2 41 0f 11 04 c4    	movsd  %xmm0,(%r12,%rax,8)
  4014ee:	41 83 e8 01          	sub    $0x1,%r8d
  4014f2:	0f 85 d8 f3 ff ff    	jne    4008d0 <main+0x140>
  4014f8:	e8 53 f2 ff ff       	callq  400750 <omp_get_wtime@plt>
  4014fd:	66 0f ef c9          	pxor   %xmm1,%xmm1
  401501:	be 38 34 40 00       	mov    $0x403438,%esi
  401506:	bf 01 00 00 00       	mov    $0x1,%edi
  40150b:	b8 02 00 00 00       	mov    $0x2,%eax
  401510:	41 be a0 86 01 00    	mov    $0x186a0,%r14d
  401516:	f3 0f 5a 4c 24 0c    	cvtss2sd 0xc(%rsp),%xmm1
  40151c:	f2 0f 5c c1          	subsd  %xmm1,%xmm0
  401520:	f2 0f 5a c0          	cvtsd2ss %xmm0,%xmm0
  401524:	f3 0f 5a c0          	cvtss2sd %xmm0,%xmm0
  401528:	66 0f 28 c8          	movapd %xmm0,%xmm1
  40152c:	e8 bf f1 ff ff       	callq  4006f0 <__printf_chk@plt>
  401531:	e8 1a f2 ff ff       	callq  400750 <omp_get_wtime@plt>
  401536:	66 0f ef f6          	pxor   %xmm6,%xmm6
  40153a:	be 60 34 40 00       	mov    $0x403460,%esi
  40153f:	bf 01 00 00 00       	mov    $0x1,%edi
  401544:	31 c0                	xor    %eax,%eax
  401546:	f2 0f 5a f0          	cvtsd2ss %xmm0,%xmm6
  40154a:	f3 0f 11 74 24 04    	movss  %xmm6,0x4(%rsp)
  401550:	e8 9b f1 ff ff       	callq  4006f0 <__printf_chk@plt>
  401555:	49 89 da             	mov    %rbx,%r10
  401558:	b9 9e 86 01 00       	mov    $0x1869e,%ecx
  40155d:	41 b9 10 27 00 00    	mov    $0x2710,%r9d
  401563:	49 c1 e2 3c          	shl    $0x3c,%r10
  401567:	49 c1 ea 3f          	shr    $0x3f,%r10
  40156b:	44 29 d1             	sub    %r10d,%ecx
  40156e:	44 89 d6             	mov    %r10d,%esi
  401571:	45 29 d6             	sub    %r10d,%r14d
  401574:	d1 e9                	shr    %ecx
  401576:	48 c1 e6 03          	shl    $0x3,%rsi
  40157a:	83 c1 01             	add    $0x1,%ecx
  40157d:	4c 8d 04 33          	lea    (%rbx,%rsi,1),%r8
  401581:	48 8d 7c 35 00       	lea    0x0(%rbp,%rsi,1),%rdi
  401586:	44 8d 1c 09          	lea    (%rcx,%rcx,1),%r11d
  40158a:	4c 01 ee             	add    %r13,%rsi
  40158d:	0f 1f 00             	nopl   (%rax)
  401590:	45 31 ff             	xor    %r15d,%r15d
  401593:	45 85 d2             	test   %r10d,%r10d
  401596:	74 15                	je     4015ad <main+0xe1d>
  401598:	f2 0f 10 45 00       	movsd  0x0(%rbp),%xmm0
  40159d:	41 bf 01 00 00 00    	mov    $0x1,%r15d
  4015a3:	f2 0f 58 03          	addsd  (%rbx),%xmm0
  4015a7:	f2 41 0f 11 45 00    	movsd  %xmm0,0x0(%r13)
  4015ad:	31 d2                	xor    %edx,%edx
  4015af:	31 c0                	xor    %eax,%eax
  4015b1:	0f 1f 80 00 00 00 00 	nopl   0x0(%rax)
  4015b8:	83 c2 01             	add    $0x1,%edx
  4015bb:	66 0f 10 04 07       	movupd (%rdi,%rax,1),%xmm0
  4015c0:	66 41 0f 58 04 00    	addpd  (%r8,%rax,1),%xmm0
  4015c6:	0f 11 04 06          	movups %xmm0,(%rsi,%rax,1)
  4015ca:	48 83 c0 10          	add    $0x10,%rax
  4015ce:	39 ca                	cmp    %ecx,%edx
  4015d0:	72 e6                	jb     4015b8 <main+0xe28>
  4015d2:	45 39 f3             	cmp    %r14d,%r11d
  4015d5:	43 8d 04 1f          	lea    (%r15,%r11,1),%eax
  4015d9:	74 14                	je     4015ef <main+0xe5f>
  4015db:	48 98                	cltq   
  4015dd:	f2 0f 10 44 c5 00    	movsd  0x0(%rbp,%rax,8),%xmm0
  4015e3:	f2 0f 58 04 c3       	addsd  (%rbx,%rax,8),%xmm0
  4015e8:	f2 41 0f 11 44 c5 00 	movsd  %xmm0,0x0(%r13,%rax,8)
  4015ef:	41 83 e9 01          	sub    $0x1,%r9d
  4015f3:	75 9b                	jne    401590 <main+0xe00>
  4015f5:	e8 56 f1 ff ff       	callq  400750 <omp_get_wtime@plt>
  4015fa:	66 0f ef c9          	pxor   %xmm1,%xmm1
  4015fe:	be 38 34 40 00       	mov    $0x403438,%esi
  401603:	bf 01 00 00 00       	mov    $0x1,%edi
  401608:	b8 02 00 00 00       	mov    $0x2,%eax
  40160d:	f3 0f 5a 4c 24 04    	cvtss2sd 0x4(%rsp),%xmm1
  401613:	f2 0f 5c c1          	subsd  %xmm1,%xmm0
  401617:	f2 0f 5a c0          	cvtsd2ss %xmm0,%xmm0
  40161b:	f3 0f 5a c0          	cvtss2sd %xmm0,%xmm0
  40161f:	66 0f 28 c8          	movapd %xmm0,%xmm1
  401623:	e8 c8 f0 ff ff       	callq  4006f0 <__printf_chk@plt>
  401628:	4c 89 e7             	mov    %r12,%rdi
  40162b:	e8 00 f1 ff ff       	callq  400730 <_ZdaPv@plt>
  401630:	4c 89 ef             	mov    %r13,%rdi
  401633:	e8 f8 f0 ff ff       	callq  400730 <_ZdaPv@plt>
  401638:	48 89 df             	mov    %rbx,%rdi
  40163b:	e8 f0 f0 ff ff       	callq  400730 <_ZdaPv@plt>
  401640:	48 83 c4 18          	add    $0x18,%rsp
  401644:	31 c0                	xor    %eax,%eax
  401646:	5b                   	pop    %rbx
  401647:	5d                   	pop    %rbp
  401648:	41 5c                	pop    %r12
  40164a:	41 5d                	pop    %r13
  40164c:	41 5e                	pop    %r14
  40164e:	41 5f                	pop    %r15
  401650:	c3                   	retq   
  401651:	0f 1f 44 00 00       	nopl   0x0(%rax,%rax,1)
  401656:	66 2e 0f 1f 84 00 00 	nopw   %cs:0x0(%rax,%rax,1)
  40165d:	00 00 00 

0000000000401660 <_GLOBAL__sub_I__Z3addPdS_S_i>:
  401660:	48 83 ec 08          	sub    $0x8,%rsp
  401664:	bf 71 40 60 00       	mov    $0x604071,%edi
  401669:	e8 d2 f0 ff ff       	callq  400740 <_ZNSt8ios_base4InitC1Ev@plt>
  40166e:	ba 68 40 60 00       	mov    $0x604068,%edx
  401673:	be 71 40 60 00       	mov    $0x604071,%esi
  401678:	bf 70 07 40 00       	mov    $0x400770,%edi
  40167d:	48 83 c4 08          	add    $0x8,%rsp
  401681:	e9 9a f0 ff ff       	jmpq   400720 <__cxa_atexit@plt>
  401686:	66 2e 0f 1f 84 00 00 	nopw   %cs:0x0(%rax,%rax,1)
  40168d:	00 00 00 

0000000000401690 <_start>:
  401690:	31 ed                	xor    %ebp,%ebp
  401692:	49 89 d1             	mov    %rdx,%r9
  401695:	5e                   	pop    %rsi
  401696:	48 89 e2             	mov    %rsp,%rdx
  401699:	48 83 e4 f0          	and    $0xfffffffffffffff0,%rsp
  40169d:	50                   	push   %rax
  40169e:	54                   	push   %rsp
  40169f:	49 c7 c0 f0 33 40 00 	mov    $0x4033f0,%r8
  4016a6:	48 c7 c1 80 33 40 00 	mov    $0x403380,%rcx
  4016ad:	48 c7 c7 90 07 40 00 	mov    $0x400790,%rdi
  4016b4:	e8 a7 f0 ff ff       	callq  400760 <__libc_start_main@plt>
  4016b9:	f4                   	hlt    
  4016ba:	66 0f 1f 44 00 00    	nopw   0x0(%rax,%rax,1)

00000000004016c0 <deregister_tm_clones>:
  4016c0:	b8 77 40 60 00       	mov    $0x604077,%eax
  4016c5:	55                   	push   %rbp
  4016c6:	48 2d 70 40 60 00    	sub    $0x604070,%rax
  4016cc:	48 83 f8 0e          	cmp    $0xe,%rax
  4016d0:	48 89 e5             	mov    %rsp,%rbp
  4016d3:	76 1b                	jbe    4016f0 <deregister_tm_clones+0x30>
  4016d5:	b8 00 00 00 00       	mov    $0x0,%eax
  4016da:	48 85 c0             	test   %rax,%rax
  4016dd:	74 11                	je     4016f0 <deregister_tm_clones+0x30>
  4016df:	5d                   	pop    %rbp
  4016e0:	bf 70 40 60 00       	mov    $0x604070,%edi
  4016e5:	ff e0                	jmpq   *%rax
  4016e7:	66 0f 1f 84 00 00 00 	nopw   0x0(%rax,%rax,1)
  4016ee:	00 00 
  4016f0:	5d                   	pop    %rbp
  4016f1:	c3                   	retq   
  4016f2:	0f 1f 40 00          	nopl   0x0(%rax)
  4016f6:	66 2e 0f 1f 84 00 00 	nopw   %cs:0x0(%rax,%rax,1)
  4016fd:	00 00 00 

0000000000401700 <register_tm_clones>:
  401700:	be 70 40 60 00       	mov    $0x604070,%esi
  401705:	55                   	push   %rbp
  401706:	48 81 ee 70 40 60 00 	sub    $0x604070,%rsi
  40170d:	48 c1 fe 03          	sar    $0x3,%rsi
  401711:	48 89 e5             	mov    %rsp,%rbp
  401714:	48 89 f0             	mov    %rsi,%rax
  401717:	48 c1 e8 3f          	shr    $0x3f,%rax
  40171b:	48 01 c6             	add    %rax,%rsi
  40171e:	48 d1 fe             	sar    %rsi
  401721:	74 15                	je     401738 <register_tm_clones+0x38>
  401723:	b8 00 00 00 00       	mov    $0x0,%eax
  401728:	48 85 c0             	test   %rax,%rax
  40172b:	74 0b                	je     401738 <register_tm_clones+0x38>
  40172d:	5d                   	pop    %rbp
  40172e:	bf 70 40 60 00       	mov    $0x604070,%edi
  401733:	ff e0                	jmpq   *%rax
  401735:	0f 1f 00             	nopl   (%rax)
  401738:	5d                   	pop    %rbp
  401739:	c3                   	retq   
  40173a:	66 0f 1f 44 00 00    	nopw   0x0(%rax,%rax,1)

0000000000401740 <__do_global_dtors_aux>:
  401740:	80 3d 29 29 20 00 00 	cmpb   $0x0,0x202929(%rip)        # 604070 <__TMC_END__>
  401747:	75 11                	jne    40175a <__do_global_dtors_aux+0x1a>
  401749:	55                   	push   %rbp
  40174a:	48 89 e5             	mov    %rsp,%rbp
  40174d:	e8 6e ff ff ff       	callq  4016c0 <deregister_tm_clones>
  401752:	5d                   	pop    %rbp
  401753:	c6 05 16 29 20 00 01 	movb   $0x1,0x202916(%rip)        # 604070 <__TMC_END__>
  40175a:	f3 c3                	repz retq 
  40175c:	0f 1f 40 00          	nopl   0x0(%rax)

0000000000401760 <frame_dummy>:
  401760:	bf 00 3e 60 00       	mov    $0x603e00,%edi
  401765:	48 83 3f 00          	cmpq   $0x0,(%rdi)
  401769:	75 05                	jne    401770 <frame_dummy+0x10>
  40176b:	eb 93                	jmp    401700 <register_tm_clones>
  40176d:	0f 1f 00             	nopl   (%rax)
  401770:	b8 00 00 00 00       	mov    $0x0,%eax
  401775:	48 85 c0             	test   %rax,%rax
  401778:	74 f1                	je     40176b <frame_dummy+0xb>
  40177a:	55                   	push   %rbp
  40177b:	48 89 e5             	mov    %rsp,%rbp
  40177e:	ff d0                	callq  *%rax
  401780:	5d                   	pop    %rbp
  401781:	e9 7a ff ff ff       	jmpq   401700 <register_tm_clones>
  401786:	66 2e 0f 1f 84 00 00 	nopw   %cs:0x0(%rax,%rax,1)
  40178d:	00 00 00 

0000000000401790 <_Z3addPdS_S_i>:
  401790:	f6 c1 7f             	test   $0x7f,%cl
  401793:	41 54                	push   %r12
  401795:	55                   	push   %rbp
  401796:	53                   	push   %rbx
  401797:	0f 84 b3 0d 00 00    	je     402550 <_Z3addPdS_S_i+0xdc0>
  40179d:	44 8d 59 80          	lea    -0x80(%rcx),%r11d
  4017a1:	45 85 db             	test   %r11d,%r11d
  4017a4:	0f 8e ac 0c 00 00    	jle    402456 <_Z3addPdS_S_i+0xcc6>
  4017aa:	45 31 d2             	xor    %r10d,%r10d
  4017ad:	0f 1f 00             	nopl   (%rax)
  4017b0:	49 63 c2             	movslq %r10d,%rax
  4017b3:	41 83 ea 80          	sub    $0xffffff80,%r10d
  4017b7:	48 c1 e0 03          	shl    $0x3,%rax
  4017bb:	4c 8d 0c 06          	lea    (%rsi,%rax,1),%r9
  4017bf:	4c 8d 04 02          	lea    (%rdx,%rax,1),%r8
  4017c3:	48 01 f8             	add    %rdi,%rax
  4017c6:	45 39 da             	cmp    %r11d,%r10d
  4017c9:	f2 41 0f 10 81 00 04 	movsd  0x400(%r9),%xmm0
  4017d0:	00 00 
  4017d2:	f2 41 0f 58 80 00 04 	addsd  0x400(%r8),%xmm0
  4017d9:	00 00 
  4017db:	f2 0f 11 80 00 04 00 	movsd  %xmm0,0x400(%rax)
  4017e2:	00 
  4017e3:	f2 41 0f 10 81 f8 03 	movsd  0x3f8(%r9),%xmm0
  4017ea:	00 00 
  4017ec:	f2 41 0f 58 80 f8 03 	addsd  0x3f8(%r8),%xmm0
  4017f3:	00 00 
  4017f5:	f2 0f 11 80 f8 03 00 	movsd  %xmm0,0x3f8(%rax)
  4017fc:	00 
  4017fd:	f2 41 0f 10 81 f0 03 	movsd  0x3f0(%r9),%xmm0
  401804:	00 00 
  401806:	f2 41 0f 58 80 f0 03 	addsd  0x3f0(%r8),%xmm0
  40180d:	00 00 
  40180f:	f2 0f 11 80 f0 03 00 	movsd  %xmm0,0x3f0(%rax)
  401816:	00 
  401817:	f2 41 0f 10 81 e8 03 	movsd  0x3e8(%r9),%xmm0
  40181e:	00 00 
  401820:	f2 41 0f 58 80 e8 03 	addsd  0x3e8(%r8),%xmm0
  401827:	00 00 
  401829:	f2 0f 11 80 e8 03 00 	movsd  %xmm0,0x3e8(%rax)
  401830:	00 
  401831:	f2 41 0f 10 81 e0 03 	movsd  0x3e0(%r9),%xmm0
  401838:	00 00 
  40183a:	f2 41 0f 58 80 e0 03 	addsd  0x3e0(%r8),%xmm0
  401841:	00 00 
  401843:	f2 0f 11 80 e0 03 00 	movsd  %xmm0,0x3e0(%rax)
  40184a:	00 
  40184b:	f2 41 0f 10 81 d8 03 	movsd  0x3d8(%r9),%xmm0
  401852:	00 00 
  401854:	f2 41 0f 58 80 d8 03 	addsd  0x3d8(%r8),%xmm0
  40185b:	00 00 
  40185d:	f2 0f 11 80 d8 03 00 	movsd  %xmm0,0x3d8(%rax)
  401864:	00 
  401865:	f2 41 0f 10 81 d0 03 	movsd  0x3d0(%r9),%xmm0
  40186c:	00 00 
  40186e:	f2 41 0f 58 80 d0 03 	addsd  0x3d0(%r8),%xmm0
  401875:	00 00 
  401877:	f2 0f 11 80 d0 03 00 	movsd  %xmm0,0x3d0(%rax)
  40187e:	00 
  40187f:	f2 41 0f 10 81 c8 03 	movsd  0x3c8(%r9),%xmm0
  401886:	00 00 
  401888:	f2 41 0f 58 80 c8 03 	addsd  0x3c8(%r8),%xmm0
  40188f:	00 00 
  401891:	f2 0f 11 80 c8 03 00 	movsd  %xmm0,0x3c8(%rax)
  401898:	00 
  401899:	f2 41 0f 10 81 c0 03 	movsd  0x3c0(%r9),%xmm0
  4018a0:	00 00 
  4018a2:	f2 41 0f 58 80 c0 03 	addsd  0x3c0(%r8),%xmm0
  4018a9:	00 00 
  4018ab:	f2 0f 11 80 c0 03 00 	movsd  %xmm0,0x3c0(%rax)
  4018b2:	00 
  4018b3:	f2 41 0f 10 81 b8 03 	movsd  0x3b8(%r9),%xmm0
  4018ba:	00 00 
  4018bc:	f2 41 0f 58 80 b8 03 	addsd  0x3b8(%r8),%xmm0
  4018c3:	00 00 
  4018c5:	f2 0f 11 80 b8 03 00 	movsd  %xmm0,0x3b8(%rax)
  4018cc:	00 
  4018cd:	f2 41 0f 10 81 b0 03 	movsd  0x3b0(%r9),%xmm0
  4018d4:	00 00 
  4018d6:	f2 41 0f 58 80 b0 03 	addsd  0x3b0(%r8),%xmm0
  4018dd:	00 00 
  4018df:	f2 0f 11 80 b0 03 00 	movsd  %xmm0,0x3b0(%rax)
  4018e6:	00 
  4018e7:	f2 41 0f 10 81 a8 03 	movsd  0x3a8(%r9),%xmm0
  4018ee:	00 00 
  4018f0:	f2 41 0f 58 80 a8 03 	addsd  0x3a8(%r8),%xmm0
  4018f7:	00 00 
  4018f9:	f2 0f 11 80 a8 03 00 	movsd  %xmm0,0x3a8(%rax)
  401900:	00 
  401901:	f2 41 0f 10 81 a0 03 	movsd  0x3a0(%r9),%xmm0
  401908:	00 00 
  40190a:	f2 41 0f 58 80 a0 03 	addsd  0x3a0(%r8),%xmm0
  401911:	00 00 
  401913:	f2 0f 11 80 a0 03 00 	movsd  %xmm0,0x3a0(%rax)
  40191a:	00 
  40191b:	f2 41 0f 10 81 98 03 	movsd  0x398(%r9),%xmm0
  401922:	00 00 
  401924:	f2 41 0f 58 80 98 03 	addsd  0x398(%r8),%xmm0
  40192b:	00 00 
  40192d:	f2 0f 11 80 98 03 00 	movsd  %xmm0,0x398(%rax)
  401934:	00 
  401935:	f2 41 0f 10 81 90 03 	movsd  0x390(%r9),%xmm0
  40193c:	00 00 
  40193e:	f2 41 0f 58 80 90 03 	addsd  0x390(%r8),%xmm0
  401945:	00 00 
  401947:	f2 0f 11 80 90 03 00 	movsd  %xmm0,0x390(%rax)
  40194e:	00 
  40194f:	f2 41 0f 10 81 88 03 	movsd  0x388(%r9),%xmm0
  401956:	00 00 
  401958:	f2 41 0f 58 80 88 03 	addsd  0x388(%r8),%xmm0
  40195f:	00 00 
  401961:	f2 0f 11 80 88 03 00 	movsd  %xmm0,0x388(%rax)
  401968:	00 
  401969:	f2 41 0f 10 81 80 03 	movsd  0x380(%r9),%xmm0
  401970:	00 00 
  401972:	f2 41 0f 58 80 80 03 	addsd  0x380(%r8),%xmm0
  401979:	00 00 
  40197b:	f2 0f 11 80 80 03 00 	movsd  %xmm0,0x380(%rax)
  401982:	00 
  401983:	f2 41 0f 10 81 78 03 	movsd  0x378(%r9),%xmm0
  40198a:	00 00 
  40198c:	f2 41 0f 58 80 78 03 	addsd  0x378(%r8),%xmm0
  401993:	00 00 
  401995:	f2 0f 11 80 78 03 00 	movsd  %xmm0,0x378(%rax)
  40199c:	00 
  40199d:	f2 41 0f 10 81 70 03 	movsd  0x370(%r9),%xmm0
  4019a4:	00 00 
  4019a6:	f2 41 0f 58 80 70 03 	addsd  0x370(%r8),%xmm0
  4019ad:	00 00 
  4019af:	f2 0f 11 80 70 03 00 	movsd  %xmm0,0x370(%rax)
  4019b6:	00 
  4019b7:	f2 41 0f 10 81 68 03 	movsd  0x368(%r9),%xmm0
  4019be:	00 00 
  4019c0:	f2 41 0f 58 80 68 03 	addsd  0x368(%r8),%xmm0
  4019c7:	00 00 
  4019c9:	f2 0f 11 80 68 03 00 	movsd  %xmm0,0x368(%rax)
  4019d0:	00 
  4019d1:	f2 41 0f 10 81 60 03 	movsd  0x360(%r9),%xmm0
  4019d8:	00 00 
  4019da:	f2 41 0f 58 80 60 03 	addsd  0x360(%r8),%xmm0
  4019e1:	00 00 
  4019e3:	f2 0f 11 80 60 03 00 	movsd  %xmm0,0x360(%rax)
  4019ea:	00 
  4019eb:	f2 41 0f 10 81 58 03 	movsd  0x358(%r9),%xmm0
  4019f2:	00 00 
  4019f4:	f2 41 0f 58 80 58 03 	addsd  0x358(%r8),%xmm0
  4019fb:	00 00 
  4019fd:	f2 0f 11 80 58 03 00 	movsd  %xmm0,0x358(%rax)
  401a04:	00 
  401a05:	f2 41 0f 10 81 50 03 	movsd  0x350(%r9),%xmm0
  401a0c:	00 00 
  401a0e:	f2 41 0f 58 80 50 03 	addsd  0x350(%r8),%xmm0
  401a15:	00 00 
  401a17:	f2 0f 11 80 50 03 00 	movsd  %xmm0,0x350(%rax)
  401a1e:	00 
  401a1f:	f2 41 0f 10 81 48 03 	movsd  0x348(%r9),%xmm0
  401a26:	00 00 
  401a28:	f2 41 0f 58 80 48 03 	addsd  0x348(%r8),%xmm0
  401a2f:	00 00 
  401a31:	f2 0f 11 80 48 03 00 	movsd  %xmm0,0x348(%rax)
  401a38:	00 
  401a39:	f2 41 0f 10 81 40 03 	movsd  0x340(%r9),%xmm0
  401a40:	00 00 
  401a42:	f2 41 0f 58 80 40 03 	addsd  0x340(%r8),%xmm0
  401a49:	00 00 
  401a4b:	f2 0f 11 80 40 03 00 	movsd  %xmm0,0x340(%rax)
  401a52:	00 
  401a53:	f2 41 0f 10 81 38 03 	movsd  0x338(%r9),%xmm0
  401a5a:	00 00 
  401a5c:	f2 41 0f 58 80 38 03 	addsd  0x338(%r8),%xmm0
  401a63:	00 00 
  401a65:	f2 0f 11 80 38 03 00 	movsd  %xmm0,0x338(%rax)
  401a6c:	00 
  401a6d:	f2 41 0f 10 81 30 03 	movsd  0x330(%r9),%xmm0
  401a74:	00 00 
  401a76:	f2 41 0f 58 80 30 03 	addsd  0x330(%r8),%xmm0
  401a7d:	00 00 
  401a7f:	f2 0f 11 80 30 03 00 	movsd  %xmm0,0x330(%rax)
  401a86:	00 
  401a87:	f2 41 0f 10 81 28 03 	movsd  0x328(%r9),%xmm0
  401a8e:	00 00 
  401a90:	f2 41 0f 58 80 28 03 	addsd  0x328(%r8),%xmm0
  401a97:	00 00 
  401a99:	f2 0f 11 80 28 03 00 	movsd  %xmm0,0x328(%rax)
  401aa0:	00 
  401aa1:	f2 41 0f 10 81 20 03 	movsd  0x320(%r9),%xmm0
  401aa8:	00 00 
  401aaa:	f2 41 0f 58 80 20 03 	addsd  0x320(%r8),%xmm0
  401ab1:	00 00 
  401ab3:	f2 0f 11 80 20 03 00 	movsd  %xmm0,0x320(%rax)
  401aba:	00 
  401abb:	f2 41 0f 10 81 18 03 	movsd  0x318(%r9),%xmm0
  401ac2:	00 00 
  401ac4:	f2 41 0f 58 80 18 03 	addsd  0x318(%r8),%xmm0
  401acb:	00 00 
  401acd:	f2 0f 11 80 18 03 00 	movsd  %xmm0,0x318(%rax)
  401ad4:	00 
  401ad5:	f2 41 0f 10 81 10 03 	movsd  0x310(%r9),%xmm0
  401adc:	00 00 
  401ade:	f2 41 0f 58 80 10 03 	addsd  0x310(%r8),%xmm0
  401ae5:	00 00 
  401ae7:	f2 0f 11 80 10 03 00 	movsd  %xmm0,0x310(%rax)
  401aee:	00 
  401aef:	f2 41 0f 10 81 08 03 	movsd  0x308(%r9),%xmm0
  401af6:	00 00 
  401af8:	f2 41 0f 58 80 08 03 	addsd  0x308(%r8),%xmm0
  401aff:	00 00 
  401b01:	f2 0f 11 80 08 03 00 	movsd  %xmm0,0x308(%rax)
  401b08:	00 
  401b09:	f2 41 0f 10 81 00 03 	movsd  0x300(%r9),%xmm0
  401b10:	00 00 
  401b12:	f2 41 0f 58 80 00 03 	addsd  0x300(%r8),%xmm0
  401b19:	00 00 
  401b1b:	f2 0f 11 80 00 03 00 	movsd  %xmm0,0x300(%rax)
  401b22:	00 
  401b23:	f2 41 0f 10 81 f8 02 	movsd  0x2f8(%r9),%xmm0
  401b2a:	00 00 
  401b2c:	f2 41 0f 58 80 f8 02 	addsd  0x2f8(%r8),%xmm0
  401b33:	00 00 
  401b35:	f2 0f 11 80 f8 02 00 	movsd  %xmm0,0x2f8(%rax)
  401b3c:	00 
  401b3d:	f2 41 0f 10 81 f0 02 	movsd  0x2f0(%r9),%xmm0
  401b44:	00 00 
  401b46:	f2 41 0f 58 80 f0 02 	addsd  0x2f0(%r8),%xmm0
  401b4d:	00 00 
  401b4f:	f2 0f 11 80 f0 02 00 	movsd  %xmm0,0x2f0(%rax)
  401b56:	00 
  401b57:	f2 41 0f 10 81 e8 02 	movsd  0x2e8(%r9),%xmm0
  401b5e:	00 00 
  401b60:	f2 41 0f 58 80 e8 02 	addsd  0x2e8(%r8),%xmm0
  401b67:	00 00 
  401b69:	f2 0f 11 80 e8 02 00 	movsd  %xmm0,0x2e8(%rax)
  401b70:	00 
  401b71:	f2 41 0f 10 81 e0 02 	movsd  0x2e0(%r9),%xmm0
  401b78:	00 00 
  401b7a:	f2 41 0f 58 80 e0 02 	addsd  0x2e0(%r8),%xmm0
  401b81:	00 00 
  401b83:	f2 0f 11 80 e0 02 00 	movsd  %xmm0,0x2e0(%rax)
  401b8a:	00 
  401b8b:	f2 41 0f 10 81 d8 02 	movsd  0x2d8(%r9),%xmm0
  401b92:	00 00 
  401b94:	f2 41 0f 58 80 d8 02 	addsd  0x2d8(%r8),%xmm0
  401b9b:	00 00 
  401b9d:	f2 0f 11 80 d8 02 00 	movsd  %xmm0,0x2d8(%rax)
  401ba4:	00 
  401ba5:	f2 41 0f 10 81 d0 02 	movsd  0x2d0(%r9),%xmm0
  401bac:	00 00 
  401bae:	f2 41 0f 58 80 d0 02 	addsd  0x2d0(%r8),%xmm0
  401bb5:	00 00 
  401bb7:	f2 0f 11 80 d0 02 00 	movsd  %xmm0,0x2d0(%rax)
  401bbe:	00 
  401bbf:	f2 41 0f 10 81 c8 02 	movsd  0x2c8(%r9),%xmm0
  401bc6:	00 00 
  401bc8:	f2 41 0f 58 80 c8 02 	addsd  0x2c8(%r8),%xmm0
  401bcf:	00 00 
  401bd1:	f2 0f 11 80 c8 02 00 	movsd  %xmm0,0x2c8(%rax)
  401bd8:	00 
  401bd9:	f2 41 0f 10 81 c0 02 	movsd  0x2c0(%r9),%xmm0
  401be0:	00 00 
  401be2:	f2 41 0f 58 80 c0 02 	addsd  0x2c0(%r8),%xmm0
  401be9:	00 00 
  401beb:	f2 0f 11 80 c0 02 00 	movsd  %xmm0,0x2c0(%rax)
  401bf2:	00 
  401bf3:	f2 41 0f 10 81 b8 02 	movsd  0x2b8(%r9),%xmm0
  401bfa:	00 00 
  401bfc:	f2 41 0f 58 80 b8 02 	addsd  0x2b8(%r8),%xmm0
  401c03:	00 00 
  401c05:	f2 0f 11 80 b8 02 00 	movsd  %xmm0,0x2b8(%rax)
  401c0c:	00 
  401c0d:	f2 41 0f 10 81 b0 02 	movsd  0x2b0(%r9),%xmm0
  401c14:	00 00 
  401c16:	f2 41 0f 58 80 b0 02 	addsd  0x2b0(%r8),%xmm0
  401c1d:	00 00 
  401c1f:	f2 0f 11 80 b0 02 00 	movsd  %xmm0,0x2b0(%rax)
  401c26:	00 
  401c27:	f2 41 0f 10 81 a8 02 	movsd  0x2a8(%r9),%xmm0
  401c2e:	00 00 
  401c30:	f2 41 0f 58 80 a8 02 	addsd  0x2a8(%r8),%xmm0
  401c37:	00 00 
  401c39:	f2 0f 11 80 a8 02 00 	movsd  %xmm0,0x2a8(%rax)
  401c40:	00 
  401c41:	f2 41 0f 10 81 a0 02 	movsd  0x2a0(%r9),%xmm0
  401c48:	00 00 
  401c4a:	f2 41 0f 58 80 a0 02 	addsd  0x2a0(%r8),%xmm0
  401c51:	00 00 
  401c53:	f2 0f 11 80 a0 02 00 	movsd  %xmm0,0x2a0(%rax)
  401c5a:	00 
  401c5b:	f2 41 0f 10 81 98 02 	movsd  0x298(%r9),%xmm0
  401c62:	00 00 
  401c64:	f2 41 0f 58 80 98 02 	addsd  0x298(%r8),%xmm0
  401c6b:	00 00 
  401c6d:	f2 0f 11 80 98 02 00 	movsd  %xmm0,0x298(%rax)
  401c74:	00 
  401c75:	f2 41 0f 10 81 90 02 	movsd  0x290(%r9),%xmm0
  401c7c:	00 00 
  401c7e:	f2 41 0f 58 80 90 02 	addsd  0x290(%r8),%xmm0
  401c85:	00 00 
  401c87:	f2 0f 11 80 90 02 00 	movsd  %xmm0,0x290(%rax)
  401c8e:	00 
  401c8f:	f2 41 0f 10 81 88 02 	movsd  0x288(%r9),%xmm0
  401c96:	00 00 
  401c98:	f2 41 0f 58 80 88 02 	addsd  0x288(%r8),%xmm0
  401c9f:	00 00 
  401ca1:	f2 0f 11 80 88 02 00 	movsd  %xmm0,0x288(%rax)
  401ca8:	00 
  401ca9:	f2 41 0f 10 81 80 02 	movsd  0x280(%r9),%xmm0
  401cb0:	00 00 
  401cb2:	f2 41 0f 58 80 80 02 	addsd  0x280(%r8),%xmm0
  401cb9:	00 00 
  401cbb:	f2 0f 11 80 80 02 00 	movsd  %xmm0,0x280(%rax)
  401cc2:	00 
  401cc3:	f2 41 0f 10 81 78 02 	movsd  0x278(%r9),%xmm0
  401cca:	00 00 
  401ccc:	f2 41 0f 58 80 78 02 	addsd  0x278(%r8),%xmm0
  401cd3:	00 00 
  401cd5:	f2 0f 11 80 78 02 00 	movsd  %xmm0,0x278(%rax)
  401cdc:	00 
  401cdd:	f2 41 0f 10 81 70 02 	movsd  0x270(%r9),%xmm0
  401ce4:	00 00 
  401ce6:	f2 41 0f 58 80 70 02 	addsd  0x270(%r8),%xmm0
  401ced:	00 00 
  401cef:	f2 0f 11 80 70 02 00 	movsd  %xmm0,0x270(%rax)
  401cf6:	00 
  401cf7:	f2 41 0f 10 81 68 02 	movsd  0x268(%r9),%xmm0
  401cfe:	00 00 
  401d00:	f2 41 0f 58 80 68 02 	addsd  0x268(%r8),%xmm0
  401d07:	00 00 
  401d09:	f2 0f 11 80 68 02 00 	movsd  %xmm0,0x268(%rax)
  401d10:	00 
  401d11:	f2 41 0f 10 81 60 02 	movsd  0x260(%r9),%xmm0
  401d18:	00 00 
  401d1a:	f2 41 0f 58 80 60 02 	addsd  0x260(%r8),%xmm0
  401d21:	00 00 
  401d23:	f2 0f 11 80 60 02 00 	movsd  %xmm0,0x260(%rax)
  401d2a:	00 
  401d2b:	f2 41 0f 10 81 58 02 	movsd  0x258(%r9),%xmm0
  401d32:	00 00 
  401d34:	f2 41 0f 58 80 58 02 	addsd  0x258(%r8),%xmm0
  401d3b:	00 00 
  401d3d:	f2 0f 11 80 58 02 00 	movsd  %xmm0,0x258(%rax)
  401d44:	00 
  401d45:	f2 41 0f 10 81 50 02 	movsd  0x250(%r9),%xmm0
  401d4c:	00 00 
  401d4e:	f2 41 0f 58 80 50 02 	addsd  0x250(%r8),%xmm0
  401d55:	00 00 
  401d57:	f2 0f 11 80 50 02 00 	movsd  %xmm0,0x250(%rax)
  401d5e:	00 
  401d5f:	f2 41 0f 10 81 48 02 	movsd  0x248(%r9),%xmm0
  401d66:	00 00 
  401d68:	f2 41 0f 58 80 48 02 	addsd  0x248(%r8),%xmm0
  401d6f:	00 00 
  401d71:	f2 0f 11 80 48 02 00 	movsd  %xmm0,0x248(%rax)
  401d78:	00 
  401d79:	f2 41 0f 10 81 40 02 	movsd  0x240(%r9),%xmm0
  401d80:	00 00 
  401d82:	f2 41 0f 58 80 40 02 	addsd  0x240(%r8),%xmm0
  401d89:	00 00 
  401d8b:	f2 0f 11 80 40 02 00 	movsd  %xmm0,0x240(%rax)
  401d92:	00 
  401d93:	f2 41 0f 10 81 38 02 	movsd  0x238(%r9),%xmm0
  401d9a:	00 00 
  401d9c:	f2 41 0f 58 80 38 02 	addsd  0x238(%r8),%xmm0
  401da3:	00 00 
  401da5:	f2 0f 11 80 38 02 00 	movsd  %xmm0,0x238(%rax)
  401dac:	00 
  401dad:	f2 41 0f 10 81 30 02 	movsd  0x230(%r9),%xmm0
  401db4:	00 00 
  401db6:	f2 41 0f 58 80 30 02 	addsd  0x230(%r8),%xmm0
  401dbd:	00 00 
  401dbf:	f2 0f 11 80 30 02 00 	movsd  %xmm0,0x230(%rax)
  401dc6:	00 
  401dc7:	f2 41 0f 10 81 28 02 	movsd  0x228(%r9),%xmm0
  401dce:	00 00 
  401dd0:	f2 41 0f 58 80 28 02 	addsd  0x228(%r8),%xmm0
  401dd7:	00 00 
  401dd9:	f2 0f 11 80 28 02 00 	movsd  %xmm0,0x228(%rax)
  401de0:	00 
  401de1:	f2 41 0f 10 81 20 02 	movsd  0x220(%r9),%xmm0
  401de8:	00 00 
  401dea:	f2 41 0f 58 80 20 02 	addsd  0x220(%r8),%xmm0
  401df1:	00 00 
  401df3:	f2 0f 11 80 20 02 00 	movsd  %xmm0,0x220(%rax)
  401dfa:	00 
  401dfb:	f2 41 0f 10 81 18 02 	movsd  0x218(%r9),%xmm0
  401e02:	00 00 
  401e04:	f2 41 0f 58 80 18 02 	addsd  0x218(%r8),%xmm0
  401e0b:	00 00 
  401e0d:	f2 0f 11 80 18 02 00 	movsd  %xmm0,0x218(%rax)
  401e14:	00 
  401e15:	f2 41 0f 10 81 10 02 	movsd  0x210(%r9),%xmm0
  401e1c:	00 00 
  401e1e:	f2 41 0f 58 80 10 02 	addsd  0x210(%r8),%xmm0
  401e25:	00 00 
  401e27:	f2 0f 11 80 10 02 00 	movsd  %xmm0,0x210(%rax)
  401e2e:	00 
  401e2f:	f2 41 0f 10 81 08 02 	movsd  0x208(%r9),%xmm0
  401e36:	00 00 
  401e38:	f2 41 0f 58 80 08 02 	addsd  0x208(%r8),%xmm0
  401e3f:	00 00 
  401e41:	f2 0f 11 80 08 02 00 	movsd  %xmm0,0x208(%rax)
  401e48:	00 
  401e49:	f2 41 0f 10 81 00 02 	movsd  0x200(%r9),%xmm0
  401e50:	00 00 
  401e52:	f2 41 0f 58 80 00 02 	addsd  0x200(%r8),%xmm0
  401e59:	00 00 
  401e5b:	f2 0f 11 80 00 02 00 	movsd  %xmm0,0x200(%rax)
  401e62:	00 
  401e63:	f2 41 0f 10 81 f8 01 	movsd  0x1f8(%r9),%xmm0
  401e6a:	00 00 
  401e6c:	f2 41 0f 58 80 f8 01 	addsd  0x1f8(%r8),%xmm0
  401e73:	00 00 
  401e75:	f2 0f 11 80 f8 01 00 	movsd  %xmm0,0x1f8(%rax)
  401e7c:	00 
  401e7d:	f2 41 0f 10 81 f0 01 	movsd  0x1f0(%r9),%xmm0
  401e84:	00 00 
  401e86:	f2 41 0f 58 80 f0 01 	addsd  0x1f0(%r8),%xmm0
  401e8d:	00 00 
  401e8f:	f2 0f 11 80 f0 01 00 	movsd  %xmm0,0x1f0(%rax)
  401e96:	00 
  401e97:	f2 41 0f 10 81 e8 01 	movsd  0x1e8(%r9),%xmm0
  401e9e:	00 00 
  401ea0:	f2 41 0f 58 80 e8 01 	addsd  0x1e8(%r8),%xmm0
  401ea7:	00 00 
  401ea9:	f2 0f 11 80 e8 01 00 	movsd  %xmm0,0x1e8(%rax)
  401eb0:	00 
  401eb1:	f2 41 0f 10 81 e0 01 	movsd  0x1e0(%r9),%xmm0
  401eb8:	00 00 
  401eba:	f2 41 0f 58 80 e0 01 	addsd  0x1e0(%r8),%xmm0
  401ec1:	00 00 
  401ec3:	f2 0f 11 80 e0 01 00 	movsd  %xmm0,0x1e0(%rax)
  401eca:	00 
  401ecb:	f2 41 0f 10 81 d8 01 	movsd  0x1d8(%r9),%xmm0
  401ed2:	00 00 
  401ed4:	f2 41 0f 58 80 d8 01 	addsd  0x1d8(%r8),%xmm0
  401edb:	00 00 
  401edd:	f2 0f 11 80 d8 01 00 	movsd  %xmm0,0x1d8(%rax)
  401ee4:	00 
  401ee5:	f2 41 0f 10 81 d0 01 	movsd  0x1d0(%r9),%xmm0
  401eec:	00 00 
  401eee:	f2 41 0f 58 80 d0 01 	addsd  0x1d0(%r8),%xmm0
  401ef5:	00 00 
  401ef7:	f2 0f 11 80 d0 01 00 	movsd  %xmm0,0x1d0(%rax)
  401efe:	00 
  401eff:	f2 41 0f 10 81 c8 01 	movsd  0x1c8(%r9),%xmm0
  401f06:	00 00 
  401f08:	f2 41 0f 58 80 c8 01 	addsd  0x1c8(%r8),%xmm0
  401f0f:	00 00 
  401f11:	f2 0f 11 80 c8 01 00 	movsd  %xmm0,0x1c8(%rax)
  401f18:	00 
  401f19:	f2 41 0f 10 81 c0 01 	movsd  0x1c0(%r9),%xmm0
  401f20:	00 00 
  401f22:	f2 41 0f 58 80 c0 01 	addsd  0x1c0(%r8),%xmm0
  401f29:	00 00 
  401f2b:	f2 0f 11 80 c0 01 00 	movsd  %xmm0,0x1c0(%rax)
  401f32:	00 
  401f33:	f2 41 0f 10 81 b8 01 	movsd  0x1b8(%r9),%xmm0
  401f3a:	00 00 
  401f3c:	f2 41 0f 58 80 b8 01 	addsd  0x1b8(%r8),%xmm0
  401f43:	00 00 
  401f45:	f2 0f 11 80 b8 01 00 	movsd  %xmm0,0x1b8(%rax)
  401f4c:	00 
  401f4d:	f2 41 0f 10 81 b0 01 	movsd  0x1b0(%r9),%xmm0
  401f54:	00 00 
  401f56:	f2 41 0f 58 80 b0 01 	addsd  0x1b0(%r8),%xmm0
  401f5d:	00 00 
  401f5f:	f2 0f 11 80 b0 01 00 	movsd  %xmm0,0x1b0(%rax)
  401f66:	00 
  401f67:	f2 41 0f 10 81 a8 01 	movsd  0x1a8(%r9),%xmm0
  401f6e:	00 00 
  401f70:	f2 41 0f 58 80 a8 01 	addsd  0x1a8(%r8),%xmm0
  401f77:	00 00 
  401f79:	f2 0f 11 80 a8 01 00 	movsd  %xmm0,0x1a8(%rax)
  401f80:	00 
  401f81:	f2 41 0f 10 81 a0 01 	movsd  0x1a0(%r9),%xmm0
  401f88:	00 00 
  401f8a:	f2 41 0f 58 80 a0 01 	addsd  0x1a0(%r8),%xmm0
  401f91:	00 00 
  401f93:	f2 0f 11 80 a0 01 00 	movsd  %xmm0,0x1a0(%rax)
  401f9a:	00 
  401f9b:	f2 41 0f 10 81 98 01 	movsd  0x198(%r9),%xmm0
  401fa2:	00 00 
  401fa4:	f2 41 0f 58 80 98 01 	addsd  0x198(%r8),%xmm0
  401fab:	00 00 
  401fad:	f2 0f 11 80 98 01 00 	movsd  %xmm0,0x198(%rax)
  401fb4:	00 
  401fb5:	f2 41 0f 10 81 90 01 	movsd  0x190(%r9),%xmm0
  401fbc:	00 00 
  401fbe:	f2 41 0f 58 80 90 01 	addsd  0x190(%r8),%xmm0
  401fc5:	00 00 
  401fc7:	f2 0f 11 80 90 01 00 	movsd  %xmm0,0x190(%rax)
  401fce:	00 
  401fcf:	f2 41 0f 10 81 88 01 	movsd  0x188(%r9),%xmm0
  401fd6:	00 00 
  401fd8:	f2 41 0f 58 80 88 01 	addsd  0x188(%r8),%xmm0
  401fdf:	00 00 
  401fe1:	f2 0f 11 80 88 01 00 	movsd  %xmm0,0x188(%rax)
  401fe8:	00 
  401fe9:	f2 41 0f 10 81 80 01 	movsd  0x180(%r9),%xmm0
  401ff0:	00 00 
  401ff2:	f2 41 0f 58 80 80 01 	addsd  0x180(%r8),%xmm0
  401ff9:	00 00 
  401ffb:	f2 0f 11 80 80 01 00 	movsd  %xmm0,0x180(%rax)
  402002:	00 
  402003:	f2 41 0f 10 81 78 01 	movsd  0x178(%r9),%xmm0
  40200a:	00 00 
  40200c:	f2 41 0f 58 80 78 01 	addsd  0x178(%r8),%xmm0
  402013:	00 00 
  402015:	f2 0f 11 80 78 01 00 	movsd  %xmm0,0x178(%rax)
  40201c:	00 
  40201d:	f2 41 0f 10 81 70 01 	movsd  0x170(%r9),%xmm0
  402024:	00 00 
  402026:	f2 41 0f 58 80 70 01 	addsd  0x170(%r8),%xmm0
  40202d:	00 00 
  40202f:	f2 0f 11 80 70 01 00 	movsd  %xmm0,0x170(%rax)
  402036:	00 
  402037:	f2 41 0f 10 81 68 01 	movsd  0x168(%r9),%xmm0
  40203e:	00 00 
  402040:	f2 41 0f 58 80 68 01 	addsd  0x168(%r8),%xmm0
  402047:	00 00 
  402049:	f2 0f 11 80 68 01 00 	movsd  %xmm0,0x168(%rax)
  402050:	00 
  402051:	f2 41 0f 10 81 60 01 	movsd  0x160(%r9),%xmm0
  402058:	00 00 
  40205a:	f2 41 0f 58 80 60 01 	addsd  0x160(%r8),%xmm0
  402061:	00 00 
  402063:	f2 0f 11 80 60 01 00 	movsd  %xmm0,0x160(%rax)
  40206a:	00 
  40206b:	f2 41 0f 10 81 58 01 	movsd  0x158(%r9),%xmm0
  402072:	00 00 
  402074:	f2 41 0f 58 80 58 01 	addsd  0x158(%r8),%xmm0
  40207b:	00 00 
  40207d:	f2 0f 11 80 58 01 00 	movsd  %xmm0,0x158(%rax)
  402084:	00 
  402085:	f2 41 0f 10 81 50 01 	movsd  0x150(%r9),%xmm0
  40208c:	00 00 
  40208e:	f2 41 0f 58 80 50 01 	addsd  0x150(%r8),%xmm0
  402095:	00 00 
  402097:	f2 0f 11 80 50 01 00 	movsd  %xmm0,0x150(%rax)
  40209e:	00 
  40209f:	f2 41 0f 10 81 48 01 	movsd  0x148(%r9),%xmm0
  4020a6:	00 00 
  4020a8:	f2 41 0f 58 80 48 01 	addsd  0x148(%r8),%xmm0
  4020af:	00 00 
  4020b1:	f2 0f 11 80 48 01 00 	movsd  %xmm0,0x148(%rax)
  4020b8:	00 
  4020b9:	f2 41 0f 10 81 40 01 	movsd  0x140(%r9),%xmm0
  4020c0:	00 00 
  4020c2:	f2 41 0f 58 80 40 01 	addsd  0x140(%r8),%xmm0
  4020c9:	00 00 
  4020cb:	f2 0f 11 80 40 01 00 	movsd  %xmm0,0x140(%rax)
  4020d2:	00 
  4020d3:	f2 41 0f 10 81 38 01 	movsd  0x138(%r9),%xmm0
  4020da:	00 00 
  4020dc:	f2 41 0f 58 80 38 01 	addsd  0x138(%r8),%xmm0
  4020e3:	00 00 
  4020e5:	f2 0f 11 80 38 01 00 	movsd  %xmm0,0x138(%rax)
  4020ec:	00 
  4020ed:	f2 41 0f 10 81 30 01 	movsd  0x130(%r9),%xmm0
  4020f4:	00 00 
  4020f6:	f2 41 0f 58 80 30 01 	addsd  0x130(%r8),%xmm0
  4020fd:	00 00 
  4020ff:	f2 0f 11 80 30 01 00 	movsd  %xmm0,0x130(%rax)
  402106:	00 
  402107:	f2 41 0f 10 81 28 01 	movsd  0x128(%r9),%xmm0
  40210e:	00 00 
  402110:	f2 41 0f 58 80 28 01 	addsd  0x128(%r8),%xmm0
  402117:	00 00 
  402119:	f2 0f 11 80 28 01 00 	movsd  %xmm0,0x128(%rax)
  402120:	00 
  402121:	f2 41 0f 10 81 20 01 	movsd  0x120(%r9),%xmm0
  402128:	00 00 
  40212a:	f2 41 0f 58 80 20 01 	addsd  0x120(%r8),%xmm0
  402131:	00 00 
  402133:	f2 0f 11 80 20 01 00 	movsd  %xmm0,0x120(%rax)
  40213a:	00 
  40213b:	f2 41 0f 10 81 18 01 	movsd  0x118(%r9),%xmm0
  402142:	00 00 
  402144:	f2 41 0f 58 80 18 01 	addsd  0x118(%r8),%xmm0
  40214b:	00 00 
  40214d:	f2 0f 11 80 18 01 00 	movsd  %xmm0,0x118(%rax)
  402154:	00 
  402155:	f2 41 0f 10 81 10 01 	movsd  0x110(%r9),%xmm0
  40215c:	00 00 
  40215e:	f2 41 0f 58 80 10 01 	addsd  0x110(%r8),%xmm0
  402165:	00 00 
  402167:	f2 0f 11 80 10 01 00 	movsd  %xmm0,0x110(%rax)
  40216e:	00 
  40216f:	f2 41 0f 10 81 08 01 	movsd  0x108(%r9),%xmm0
  402176:	00 00 
  402178:	f2 41 0f 58 80 08 01 	addsd  0x108(%r8),%xmm0
  40217f:	00 00 
  402181:	f2 0f 11 80 08 01 00 	movsd  %xmm0,0x108(%rax)
  402188:	00 
  402189:	f2 41 0f 10 81 00 01 	movsd  0x100(%r9),%xmm0
  402190:	00 00 
  402192:	f2 41 0f 58 80 00 01 	addsd  0x100(%r8),%xmm0
  402199:	00 00 
  40219b:	f2 0f 11 80 00 01 00 	movsd  %xmm0,0x100(%rax)
  4021a2:	00 
  4021a3:	f2 41 0f 10 81 f8 00 	movsd  0xf8(%r9),%xmm0
  4021aa:	00 00 
  4021ac:	f2 41 0f 58 80 f8 00 	addsd  0xf8(%r8),%xmm0
  4021b3:	00 00 
  4021b5:	f2 0f 11 80 f8 00 00 	movsd  %xmm0,0xf8(%rax)
  4021bc:	00 
  4021bd:	f2 41 0f 10 81 f0 00 	movsd  0xf0(%r9),%xmm0
  4021c4:	00 00 
  4021c6:	f2 41 0f 58 80 f0 00 	addsd  0xf0(%r8),%xmm0
  4021cd:	00 00 
  4021cf:	f2 0f 11 80 f0 00 00 	movsd  %xmm0,0xf0(%rax)
  4021d6:	00 
  4021d7:	f2 41 0f 10 81 e8 00 	movsd  0xe8(%r9),%xmm0
  4021de:	00 00 
  4021e0:	f2 41 0f 58 80 e8 00 	addsd  0xe8(%r8),%xmm0
  4021e7:	00 00 
  4021e9:	f2 0f 11 80 e8 00 00 	movsd  %xmm0,0xe8(%rax)
  4021f0:	00 
  4021f1:	f2 41 0f 10 81 e0 00 	movsd  0xe0(%r9),%xmm0
  4021f8:	00 00 
  4021fa:	f2 41 0f 58 80 e0 00 	addsd  0xe0(%r8),%xmm0
  402201:	00 00 
  402203:	f2 0f 11 80 e0 00 00 	movsd  %xmm0,0xe0(%rax)
  40220a:	00 
  40220b:	f2 41 0f 10 81 d8 00 	movsd  0xd8(%r9),%xmm0
  402212:	00 00 
  402214:	f2 41 0f 58 80 d8 00 	addsd  0xd8(%r8),%xmm0
  40221b:	00 00 
  40221d:	f2 0f 11 80 d8 00 00 	movsd  %xmm0,0xd8(%rax)
  402224:	00 
  402225:	f2 41 0f 10 81 d0 00 	movsd  0xd0(%r9),%xmm0
  40222c:	00 00 
  40222e:	f2 41 0f 58 80 d0 00 	addsd  0xd0(%r8),%xmm0
  402235:	00 00 
  402237:	f2 0f 11 80 d0 00 00 	movsd  %xmm0,0xd0(%rax)
  40223e:	00 
  40223f:	f2 41 0f 10 81 c8 00 	movsd  0xc8(%r9),%xmm0
  402246:	00 00 
  402248:	f2 41 0f 58 80 c8 00 	addsd  0xc8(%r8),%xmm0
  40224f:	00 00 
  402251:	f2 0f 11 80 c8 00 00 	movsd  %xmm0,0xc8(%rax)
  402258:	00 
  402259:	f2 41 0f 10 81 c0 00 	movsd  0xc0(%r9),%xmm0
  402260:	00 00 
  402262:	f2 41 0f 58 80 c0 00 	addsd  0xc0(%r8),%xmm0
  402269:	00 00 
  40226b:	f2 0f 11 80 c0 00 00 	movsd  %xmm0,0xc0(%rax)
  402272:	00 
  402273:	f2 41 0f 10 81 b8 00 	movsd  0xb8(%r9),%xmm0
  40227a:	00 00 
  40227c:	f2 41 0f 58 80 b8 00 	addsd  0xb8(%r8),%xmm0
  402283:	00 00 
  402285:	f2 0f 11 80 b8 00 00 	movsd  %xmm0,0xb8(%rax)
  40228c:	00 
  40228d:	f2 41 0f 10 81 b0 00 	movsd  0xb0(%r9),%xmm0
  402294:	00 00 
  402296:	f2 41 0f 58 80 b0 00 	addsd  0xb0(%r8),%xmm0
  40229d:	00 00 
  40229f:	f2 0f 11 80 b0 00 00 	movsd  %xmm0,0xb0(%rax)
  4022a6:	00 
  4022a7:	f2 41 0f 10 81 a8 00 	movsd  0xa8(%r9),%xmm0
  4022ae:	00 00 
  4022b0:	f2 41 0f 58 80 a8 00 	addsd  0xa8(%r8),%xmm0
  4022b7:	00 00 
  4022b9:	f2 0f 11 80 a8 00 00 	movsd  %xmm0,0xa8(%rax)
  4022c0:	00 
  4022c1:	f2 41 0f 10 81 a0 00 	movsd  0xa0(%r9),%xmm0
  4022c8:	00 00 
  4022ca:	f2 41 0f 58 80 a0 00 	addsd  0xa0(%r8),%xmm0
  4022d1:	00 00 
  4022d3:	f2 0f 11 80 a0 00 00 	movsd  %xmm0,0xa0(%rax)
  4022da:	00 
  4022db:	f2 41 0f 10 81 98 00 	movsd  0x98(%r9),%xmm0
  4022e2:	00 00 
  4022e4:	f2 41 0f 58 80 98 00 	addsd  0x98(%r8),%xmm0
  4022eb:	00 00 
  4022ed:	f2 0f 11 80 98 00 00 	movsd  %xmm0,0x98(%rax)
  4022f4:	00 
  4022f5:	f2 41 0f 10 81 90 00 	movsd  0x90(%r9),%xmm0
  4022fc:	00 00 
  4022fe:	f2 41 0f 58 80 90 00 	addsd  0x90(%r8),%xmm0
  402305:	00 00 
  402307:	f2 0f 11 80 90 00 00 	movsd  %xmm0,0x90(%rax)
  40230e:	00 
  40230f:	f2 41 0f 10 81 88 00 	movsd  0x88(%r9),%xmm0
  402316:	00 00 
  402318:	f2 41 0f 58 80 88 00 	addsd  0x88(%r8),%xmm0
  40231f:	00 00 
  402321:	f2 0f 11 80 88 00 00 	movsd  %xmm0,0x88(%rax)
  402328:	00 
  402329:	f2 41 0f 10 81 80 00 	movsd  0x80(%r9),%xmm0
  402330:	00 00 
  402332:	f2 41 0f 58 80 80 00 	addsd  0x80(%r8),%xmm0
  402339:	00 00 
  40233b:	f2 0f 11 80 80 00 00 	movsd  %xmm0,0x80(%rax)
  402342:	00 
  402343:	f2 41 0f 10 41 78    	movsd  0x78(%r9),%xmm0
  402349:	f2 41 0f 58 40 78    	addsd  0x78(%r8),%xmm0
  40234f:	f2 0f 11 40 78       	movsd  %xmm0,0x78(%rax)
  402354:	f2 41 0f 10 41 70    	movsd  0x70(%r9),%xmm0
  40235a:	f2 41 0f 58 40 70    	addsd  0x70(%r8),%xmm0
  402360:	f2 0f 11 40 70       	movsd  %xmm0,0x70(%rax)
  402365:	f2 41 0f 10 41 68    	movsd  0x68(%r9),%xmm0
  40236b:	f2 41 0f 58 40 68    	addsd  0x68(%r8),%xmm0
  402371:	f2 0f 11 40 68       	movsd  %xmm0,0x68(%rax)
  402376:	f2 41 0f 10 41 60    	movsd  0x60(%r9),%xmm0
  40237c:	f2 41 0f 58 40 60    	addsd  0x60(%r8),%xmm0
  402382:	f2 0f 11 40 60       	movsd  %xmm0,0x60(%rax)
  402387:	f2 41 0f 10 41 58    	movsd  0x58(%r9),%xmm0
  40238d:	f2 41 0f 58 40 58    	addsd  0x58(%r8),%xmm0
  402393:	f2 0f 11 40 58       	movsd  %xmm0,0x58(%rax)
  402398:	f2 41 0f 10 41 50    	movsd  0x50(%r9),%xmm0
  40239e:	f2 41 0f 58 40 50    	addsd  0x50(%r8),%xmm0
  4023a4:	f2 0f 11 40 50       	movsd  %xmm0,0x50(%rax)
  4023a9:	f2 41 0f 10 41 48    	movsd  0x48(%r9),%xmm0
  4023af:	f2 41 0f 58 40 48    	addsd  0x48(%r8),%xmm0
  4023b5:	f2 0f 11 40 48       	movsd  %xmm0,0x48(%rax)
  4023ba:	f2 41 0f 10 41 40    	movsd  0x40(%r9),%xmm0
  4023c0:	f2 41 0f 58 40 40    	addsd  0x40(%r8),%xmm0
  4023c6:	f2 0f 11 40 40       	movsd  %xmm0,0x40(%rax)
  4023cb:	f2 41 0f 10 41 38    	movsd  0x38(%r9),%xmm0
  4023d1:	f2 41 0f 58 40 38    	addsd  0x38(%r8),%xmm0
  4023d7:	f2 0f 11 40 38       	movsd  %xmm0,0x38(%rax)
  4023dc:	f2 41 0f 10 41 30    	movsd  0x30(%r9),%xmm0
  4023e2:	f2 41 0f 58 40 30    	addsd  0x30(%r8),%xmm0
  4023e8:	f2 0f 11 40 30       	movsd  %xmm0,0x30(%rax)
  4023ed:	f2 41 0f 10 41 28    	movsd  0x28(%r9),%xmm0
  4023f3:	f2 41 0f 58 40 28    	addsd  0x28(%r8),%xmm0
  4023f9:	f2 0f 11 40 28       	movsd  %xmm0,0x28(%rax)
  4023fe:	f2 41 0f 10 41 20    	movsd  0x20(%r9),%xmm0
  402404:	f2 41 0f 58 40 20    	addsd  0x20(%r8),%xmm0
  40240a:	f2 0f 11 40 20       	movsd  %xmm0,0x20(%rax)
  40240f:	f2 41 0f 10 41 18    	movsd  0x18(%r9),%xmm0
  402415:	f2 41 0f 58 40 18    	addsd  0x18(%r8),%xmm0
  40241b:	f2 0f 11 40 18       	movsd  %xmm0,0x18(%rax)
  402420:	f2 41 0f 10 41 10    	movsd  0x10(%r9),%xmm0
  402426:	f2 41 0f 58 40 10    	addsd  0x10(%r8),%xmm0
  40242c:	f2 0f 11 40 10       	movsd  %xmm0,0x10(%rax)
  402431:	f2 41 0f 10 41 08    	movsd  0x8(%r9),%xmm0
  402437:	f2 41 0f 58 40 08    	addsd  0x8(%r8),%xmm0
  40243d:	f2 0f 11 40 08       	movsd  %xmm0,0x8(%rax)
  402442:	f2 41 0f 10 01       	movsd  (%r9),%xmm0
  402447:	f2 41 0f 58 00       	addsd  (%r8),%xmm0
  40244c:	f2 0f 11 00          	movsd  %xmm0,(%rax)
  402450:	0f 8c 5a f3 ff ff    	jl     4017b0 <_Z3addPdS_S_i+0x20>
  402456:	48 63 d9             	movslq %ecx,%rbx
  402459:	48 8d 04 dd 00 00 00 	lea    0x0(,%rbx,8),%rax
  402460:	00 
  402461:	4c 8d 80 10 fc ff ff 	lea    -0x3f0(%rax),%r8
  402468:	48 2d 00 04 00 00    	sub    $0x400,%rax
  40246e:	4c 8d 14 07          	lea    (%rdi,%rax,1),%r10
  402472:	48 8d 2c 06          	lea    (%rsi,%rax,1),%rbp
  402476:	4e 8d 24 02          	lea    (%rdx,%r8,1),%r12
  40247a:	4e 8d 0c 07          	lea    (%rdi,%r8,1),%r9
  40247e:	4d 39 e2             	cmp    %r12,%r10
  402481:	41 0f 93 c4          	setae  %r12b
  402485:	48 01 d0             	add    %rdx,%rax
  402488:	49 39 c1             	cmp    %rax,%r9
  40248b:	0f 96 c0             	setbe  %al
  40248e:	41 08 c4             	or     %al,%r12b
  402491:	0f 84 79 0d 00 00    	je     403210 <_Z3addPdS_S_i+0x1a80>
  402497:	49 01 f0             	add    %rsi,%r8
  40249a:	4d 39 c2             	cmp    %r8,%r10
  40249d:	41 0f 93 c0          	setae  %r8b
  4024a1:	4c 39 cd             	cmp    %r9,%rbp
  4024a4:	0f 93 c0             	setae  %al
  4024a7:	41 08 c0             	or     %al,%r8b
  4024aa:	0f 84 60 0d 00 00    	je     403210 <_Z3addPdS_S_i+0x1a80>
  4024b0:	83 e5 08             	and    $0x8,%ebp
  4024b3:	0f 84 97 0d 00 00    	je     403250 <_Z3addPdS_S_i+0x1ac0>
  4024b9:	4d 63 db             	movslq %r11d,%r11
  4024bc:	41 ba 7e 00 00 00    	mov    $0x7e,%r10d
  4024c2:	41 b9 3f 00 00 00    	mov    $0x3f,%r9d
  4024c8:	f2 42 0f 10 04 de    	movsd  (%rsi,%r11,8),%xmm0
  4024ce:	bd 7f 00 00 00       	mov    $0x7f,%ebp
  4024d3:	b8 01 00 00 00       	mov    $0x1,%eax
  4024d8:	f2 42 0f 58 04 da    	addsd  (%rdx,%r11,8),%xmm0
  4024de:	f2 42 0f 11 04 df    	movsd  %xmm0,(%rdi,%r11,8)
  4024e4:	44 8d 59 81          	lea    -0x7f(%rcx),%r11d
  4024e8:	48 01 c3             	add    %rax,%rbx
  4024eb:	31 c9                	xor    %ecx,%ecx
  4024ed:	31 c0                	xor    %eax,%eax
  4024ef:	4c 8d 04 dd 00 fc ff 	lea    -0x400(,%rbx,8),%r8
  4024f6:	ff 
  4024f7:	4e 8d 24 06          	lea    (%rsi,%r8,1),%r12
  4024fb:	4a 8d 1c 02          	lea    (%rdx,%r8,1),%rbx
  4024ff:	49 01 f8             	add    %rdi,%r8
  402502:	66 0f 1f 44 00 00    	nopw   0x0(%rax,%rax,1)
  402508:	66 0f 10 04 03       	movupd (%rbx,%rax,1),%xmm0
  40250d:	83 c1 01             	add    $0x1,%ecx
  402510:	66 41 0f 58 04 04    	addpd  (%r12,%rax,1),%xmm0
  402516:	41 0f 11 04 00       	movups %xmm0,(%r8,%rax,1)
  40251b:	48 83 c0 10          	add    $0x10,%rax
  40251f:	41 39 c9             	cmp    %ecx,%r9d
  402522:	77 e4                	ja     402508 <_Z3addPdS_S_i+0xd78>
  402524:	45 01 d3             	add    %r10d,%r11d
  402527:	44 39 d5             	cmp    %r10d,%ebp
  40252a:	74 15                	je     402541 <_Z3addPdS_S_i+0xdb1>
  40252c:	4d 63 db             	movslq %r11d,%r11
  40252f:	f2 42 0f 10 04 de    	movsd  (%rsi,%r11,8),%xmm0
  402535:	f2 42 0f 58 04 da    	addsd  (%rdx,%r11,8),%xmm0
  40253b:	f2 42 0f 11 04 df    	movsd  %xmm0,(%rdi,%r11,8)
  402541:	5b                   	pop    %rbx
  402542:	5d                   	pop    %rbp
  402543:	41 5c                	pop    %r12
  402545:	c3                   	retq   
  402546:	66 2e 0f 1f 84 00 00 	nopw   %cs:0x0(%rax,%rax,1)
  40254d:	00 00 00 
  402550:	45 31 d2             	xor    %r10d,%r10d
  402553:	85 c9                	test   %ecx,%ecx
  402555:	7e ea                	jle    402541 <_Z3addPdS_S_i+0xdb1>
  402557:	66 0f 1f 84 00 00 00 	nopw   0x0(%rax,%rax,1)
  40255e:	00 00 
  402560:	49 63 c2             	movslq %r10d,%rax
  402563:	41 83 ea 80          	sub    $0xffffff80,%r10d
  402567:	48 c1 e0 03          	shl    $0x3,%rax
  40256b:	4c 8d 0c 06          	lea    (%rsi,%rax,1),%r9
  40256f:	4c 8d 04 02          	lea    (%rdx,%rax,1),%r8
  402573:	48 01 f8             	add    %rdi,%rax
  402576:	44 39 d1             	cmp    %r10d,%ecx
  402579:	f2 41 0f 10 81 00 04 	movsd  0x400(%r9),%xmm0
  402580:	00 00 
  402582:	f2 41 0f 58 80 00 04 	addsd  0x400(%r8),%xmm0
  402589:	00 00 
  40258b:	f2 0f 11 80 00 04 00 	movsd  %xmm0,0x400(%rax)
  402592:	00 
  402593:	f2 41 0f 10 81 f8 03 	movsd  0x3f8(%r9),%xmm0
  40259a:	00 00 
  40259c:	f2 41 0f 58 80 f8 03 	addsd  0x3f8(%r8),%xmm0
  4025a3:	00 00 
  4025a5:	f2 0f 11 80 f8 03 00 	movsd  %xmm0,0x3f8(%rax)
  4025ac:	00 
  4025ad:	f2 41 0f 10 81 f0 03 	movsd  0x3f0(%r9),%xmm0
  4025b4:	00 00 
  4025b6:	f2 41 0f 58 80 f0 03 	addsd  0x3f0(%r8),%xmm0
  4025bd:	00 00 
  4025bf:	f2 0f 11 80 f0 03 00 	movsd  %xmm0,0x3f0(%rax)
  4025c6:	00 
  4025c7:	f2 41 0f 10 81 e8 03 	movsd  0x3e8(%r9),%xmm0
  4025ce:	00 00 
  4025d0:	f2 41 0f 58 80 e8 03 	addsd  0x3e8(%r8),%xmm0
  4025d7:	00 00 
  4025d9:	f2 0f 11 80 e8 03 00 	movsd  %xmm0,0x3e8(%rax)
  4025e0:	00 
  4025e1:	f2 41 0f 10 81 e0 03 	movsd  0x3e0(%r9),%xmm0
  4025e8:	00 00 
  4025ea:	f2 41 0f 58 80 e0 03 	addsd  0x3e0(%r8),%xmm0
  4025f1:	00 00 
  4025f3:	f2 0f 11 80 e0 03 00 	movsd  %xmm0,0x3e0(%rax)
  4025fa:	00 
  4025fb:	f2 41 0f 10 81 d8 03 	movsd  0x3d8(%r9),%xmm0
  402602:	00 00 
  402604:	f2 41 0f 58 80 d8 03 	addsd  0x3d8(%r8),%xmm0
  40260b:	00 00 
  40260d:	f2 0f 11 80 d8 03 00 	movsd  %xmm0,0x3d8(%rax)
  402614:	00 
  402615:	f2 41 0f 10 81 d0 03 	movsd  0x3d0(%r9),%xmm0
  40261c:	00 00 
  40261e:	f2 41 0f 58 80 d0 03 	addsd  0x3d0(%r8),%xmm0
  402625:	00 00 
  402627:	f2 0f 11 80 d0 03 00 	movsd  %xmm0,0x3d0(%rax)
  40262e:	00 
  40262f:	f2 41 0f 10 81 c8 03 	movsd  0x3c8(%r9),%xmm0
  402636:	00 00 
  402638:	f2 41 0f 58 80 c8 03 	addsd  0x3c8(%r8),%xmm0
  40263f:	00 00 
  402641:	f2 0f 11 80 c8 03 00 	movsd  %xmm0,0x3c8(%rax)
  402648:	00 
  402649:	f2 41 0f 10 81 c0 03 	movsd  0x3c0(%r9),%xmm0
  402650:	00 00 
  402652:	f2 41 0f 58 80 c0 03 	addsd  0x3c0(%r8),%xmm0
  402659:	00 00 
  40265b:	f2 0f 11 80 c0 03 00 	movsd  %xmm0,0x3c0(%rax)
  402662:	00 
  402663:	f2 41 0f 10 81 b8 03 	movsd  0x3b8(%r9),%xmm0
  40266a:	00 00 
  40266c:	f2 41 0f 58 80 b8 03 	addsd  0x3b8(%r8),%xmm0
  402673:	00 00 
  402675:	f2 0f 11 80 b8 03 00 	movsd  %xmm0,0x3b8(%rax)
  40267c:	00 
  40267d:	f2 41 0f 10 81 b0 03 	movsd  0x3b0(%r9),%xmm0
  402684:	00 00 
  402686:	f2 41 0f 58 80 b0 03 	addsd  0x3b0(%r8),%xmm0
  40268d:	00 00 
  40268f:	f2 0f 11 80 b0 03 00 	movsd  %xmm0,0x3b0(%rax)
  402696:	00 
  402697:	f2 41 0f 10 81 a8 03 	movsd  0x3a8(%r9),%xmm0
  40269e:	00 00 
  4026a0:	f2 41 0f 58 80 a8 03 	addsd  0x3a8(%r8),%xmm0
  4026a7:	00 00 
  4026a9:	f2 0f 11 80 a8 03 00 	movsd  %xmm0,0x3a8(%rax)
  4026b0:	00 
  4026b1:	f2 41 0f 10 81 a0 03 	movsd  0x3a0(%r9),%xmm0
  4026b8:	00 00 
  4026ba:	f2 41 0f 58 80 a0 03 	addsd  0x3a0(%r8),%xmm0
  4026c1:	00 00 
  4026c3:	f2 0f 11 80 a0 03 00 	movsd  %xmm0,0x3a0(%rax)
  4026ca:	00 
  4026cb:	f2 41 0f 10 81 98 03 	movsd  0x398(%r9),%xmm0
  4026d2:	00 00 
  4026d4:	f2 41 0f 58 80 98 03 	addsd  0x398(%r8),%xmm0
  4026db:	00 00 
  4026dd:	f2 0f 11 80 98 03 00 	movsd  %xmm0,0x398(%rax)
  4026e4:	00 
  4026e5:	f2 41 0f 10 81 90 03 	movsd  0x390(%r9),%xmm0
  4026ec:	00 00 
  4026ee:	f2 41 0f 58 80 90 03 	addsd  0x390(%r8),%xmm0
  4026f5:	00 00 
  4026f7:	f2 0f 11 80 90 03 00 	movsd  %xmm0,0x390(%rax)
  4026fe:	00 
  4026ff:	f2 41 0f 10 81 88 03 	movsd  0x388(%r9),%xmm0
  402706:	00 00 
  402708:	f2 41 0f 58 80 88 03 	addsd  0x388(%r8),%xmm0
  40270f:	00 00 
  402711:	f2 0f 11 80 88 03 00 	movsd  %xmm0,0x388(%rax)
  402718:	00 
  402719:	f2 41 0f 10 81 80 03 	movsd  0x380(%r9),%xmm0
  402720:	00 00 
  402722:	f2 41 0f 58 80 80 03 	addsd  0x380(%r8),%xmm0
  402729:	00 00 
  40272b:	f2 0f 11 80 80 03 00 	movsd  %xmm0,0x380(%rax)
  402732:	00 
  402733:	f2 41 0f 10 81 78 03 	movsd  0x378(%r9),%xmm0
  40273a:	00 00 
  40273c:	f2 41 0f 58 80 78 03 	addsd  0x378(%r8),%xmm0
  402743:	00 00 
  402745:	f2 0f 11 80 78 03 00 	movsd  %xmm0,0x378(%rax)
  40274c:	00 
  40274d:	f2 41 0f 10 81 70 03 	movsd  0x370(%r9),%xmm0
  402754:	00 00 
  402756:	f2 41 0f 58 80 70 03 	addsd  0x370(%r8),%xmm0
  40275d:	00 00 
  40275f:	f2 0f 11 80 70 03 00 	movsd  %xmm0,0x370(%rax)
  402766:	00 
  402767:	f2 41 0f 10 81 68 03 	movsd  0x368(%r9),%xmm0
  40276e:	00 00 
  402770:	f2 41 0f 58 80 68 03 	addsd  0x368(%r8),%xmm0
  402777:	00 00 
  402779:	f2 0f 11 80 68 03 00 	movsd  %xmm0,0x368(%rax)
  402780:	00 
  402781:	f2 41 0f 10 81 60 03 	movsd  0x360(%r9),%xmm0
  402788:	00 00 
  40278a:	f2 41 0f 58 80 60 03 	addsd  0x360(%r8),%xmm0
  402791:	00 00 
  402793:	f2 0f 11 80 60 03 00 	movsd  %xmm0,0x360(%rax)
  40279a:	00 
  40279b:	f2 41 0f 10 81 58 03 	movsd  0x358(%r9),%xmm0
  4027a2:	00 00 
  4027a4:	f2 41 0f 58 80 58 03 	addsd  0x358(%r8),%xmm0
  4027ab:	00 00 
  4027ad:	f2 0f 11 80 58 03 00 	movsd  %xmm0,0x358(%rax)
  4027b4:	00 
  4027b5:	f2 41 0f 10 81 50 03 	movsd  0x350(%r9),%xmm0
  4027bc:	00 00 
  4027be:	f2 41 0f 58 80 50 03 	addsd  0x350(%r8),%xmm0
  4027c5:	00 00 
  4027c7:	f2 0f 11 80 50 03 00 	movsd  %xmm0,0x350(%rax)
  4027ce:	00 
  4027cf:	f2 41 0f 10 81 48 03 	movsd  0x348(%r9),%xmm0
  4027d6:	00 00 
  4027d8:	f2 41 0f 58 80 48 03 	addsd  0x348(%r8),%xmm0
  4027df:	00 00 
  4027e1:	f2 0f 11 80 48 03 00 	movsd  %xmm0,0x348(%rax)
  4027e8:	00 
  4027e9:	f2 41 0f 10 81 40 03 	movsd  0x340(%r9),%xmm0
  4027f0:	00 00 
  4027f2:	f2 41 0f 58 80 40 03 	addsd  0x340(%r8),%xmm0
  4027f9:	00 00 
  4027fb:	f2 0f 11 80 40 03 00 	movsd  %xmm0,0x340(%rax)
  402802:	00 
  402803:	f2 41 0f 10 81 38 03 	movsd  0x338(%r9),%xmm0
  40280a:	00 00 
  40280c:	f2 41 0f 58 80 38 03 	addsd  0x338(%r8),%xmm0
  402813:	00 00 
  402815:	f2 0f 11 80 38 03 00 	movsd  %xmm0,0x338(%rax)
  40281c:	00 
  40281d:	f2 41 0f 10 81 30 03 	movsd  0x330(%r9),%xmm0
  402824:	00 00 
  402826:	f2 41 0f 58 80 30 03 	addsd  0x330(%r8),%xmm0
  40282d:	00 00 
  40282f:	f2 0f 11 80 30 03 00 	movsd  %xmm0,0x330(%rax)
  402836:	00 
  402837:	f2 41 0f 10 81 28 03 	movsd  0x328(%r9),%xmm0
  40283e:	00 00 
  402840:	f2 41 0f 58 80 28 03 	addsd  0x328(%r8),%xmm0
  402847:	00 00 
  402849:	f2 0f 11 80 28 03 00 	movsd  %xmm0,0x328(%rax)
  402850:	00 
  402851:	f2 41 0f 10 81 20 03 	movsd  0x320(%r9),%xmm0
  402858:	00 00 
  40285a:	f2 41 0f 58 80 20 03 	addsd  0x320(%r8),%xmm0
  402861:	00 00 
  402863:	f2 0f 11 80 20 03 00 	movsd  %xmm0,0x320(%rax)
  40286a:	00 
  40286b:	f2 41 0f 10 81 18 03 	movsd  0x318(%r9),%xmm0
  402872:	00 00 
  402874:	f2 41 0f 58 80 18 03 	addsd  0x318(%r8),%xmm0
  40287b:	00 00 
  40287d:	f2 0f 11 80 18 03 00 	movsd  %xmm0,0x318(%rax)
  402884:	00 
  402885:	f2 41 0f 10 81 10 03 	movsd  0x310(%r9),%xmm0
  40288c:	00 00 
  40288e:	f2 41 0f 58 80 10 03 	addsd  0x310(%r8),%xmm0
  402895:	00 00 
  402897:	f2 0f 11 80 10 03 00 	movsd  %xmm0,0x310(%rax)
  40289e:	00 
  40289f:	f2 41 0f 10 81 08 03 	movsd  0x308(%r9),%xmm0
  4028a6:	00 00 
  4028a8:	f2 41 0f 58 80 08 03 	addsd  0x308(%r8),%xmm0
  4028af:	00 00 
  4028b1:	f2 0f 11 80 08 03 00 	movsd  %xmm0,0x308(%rax)
  4028b8:	00 
  4028b9:	f2 41 0f 10 81 00 03 	movsd  0x300(%r9),%xmm0
  4028c0:	00 00 
  4028c2:	f2 41 0f 58 80 00 03 	addsd  0x300(%r8),%xmm0
  4028c9:	00 00 
  4028cb:	f2 0f 11 80 00 03 00 	movsd  %xmm0,0x300(%rax)
  4028d2:	00 
  4028d3:	f2 41 0f 10 81 f8 02 	movsd  0x2f8(%r9),%xmm0
  4028da:	00 00 
  4028dc:	f2 41 0f 58 80 f8 02 	addsd  0x2f8(%r8),%xmm0
  4028e3:	00 00 
  4028e5:	f2 0f 11 80 f8 02 00 	movsd  %xmm0,0x2f8(%rax)
  4028ec:	00 
  4028ed:	f2 41 0f 10 81 f0 02 	movsd  0x2f0(%r9),%xmm0
  4028f4:	00 00 
  4028f6:	f2 41 0f 58 80 f0 02 	addsd  0x2f0(%r8),%xmm0
  4028fd:	00 00 
  4028ff:	f2 0f 11 80 f0 02 00 	movsd  %xmm0,0x2f0(%rax)
  402906:	00 
  402907:	f2 41 0f 10 81 e8 02 	movsd  0x2e8(%r9),%xmm0
  40290e:	00 00 
  402910:	f2 41 0f 58 80 e8 02 	addsd  0x2e8(%r8),%xmm0
  402917:	00 00 
  402919:	f2 0f 11 80 e8 02 00 	movsd  %xmm0,0x2e8(%rax)
  402920:	00 
  402921:	f2 41 0f 10 81 e0 02 	movsd  0x2e0(%r9),%xmm0
  402928:	00 00 
  40292a:	f2 41 0f 58 80 e0 02 	addsd  0x2e0(%r8),%xmm0
  402931:	00 00 
  402933:	f2 0f 11 80 e0 02 00 	movsd  %xmm0,0x2e0(%rax)
  40293a:	00 
  40293b:	f2 41 0f 10 81 d8 02 	movsd  0x2d8(%r9),%xmm0
  402942:	00 00 
  402944:	f2 41 0f 58 80 d8 02 	addsd  0x2d8(%r8),%xmm0
  40294b:	00 00 
  40294d:	f2 0f 11 80 d8 02 00 	movsd  %xmm0,0x2d8(%rax)
  402954:	00 
  402955:	f2 41 0f 10 81 d0 02 	movsd  0x2d0(%r9),%xmm0
  40295c:	00 00 
  40295e:	f2 41 0f 58 80 d0 02 	addsd  0x2d0(%r8),%xmm0
  402965:	00 00 
  402967:	f2 0f 11 80 d0 02 00 	movsd  %xmm0,0x2d0(%rax)
  40296e:	00 
  40296f:	f2 41 0f 10 81 c8 02 	movsd  0x2c8(%r9),%xmm0
  402976:	00 00 
  402978:	f2 41 0f 58 80 c8 02 	addsd  0x2c8(%r8),%xmm0
  40297f:	00 00 
  402981:	f2 0f 11 80 c8 02 00 	movsd  %xmm0,0x2c8(%rax)
  402988:	00 
  402989:	f2 41 0f 10 81 c0 02 	movsd  0x2c0(%r9),%xmm0
  402990:	00 00 
  402992:	f2 41 0f 58 80 c0 02 	addsd  0x2c0(%r8),%xmm0
  402999:	00 00 
  40299b:	f2 0f 11 80 c0 02 00 	movsd  %xmm0,0x2c0(%rax)
  4029a2:	00 
  4029a3:	f2 41 0f 10 81 b8 02 	movsd  0x2b8(%r9),%xmm0
  4029aa:	00 00 
  4029ac:	f2 41 0f 58 80 b8 02 	addsd  0x2b8(%r8),%xmm0
  4029b3:	00 00 
  4029b5:	f2 0f 11 80 b8 02 00 	movsd  %xmm0,0x2b8(%rax)
  4029bc:	00 
  4029bd:	f2 41 0f 10 81 b0 02 	movsd  0x2b0(%r9),%xmm0
  4029c4:	00 00 
  4029c6:	f2 41 0f 58 80 b0 02 	addsd  0x2b0(%r8),%xmm0
  4029cd:	00 00 
  4029cf:	f2 0f 11 80 b0 02 00 	movsd  %xmm0,0x2b0(%rax)
  4029d6:	00 
  4029d7:	f2 41 0f 10 81 a8 02 	movsd  0x2a8(%r9),%xmm0
  4029de:	00 00 
  4029e0:	f2 41 0f 58 80 a8 02 	addsd  0x2a8(%r8),%xmm0
  4029e7:	00 00 
  4029e9:	f2 0f 11 80 a8 02 00 	movsd  %xmm0,0x2a8(%rax)
  4029f0:	00 
  4029f1:	f2 41 0f 10 81 a0 02 	movsd  0x2a0(%r9),%xmm0
  4029f8:	00 00 
  4029fa:	f2 41 0f 58 80 a0 02 	addsd  0x2a0(%r8),%xmm0
  402a01:	00 00 
  402a03:	f2 0f 11 80 a0 02 00 	movsd  %xmm0,0x2a0(%rax)
  402a0a:	00 
  402a0b:	f2 41 0f 10 81 98 02 	movsd  0x298(%r9),%xmm0
  402a12:	00 00 
  402a14:	f2 41 0f 58 80 98 02 	addsd  0x298(%r8),%xmm0
  402a1b:	00 00 
  402a1d:	f2 0f 11 80 98 02 00 	movsd  %xmm0,0x298(%rax)
  402a24:	00 
  402a25:	f2 41 0f 10 81 90 02 	movsd  0x290(%r9),%xmm0
  402a2c:	00 00 
  402a2e:	f2 41 0f 58 80 90 02 	addsd  0x290(%r8),%xmm0
  402a35:	00 00 
  402a37:	f2 0f 11 80 90 02 00 	movsd  %xmm0,0x290(%rax)
  402a3e:	00 
  402a3f:	f2 41 0f 10 81 88 02 	movsd  0x288(%r9),%xmm0
  402a46:	00 00 
  402a48:	f2 41 0f 58 80 88 02 	addsd  0x288(%r8),%xmm0
  402a4f:	00 00 
  402a51:	f2 0f 11 80 88 02 00 	movsd  %xmm0,0x288(%rax)
  402a58:	00 
  402a59:	f2 41 0f 10 81 80 02 	movsd  0x280(%r9),%xmm0
  402a60:	00 00 
  402a62:	f2 41 0f 58 80 80 02 	addsd  0x280(%r8),%xmm0
  402a69:	00 00 
  402a6b:	f2 0f 11 80 80 02 00 	movsd  %xmm0,0x280(%rax)
  402a72:	00 
  402a73:	f2 41 0f 10 81 78 02 	movsd  0x278(%r9),%xmm0
  402a7a:	00 00 
  402a7c:	f2 41 0f 58 80 78 02 	addsd  0x278(%r8),%xmm0
  402a83:	00 00 
  402a85:	f2 0f 11 80 78 02 00 	movsd  %xmm0,0x278(%rax)
  402a8c:	00 
  402a8d:	f2 41 0f 10 81 70 02 	movsd  0x270(%r9),%xmm0
  402a94:	00 00 
  402a96:	f2 41 0f 58 80 70 02 	addsd  0x270(%r8),%xmm0
  402a9d:	00 00 
  402a9f:	f2 0f 11 80 70 02 00 	movsd  %xmm0,0x270(%rax)
  402aa6:	00 
  402aa7:	f2 41 0f 10 81 68 02 	movsd  0x268(%r9),%xmm0
  402aae:	00 00 
  402ab0:	f2 41 0f 58 80 68 02 	addsd  0x268(%r8),%xmm0
  402ab7:	00 00 
  402ab9:	f2 0f 11 80 68 02 00 	movsd  %xmm0,0x268(%rax)
  402ac0:	00 
  402ac1:	f2 41 0f 10 81 60 02 	movsd  0x260(%r9),%xmm0
  402ac8:	00 00 
  402aca:	f2 41 0f 58 80 60 02 	addsd  0x260(%r8),%xmm0
  402ad1:	00 00 
  402ad3:	f2 0f 11 80 60 02 00 	movsd  %xmm0,0x260(%rax)
  402ada:	00 
  402adb:	f2 41 0f 10 81 58 02 	movsd  0x258(%r9),%xmm0
  402ae2:	00 00 
  402ae4:	f2 41 0f 58 80 58 02 	addsd  0x258(%r8),%xmm0
  402aeb:	00 00 
  402aed:	f2 0f 11 80 58 02 00 	movsd  %xmm0,0x258(%rax)
  402af4:	00 
  402af5:	f2 41 0f 10 81 50 02 	movsd  0x250(%r9),%xmm0
  402afc:	00 00 
  402afe:	f2 41 0f 58 80 50 02 	addsd  0x250(%r8),%xmm0
  402b05:	00 00 
  402b07:	f2 0f 11 80 50 02 00 	movsd  %xmm0,0x250(%rax)
  402b0e:	00 
  402b0f:	f2 41 0f 10 81 48 02 	movsd  0x248(%r9),%xmm0
  402b16:	00 00 
  402b18:	f2 41 0f 58 80 48 02 	addsd  0x248(%r8),%xmm0
  402b1f:	00 00 
  402b21:	f2 0f 11 80 48 02 00 	movsd  %xmm0,0x248(%rax)
  402b28:	00 
  402b29:	f2 41 0f 10 81 40 02 	movsd  0x240(%r9),%xmm0
  402b30:	00 00 
  402b32:	f2 41 0f 58 80 40 02 	addsd  0x240(%r8),%xmm0
  402b39:	00 00 
  402b3b:	f2 0f 11 80 40 02 00 	movsd  %xmm0,0x240(%rax)
  402b42:	00 
  402b43:	f2 41 0f 10 81 38 02 	movsd  0x238(%r9),%xmm0
  402b4a:	00 00 
  402b4c:	f2 41 0f 58 80 38 02 	addsd  0x238(%r8),%xmm0
  402b53:	00 00 
  402b55:	f2 0f 11 80 38 02 00 	movsd  %xmm0,0x238(%rax)
  402b5c:	00 
  402b5d:	f2 41 0f 10 81 30 02 	movsd  0x230(%r9),%xmm0
  402b64:	00 00 
  402b66:	f2 41 0f 58 80 30 02 	addsd  0x230(%r8),%xmm0
  402b6d:	00 00 
  402b6f:	f2 0f 11 80 30 02 00 	movsd  %xmm0,0x230(%rax)
  402b76:	00 
  402b77:	f2 41 0f 10 81 28 02 	movsd  0x228(%r9),%xmm0
  402b7e:	00 00 
  402b80:	f2 41 0f 58 80 28 02 	addsd  0x228(%r8),%xmm0
  402b87:	00 00 
  402b89:	f2 0f 11 80 28 02 00 	movsd  %xmm0,0x228(%rax)
  402b90:	00 
  402b91:	f2 41 0f 10 81 20 02 	movsd  0x220(%r9),%xmm0
  402b98:	00 00 
  402b9a:	f2 41 0f 58 80 20 02 	addsd  0x220(%r8),%xmm0
  402ba1:	00 00 
  402ba3:	f2 0f 11 80 20 02 00 	movsd  %xmm0,0x220(%rax)
  402baa:	00 
  402bab:	f2 41 0f 10 81 18 02 	movsd  0x218(%r9),%xmm0
  402bb2:	00 00 
  402bb4:	f2 41 0f 58 80 18 02 	addsd  0x218(%r8),%xmm0
  402bbb:	00 00 
  402bbd:	f2 0f 11 80 18 02 00 	movsd  %xmm0,0x218(%rax)
  402bc4:	00 
  402bc5:	f2 41 0f 10 81 10 02 	movsd  0x210(%r9),%xmm0
  402bcc:	00 00 
  402bce:	f2 41 0f 58 80 10 02 	addsd  0x210(%r8),%xmm0
  402bd5:	00 00 
  402bd7:	f2 0f 11 80 10 02 00 	movsd  %xmm0,0x210(%rax)
  402bde:	00 
  402bdf:	f2 41 0f 10 81 08 02 	movsd  0x208(%r9),%xmm0
  402be6:	00 00 
  402be8:	f2 41 0f 58 80 08 02 	addsd  0x208(%r8),%xmm0
  402bef:	00 00 
  402bf1:	f2 0f 11 80 08 02 00 	movsd  %xmm0,0x208(%rax)
  402bf8:	00 
  402bf9:	f2 41 0f 10 81 00 02 	movsd  0x200(%r9),%xmm0
  402c00:	00 00 
  402c02:	f2 41 0f 58 80 00 02 	addsd  0x200(%r8),%xmm0
  402c09:	00 00 
  402c0b:	f2 0f 11 80 00 02 00 	movsd  %xmm0,0x200(%rax)
  402c12:	00 
  402c13:	f2 41 0f 10 81 f8 01 	movsd  0x1f8(%r9),%xmm0
  402c1a:	00 00 
  402c1c:	f2 41 0f 58 80 f8 01 	addsd  0x1f8(%r8),%xmm0
  402c23:	00 00 
  402c25:	f2 0f 11 80 f8 01 00 	movsd  %xmm0,0x1f8(%rax)
  402c2c:	00 
  402c2d:	f2 41 0f 10 81 f0 01 	movsd  0x1f0(%r9),%xmm0
  402c34:	00 00 
  402c36:	f2 41 0f 58 80 f0 01 	addsd  0x1f0(%r8),%xmm0
  402c3d:	00 00 
  402c3f:	f2 0f 11 80 f0 01 00 	movsd  %xmm0,0x1f0(%rax)
  402c46:	00 
  402c47:	f2 41 0f 10 81 e8 01 	movsd  0x1e8(%r9),%xmm0
  402c4e:	00 00 
  402c50:	f2 41 0f 58 80 e8 01 	addsd  0x1e8(%r8),%xmm0
  402c57:	00 00 
  402c59:	f2 0f 11 80 e8 01 00 	movsd  %xmm0,0x1e8(%rax)
  402c60:	00 
  402c61:	f2 41 0f 10 81 e0 01 	movsd  0x1e0(%r9),%xmm0
  402c68:	00 00 
  402c6a:	f2 41 0f 58 80 e0 01 	addsd  0x1e0(%r8),%xmm0
  402c71:	00 00 
  402c73:	f2 0f 11 80 e0 01 00 	movsd  %xmm0,0x1e0(%rax)
  402c7a:	00 
  402c7b:	f2 41 0f 10 81 d8 01 	movsd  0x1d8(%r9),%xmm0
  402c82:	00 00 
  402c84:	f2 41 0f 58 80 d8 01 	addsd  0x1d8(%r8),%xmm0
  402c8b:	00 00 
  402c8d:	f2 0f 11 80 d8 01 00 	movsd  %xmm0,0x1d8(%rax)
  402c94:	00 
  402c95:	f2 41 0f 10 81 d0 01 	movsd  0x1d0(%r9),%xmm0
  402c9c:	00 00 
  402c9e:	f2 41 0f 58 80 d0 01 	addsd  0x1d0(%r8),%xmm0
  402ca5:	00 00 
  402ca7:	f2 0f 11 80 d0 01 00 	movsd  %xmm0,0x1d0(%rax)
  402cae:	00 
  402caf:	f2 41 0f 10 81 c8 01 	movsd  0x1c8(%r9),%xmm0
  402cb6:	00 00 
  402cb8:	f2 41 0f 58 80 c8 01 	addsd  0x1c8(%r8),%xmm0
  402cbf:	00 00 
  402cc1:	f2 0f 11 80 c8 01 00 	movsd  %xmm0,0x1c8(%rax)
  402cc8:	00 
  402cc9:	f2 41 0f 10 81 c0 01 	movsd  0x1c0(%r9),%xmm0
  402cd0:	00 00 
  402cd2:	f2 41 0f 58 80 c0 01 	addsd  0x1c0(%r8),%xmm0
  402cd9:	00 00 
  402cdb:	f2 0f 11 80 c0 01 00 	movsd  %xmm0,0x1c0(%rax)
  402ce2:	00 
  402ce3:	f2 41 0f 10 81 b8 01 	movsd  0x1b8(%r9),%xmm0
  402cea:	00 00 
  402cec:	f2 41 0f 58 80 b8 01 	addsd  0x1b8(%r8),%xmm0
  402cf3:	00 00 
  402cf5:	f2 0f 11 80 b8 01 00 	movsd  %xmm0,0x1b8(%rax)
  402cfc:	00 
  402cfd:	f2 41 0f 10 81 b0 01 	movsd  0x1b0(%r9),%xmm0
  402d04:	00 00 
  402d06:	f2 41 0f 58 80 b0 01 	addsd  0x1b0(%r8),%xmm0
  402d0d:	00 00 
  402d0f:	f2 0f 11 80 b0 01 00 	movsd  %xmm0,0x1b0(%rax)
  402d16:	00 
  402d17:	f2 41 0f 10 81 a8 01 	movsd  0x1a8(%r9),%xmm0
  402d1e:	00 00 
  402d20:	f2 41 0f 58 80 a8 01 	addsd  0x1a8(%r8),%xmm0
  402d27:	00 00 
  402d29:	f2 0f 11 80 a8 01 00 	movsd  %xmm0,0x1a8(%rax)
  402d30:	00 
  402d31:	f2 41 0f 10 81 a0 01 	movsd  0x1a0(%r9),%xmm0
  402d38:	00 00 
  402d3a:	f2 41 0f 58 80 a0 01 	addsd  0x1a0(%r8),%xmm0
  402d41:	00 00 
  402d43:	f2 0f 11 80 a0 01 00 	movsd  %xmm0,0x1a0(%rax)
  402d4a:	00 
  402d4b:	f2 41 0f 10 81 98 01 	movsd  0x198(%r9),%xmm0
  402d52:	00 00 
  402d54:	f2 41 0f 58 80 98 01 	addsd  0x198(%r8),%xmm0
  402d5b:	00 00 
  402d5d:	f2 0f 11 80 98 01 00 	movsd  %xmm0,0x198(%rax)
  402d64:	00 
  402d65:	f2 41 0f 10 81 90 01 	movsd  0x190(%r9),%xmm0
  402d6c:	00 00 
  402d6e:	f2 41 0f 58 80 90 01 	addsd  0x190(%r8),%xmm0
  402d75:	00 00 
  402d77:	f2 0f 11 80 90 01 00 	movsd  %xmm0,0x190(%rax)
  402d7e:	00 
  402d7f:	f2 41 0f 10 81 88 01 	movsd  0x188(%r9),%xmm0
  402d86:	00 00 
  402d88:	f2 41 0f 58 80 88 01 	addsd  0x188(%r8),%xmm0
  402d8f:	00 00 
  402d91:	f2 0f 11 80 88 01 00 	movsd  %xmm0,0x188(%rax)
  402d98:	00 
  402d99:	f2 41 0f 10 81 80 01 	movsd  0x180(%r9),%xmm0
  402da0:	00 00 
  402da2:	f2 41 0f 58 80 80 01 	addsd  0x180(%r8),%xmm0
  402da9:	00 00 
  402dab:	f2 0f 11 80 80 01 00 	movsd  %xmm0,0x180(%rax)
  402db2:	00 
  402db3:	f2 41 0f 10 81 78 01 	movsd  0x178(%r9),%xmm0
  402dba:	00 00 
  402dbc:	f2 41 0f 58 80 78 01 	addsd  0x178(%r8),%xmm0
  402dc3:	00 00 
  402dc5:	f2 0f 11 80 78 01 00 	movsd  %xmm0,0x178(%rax)
  402dcc:	00 
  402dcd:	f2 41 0f 10 81 70 01 	movsd  0x170(%r9),%xmm0
  402dd4:	00 00 
  402dd6:	f2 41 0f 58 80 70 01 	addsd  0x170(%r8),%xmm0
  402ddd:	00 00 
  402ddf:	f2 0f 11 80 70 01 00 	movsd  %xmm0,0x170(%rax)
  402de6:	00 
  402de7:	f2 41 0f 10 81 68 01 	movsd  0x168(%r9),%xmm0
  402dee:	00 00 
  402df0:	f2 41 0f 58 80 68 01 	addsd  0x168(%r8),%xmm0
  402df7:	00 00 
  402df9:	f2 0f 11 80 68 01 00 	movsd  %xmm0,0x168(%rax)
  402e00:	00 
  402e01:	f2 41 0f 10 81 60 01 	movsd  0x160(%r9),%xmm0
  402e08:	00 00 
  402e0a:	f2 41 0f 58 80 60 01 	addsd  0x160(%r8),%xmm0
  402e11:	00 00 
  402e13:	f2 0f 11 80 60 01 00 	movsd  %xmm0,0x160(%rax)
  402e1a:	00 
  402e1b:	f2 41 0f 10 81 58 01 	movsd  0x158(%r9),%xmm0
  402e22:	00 00 
  402e24:	f2 41 0f 58 80 58 01 	addsd  0x158(%r8),%xmm0
  402e2b:	00 00 
  402e2d:	f2 0f 11 80 58 01 00 	movsd  %xmm0,0x158(%rax)
  402e34:	00 
  402e35:	f2 41 0f 10 81 50 01 	movsd  0x150(%r9),%xmm0
  402e3c:	00 00 
  402e3e:	f2 41 0f 58 80 50 01 	addsd  0x150(%r8),%xmm0
  402e45:	00 00 
  402e47:	f2 0f 11 80 50 01 00 	movsd  %xmm0,0x150(%rax)
  402e4e:	00 
  402e4f:	f2 41 0f 10 81 48 01 	movsd  0x148(%r9),%xmm0
  402e56:	00 00 
  402e58:	f2 41 0f 58 80 48 01 	addsd  0x148(%r8),%xmm0
  402e5f:	00 00 
  402e61:	f2 0f 11 80 48 01 00 	movsd  %xmm0,0x148(%rax)
  402e68:	00 
  402e69:	f2 41 0f 10 81 40 01 	movsd  0x140(%r9),%xmm0
  402e70:	00 00 
  402e72:	f2 41 0f 58 80 40 01 	addsd  0x140(%r8),%xmm0
  402e79:	00 00 
  402e7b:	f2 0f 11 80 40 01 00 	movsd  %xmm0,0x140(%rax)
  402e82:	00 
  402e83:	f2 41 0f 10 81 38 01 	movsd  0x138(%r9),%xmm0
  402e8a:	00 00 
  402e8c:	f2 41 0f 58 80 38 01 	addsd  0x138(%r8),%xmm0
  402e93:	00 00 
  402e95:	f2 0f 11 80 38 01 00 	movsd  %xmm0,0x138(%rax)
  402e9c:	00 
  402e9d:	f2 41 0f 10 81 30 01 	movsd  0x130(%r9),%xmm0
  402ea4:	00 00 
  402ea6:	f2 41 0f 58 80 30 01 	addsd  0x130(%r8),%xmm0
  402ead:	00 00 
  402eaf:	f2 0f 11 80 30 01 00 	movsd  %xmm0,0x130(%rax)
  402eb6:	00 
  402eb7:	f2 41 0f 10 81 28 01 	movsd  0x128(%r9),%xmm0
  402ebe:	00 00 
  402ec0:	f2 41 0f 58 80 28 01 	addsd  0x128(%r8),%xmm0
  402ec7:	00 00 
  402ec9:	f2 0f 11 80 28 01 00 	movsd  %xmm0,0x128(%rax)
  402ed0:	00 
  402ed1:	f2 41 0f 10 81 20 01 	movsd  0x120(%r9),%xmm0
  402ed8:	00 00 
  402eda:	f2 41 0f 58 80 20 01 	addsd  0x120(%r8),%xmm0
  402ee1:	00 00 
  402ee3:	f2 0f 11 80 20 01 00 	movsd  %xmm0,0x120(%rax)
  402eea:	00 
  402eeb:	f2 41 0f 10 81 18 01 	movsd  0x118(%r9),%xmm0
  402ef2:	00 00 
  402ef4:	f2 41 0f 58 80 18 01 	addsd  0x118(%r8),%xmm0
  402efb:	00 00 
  402efd:	f2 0f 11 80 18 01 00 	movsd  %xmm0,0x118(%rax)
  402f04:	00 
  402f05:	f2 41 0f 10 81 10 01 	movsd  0x110(%r9),%xmm0
  402f0c:	00 00 
  402f0e:	f2 41 0f 58 80 10 01 	addsd  0x110(%r8),%xmm0
  402f15:	00 00 
  402f17:	f2 0f 11 80 10 01 00 	movsd  %xmm0,0x110(%rax)
  402f1e:	00 
  402f1f:	f2 41 0f 10 81 08 01 	movsd  0x108(%r9),%xmm0
  402f26:	00 00 
  402f28:	f2 41 0f 58 80 08 01 	addsd  0x108(%r8),%xmm0
  402f2f:	00 00 
  402f31:	f2 0f 11 80 08 01 00 	movsd  %xmm0,0x108(%rax)
  402f38:	00 
  402f39:	f2 41 0f 10 81 00 01 	movsd  0x100(%r9),%xmm0
  402f40:	00 00 
  402f42:	f2 41 0f 58 80 00 01 	addsd  0x100(%r8),%xmm0
  402f49:	00 00 
  402f4b:	f2 0f 11 80 00 01 00 	movsd  %xmm0,0x100(%rax)
  402f52:	00 
  402f53:	f2 41 0f 10 81 f8 00 	movsd  0xf8(%r9),%xmm0
  402f5a:	00 00 
  402f5c:	f2 41 0f 58 80 f8 00 	addsd  0xf8(%r8),%xmm0
  402f63:	00 00 
  402f65:	f2 0f 11 80 f8 00 00 	movsd  %xmm0,0xf8(%rax)
  402f6c:	00 
  402f6d:	f2 41 0f 10 81 f0 00 	movsd  0xf0(%r9),%xmm0
  402f74:	00 00 
  402f76:	f2 41 0f 58 80 f0 00 	addsd  0xf0(%r8),%xmm0
  402f7d:	00 00 
  402f7f:	f2 0f 11 80 f0 00 00 	movsd  %xmm0,0xf0(%rax)
  402f86:	00 
  402f87:	f2 41 0f 10 81 e8 00 	movsd  0xe8(%r9),%xmm0
  402f8e:	00 00 
  402f90:	f2 41 0f 58 80 e8 00 	addsd  0xe8(%r8),%xmm0
  402f97:	00 00 
  402f99:	f2 0f 11 80 e8 00 00 	movsd  %xmm0,0xe8(%rax)
  402fa0:	00 
  402fa1:	f2 41 0f 10 81 e0 00 	movsd  0xe0(%r9),%xmm0
  402fa8:	00 00 
  402faa:	f2 41 0f 58 80 e0 00 	addsd  0xe0(%r8),%xmm0
  402fb1:	00 00 
  402fb3:	f2 0f 11 80 e0 00 00 	movsd  %xmm0,0xe0(%rax)
  402fba:	00 
  402fbb:	f2 41 0f 10 81 d8 00 	movsd  0xd8(%r9),%xmm0
  402fc2:	00 00 
  402fc4:	f2 41 0f 58 80 d8 00 	addsd  0xd8(%r8),%xmm0
  402fcb:	00 00 
  402fcd:	f2 0f 11 80 d8 00 00 	movsd  %xmm0,0xd8(%rax)
  402fd4:	00 
  402fd5:	f2 41 0f 10 81 d0 00 	movsd  0xd0(%r9),%xmm0
  402fdc:	00 00 
  402fde:	f2 41 0f 58 80 d0 00 	addsd  0xd0(%r8),%xmm0
  402fe5:	00 00 
  402fe7:	f2 0f 11 80 d0 00 00 	movsd  %xmm0,0xd0(%rax)
  402fee:	00 
  402fef:	f2 41 0f 10 81 c8 00 	movsd  0xc8(%r9),%xmm0
  402ff6:	00 00 
  402ff8:	f2 41 0f 58 80 c8 00 	addsd  0xc8(%r8),%xmm0
  402fff:	00 00 
  403001:	f2 0f 11 80 c8 00 00 	movsd  %xmm0,0xc8(%rax)
  403008:	00 
  403009:	f2 41 0f 10 81 c0 00 	movsd  0xc0(%r9),%xmm0
  403010:	00 00 
  403012:	f2 41 0f 58 80 c0 00 	addsd  0xc0(%r8),%xmm0
  403019:	00 00 
  40301b:	f2 0f 11 80 c0 00 00 	movsd  %xmm0,0xc0(%rax)
  403022:	00 
  403023:	f2 41 0f 10 81 b8 00 	movsd  0xb8(%r9),%xmm0
  40302a:	00 00 
  40302c:	f2 41 0f 58 80 b8 00 	addsd  0xb8(%r8),%xmm0
  403033:	00 00 
  403035:	f2 0f 11 80 b8 00 00 	movsd  %xmm0,0xb8(%rax)
  40303c:	00 
  40303d:	f2 41 0f 10 81 b0 00 	movsd  0xb0(%r9),%xmm0
  403044:	00 00 
  403046:	f2 41 0f 58 80 b0 00 	addsd  0xb0(%r8),%xmm0
  40304d:	00 00 
  40304f:	f2 0f 11 80 b0 00 00 	movsd  %xmm0,0xb0(%rax)
  403056:	00 
  403057:	f2 41 0f 10 81 a8 00 	movsd  0xa8(%r9),%xmm0
  40305e:	00 00 
  403060:	f2 41 0f 58 80 a8 00 	addsd  0xa8(%r8),%xmm0
  403067:	00 00 
  403069:	f2 0f 11 80 a8 00 00 	movsd  %xmm0,0xa8(%rax)
  403070:	00 
  403071:	f2 41 0f 10 81 a0 00 	movsd  0xa0(%r9),%xmm0
  403078:	00 00 
  40307a:	f2 41 0f 58 80 a0 00 	addsd  0xa0(%r8),%xmm0
  403081:	00 00 
  403083:	f2 0f 11 80 a0 00 00 	movsd  %xmm0,0xa0(%rax)
  40308a:	00 
  40308b:	f2 41 0f 10 81 98 00 	movsd  0x98(%r9),%xmm0
  403092:	00 00 
  403094:	f2 41 0f 58 80 98 00 	addsd  0x98(%r8),%xmm0
  40309b:	00 00 
  40309d:	f2 0f 11 80 98 00 00 	movsd  %xmm0,0x98(%rax)
  4030a4:	00 
  4030a5:	f2 41 0f 10 81 90 00 	movsd  0x90(%r9),%xmm0
  4030ac:	00 00 
  4030ae:	f2 41 0f 58 80 90 00 	addsd  0x90(%r8),%xmm0
  4030b5:	00 00 
  4030b7:	f2 0f 11 80 90 00 00 	movsd  %xmm0,0x90(%rax)
  4030be:	00 
  4030bf:	f2 41 0f 10 81 88 00 	movsd  0x88(%r9),%xmm0
  4030c6:	00 00 
  4030c8:	f2 41 0f 58 80 88 00 	addsd  0x88(%r8),%xmm0
  4030cf:	00 00 
  4030d1:	f2 0f 11 80 88 00 00 	movsd  %xmm0,0x88(%rax)
  4030d8:	00 
  4030d9:	f2 41 0f 10 81 80 00 	movsd  0x80(%r9),%xmm0
  4030e0:	00 00 
  4030e2:	f2 41 0f 58 80 80 00 	addsd  0x80(%r8),%xmm0
  4030e9:	00 00 
  4030eb:	f2 0f 11 80 80 00 00 	movsd  %xmm0,0x80(%rax)
  4030f2:	00 
  4030f3:	f2 41 0f 10 41 78    	movsd  0x78(%r9),%xmm0
  4030f9:	f2 41 0f 58 40 78    	addsd  0x78(%r8),%xmm0
  4030ff:	f2 0f 11 40 78       	movsd  %xmm0,0x78(%rax)
  403104:	f2 41 0f 10 41 70    	movsd  0x70(%r9),%xmm0
  40310a:	f2 41 0f 58 40 70    	addsd  0x70(%r8),%xmm0
  403110:	f2 0f 11 40 70       	movsd  %xmm0,0x70(%rax)
  403115:	f2 41 0f 10 41 68    	movsd  0x68(%r9),%xmm0
  40311b:	f2 41 0f 58 40 68    	addsd  0x68(%r8),%xmm0
  403121:	f2 0f 11 40 68       	movsd  %xmm0,0x68(%rax)
  403126:	f2 41 0f 10 41 60    	movsd  0x60(%r9),%xmm0
  40312c:	f2 41 0f 58 40 60    	addsd  0x60(%r8),%xmm0
  403132:	f2 0f 11 40 60       	movsd  %xmm0,0x60(%rax)
  403137:	f2 41 0f 10 41 58    	movsd  0x58(%r9),%xmm0
  40313d:	f2 41 0f 58 40 58    	addsd  0x58(%r8),%xmm0
  403143:	f2 0f 11 40 58       	movsd  %xmm0,0x58(%rax)
  403148:	f2 41 0f 10 41 50    	movsd  0x50(%r9),%xmm0
  40314e:	f2 41 0f 58 40 50    	addsd  0x50(%r8),%xmm0
  403154:	f2 0f 11 40 50       	movsd  %xmm0,0x50(%rax)
  403159:	f2 41 0f 10 41 48    	movsd  0x48(%r9),%xmm0
  40315f:	f2 41 0f 58 40 48    	addsd  0x48(%r8),%xmm0
  403165:	f2 0f 11 40 48       	movsd  %xmm0,0x48(%rax)
  40316a:	f2 41 0f 10 41 40    	movsd  0x40(%r9),%xmm0
  403170:	f2 41 0f 58 40 40    	addsd  0x40(%r8),%xmm0
  403176:	f2 0f 11 40 40       	movsd  %xmm0,0x40(%rax)
  40317b:	f2 41 0f 10 41 38    	movsd  0x38(%r9),%xmm0
  403181:	f2 41 0f 58 40 38    	addsd  0x38(%r8),%xmm0
  403187:	f2 0f 11 40 38       	movsd  %xmm0,0x38(%rax)
  40318c:	f2 41 0f 10 41 30    	movsd  0x30(%r9),%xmm0
  403192:	f2 41 0f 58 40 30    	addsd  0x30(%r8),%xmm0
  403198:	f2 0f 11 40 30       	movsd  %xmm0,0x30(%rax)
  40319d:	f2 41 0f 10 41 28    	movsd  0x28(%r9),%xmm0
  4031a3:	f2 41 0f 58 40 28    	addsd  0x28(%r8),%xmm0
  4031a9:	f2 0f 11 40 28       	movsd  %xmm0,0x28(%rax)
  4031ae:	f2 41 0f 10 41 20    	movsd  0x20(%r9),%xmm0
  4031b4:	f2 41 0f 58 40 20    	addsd  0x20(%r8),%xmm0
  4031ba:	f2 0f 11 40 20       	movsd  %xmm0,0x20(%rax)
  4031bf:	f2 41 0f 10 41 18    	movsd  0x18(%r9),%xmm0
  4031c5:	f2 41 0f 58 40 18    	addsd  0x18(%r8),%xmm0
  4031cb:	f2 0f 11 40 18       	movsd  %xmm0,0x18(%rax)
  4031d0:	f2 41 0f 10 41 10    	movsd  0x10(%r9),%xmm0
  4031d6:	f2 41 0f 58 40 10    	addsd  0x10(%r8),%xmm0
  4031dc:	f2 0f 11 40 10       	movsd  %xmm0,0x10(%rax)
  4031e1:	f2 41 0f 10 41 08    	movsd  0x8(%r9),%xmm0
  4031e7:	f2 41 0f 58 40 08    	addsd  0x8(%r8),%xmm0
  4031ed:	f2 0f 11 40 08       	movsd  %xmm0,0x8(%rax)
  4031f2:	f2 41 0f 10 01       	movsd  (%r9),%xmm0
  4031f7:	f2 41 0f 58 00       	addsd  (%r8),%xmm0
  4031fc:	f2 0f 11 00          	movsd  %xmm0,(%rax)
  403200:	0f 8f 5a f3 ff ff    	jg     402560 <_Z3addPdS_S_i+0xdd0>
  403206:	e9 36 f3 ff ff       	jmpq   402541 <_Z3addPdS_S_i+0xdb1>
  40320b:	0f 1f 44 00 00       	nopl   0x0(%rax,%rax,1)
  403210:	4d 63 db             	movslq %r11d,%r11
  403213:	31 c0                	xor    %eax,%eax
  403215:	49 c1 e3 03          	shl    $0x3,%r11
  403219:	4c 01 de             	add    %r11,%rsi
  40321c:	4c 01 da             	add    %r11,%rdx
  40321f:	4c 01 df             	add    %r11,%rdi
  403222:	66 0f 1f 44 00 00    	nopw   0x0(%rax,%rax,1)
  403228:	f2 0f 10 04 06       	movsd  (%rsi,%rax,1),%xmm0
  40322d:	f2 0f 58 04 02       	addsd  (%rdx,%rax,1),%xmm0
  403232:	f2 0f 11 04 07       	movsd  %xmm0,(%rdi,%rax,1)
  403237:	48 83 c0 08          	add    $0x8,%rax
  40323b:	48 3d 00 04 00 00    	cmp    $0x400,%rax
  403241:	75 e5                	jne    403228 <_Z3addPdS_S_i+0x1a98>
  403243:	e9 f9 f2 ff ff       	jmpq   402541 <_Z3addPdS_S_i+0xdb1>
  403248:	0f 1f 84 00 00 00 00 	nopl   0x0(%rax,%rax,1)
  40324f:	00 
  403250:	41 ba 80 00 00 00    	mov    $0x80,%r10d
  403256:	41 b9 40 00 00 00    	mov    $0x40,%r9d
  40325c:	bd 80 00 00 00       	mov    $0x80,%ebp
  403261:	31 c0                	xor    %eax,%eax
  403263:	e9 80 f2 ff ff       	jmpq   4024e8 <_Z3addPdS_S_i+0xd58>
  403268:	0f 1f 84 00 00 00 00 	nopl   0x0(%rax,%rax,1)
  40326f:	00 

0000000000403270 <_Z8dumb_addPdS_S_i>:
  403270:	85 c9                	test   %ecx,%ecx
  403272:	0f 8e d3 00 00 00    	jle    40334b <_Z8dumb_addPdS_S_i+0xdb>
  403278:	48 8d 46 10          	lea    0x10(%rsi),%rax
  40327c:	4c 8d 47 10          	lea    0x10(%rdi),%r8
  403280:	48 39 c7             	cmp    %rax,%rdi
  403283:	41 0f 93 c1          	setae  %r9b
  403287:	4c 39 c6             	cmp    %r8,%rsi
  40328a:	0f 93 c0             	setae  %al
  40328d:	44 09 c8             	or     %r9d,%eax
  403290:	83 f9 0e             	cmp    $0xe,%ecx
  403293:	41 0f 97 c1          	seta   %r9b
  403297:	44 84 c8             	test   %r9b,%al
  40329a:	0f 84 b0 00 00 00    	je     403350 <_Z8dumb_addPdS_S_i+0xe0>
  4032a0:	48 8d 42 10          	lea    0x10(%rdx),%rax
  4032a4:	48 39 c7             	cmp    %rax,%rdi
  4032a7:	41 0f 93 c1          	setae  %r9b
  4032ab:	4c 39 c2             	cmp    %r8,%rdx
  4032ae:	0f 93 c0             	setae  %al
  4032b1:	41 08 c1             	or     %al,%r9b
  4032b4:	0f 84 96 00 00 00    	je     403350 <_Z8dumb_addPdS_S_i+0xe0>
  4032ba:	48 89 f0             	mov    %rsi,%rax
  4032bd:	41 54                	push   %r12
  4032bf:	55                   	push   %rbp
  4032c0:	48 c1 e0 3c          	shl    $0x3c,%rax
  4032c4:	53                   	push   %rbx
  4032c5:	48 c1 e8 3f          	shr    $0x3f,%rax
  4032c9:	39 c8                	cmp    %ecx,%eax
  4032cb:	0f 47 c1             	cmova  %ecx,%eax
  4032ce:	45 31 c9             	xor    %r9d,%r9d
  4032d1:	85 c0                	test   %eax,%eax
  4032d3:	74 12                	je     4032e7 <_Z8dumb_addPdS_S_i+0x77>
  4032d5:	f2 0f 10 06          	movsd  (%rsi),%xmm0
  4032d9:	41 b9 01 00 00 00    	mov    $0x1,%r9d
  4032df:	f2 0f 58 02          	addsd  (%rdx),%xmm0
  4032e3:	f2 0f 11 07          	movsd  %xmm0,(%rdi)
  4032e7:	29 c1                	sub    %eax,%ecx
  4032e9:	89 c0                	mov    %eax,%eax
  4032eb:	45 31 c0             	xor    %r8d,%r8d
  4032ee:	44 8d 59 fe          	lea    -0x2(%rcx),%r11d
  4032f2:	48 c1 e0 03          	shl    $0x3,%rax
  4032f6:	45 31 d2             	xor    %r10d,%r10d
  4032f9:	4c 8d 24 06          	lea    (%rsi,%rax,1),%r12
  4032fd:	48 8d 1c 02          	lea    (%rdx,%rax,1),%rbx
  403301:	48 01 f8             	add    %rdi,%rax
  403304:	41 d1 eb             	shr    %r11d
  403307:	41 83 c3 01          	add    $0x1,%r11d
  40330b:	43 8d 2c 1b          	lea    (%r11,%r11,1),%ebp
  40330f:	66 42 0f 10 04 03    	movupd (%rbx,%r8,1),%xmm0
  403315:	41 83 c2 01          	add    $0x1,%r10d
  403319:	66 43 0f 58 04 04    	addpd  (%r12,%r8,1),%xmm0
  40331f:	42 0f 11 04 00       	movups %xmm0,(%rax,%r8,1)
  403324:	49 83 c0 10          	add    $0x10,%r8
  403328:	45 39 da             	cmp    %r11d,%r10d
  40332b:	72 e2                	jb     40330f <_Z8dumb_addPdS_S_i+0x9f>
  40332d:	39 e9                	cmp    %ebp,%ecx
  40332f:	42 8d 44 0d 00       	lea    0x0(%rbp,%r9,1),%eax
  403334:	74 11                	je     403347 <_Z8dumb_addPdS_S_i+0xd7>
  403336:	48 98                	cltq   
  403338:	f2 0f 10 04 c6       	movsd  (%rsi,%rax,8),%xmm0
  40333d:	f2 0f 58 04 c2       	addsd  (%rdx,%rax,8),%xmm0
  403342:	f2 0f 11 04 c7       	movsd  %xmm0,(%rdi,%rax,8)
  403347:	5b                   	pop    %rbx
  403348:	5d                   	pop    %rbp
  403349:	41 5c                	pop    %r12
  40334b:	f3 c3                	repz retq 
  40334d:	0f 1f 00             	nopl   (%rax)
  403350:	31 c0                	xor    %eax,%eax
  403352:	66 0f 1f 44 00 00    	nopw   0x0(%rax,%rax,1)
  403358:	f2 0f 10 04 c6       	movsd  (%rsi,%rax,8),%xmm0
  40335d:	f2 0f 58 04 c2       	addsd  (%rdx,%rax,8),%xmm0
  403362:	f2 0f 11 04 c7       	movsd  %xmm0,(%rdi,%rax,8)
  403367:	48 83 c0 01          	add    $0x1,%rax
  40336b:	39 c1                	cmp    %eax,%ecx
  40336d:	7f e9                	jg     403358 <_Z8dumb_addPdS_S_i+0xe8>
  40336f:	f3 c3                	repz retq 
  403371:	66 2e 0f 1f 84 00 00 	nopw   %cs:0x0(%rax,%rax,1)
  403378:	00 00 00 
  40337b:	0f 1f 44 00 00       	nopl   0x0(%rax,%rax,1)

0000000000403380 <__libc_csu_init>:
  403380:	41 57                	push   %r15
  403382:	41 56                	push   %r14
  403384:	41 89 ff             	mov    %edi,%r15d
  403387:	41 55                	push   %r13
  403389:	41 54                	push   %r12
  40338b:	4c 8d 25 56 0a 20 00 	lea    0x200a56(%rip),%r12        # 603de8 <__frame_dummy_init_array_entry>
  403392:	55                   	push   %rbp
  403393:	48 8d 2d 5e 0a 20 00 	lea    0x200a5e(%rip),%rbp        # 603df8 <__init_array_end>
  40339a:	53                   	push   %rbx
  40339b:	49 89 f6             	mov    %rsi,%r14
  40339e:	49 89 d5             	mov    %rdx,%r13
  4033a1:	4c 29 e5             	sub    %r12,%rbp
  4033a4:	48 83 ec 08          	sub    $0x8,%rsp
  4033a8:	48 c1 fd 03          	sar    $0x3,%rbp
  4033ac:	e8 07 d3 ff ff       	callq  4006b8 <_init>
  4033b1:	48 85 ed             	test   %rbp,%rbp
  4033b4:	74 20                	je     4033d6 <__libc_csu_init+0x56>
  4033b6:	31 db                	xor    %ebx,%ebx
  4033b8:	0f 1f 84 00 00 00 00 	nopl   0x0(%rax,%rax,1)
  4033bf:	00 
  4033c0:	4c 89 ea             	mov    %r13,%rdx
  4033c3:	4c 89 f6             	mov    %r14,%rsi
  4033c6:	44 89 ff             	mov    %r15d,%edi
  4033c9:	41 ff 14 dc          	callq  *(%r12,%rbx,8)
  4033cd:	48 83 c3 01          	add    $0x1,%rbx
  4033d1:	48 39 eb             	cmp    %rbp,%rbx
  4033d4:	75 ea                	jne    4033c0 <__libc_csu_init+0x40>
  4033d6:	48 83 c4 08          	add    $0x8,%rsp
  4033da:	5b                   	pop    %rbx
  4033db:	5d                   	pop    %rbp
  4033dc:	41 5c                	pop    %r12
  4033de:	41 5d                	pop    %r13
  4033e0:	41 5e                	pop    %r14
  4033e2:	41 5f                	pop    %r15
  4033e4:	c3                   	retq   
  4033e5:	90                   	nop
  4033e6:	66 2e 0f 1f 84 00 00 	nopw   %cs:0x0(%rax,%rax,1)
  4033ed:	00 00 00 

00000000004033f0 <__libc_csu_fini>:
  4033f0:	f3 c3                	repz retq 

Disassembly of section .fini:

00000000004033f4 <_fini>:
  4033f4:	48 83 ec 08          	sub    $0x8,%rsp
  4033f8:	48 83 c4 08          	add    $0x8,%rsp
  4033fc:	c3                   	retq   
