
test:     file format elf64-x86-64


Disassembly of section .init:

0000000000401358 <_init>:
  401358:	48 83 ec 08          	sub    $0x8,%rsp
  40135c:	48 8b 05 95 bc 20 00 	mov    0x20bc95(%rip),%rax        # 60cff8 <_DYNAMIC+0x210>
  401363:	48 85 c0             	test   %rax,%rax
  401366:	74 05                	je     40136d <_init+0x15>
  401368:	e8 a3 02 00 00       	callq  401610 <_ZNSt8ios_base4InitD1Ev@plt+0x10>
  40136d:	48 83 c4 08          	add    $0x8,%rsp
  401371:	c3                   	retq   

Disassembly of section .plt:

0000000000401380 <__printf_chk@plt-0x10>:
  401380:	ff 35 82 bc 20 00    	pushq  0x20bc82(%rip)        # 60d008 <_GLOBAL_OFFSET_TABLE_+0x8>
  401386:	ff 25 84 bc 20 00    	jmpq   *0x20bc84(%rip)        # 60d010 <_GLOBAL_OFFSET_TABLE_+0x10>
  40138c:	0f 1f 40 00          	nopl   0x0(%rax)

0000000000401390 <__printf_chk@plt>:
  401390:	ff 25 82 bc 20 00    	jmpq   *0x20bc82(%rip)        # 60d018 <_GLOBAL_OFFSET_TABLE_+0x18>
  401396:	68 00 00 00 00       	pushq  $0x0
  40139b:	e9 e0 ff ff ff       	jmpq   401380 <_init+0x28>

00000000004013a0 <_Znam@plt>:
  4013a0:	ff 25 7a bc 20 00    	jmpq   *0x20bc7a(%rip)        # 60d020 <_GLOBAL_OFFSET_TABLE_+0x20>
  4013a6:	68 01 00 00 00       	pushq  $0x1
  4013ab:	e9 d0 ff ff ff       	jmpq   401380 <_init+0x28>

00000000004013b0 <_ZNSo3putEc@plt>:
  4013b0:	ff 25 72 bc 20 00    	jmpq   *0x20bc72(%rip)        # 60d028 <_GLOBAL_OFFSET_TABLE_+0x28>
  4013b6:	68 02 00 00 00       	pushq  $0x2
  4013bb:	e9 c0 ff ff ff       	jmpq   401380 <_init+0x28>

00000000004013c0 <rand@plt>:
  4013c0:	ff 25 6a bc 20 00    	jmpq   *0x20bc6a(%rip)        # 60d030 <_GLOBAL_OFFSET_TABLE_+0x30>
  4013c6:	68 03 00 00 00       	pushq  $0x3
  4013cb:	e9 b0 ff ff ff       	jmpq   401380 <_init+0x28>

00000000004013d0 <_ZNSt7__cxx1112basic_stringIcSt11char_traitsIcESaIcEE9_M_appendEPKcm@plt>:
  4013d0:	ff 25 62 bc 20 00    	jmpq   *0x20bc62(%rip)        # 60d038 <_GLOBAL_OFFSET_TABLE_+0x38>
  4013d6:	68 04 00 00 00       	pushq  $0x4
  4013db:	e9 a0 ff ff ff       	jmpq   401380 <_init+0x28>

00000000004013e0 <__cxa_allocate_exception@plt>:
  4013e0:	ff 25 5a bc 20 00    	jmpq   *0x20bc5a(%rip)        # 60d040 <_GLOBAL_OFFSET_TABLE_+0x40>
  4013e6:	68 05 00 00 00       	pushq  $0x5
  4013eb:	e9 90 ff ff ff       	jmpq   401380 <_init+0x28>

00000000004013f0 <_ZSt20__throw_length_errorPKc@plt>:
  4013f0:	ff 25 52 bc 20 00    	jmpq   *0x20bc52(%rip)        # 60d048 <_GLOBAL_OFFSET_TABLE_+0x48>
  4013f6:	68 06 00 00 00       	pushq  $0x6
  4013fb:	e9 80 ff ff ff       	jmpq   401380 <_init+0x28>

0000000000401400 <vsnprintf@plt>:
  401400:	ff 25 4a bc 20 00    	jmpq   *0x20bc4a(%rip)        # 60d050 <_GLOBAL_OFFSET_TABLE_+0x50>
  401406:	68 07 00 00 00       	pushq  $0x7
  40140b:	e9 70 ff ff ff       	jmpq   401380 <_init+0x28>

0000000000401410 <_ZNSo9_M_insertImEERSoT_@plt>:
  401410:	ff 25 42 bc 20 00    	jmpq   *0x20bc42(%rip)        # 60d058 <_GLOBAL_OFFSET_TABLE_+0x58>
  401416:	68 08 00 00 00       	pushq  $0x8
  40141b:	e9 60 ff ff ff       	jmpq   401380 <_init+0x28>

0000000000401420 <_ZNSo5flushEv@plt>:
  401420:	ff 25 3a bc 20 00    	jmpq   *0x20bc3a(%rip)        # 60d060 <_GLOBAL_OFFSET_TABLE_+0x60>
  401426:	68 09 00 00 00       	pushq  $0x9
  40142b:	e9 50 ff ff ff       	jmpq   401380 <_init+0x28>

0000000000401430 <_ZSt19__throw_logic_errorPKc@plt>:
  401430:	ff 25 32 bc 20 00    	jmpq   *0x20bc32(%rip)        # 60d068 <_GLOBAL_OFFSET_TABLE_+0x68>
  401436:	68 0a 00 00 00       	pushq  $0xa
  40143b:	e9 40 ff ff ff       	jmpq   401380 <_init+0x28>

0000000000401440 <_ZNSt7__cxx1112basic_stringIcSt11char_traitsIcESaIcEE4swapERS4_@plt>:
  401440:	ff 25 2a bc 20 00    	jmpq   *0x20bc2a(%rip)        # 60d070 <_GLOBAL_OFFSET_TABLE_+0x70>
  401446:	68 0b 00 00 00       	pushq  $0xb
  40144b:	e9 30 ff ff ff       	jmpq   401380 <_init+0x28>

0000000000401450 <__cxa_free_exception@plt>:
  401450:	ff 25 22 bc 20 00    	jmpq   *0x20bc22(%rip)        # 60d078 <_GLOBAL_OFFSET_TABLE_+0x78>
  401456:	68 0c 00 00 00       	pushq  $0xc
  40145b:	e9 20 ff ff ff       	jmpq   401380 <_init+0x28>

0000000000401460 <__vsnprintf_chk@plt>:
  401460:	ff 25 1a bc 20 00    	jmpq   *0x20bc1a(%rip)        # 60d080 <_GLOBAL_OFFSET_TABLE_+0x80>
  401466:	68 0d 00 00 00       	pushq  $0xd
  40146b:	e9 10 ff ff ff       	jmpq   401380 <_init+0x28>

0000000000401470 <memcpy@plt>:
  401470:	ff 25 12 bc 20 00    	jmpq   *0x20bc12(%rip)        # 60d088 <_GLOBAL_OFFSET_TABLE_+0x88>
  401476:	68 0e 00 00 00       	pushq  $0xe
  40147b:	e9 00 ff ff ff       	jmpq   401380 <_init+0x28>

0000000000401480 <__cxa_atexit@plt>:
  401480:	ff 25 0a bc 20 00    	jmpq   *0x20bc0a(%rip)        # 60d090 <_GLOBAL_OFFSET_TABLE_+0x90>
  401486:	68 0f 00 00 00       	pushq  $0xf
  40148b:	e9 f0 fe ff ff       	jmpq   401380 <_init+0x28>

0000000000401490 <pthread_self@plt>:
  401490:	ff 25 02 bc 20 00    	jmpq   *0x20bc02(%rip)        # 60d098 <_GLOBAL_OFFSET_TABLE_+0x98>
  401496:	68 10 00 00 00       	pushq  $0x10
  40149b:	e9 e0 fe ff ff       	jmpq   401380 <_init+0x28>

00000000004014a0 <_ZdlPv@plt>:
  4014a0:	ff 25 fa bb 20 00    	jmpq   *0x20bbfa(%rip)        # 60d0a0 <_GLOBAL_OFFSET_TABLE_+0xa0>
  4014a6:	68 11 00 00 00       	pushq  $0x11
  4014ab:	e9 d0 fe ff ff       	jmpq   401380 <_init+0x28>

00000000004014b0 <_ZdlPvm@plt>:
  4014b0:	ff 25 f2 bb 20 00    	jmpq   *0x20bbf2(%rip)        # 60d0a8 <_GLOBAL_OFFSET_TABLE_+0xa8>
  4014b6:	68 12 00 00 00       	pushq  $0x12
  4014bb:	e9 c0 fe ff ff       	jmpq   401380 <_init+0x28>

00000000004014c0 <__stack_chk_fail@plt>:
  4014c0:	ff 25 ea bb 20 00    	jmpq   *0x20bbea(%rip)        # 60d0b0 <_GLOBAL_OFFSET_TABLE_+0xb0>
  4014c6:	68 13 00 00 00       	pushq  $0x13
  4014cb:	e9 b0 fe ff ff       	jmpq   401380 <_init+0x28>

00000000004014d0 <_ZSt16__ostream_insertIcSt11char_traitsIcEERSt13basic_ostreamIT_T0_ES6_PKS3_l@plt>:
  4014d0:	ff 25 e2 bb 20 00    	jmpq   *0x20bbe2(%rip)        # 60d0b8 <_GLOBAL_OFFSET_TABLE_+0xb8>
  4014d6:	68 14 00 00 00       	pushq  $0x14
  4014db:	e9 a0 fe ff ff       	jmpq   401380 <_init+0x28>

00000000004014e0 <_ZNKSt5ctypeIcE13_M_widen_initEv@plt>:
  4014e0:	ff 25 da bb 20 00    	jmpq   *0x20bbda(%rip)        # 60d0c0 <_GLOBAL_OFFSET_TABLE_+0xc0>
  4014e6:	68 15 00 00 00       	pushq  $0x15
  4014eb:	e9 90 fe ff ff       	jmpq   401380 <_init+0x28>

00000000004014f0 <_ZSt16__throw_bad_castv@plt>:
  4014f0:	ff 25 d2 bb 20 00    	jmpq   *0x20bbd2(%rip)        # 60d0c8 <_GLOBAL_OFFSET_TABLE_+0xc8>
  4014f6:	68 16 00 00 00       	pushq  $0x16
  4014fb:	e9 80 fe ff ff       	jmpq   401380 <_init+0x28>

0000000000401500 <_ZdaPv@plt>:
  401500:	ff 25 ca bb 20 00    	jmpq   *0x20bbca(%rip)        # 60d0d0 <_GLOBAL_OFFSET_TABLE_+0xd0>
  401506:	68 17 00 00 00       	pushq  $0x17
  40150b:	e9 70 fe ff ff       	jmpq   401380 <_init+0x28>

0000000000401510 <__cxa_throw_bad_array_new_length@plt>:
  401510:	ff 25 c2 bb 20 00    	jmpq   *0x20bbc2(%rip)        # 60d0d8 <_GLOBAL_OFFSET_TABLE_+0xd8>
  401516:	68 18 00 00 00       	pushq  $0x18
  40151b:	e9 60 fe ff ff       	jmpq   401380 <_init+0x28>

0000000000401520 <GOMP_parallel@plt>:
  401520:	ff 25 ba bb 20 00    	jmpq   *0x20bbba(%rip)        # 60d0e0 <_GLOBAL_OFFSET_TABLE_+0xe0>
  401526:	68 19 00 00 00       	pushq  $0x19
  40152b:	e9 50 fe ff ff       	jmpq   401380 <_init+0x28>

0000000000401530 <_ZNSt8ios_base4InitC1Ev@plt>:
  401530:	ff 25 b2 bb 20 00    	jmpq   *0x20bbb2(%rip)        # 60d0e8 <_GLOBAL_OFFSET_TABLE_+0xe8>
  401536:	68 1a 00 00 00       	pushq  $0x1a
  40153b:	e9 40 fe ff ff       	jmpq   401380 <_init+0x28>

0000000000401540 <omp_get_thread_num@plt>:
  401540:	ff 25 aa bb 20 00    	jmpq   *0x20bbaa(%rip)        # 60d0f0 <_GLOBAL_OFFSET_TABLE_+0xf0>
  401546:	68 1b 00 00 00       	pushq  $0x1b
  40154b:	e9 30 fe ff ff       	jmpq   401380 <_init+0x28>

0000000000401550 <__gxx_personality_v0@plt>:
  401550:	ff 25 a2 bb 20 00    	jmpq   *0x20bba2(%rip)        # 60d0f8 <_GLOBAL_OFFSET_TABLE_+0xf8>
  401556:	68 1c 00 00 00       	pushq  $0x1c
  40155b:	e9 20 fe ff ff       	jmpq   401380 <_init+0x28>

0000000000401560 <_ZNSt16invalid_argumentD1Ev@plt>:
  401560:	ff 25 9a bb 20 00    	jmpq   *0x20bb9a(%rip)        # 60d100 <_GLOBAL_OFFSET_TABLE_+0x100>
  401566:	68 1d 00 00 00       	pushq  $0x1d
  40156b:	e9 10 fe ff ff       	jmpq   401380 <_init+0x28>

0000000000401570 <__cxa_throw@plt>:
  401570:	ff 25 92 bb 20 00    	jmpq   *0x20bb92(%rip)        # 60d108 <_GLOBAL_OFFSET_TABLE_+0x108>
  401576:	68 1e 00 00 00       	pushq  $0x1e
  40157b:	e9 00 fe ff ff       	jmpq   401380 <_init+0x28>

0000000000401580 <_ZNSolsEi@plt>:
  401580:	ff 25 8a bb 20 00    	jmpq   *0x20bb8a(%rip)        # 60d110 <_GLOBAL_OFFSET_TABLE_+0x110>
  401586:	68 1f 00 00 00       	pushq  $0x1f
  40158b:	e9 f0 fd ff ff       	jmpq   401380 <_init+0x28>

0000000000401590 <_Unwind_Resume@plt>:
  401590:	ff 25 82 bb 20 00    	jmpq   *0x20bb82(%rip)        # 60d118 <_GLOBAL_OFFSET_TABLE_+0x118>
  401596:	68 20 00 00 00       	pushq  $0x20
  40159b:	e9 e0 fd ff ff       	jmpq   401380 <_init+0x28>

00000000004015a0 <omp_get_wtime@plt>:
  4015a0:	ff 25 7a bb 20 00    	jmpq   *0x20bb7a(%rip)        # 60d120 <_GLOBAL_OFFSET_TABLE_+0x120>
  4015a6:	68 21 00 00 00       	pushq  $0x21
  4015ab:	e9 d0 fd ff ff       	jmpq   401380 <_init+0x28>

00000000004015b0 <_ZNSt7__cxx1112basic_stringIcSt11char_traitsIcESaIcEE9_M_createERmm@plt>:
  4015b0:	ff 25 72 bb 20 00    	jmpq   *0x20bb72(%rip)        # 60d128 <_GLOBAL_OFFSET_TABLE_+0x128>
  4015b6:	68 22 00 00 00       	pushq  $0x22
  4015bb:	e9 c0 fd ff ff       	jmpq   401380 <_init+0x28>

00000000004015c0 <GOMP_barrier@plt>:
  4015c0:	ff 25 6a bb 20 00    	jmpq   *0x20bb6a(%rip)        # 60d130 <_GLOBAL_OFFSET_TABLE_+0x130>
  4015c6:	68 23 00 00 00       	pushq  $0x23
  4015cb:	e9 b0 fd ff ff       	jmpq   401380 <_init+0x28>

00000000004015d0 <__libc_start_main@plt>:
  4015d0:	ff 25 62 bb 20 00    	jmpq   *0x20bb62(%rip)        # 60d138 <_GLOBAL_OFFSET_TABLE_+0x138>
  4015d6:	68 24 00 00 00       	pushq  $0x24
  4015db:	e9 a0 fd ff ff       	jmpq   401380 <_init+0x28>

00000000004015e0 <omp_get_num_threads@plt>:
  4015e0:	ff 25 5a bb 20 00    	jmpq   *0x20bb5a(%rip)        # 60d140 <_GLOBAL_OFFSET_TABLE_+0x140>
  4015e6:	68 25 00 00 00       	pushq  $0x25
  4015eb:	e9 90 fd ff ff       	jmpq   401380 <_init+0x28>

00000000004015f0 <_ZNSt16invalid_argumentC1EPKc@plt>:
  4015f0:	ff 25 52 bb 20 00    	jmpq   *0x20bb52(%rip)        # 60d148 <_GLOBAL_OFFSET_TABLE_+0x148>
  4015f6:	68 26 00 00 00       	pushq  $0x26
  4015fb:	e9 80 fd ff ff       	jmpq   401380 <_init+0x28>

0000000000401600 <_ZNSt8ios_base4InitD1Ev@plt>:
  401600:	ff 25 4a bb 20 00    	jmpq   *0x20bb4a(%rip)        # 60d150 <_GLOBAL_OFFSET_TABLE_+0x150>
  401606:	68 27 00 00 00       	pushq  $0x27
  40160b:	e9 70 fd ff ff       	jmpq   401380 <_init+0x28>

Disassembly of section .plt.got:

0000000000401610 <.plt.got>:
  401610:	ff 25 e2 b9 20 00    	jmpq   *0x20b9e2(%rip)        # 60cff8 <_DYNAMIC+0x210>
  401616:	66 90                	xchg   %ax,%ax

Disassembly of section .text:

0000000000401620 <main>:
  401620:	48 83 ec 08          	sub    $0x8,%rsp
  401624:	e8 07 10 00 00       	callq  402630 <_Z10SpeedTestsv>
  401629:	31 c0                	xor    %eax,%eax
  40162b:	48 83 c4 08          	add    $0x8,%rsp
  40162f:	c3                   	retq   

0000000000401630 <_GLOBAL__sub_I__Z3maxii>:
  401630:	48 83 ec 08          	sub    $0x8,%rsp
  401634:	bf b9 d3 60 00       	mov    $0x60d3b9,%edi
  401639:	e8 f2 fe ff ff       	callq  401530 <_ZNSt8ios_base4InitC1Ev@plt>
  40163e:	ba 60 d1 60 00       	mov    $0x60d160,%edx
  401643:	be b9 d3 60 00       	mov    $0x60d3b9,%esi
  401648:	bf 00 16 40 00       	mov    $0x401600,%edi
  40164d:	48 83 c4 08          	add    $0x8,%rsp
  401651:	e9 2a fe ff ff       	jmpq   401480 <__cxa_atexit@plt>
  401656:	66 2e 0f 1f 84 00 00 	nopw   %cs:0x0(%rax,%rax,1)
  40165d:	00 00 00 

0000000000401660 <_start>:
  401660:	31 ed                	xor    %ebp,%ebp
  401662:	49 89 d1             	mov    %rdx,%r9
  401665:	5e                   	pop    %rsi
  401666:	48 89 e2             	mov    %rsp,%rdx
  401669:	48 83 e4 f0          	and    $0xfffffffffffffff0,%rsp
  40166d:	50                   	push   %rax
  40166e:	54                   	push   %rsp
  40166f:	49 c7 c0 10 90 40 00 	mov    $0x409010,%r8
  401676:	48 c7 c1 a0 8f 40 00 	mov    $0x408fa0,%rcx
  40167d:	48 c7 c7 20 16 40 00 	mov    $0x401620,%rdi
  401684:	e8 47 ff ff ff       	callq  4015d0 <__libc_start_main@plt>
  401689:	f4                   	hlt    
  40168a:	66 0f 1f 44 00 00    	nopw   0x0(%rax,%rax,1)

0000000000401690 <deregister_tm_clones>:
  401690:	b8 6f d1 60 00       	mov    $0x60d16f,%eax
  401695:	55                   	push   %rbp
  401696:	48 2d 68 d1 60 00    	sub    $0x60d168,%rax
  40169c:	48 83 f8 0e          	cmp    $0xe,%rax
  4016a0:	48 89 e5             	mov    %rsp,%rbp
  4016a3:	76 1b                	jbe    4016c0 <deregister_tm_clones+0x30>
  4016a5:	b8 00 00 00 00       	mov    $0x0,%eax
  4016aa:	48 85 c0             	test   %rax,%rax
  4016ad:	74 11                	je     4016c0 <deregister_tm_clones+0x30>
  4016af:	5d                   	pop    %rbp
  4016b0:	bf 68 d1 60 00       	mov    $0x60d168,%edi
  4016b5:	ff e0                	jmpq   *%rax
  4016b7:	66 0f 1f 84 00 00 00 	nopw   0x0(%rax,%rax,1)
  4016be:	00 00 
  4016c0:	5d                   	pop    %rbp
  4016c1:	c3                   	retq   
  4016c2:	0f 1f 40 00          	nopl   0x0(%rax)
  4016c6:	66 2e 0f 1f 84 00 00 	nopw   %cs:0x0(%rax,%rax,1)
  4016cd:	00 00 00 

00000000004016d0 <register_tm_clones>:
  4016d0:	be 68 d1 60 00       	mov    $0x60d168,%esi
  4016d5:	55                   	push   %rbp
  4016d6:	48 81 ee 68 d1 60 00 	sub    $0x60d168,%rsi
  4016dd:	48 c1 fe 03          	sar    $0x3,%rsi
  4016e1:	48 89 e5             	mov    %rsp,%rbp
  4016e4:	48 89 f0             	mov    %rsi,%rax
  4016e7:	48 c1 e8 3f          	shr    $0x3f,%rax
  4016eb:	48 01 c6             	add    %rax,%rsi
  4016ee:	48 d1 fe             	sar    %rsi
  4016f1:	74 15                	je     401708 <register_tm_clones+0x38>
  4016f3:	b8 00 00 00 00       	mov    $0x0,%eax
  4016f8:	48 85 c0             	test   %rax,%rax
  4016fb:	74 0b                	je     401708 <register_tm_clones+0x38>
  4016fd:	5d                   	pop    %rbp
  4016fe:	bf 68 d1 60 00       	mov    $0x60d168,%edi
  401703:	ff e0                	jmpq   *%rax
  401705:	0f 1f 00             	nopl   (%rax)
  401708:	5d                   	pop    %rbp
  401709:	c3                   	retq   
  40170a:	66 0f 1f 44 00 00    	nopw   0x0(%rax,%rax,1)

0000000000401710 <__do_global_dtors_aux>:
  401710:	80 3d a1 bc 20 00 00 	cmpb   $0x0,0x20bca1(%rip)        # 60d3b8 <completed.7585>
  401717:	75 11                	jne    40172a <__do_global_dtors_aux+0x1a>
  401719:	55                   	push   %rbp
  40171a:	48 89 e5             	mov    %rsp,%rbp
  40171d:	e8 6e ff ff ff       	callq  401690 <deregister_tm_clones>
  401722:	5d                   	pop    %rbp
  401723:	c6 05 8e bc 20 00 01 	movb   $0x1,0x20bc8e(%rip)        # 60d3b8 <completed.7585>
  40172a:	f3 c3                	repz retq 
  40172c:	0f 1f 40 00          	nopl   0x0(%rax)

0000000000401730 <frame_dummy>:
  401730:	bf e0 cd 60 00       	mov    $0x60cde0,%edi
  401735:	48 83 3f 00          	cmpq   $0x0,(%rdi)
  401739:	75 05                	jne    401740 <frame_dummy+0x10>
  40173b:	eb 93                	jmp    4016d0 <register_tm_clones>
  40173d:	0f 1f 00             	nopl   (%rax)
  401740:	b8 00 00 00 00       	mov    $0x0,%eax
  401745:	48 85 c0             	test   %rax,%rax
  401748:	74 f1                	je     40173b <frame_dummy+0xb>
  40174a:	55                   	push   %rbp
  40174b:	48 89 e5             	mov    %rsp,%rbp
  40174e:	ff d0                	callq  *%rax
  401750:	5d                   	pop    %rbp
  401751:	e9 7a ff ff ff       	jmpq   4016d0 <register_tm_clones>
  401756:	66 2e 0f 1f 84 00 00 	nopw   %cs:0x0(%rax,%rax,1)
  40175d:	00 00 00 

0000000000401760 <_ZN15CPU_MATHEMATICS10copy_stackIPiPKiEEvRT_T0_i._omp_fn.0>:
  401760:	41 54                	push   %r12
  401762:	55                   	push   %rbp
  401763:	48 89 fd             	mov    %rdi,%rbp
  401766:	53                   	push   %rbx
  401767:	8b 5f 10             	mov    0x10(%rdi),%ebx
  40176a:	e8 71 fe ff ff       	callq  4015e0 <omp_get_num_threads@plt>
  40176f:	41 89 c4             	mov    %eax,%r12d
  401772:	e8 c9 fd ff ff       	callq  401540 <omp_get_thread_num@plt>
  401777:	89 c1                	mov    %eax,%ecx
  401779:	89 d8                	mov    %ebx,%eax
  40177b:	99                   	cltd   
  40177c:	41 f7 fc             	idiv   %r12d
  40177f:	39 d1                	cmp    %edx,%ecx
  401781:	7d 05                	jge    401788 <_ZN15CPU_MATHEMATICS10copy_stackIPiPKiEEvRT_T0_i._omp_fn.0+0x28>
  401783:	83 c0 01             	add    $0x1,%eax
  401786:	31 d2                	xor    %edx,%edx
  401788:	0f af c8             	imul   %eax,%ecx
  40178b:	01 ca                	add    %ecx,%edx
  40178d:	01 d0                	add    %edx,%eax
  40178f:	39 c2                	cmp    %eax,%edx
  401791:	0f 8d 13 01 00 00    	jge    4018aa <_ZN15CPU_MATHEMATICS10copy_stackIPiPKiEEvRT_T0_i._omp_fn.0+0x14a>
  401797:	48 8b 4d 00          	mov    0x0(%rbp),%rcx
  40179b:	4c 8b 45 08          	mov    0x8(%rbp),%r8
  40179f:	48 63 f2             	movslq %edx,%rsi
  4017a2:	41 89 c3             	mov    %eax,%r11d
  4017a5:	41 29 d3             	sub    %edx,%r11d
  4017a8:	48 8b 39             	mov    (%rcx),%rdi
  4017ab:	48 8d 0c b5 10 00 00 	lea    0x10(,%rsi,4),%rcx
  4017b2:	00 
  4017b3:	48 c1 e6 02          	shl    $0x2,%rsi
  4017b7:	4d 8d 0c 30          	lea    (%r8,%rsi,1),%r9
  4017bb:	48 8d 1c 0f          	lea    (%rdi,%rcx,1),%rbx
  4017bf:	4c 8d 14 37          	lea    (%rdi,%rsi,1),%r10
  4017c3:	49 39 d9             	cmp    %rbx,%r9
  4017c6:	0f 93 c3             	setae  %bl
  4017c9:	4c 01 c1             	add    %r8,%rcx
  4017cc:	49 39 ca             	cmp    %rcx,%r10
  4017cf:	0f 93 c1             	setae  %cl
  4017d2:	08 cb                	or     %cl,%bl
  4017d4:	0f 84 d6 00 00 00    	je     4018b0 <_ZN15CPU_MATHEMATICS10copy_stackIPiPKiEEvRT_T0_i._omp_fn.0+0x150>
  4017da:	41 83 fb 0c          	cmp    $0xc,%r11d
  4017de:	0f 86 cc 00 00 00    	jbe    4018b0 <_ZN15CPU_MATHEMATICS10copy_stackIPiPKiEEvRT_T0_i._omp_fn.0+0x150>
  4017e4:	4c 89 c9             	mov    %r9,%rcx
  4017e7:	83 e1 0f             	and    $0xf,%ecx
  4017ea:	48 c1 e9 02          	shr    $0x2,%rcx
  4017ee:	48 f7 d9             	neg    %rcx
  4017f1:	83 e1 03             	and    $0x3,%ecx
  4017f4:	44 39 d9             	cmp    %r11d,%ecx
  4017f7:	49 0f 47 cb          	cmova  %r11,%rcx
  4017fb:	85 c9                	test   %ecx,%ecx
  4017fd:	74 39                	je     401838 <_ZN15CPU_MATHEMATICS10copy_stackIPiPKiEEvRT_T0_i._omp_fn.0+0xd8>
  4017ff:	45 8b 09             	mov    (%r9),%r9d
  401802:	83 f9 01             	cmp    $0x1,%ecx
  401805:	45 89 0a             	mov    %r9d,(%r10)
  401808:	44 8d 4a 01          	lea    0x1(%rdx),%r9d
  40180c:	0f 84 ce 00 00 00    	je     4018e0 <_ZN15CPU_MATHEMATICS10copy_stackIPiPKiEEvRT_T0_i._omp_fn.0+0x180>
  401812:	4d 63 c9             	movslq %r9d,%r9
  401815:	83 f9 03             	cmp    $0x3,%ecx
  401818:	47 8b 14 88          	mov    (%r8,%r9,4),%r10d
  40181c:	46 89 14 8f          	mov    %r10d,(%rdi,%r9,4)
  401820:	44 8d 4a 02          	lea    0x2(%rdx),%r9d
  401824:	0f 85 b6 00 00 00    	jne    4018e0 <_ZN15CPU_MATHEMATICS10copy_stackIPiPKiEEvRT_T0_i._omp_fn.0+0x180>
  40182a:	4d 63 c9             	movslq %r9d,%r9
  40182d:	83 c2 03             	add    $0x3,%edx
  401830:	47 8b 14 88          	mov    (%r8,%r9,4),%r10d
  401834:	46 89 14 8f          	mov    %r10d,(%rdi,%r9,4)
  401838:	41 29 cb             	sub    %ecx,%r11d
  40183b:	48 8d 0c 8e          	lea    (%rsi,%rcx,4),%rcx
  40183f:	45 31 d2             	xor    %r10d,%r10d
  401842:	45 8d 4b fc          	lea    -0x4(%r11),%r9d
  401846:	49 8d 2c 08          	lea    (%r8,%rcx,1),%rbp
  40184a:	48 8d 34 0f          	lea    (%rdi,%rcx,1),%rsi
  40184e:	31 c9                	xor    %ecx,%ecx
  401850:	41 c1 e9 02          	shr    $0x2,%r9d
  401854:	41 83 c1 01          	add    $0x1,%r9d
  401858:	42 8d 1c 8d 00 00 00 	lea    0x0(,%r9,4),%ebx
  40185f:	00 
  401860:	66 0f 6f 44 0d 00    	movdqa 0x0(%rbp,%rcx,1),%xmm0
  401866:	41 83 c2 01          	add    $0x1,%r10d
  40186a:	0f 11 04 0e          	movups %xmm0,(%rsi,%rcx,1)
  40186e:	48 83 c1 10          	add    $0x10,%rcx
  401872:	45 39 ca             	cmp    %r9d,%r10d
  401875:	72 e9                	jb     401860 <_ZN15CPU_MATHEMATICS10copy_stackIPiPKiEEvRT_T0_i._omp_fn.0+0x100>
  401877:	01 da                	add    %ebx,%edx
  401879:	41 39 db             	cmp    %ebx,%r11d
  40187c:	74 2c                	je     4018aa <_ZN15CPU_MATHEMATICS10copy_stackIPiPKiEEvRT_T0_i._omp_fn.0+0x14a>
  40187e:	48 63 ca             	movslq %edx,%rcx
  401881:	41 8b 34 88          	mov    (%r8,%rcx,4),%esi
  401885:	89 34 8f             	mov    %esi,(%rdi,%rcx,4)
  401888:	8d 4a 01             	lea    0x1(%rdx),%ecx
  40188b:	39 c8                	cmp    %ecx,%eax
  40188d:	7e 1b                	jle    4018aa <_ZN15CPU_MATHEMATICS10copy_stackIPiPKiEEvRT_T0_i._omp_fn.0+0x14a>
  40188f:	48 63 c9             	movslq %ecx,%rcx
  401892:	83 c2 02             	add    $0x2,%edx
  401895:	41 8b 34 88          	mov    (%r8,%rcx,4),%esi
  401899:	39 d0                	cmp    %edx,%eax
  40189b:	89 34 8f             	mov    %esi,(%rdi,%rcx,4)
  40189e:	7e 0a                	jle    4018aa <_ZN15CPU_MATHEMATICS10copy_stackIPiPKiEEvRT_T0_i._omp_fn.0+0x14a>
  4018a0:	48 63 d2             	movslq %edx,%rdx
  4018a3:	41 8b 04 90          	mov    (%r8,%rdx,4),%eax
  4018a7:	89 04 97             	mov    %eax,(%rdi,%rdx,4)
  4018aa:	5b                   	pop    %rbx
  4018ab:	5d                   	pop    %rbp
  4018ac:	41 5c                	pop    %r12
  4018ae:	c3                   	retq   
  4018af:	90                   	nop
  4018b0:	41 8d 4b ff          	lea    -0x1(%r11),%ecx
  4018b4:	31 c0                	xor    %eax,%eax
  4018b6:	48 83 c1 01          	add    $0x1,%rcx
  4018ba:	66 0f 1f 44 00 00    	nopw   0x0(%rax,%rax,1)
  4018c0:	41 8b 14 81          	mov    (%r9,%rax,4),%edx
  4018c4:	41 89 14 82          	mov    %edx,(%r10,%rax,4)
  4018c8:	48 83 c0 01          	add    $0x1,%rax
  4018cc:	48 39 c8             	cmp    %rcx,%rax
  4018cf:	75 ef                	jne    4018c0 <_ZN15CPU_MATHEMATICS10copy_stackIPiPKiEEvRT_T0_i._omp_fn.0+0x160>
  4018d1:	5b                   	pop    %rbx
  4018d2:	5d                   	pop    %rbp
  4018d3:	41 5c                	pop    %r12
  4018d5:	c3                   	retq   
  4018d6:	66 2e 0f 1f 84 00 00 	nopw   %cs:0x0(%rax,%rax,1)
  4018dd:	00 00 00 
  4018e0:	44 89 ca             	mov    %r9d,%edx
  4018e3:	e9 50 ff ff ff       	jmpq   401838 <_ZN15CPU_MATHEMATICS10copy_stackIPiPKiEEvRT_T0_i._omp_fn.0+0xd8>
  4018e8:	0f 1f 84 00 00 00 00 	nopl   0x0(%rax,%rax,1)
  4018ef:	00 

00000000004018f0 <_ZN15CPU_MATHEMATICS9randomizeI10continuousIfS_EfEEvT_T0_S4_i._omp_fn.1>:
  4018f0:	41 55                	push   %r13
  4018f2:	41 54                	push   %r12
  4018f4:	55                   	push   %rbp
  4018f5:	53                   	push   %rbx
  4018f6:	48 89 fd             	mov    %rdi,%rbp
  4018f9:	48 83 ec 08          	sub    $0x8,%rsp
  4018fd:	8b 5f 10             	mov    0x10(%rdi),%ebx
  401900:	e8 db fc ff ff       	callq  4015e0 <omp_get_num_threads@plt>
  401905:	41 89 c4             	mov    %eax,%r12d
  401908:	e8 33 fc ff ff       	callq  401540 <omp_get_thread_num@plt>
  40190d:	89 c1                	mov    %eax,%ecx
  40190f:	89 d8                	mov    %ebx,%eax
  401911:	99                   	cltd   
  401912:	41 f7 fc             	idiv   %r12d
  401915:	39 d1                	cmp    %edx,%ecx
  401917:	7d 05                	jge    40191e <_ZN15CPU_MATHEMATICS9randomizeI10continuousIfS_EfEEvT_T0_S4_i._omp_fn.1+0x2e>
  401919:	83 c0 01             	add    $0x1,%eax
  40191c:	31 d2                	xor    %edx,%edx
  40191e:	0f af c8             	imul   %eax,%ecx
  401921:	01 ca                	add    %ecx,%edx
  401923:	01 d0                	add    %edx,%eax
  401925:	39 c2                	cmp    %eax,%edx
  401927:	7d 74                	jge    40199d <_ZN15CPU_MATHEMATICS9randomizeI10continuousIfS_EfEEvT_T0_S4_i._omp_fn.1+0xad>
  401929:	29 d0                	sub    %edx,%eax
  40192b:	48 63 ca             	movslq %edx,%rcx
  40192e:	83 e8 01             	sub    $0x1,%eax
  401931:	48 8d 1c 8d 00 00 00 	lea    0x0(,%rcx,4),%rbx
  401938:	00 
  401939:	4c 8d 6c 01 01       	lea    0x1(%rcx,%rax,1),%r13
  40193e:	49 c1 e5 02          	shl    $0x2,%r13
  401942:	66 0f 1f 44 00 00    	nopw   0x0(%rax,%rax,1)
  401948:	48 8b 45 00          	mov    0x0(%rbp),%rax
  40194c:	49 89 dc             	mov    %rbx,%r12
  40194f:	48 83 c3 04          	add    $0x4,%rbx
  401953:	4c 03 60 08          	add    0x8(%rax),%r12
  401957:	e8 64 fa ff ff       	callq  4013c0 <rand@plt>
  40195c:	66 0f ef c0          	pxor   %xmm0,%xmm0
  401960:	49 39 dd             	cmp    %rbx,%r13
  401963:	f3 0f 10 55 08       	movss  0x8(%rbp),%xmm2
  401968:	f3 0f 10 4d 0c       	movss  0xc(%rbp),%xmm1
  40196d:	66 0f ef db          	pxor   %xmm3,%xmm3
  401971:	f2 0f 2a c0          	cvtsi2sd %eax,%xmm0
  401975:	f3 0f 5c ca          	subss  %xmm2,%xmm1
  401979:	f3 0f 5a d2          	cvtss2sd %xmm2,%xmm2
  40197d:	f3 0f 5a c9          	cvtss2sd %xmm1,%xmm1
  401981:	f2 0f 59 05 97 8a 00 	mulsd  0x8a97(%rip),%xmm0        # 40a420 <_ZTV6bufferId15CPU_MATHEMATICSS_IdS0_10continuousIdS0_ES2_N9Operation3addIdEEES2_S5_E+0x70>
  401988:	00 
  401989:	f2 0f 59 c1          	mulsd  %xmm1,%xmm0
  40198d:	f2 0f 58 c2          	addsd  %xmm2,%xmm0
  401991:	f2 0f 5a d8          	cvtsd2ss %xmm0,%xmm3
  401995:	f3 41 0f 11 1c 24    	movss  %xmm3,(%r12)
  40199b:	75 ab                	jne    401948 <_ZN15CPU_MATHEMATICS9randomizeI10continuousIfS_EfEEvT_T0_S4_i._omp_fn.1+0x58>
  40199d:	48 83 c4 08          	add    $0x8,%rsp
  4019a1:	5b                   	pop    %rbx
  4019a2:	5d                   	pop    %rbp
  4019a3:	41 5c                	pop    %r12
  4019a5:	41 5d                	pop    %r13
  4019a7:	c3                   	retq   
  4019a8:	0f 1f 84 00 00 00 00 	nopl   0x0(%rax,%rax,1)
  4019af:	00 

00000000004019b0 <_ZN15CPU_MATHEMATICS4copyIPf6bufferIfS_19StackScalarAccessorIfS_E10continuousIfS_EN9Operation3subIfEEEEEvT_T0_i._omp_fn.2>:
  4019b0:	41 54                	push   %r12
  4019b2:	55                   	push   %rbp
  4019b3:	48 89 fd             	mov    %rdi,%rbp
  4019b6:	53                   	push   %rbx
  4019b7:	8b 5f 10             	mov    0x10(%rdi),%ebx
  4019ba:	e8 21 fc ff ff       	callq  4015e0 <omp_get_num_threads@plt>
  4019bf:	41 89 c4             	mov    %eax,%r12d
  4019c2:	e8 79 fb ff ff       	callq  401540 <omp_get_thread_num@plt>
  4019c7:	89 c1                	mov    %eax,%ecx
  4019c9:	89 d8                	mov    %ebx,%eax
  4019cb:	99                   	cltd   
  4019cc:	41 f7 fc             	idiv   %r12d
  4019cf:	39 d1                	cmp    %edx,%ecx
  4019d1:	7d 05                	jge    4019d8 <_ZN15CPU_MATHEMATICS4copyIPf6bufferIfS_19StackScalarAccessorIfS_E10continuousIfS_EN9Operation3subIfEEEEEvT_T0_i._omp_fn.2+0x28>
  4019d3:	83 c0 01             	add    $0x1,%eax
  4019d6:	31 d2                	xor    %edx,%edx
  4019d8:	0f af c8             	imul   %eax,%ecx
  4019db:	01 ca                	add    %ecx,%edx
  4019dd:	01 d0                	add    %edx,%eax
  4019df:	39 c2                	cmp    %eax,%edx
  4019e1:	0f 8d 80 01 00 00    	jge    401b67 <_ZN15CPU_MATHEMATICS4copyIPf6bufferIfS_19StackScalarAccessorIfS_E10continuousIfS_EN9Operation3subIfEEEEEvT_T0_i._omp_fn.2+0x1b7>
  4019e7:	89 c7                	mov    %eax,%edi
  4019e9:	48 8b 75 08          	mov    0x8(%rbp),%rsi
  4019ed:	4c 8b 45 00          	mov    0x0(%rbp),%r8
  4019f1:	29 d7                	sub    %edx,%edi
  4019f3:	48 63 ca             	movslq %edx,%rcx
  4019f6:	41 89 fc             	mov    %edi,%r12d
  4019f9:	48 8d 1c 8d 00 00 00 	lea    0x0(,%rcx,4),%rbx
  401a00:	00 
  401a01:	48 8d 2c 8d 10 00 00 	lea    0x10(,%rcx,4),%rbp
  401a08:	00 
  401a09:	4c 01 e1             	add    %r12,%rcx
  401a0c:	4c 8b 4e 28          	mov    0x28(%rsi),%r9
  401a10:	4d 8d 24 88          	lea    (%r8,%rcx,4),%r12
  401a14:	48 8d 4e 18          	lea    0x18(%rsi),%rcx
  401a18:	4d 8d 14 18          	lea    (%r8,%rbx,1),%r10
  401a1c:	49 39 cc             	cmp    %rcx,%r12
  401a1f:	48 8d 4e 1c          	lea    0x1c(%rsi),%rcx
  401a23:	4d 8d 1c 19          	lea    (%r9,%rbx,1),%r11
  401a27:	41 0f 96 c4          	setbe  %r12b
  401a2b:	49 39 ca             	cmp    %rcx,%r10
  401a2e:	0f 93 c1             	setae  %cl
  401a31:	41 08 cc             	or     %cl,%r12b
  401a34:	0f 84 36 01 00 00    	je     401b70 <_ZN15CPU_MATHEMATICS4copyIPf6bufferIfS_19StackScalarAccessorIfS_E10continuousIfS_EN9Operation3subIfEEEEEvT_T0_i._omp_fn.2+0x1c0>
  401a3a:	49 8d 0c 28          	lea    (%r8,%rbp,1),%rcx
  401a3e:	49 39 cb             	cmp    %rcx,%r11
  401a41:	41 0f 93 c4          	setae  %r12b
  401a45:	4c 01 cd             	add    %r9,%rbp
  401a48:	49 39 ea             	cmp    %rbp,%r10
  401a4b:	0f 93 c1             	setae  %cl
  401a4e:	44 09 e1             	or     %r12d,%ecx
  401a51:	83 ff 08             	cmp    $0x8,%edi
  401a54:	40 0f 97 c5          	seta   %bpl
  401a58:	40 84 e9             	test   %bpl,%cl
  401a5b:	0f 84 0f 01 00 00    	je     401b70 <_ZN15CPU_MATHEMATICS4copyIPf6bufferIfS_19StackScalarAccessorIfS_E10continuousIfS_EN9Operation3subIfEEEEEvT_T0_i._omp_fn.2+0x1c0>
  401a61:	4c 89 d9             	mov    %r11,%rcx
  401a64:	83 e1 0f             	and    $0xf,%ecx
  401a67:	48 c1 e9 02          	shr    $0x2,%rcx
  401a6b:	48 f7 d9             	neg    %rcx
  401a6e:	83 e1 03             	and    $0x3,%ecx
  401a71:	39 f9                	cmp    %edi,%ecx
  401a73:	48 0f 47 cf          	cmova  %rdi,%rcx
  401a77:	85 c9                	test   %ecx,%ecx
  401a79:	74 54                	je     401acf <_ZN15CPU_MATHEMATICS4copyIPf6bufferIfS_19StackScalarAccessorIfS_E10continuousIfS_EN9Operation3subIfEEEEEvT_T0_i._omp_fn.2+0x11f>
  401a7b:	f3 0f 10 46 18       	movss  0x18(%rsi),%xmm0
  401a80:	83 f9 01             	cmp    $0x1,%ecx
  401a83:	f3 41 0f 5c 03       	subss  (%r11),%xmm0
  401a88:	f3 41 0f 11 02       	movss  %xmm0,(%r10)
  401a8d:	44 8d 52 01          	lea    0x1(%rdx),%r10d
  401a91:	0f 84 09 01 00 00    	je     401ba0 <_ZN15CPU_MATHEMATICS4copyIPf6bufferIfS_19StackScalarAccessorIfS_E10continuousIfS_EN9Operation3subIfEEEEEvT_T0_i._omp_fn.2+0x1f0>
  401a97:	4d 63 d2             	movslq %r10d,%r10
  401a9a:	f3 0f 10 46 18       	movss  0x18(%rsi),%xmm0
  401a9f:	f3 43 0f 5c 04 91    	subss  (%r9,%r10,4),%xmm0
  401aa5:	83 f9 03             	cmp    $0x3,%ecx
  401aa8:	f3 43 0f 11 04 90    	movss  %xmm0,(%r8,%r10,4)
  401aae:	44 8d 52 02          	lea    0x2(%rdx),%r10d
  401ab2:	0f 85 e8 00 00 00    	jne    401ba0 <_ZN15CPU_MATHEMATICS4copyIPf6bufferIfS_19StackScalarAccessorIfS_E10continuousIfS_EN9Operation3subIfEEEEEvT_T0_i._omp_fn.2+0x1f0>
  401ab8:	4d 63 d2             	movslq %r10d,%r10
  401abb:	f3 0f 10 46 18       	movss  0x18(%rsi),%xmm0
  401ac0:	f3 43 0f 5c 04 91    	subss  (%r9,%r10,4),%xmm0
  401ac6:	83 c2 03             	add    $0x3,%edx
  401ac9:	f3 43 0f 11 04 90    	movss  %xmm0,(%r8,%r10,4)
  401acf:	29 cf                	sub    %ecx,%edi
  401ad1:	f3 0f 10 4e 18       	movss  0x18(%rsi),%xmm1
  401ad6:	44 8d 57 fc          	lea    -0x4(%rdi),%r10d
  401ada:	48 8d 0c 8b          	lea    (%rbx,%rcx,4),%rcx
  401ade:	31 db                	xor    %ebx,%ebx
  401ae0:	0f c6 c9 00          	shufps $0x0,%xmm1,%xmm1
  401ae4:	41 c1 ea 02          	shr    $0x2,%r10d
  401ae8:	4d 8d 24 09          	lea    (%r9,%rcx,1),%r12
  401aec:	4d 8d 1c 08          	lea    (%r8,%rcx,1),%r11
  401af0:	41 83 c2 01          	add    $0x1,%r10d
  401af4:	31 c9                	xor    %ecx,%ecx
  401af6:	42 8d 2c 95 00 00 00 	lea    0x0(,%r10,4),%ebp
  401afd:	00 
  401afe:	0f 28 c1             	movaps %xmm1,%xmm0
  401b01:	83 c3 01             	add    $0x1,%ebx
  401b04:	41 0f 5c 04 0c       	subps  (%r12,%rcx,1),%xmm0
  401b09:	41 0f 11 04 0b       	movups %xmm0,(%r11,%rcx,1)
  401b0e:	48 83 c1 10          	add    $0x10,%rcx
  401b12:	44 39 d3             	cmp    %r10d,%ebx
  401b15:	72 e7                	jb     401afe <_ZN15CPU_MATHEMATICS4copyIPf6bufferIfS_19StackScalarAccessorIfS_E10continuousIfS_EN9Operation3subIfEEEEEvT_T0_i._omp_fn.2+0x14e>
  401b17:	01 ea                	add    %ebp,%edx
  401b19:	39 ef                	cmp    %ebp,%edi
  401b1b:	74 4a                	je     401b67 <_ZN15CPU_MATHEMATICS4copyIPf6bufferIfS_19StackScalarAccessorIfS_E10continuousIfS_EN9Operation3subIfEEEEEvT_T0_i._omp_fn.2+0x1b7>
  401b1d:	48 63 ca             	movslq %edx,%rcx
  401b20:	f3 0f 10 46 18       	movss  0x18(%rsi),%xmm0
  401b25:	f3 41 0f 5c 04 89    	subss  (%r9,%rcx,4),%xmm0
  401b2b:	f3 41 0f 11 04 88    	movss  %xmm0,(%r8,%rcx,4)
  401b31:	8d 4a 01             	lea    0x1(%rdx),%ecx
  401b34:	39 c8                	cmp    %ecx,%eax
  401b36:	7e 2f                	jle    401b67 <_ZN15CPU_MATHEMATICS4copyIPf6bufferIfS_19StackScalarAccessorIfS_E10continuousIfS_EN9Operation3subIfEEEEEvT_T0_i._omp_fn.2+0x1b7>
  401b38:	48 63 c9             	movslq %ecx,%rcx
  401b3b:	f3 0f 10 46 18       	movss  0x18(%rsi),%xmm0
  401b40:	f3 41 0f 5c 04 89    	subss  (%r9,%rcx,4),%xmm0
  401b46:	83 c2 02             	add    $0x2,%edx
  401b49:	39 d0                	cmp    %edx,%eax
  401b4b:	f3 41 0f 11 04 88    	movss  %xmm0,(%r8,%rcx,4)
  401b51:	7e 14                	jle    401b67 <_ZN15CPU_MATHEMATICS4copyIPf6bufferIfS_19StackScalarAccessorIfS_E10continuousIfS_EN9Operation3subIfEEEEEvT_T0_i._omp_fn.2+0x1b7>
  401b53:	48 63 d2             	movslq %edx,%rdx
  401b56:	f3 0f 10 46 18       	movss  0x18(%rsi),%xmm0
  401b5b:	f3 41 0f 5c 04 91    	subss  (%r9,%rdx,4),%xmm0
  401b61:	f3 41 0f 11 04 90    	movss  %xmm0,(%r8,%rdx,4)
  401b67:	5b                   	pop    %rbx
  401b68:	5d                   	pop    %rbp
  401b69:	41 5c                	pop    %r12
  401b6b:	c3                   	retq   
  401b6c:	0f 1f 40 00          	nopl   0x0(%rax)
  401b70:	8d 57 ff             	lea    -0x1(%rdi),%edx
  401b73:	31 c0                	xor    %eax,%eax
  401b75:	48 83 c2 01          	add    $0x1,%rdx
  401b79:	0f 1f 80 00 00 00 00 	nopl   0x0(%rax)
  401b80:	f3 0f 10 46 18       	movss  0x18(%rsi),%xmm0
  401b85:	f3 41 0f 5c 04 83    	subss  (%r11,%rax,4),%xmm0
  401b8b:	f3 41 0f 11 04 82    	movss  %xmm0,(%r10,%rax,4)
  401b91:	48 83 c0 01          	add    $0x1,%rax
  401b95:	48 39 d0             	cmp    %rdx,%rax
  401b98:	75 e6                	jne    401b80 <_ZN15CPU_MATHEMATICS4copyIPf6bufferIfS_19StackScalarAccessorIfS_E10continuousIfS_EN9Operation3subIfEEEEEvT_T0_i._omp_fn.2+0x1d0>
  401b9a:	5b                   	pop    %rbx
  401b9b:	5d                   	pop    %rbp
  401b9c:	41 5c                	pop    %r12
  401b9e:	c3                   	retq   
  401b9f:	90                   	nop
  401ba0:	44 89 d2             	mov    %r10d,%edx
  401ba3:	e9 27 ff ff ff       	jmpq   401acf <_ZN15CPU_MATHEMATICS4copyIPf6bufferIfS_19StackScalarAccessorIfS_E10continuousIfS_EN9Operation3subIfEEEEEvT_T0_i._omp_fn.2+0x11f>
  401ba8:	0f 1f 84 00 00 00 00 	nopl   0x0(%rax,%rax,1)
  401baf:	00 

0000000000401bb0 <_Z3addPdS_S_i._omp_fn.3>:
  401bb0:	41 55                	push   %r13
  401bb2:	41 54                	push   %r12
  401bb4:	55                   	push   %rbp
  401bb5:	53                   	push   %rbx
  401bb6:	48 89 fd             	mov    %rdi,%rbp
  401bb9:	48 83 ec 08          	sub    $0x8,%rsp
  401bbd:	8b 5f 18             	mov    0x18(%rdi),%ebx
  401bc0:	e8 1b fa ff ff       	callq  4015e0 <omp_get_num_threads@plt>
  401bc5:	41 89 c4             	mov    %eax,%r12d
  401bc8:	e8 73 f9 ff ff       	callq  401540 <omp_get_thread_num@plt>
  401bcd:	89 c1                	mov    %eax,%ecx
  401bcf:	89 d8                	mov    %ebx,%eax
  401bd1:	99                   	cltd   
  401bd2:	41 f7 fc             	idiv   %r12d
  401bd5:	39 d1                	cmp    %edx,%ecx
  401bd7:	7d 05                	jge    401bde <_Z3addPdS_S_i._omp_fn.3+0x2e>
  401bd9:	83 c0 01             	add    $0x1,%eax
  401bdc:	31 d2                	xor    %edx,%edx
  401bde:	0f af c8             	imul   %eax,%ecx
  401be1:	01 ca                	add    %ecx,%edx
  401be3:	01 d0                	add    %edx,%eax
  401be5:	39 c2                	cmp    %eax,%edx
  401be7:	0f 8d e9 00 00 00    	jge    401cd6 <_Z3addPdS_S_i._omp_fn.3+0x126>
  401bed:	4c 8b 45 00          	mov    0x0(%rbp),%r8
  401bf1:	4c 8b 4d 08          	mov    0x8(%rbp),%r9
  401bf5:	48 63 f2             	movslq %edx,%rsi
  401bf8:	48 8d 0c f5 10 00 00 	lea    0x10(,%rsi,8),%rcx
  401bff:	00 
  401c00:	48 c1 e6 03          	shl    $0x3,%rsi
  401c04:	48 8b 7d 10          	mov    0x10(%rbp),%rdi
  401c08:	29 d0                	sub    %edx,%eax
  401c0a:	49 8d 2c 09          	lea    (%r9,%rcx,1),%rbp
  401c0e:	4d 8d 14 30          	lea    (%r8,%rsi,1),%r10
  401c12:	4d 8d 24 08          	lea    (%r8,%rcx,1),%r12
  401c16:	4d 8d 1c 31          	lea    (%r9,%rsi,1),%r11
  401c1a:	48 8d 1c 37          	lea    (%rdi,%rsi,1),%rbx
  401c1e:	49 39 ea             	cmp    %rbp,%r10
  401c21:	41 0f 93 c5          	setae  %r13b
  401c25:	4d 39 e3             	cmp    %r12,%r11
  401c28:	40 0f 93 c5          	setae  %bpl
  401c2c:	48 01 f9             	add    %rdi,%rcx
  401c2f:	44 09 ed             	or     %r13d,%ebp
  401c32:	49 39 ca             	cmp    %rcx,%r10
  401c35:	41 0f 93 c5          	setae  %r13b
  401c39:	49 39 dc             	cmp    %rbx,%r12
  401c3c:	0f 96 c1             	setbe  %cl
  401c3f:	44 09 e9             	or     %r13d,%ecx
  401c42:	40 84 cd             	test   %cl,%bpl
  401c45:	0f 84 9d 00 00 00    	je     401ce8 <_Z3addPdS_S_i._omp_fn.3+0x138>
  401c4b:	83 f8 0e             	cmp    $0xe,%eax
  401c4e:	0f 86 94 00 00 00    	jbe    401ce8 <_Z3addPdS_S_i._omp_fn.3+0x138>
  401c54:	4c 89 d9             	mov    %r11,%rcx
  401c57:	48 c1 e1 3c          	shl    $0x3c,%rcx
  401c5b:	48 c1 e9 3f          	shr    $0x3f,%rcx
  401c5f:	39 c1                	cmp    %eax,%ecx
  401c61:	0f 47 c8             	cmova  %eax,%ecx
  401c64:	85 c9                	test   %ecx,%ecx
  401c66:	74 11                	je     401c79 <_Z3addPdS_S_i._omp_fn.3+0xc9>
  401c68:	f2 41 0f 10 03       	movsd  (%r11),%xmm0
  401c6d:	83 c2 01             	add    $0x1,%edx
  401c70:	f2 0f 58 03          	addsd  (%rbx),%xmm0
  401c74:	f2 41 0f 11 02       	movsd  %xmm0,(%r10)
  401c79:	29 c8                	sub    %ecx,%eax
  401c7b:	89 c9                	mov    %ecx,%ecx
  401c7d:	44 8d 50 fe          	lea    -0x2(%rax),%r10d
  401c81:	4c 8d 1c ce          	lea    (%rsi,%rcx,8),%r11
  401c85:	31 c9                	xor    %ecx,%ecx
  401c87:	31 f6                	xor    %esi,%esi
  401c89:	41 d1 ea             	shr    %r10d
  401c8c:	4f 8d 24 19          	lea    (%r9,%r11,1),%r12
  401c90:	4a 8d 2c 1f          	lea    (%rdi,%r11,1),%rbp
  401c94:	41 83 c2 01          	add    $0x1,%r10d
  401c98:	4d 01 c3             	add    %r8,%r11
  401c9b:	43 8d 1c 12          	lea    (%r10,%r10,1),%ebx
  401c9f:	66 0f 10 44 0d 00    	movupd 0x0(%rbp,%rcx,1),%xmm0
  401ca5:	83 c6 01             	add    $0x1,%esi
  401ca8:	66 41 0f 58 04 0c    	addpd  (%r12,%rcx,1),%xmm0
  401cae:	41 0f 11 04 0b       	movups %xmm0,(%r11,%rcx,1)
  401cb3:	48 83 c1 10          	add    $0x10,%rcx
  401cb7:	44 39 d6             	cmp    %r10d,%esi
  401cba:	72 e3                	jb     401c9f <_Z3addPdS_S_i._omp_fn.3+0xef>
  401cbc:	01 da                	add    %ebx,%edx
  401cbe:	39 d8                	cmp    %ebx,%eax
  401cc0:	74 14                	je     401cd6 <_Z3addPdS_S_i._omp_fn.3+0x126>
  401cc2:	48 63 d2             	movslq %edx,%rdx
  401cc5:	f2 41 0f 10 04 d1    	movsd  (%r9,%rdx,8),%xmm0
  401ccb:	f2 0f 58 04 d7       	addsd  (%rdi,%rdx,8),%xmm0
  401cd0:	f2 41 0f 11 04 d0    	movsd  %xmm0,(%r8,%rdx,8)
  401cd6:	48 83 c4 08          	add    $0x8,%rsp
  401cda:	5b                   	pop    %rbx
  401cdb:	5d                   	pop    %rbp
  401cdc:	41 5c                	pop    %r12
  401cde:	41 5d                	pop    %r13
  401ce0:	c3                   	retq   
  401ce1:	0f 1f 80 00 00 00 00 	nopl   0x0(%rax)
  401ce8:	8d 50 ff             	lea    -0x1(%rax),%edx
  401ceb:	31 c0                	xor    %eax,%eax
  401ced:	48 83 c2 01          	add    $0x1,%rdx
  401cf1:	0f 1f 80 00 00 00 00 	nopl   0x0(%rax)
  401cf8:	f2 41 0f 10 04 c3    	movsd  (%r11,%rax,8),%xmm0
  401cfe:	f2 0f 58 04 c3       	addsd  (%rbx,%rax,8),%xmm0
  401d03:	f2 41 0f 11 04 c2    	movsd  %xmm0,(%r10,%rax,8)
  401d09:	48 83 c0 01          	add    $0x1,%rax
  401d0d:	48 39 c2             	cmp    %rax,%rdx
  401d10:	75 e6                	jne    401cf8 <_Z3addPdS_S_i._omp_fn.3+0x148>
  401d12:	48 83 c4 08          	add    $0x8,%rsp
  401d16:	5b                   	pop    %rbx
  401d17:	5d                   	pop    %rbp
  401d18:	41 5c                	pop    %r12
  401d1a:	41 5d                	pop    %r13
  401d1c:	c3                   	retq   
  401d1d:	0f 1f 00             	nopl   (%rax)

0000000000401d20 <_Z3addPdS_S_S_i._omp_fn.4>:
  401d20:	41 57                	push   %r15
  401d22:	41 56                	push   %r14
  401d24:	41 55                	push   %r13
  401d26:	41 54                	push   %r12
  401d28:	49 89 fc             	mov    %rdi,%r12
  401d2b:	55                   	push   %rbp
  401d2c:	53                   	push   %rbx
  401d2d:	48 83 ec 18          	sub    $0x18,%rsp
  401d31:	8b 5f 20             	mov    0x20(%rdi),%ebx
  401d34:	e8 a7 f8 ff ff       	callq  4015e0 <omp_get_num_threads@plt>
  401d39:	89 c5                	mov    %eax,%ebp
  401d3b:	e8 00 f8 ff ff       	callq  401540 <omp_get_thread_num@plt>
  401d40:	89 c1                	mov    %eax,%ecx
  401d42:	89 d8                	mov    %ebx,%eax
  401d44:	99                   	cltd   
  401d45:	f7 fd                	idiv   %ebp
  401d47:	39 d1                	cmp    %edx,%ecx
  401d49:	7d 05                	jge    401d50 <_Z3addPdS_S_S_i._omp_fn.4+0x30>
  401d4b:	83 c0 01             	add    $0x1,%eax
  401d4e:	31 d2                	xor    %edx,%edx
  401d50:	0f af c8             	imul   %eax,%ecx
  401d53:	01 ca                	add    %ecx,%edx
  401d55:	01 d0                	add    %edx,%eax
  401d57:	39 c2                	cmp    %eax,%edx
  401d59:	0f 8d 33 01 00 00    	jge    401e92 <_Z3addPdS_S_S_i._omp_fn.4+0x172>
  401d5f:	4d 8b 1c 24          	mov    (%r12),%r11
  401d63:	49 8b 6c 24 08       	mov    0x8(%r12),%rbp
  401d68:	48 63 ca             	movslq %edx,%rcx
  401d6b:	48 8d 3c cd 10 00 00 	lea    0x10(,%rcx,8),%rdi
  401d72:	00 
  401d73:	48 c1 e1 03          	shl    $0x3,%rcx
  401d77:	49 8b 5c 24 10       	mov    0x10(%r12),%rbx
  401d7c:	29 d0                	sub    %edx,%eax
  401d7e:	4d 8b 64 24 18       	mov    0x18(%r12),%r12
  401d83:	49 8d 34 0b          	lea    (%r11,%rcx,1),%rsi
  401d87:	4c 8d 6c 3d 00       	lea    0x0(%rbp,%rdi,1),%r13
  401d8c:	4d 8d 34 3b          	lea    (%r11,%rdi,1),%r14
  401d90:	4c 8d 44 0d 00       	lea    0x0(%rbp,%rcx,1),%r8
  401d95:	4c 8d 0c 0b          	lea    (%rbx,%rcx,1),%r9
  401d99:	4c 39 ee             	cmp    %r13,%rsi
  401d9c:	4d 8d 14 0c          	lea    (%r12,%rcx,1),%r10
  401da0:	41 0f 93 c7          	setae  %r15b
  401da4:	4d 39 f0             	cmp    %r14,%r8
  401da7:	41 0f 93 c5          	setae  %r13b
  401dab:	45 09 fd             	or     %r15d,%r13d
  401dae:	4c 8d 3c 3b          	lea    (%rbx,%rdi,1),%r15
  401db2:	4c 39 fe             	cmp    %r15,%rsi
  401db5:	41 0f 93 c7          	setae  %r15b
  401db9:	4d 39 ce             	cmp    %r9,%r14
  401dbc:	0f 96 44 24 0f       	setbe  0xf(%rsp)
  401dc1:	44 0a 7c 24 0f       	or     0xf(%rsp),%r15b
  401dc6:	45 21 fd             	and    %r15d,%r13d
  401dc9:	83 f8 0a             	cmp    $0xa,%eax
  401dcc:	41 0f 97 c7          	seta   %r15b
  401dd0:	45 84 fd             	test   %r15b,%r13b
  401dd3:	0f 84 cf 00 00 00    	je     401ea8 <_Z3addPdS_S_S_i._omp_fn.4+0x188>
  401dd9:	4c 01 e7             	add    %r12,%rdi
  401ddc:	48 39 fe             	cmp    %rdi,%rsi
  401ddf:	41 0f 93 c5          	setae  %r13b
  401de3:	4d 39 d6             	cmp    %r10,%r14
  401de6:	40 0f 96 c7          	setbe  %dil
  401dea:	41 08 fd             	or     %dil,%r13b
  401ded:	0f 84 b5 00 00 00    	je     401ea8 <_Z3addPdS_S_S_i._omp_fn.4+0x188>
  401df3:	4c 89 c7             	mov    %r8,%rdi
  401df6:	48 c1 e7 3c          	shl    $0x3c,%rdi
  401dfa:	48 c1 ef 3f          	shr    $0x3f,%rdi
  401dfe:	39 c7                	cmp    %eax,%edi
  401e00:	0f 47 f8             	cmova  %eax,%edi
  401e03:	85 ff                	test   %edi,%edi
  401e05:	74 16                	je     401e1d <_Z3addPdS_S_S_i._omp_fn.4+0xfd>
  401e07:	f2 41 0f 10 00       	movsd  (%r8),%xmm0
  401e0c:	83 c2 01             	add    $0x1,%edx
  401e0f:	f2 41 0f 58 01       	addsd  (%r9),%xmm0
  401e14:	f2 41 0f 58 02       	addsd  (%r10),%xmm0
  401e19:	f2 0f 11 06          	movsd  %xmm0,(%rsi)
  401e1d:	29 f8                	sub    %edi,%eax
  401e1f:	89 ff                	mov    %edi,%edi
  401e21:	31 f6                	xor    %esi,%esi
  401e23:	44 8d 48 fe          	lea    -0x2(%rax),%r9d
  401e27:	48 8d 0c f9          	lea    (%rcx,%rdi,8),%rcx
  401e2b:	41 d1 e9             	shr    %r9d
  401e2e:	4c 8d 74 0d 00       	lea    0x0(%rbp,%rcx,1),%r14
  401e33:	4c 8d 2c 0b          	lea    (%rbx,%rcx,1),%r13
  401e37:	41 83 c1 01          	add    $0x1,%r9d
  401e3b:	4d 8d 14 0c          	lea    (%r12,%rcx,1),%r10
  401e3f:	49 8d 3c 0b          	lea    (%r11,%rcx,1),%rdi
  401e43:	47 8d 04 09          	lea    (%r9,%r9,1),%r8d
  401e47:	31 c9                	xor    %ecx,%ecx
  401e49:	66 41 0f 10 44 0d 00 	movupd 0x0(%r13,%rcx,1),%xmm0
  401e50:	83 c6 01             	add    $0x1,%esi
  401e53:	66 41 0f 58 04 0e    	addpd  (%r14,%rcx,1),%xmm0
  401e59:	66 41 0f 10 0c 0a    	movupd (%r10,%rcx,1),%xmm1
  401e5f:	66 0f 58 c1          	addpd  %xmm1,%xmm0
  401e63:	0f 11 04 0f          	movups %xmm0,(%rdi,%rcx,1)
  401e67:	48 83 c1 10          	add    $0x10,%rcx
  401e6b:	44 39 ce             	cmp    %r9d,%esi
  401e6e:	72 d9                	jb     401e49 <_Z3addPdS_S_S_i._omp_fn.4+0x129>
  401e70:	44 01 c2             	add    %r8d,%edx
  401e73:	44 39 c0             	cmp    %r8d,%eax
  401e76:	74 1a                	je     401e92 <_Z3addPdS_S_S_i._omp_fn.4+0x172>
  401e78:	48 63 d2             	movslq %edx,%rdx
  401e7b:	f2 0f 10 44 d5 00    	movsd  0x0(%rbp,%rdx,8),%xmm0
  401e81:	f2 0f 58 04 d3       	addsd  (%rbx,%rdx,8),%xmm0
  401e86:	f2 41 0f 58 04 d4    	addsd  (%r12,%rdx,8),%xmm0
  401e8c:	f2 41 0f 11 04 d3    	movsd  %xmm0,(%r11,%rdx,8)
  401e92:	48 83 c4 18          	add    $0x18,%rsp
  401e96:	5b                   	pop    %rbx
  401e97:	5d                   	pop    %rbp
  401e98:	41 5c                	pop    %r12
  401e9a:	41 5d                	pop    %r13
  401e9c:	41 5e                	pop    %r14
  401e9e:	41 5f                	pop    %r15
  401ea0:	c3                   	retq   
  401ea1:	0f 1f 80 00 00 00 00 	nopl   0x0(%rax)
  401ea8:	8d 50 ff             	lea    -0x1(%rax),%edx
  401eab:	31 c0                	xor    %eax,%eax
  401ead:	48 83 c2 01          	add    $0x1,%rdx
  401eb1:	0f 1f 80 00 00 00 00 	nopl   0x0(%rax)
  401eb8:	f2 41 0f 10 04 c0    	movsd  (%r8,%rax,8),%xmm0
  401ebe:	f2 41 0f 58 04 c1    	addsd  (%r9,%rax,8),%xmm0
  401ec4:	f2 41 0f 58 04 c2    	addsd  (%r10,%rax,8),%xmm0
  401eca:	f2 0f 11 04 c6       	movsd  %xmm0,(%rsi,%rax,8)
  401ecf:	48 83 c0 01          	add    $0x1,%rax
  401ed3:	48 39 c2             	cmp    %rax,%rdx
  401ed6:	75 e0                	jne    401eb8 <_Z3addPdS_S_S_i._omp_fn.4+0x198>
  401ed8:	48 83 c4 18          	add    $0x18,%rsp
  401edc:	5b                   	pop    %rbx
  401edd:	5d                   	pop    %rbp
  401ede:	41 5c                	pop    %r12
  401ee0:	41 5d                	pop    %r13
  401ee2:	41 5e                	pop    %r14
  401ee4:	41 5f                	pop    %r15
  401ee6:	c3                   	retq   
  401ee7:	66 0f 1f 84 00 00 00 	nopw   0x0(%rax,%rax,1)
  401eee:	00 00 

0000000000401ef0 <_ZN15CPU_MATHEMATICS9randomizeI10continuousIdS_EdEEvT_T0_S4_i._omp_fn.5>:
  401ef0:	41 55                	push   %r13
  401ef2:	41 54                	push   %r12
  401ef4:	55                   	push   %rbp
  401ef5:	53                   	push   %rbx
  401ef6:	48 89 fd             	mov    %rdi,%rbp
  401ef9:	48 83 ec 08          	sub    $0x8,%rsp
  401efd:	8b 5f 18             	mov    0x18(%rdi),%ebx
  401f00:	e8 db f6 ff ff       	callq  4015e0 <omp_get_num_threads@plt>
  401f05:	41 89 c4             	mov    %eax,%r12d
  401f08:	e8 33 f6 ff ff       	callq  401540 <omp_get_thread_num@plt>
  401f0d:	89 c1                	mov    %eax,%ecx
  401f0f:	89 d8                	mov    %ebx,%eax
  401f11:	99                   	cltd   
  401f12:	41 f7 fc             	idiv   %r12d
  401f15:	39 d1                	cmp    %edx,%ecx
  401f17:	7d 05                	jge    401f1e <_ZN15CPU_MATHEMATICS9randomizeI10continuousIdS_EdEEvT_T0_S4_i._omp_fn.5+0x2e>
  401f19:	83 c0 01             	add    $0x1,%eax
  401f1c:	31 d2                	xor    %edx,%edx
  401f1e:	0f af c8             	imul   %eax,%ecx
  401f21:	01 ca                	add    %ecx,%edx
  401f23:	01 d0                	add    %edx,%eax
  401f25:	39 c2                	cmp    %eax,%edx
  401f27:	7d 64                	jge    401f8d <_ZN15CPU_MATHEMATICS9randomizeI10continuousIdS_EdEEvT_T0_S4_i._omp_fn.5+0x9d>
  401f29:	29 d0                	sub    %edx,%eax
  401f2b:	48 63 ca             	movslq %edx,%rcx
  401f2e:	83 e8 01             	sub    $0x1,%eax
  401f31:	48 8d 1c cd 00 00 00 	lea    0x0(,%rcx,8),%rbx
  401f38:	00 
  401f39:	4c 8d 6c 01 01       	lea    0x1(%rcx,%rax,1),%r13
  401f3e:	49 c1 e5 03          	shl    $0x3,%r13
  401f42:	66 0f 1f 44 00 00    	nopw   0x0(%rax,%rax,1)
  401f48:	48 8b 45 00          	mov    0x0(%rbp),%rax
  401f4c:	49 89 dc             	mov    %rbx,%r12
  401f4f:	48 83 c3 08          	add    $0x8,%rbx
  401f53:	4c 03 60 08          	add    0x8(%rax),%r12
  401f57:	e8 64 f4 ff ff       	callq  4013c0 <rand@plt>
  401f5c:	66 0f ef c0          	pxor   %xmm0,%xmm0
  401f60:	49 39 dd             	cmp    %rbx,%r13
  401f63:	f2 0f 10 55 08       	movsd  0x8(%rbp),%xmm2
  401f68:	f2 0f 10 4d 10       	movsd  0x10(%rbp),%xmm1
  401f6d:	f2 0f 2a c0          	cvtsi2sd %eax,%xmm0
  401f71:	f2 0f 5c ca          	subsd  %xmm2,%xmm1
  401f75:	f2 0f 59 05 a3 84 00 	mulsd  0x84a3(%rip),%xmm0        # 40a420 <_ZTV6bufferId15CPU_MATHEMATICSS_IdS0_10continuousIdS0_ES2_N9Operation3addIdEEES2_S5_E+0x70>
  401f7c:	00 
  401f7d:	f2 0f 59 c1          	mulsd  %xmm1,%xmm0
  401f81:	f2 0f 58 c2          	addsd  %xmm2,%xmm0
  401f85:	f2 41 0f 11 04 24    	movsd  %xmm0,(%r12)
  401f8b:	75 bb                	jne    401f48 <_ZN15CPU_MATHEMATICS9randomizeI10continuousIdS_EdEEvT_T0_S4_i._omp_fn.5+0x58>
  401f8d:	48 83 c4 08          	add    $0x8,%rsp
  401f91:	5b                   	pop    %rbx
  401f92:	5d                   	pop    %rbp
  401f93:	41 5c                	pop    %r12
  401f95:	41 5d                	pop    %r13
  401f97:	c3                   	retq   
  401f98:	0f 1f 84 00 00 00 00 	nopl   0x0(%rax,%rax,1)
  401f9f:	00 

0000000000401fa0 <_ZN15CPU_MATHEMATICS4copyI10continuousIdS_E6bufferIdS_S3_IdS_S2_S2_N9Operation3addIdEEES2_S6_EEEvT_T0_i._omp_fn.6>:
  401fa0:	41 57                	push   %r15
  401fa2:	41 56                	push   %r14
  401fa4:	41 55                	push   %r13
  401fa6:	41 54                	push   %r12
  401fa8:	49 89 fd             	mov    %rdi,%r13
  401fab:	55                   	push   %rbp
  401fac:	53                   	push   %rbx
  401fad:	48 83 ec 18          	sub    $0x18,%rsp
  401fb1:	8b 5f 10             	mov    0x10(%rdi),%ebx
  401fb4:	e8 27 f6 ff ff       	callq  4015e0 <omp_get_num_threads@plt>
  401fb9:	89 c5                	mov    %eax,%ebp
  401fbb:	e8 80 f5 ff ff       	callq  401540 <omp_get_thread_num@plt>
  401fc0:	89 c1                	mov    %eax,%ecx
  401fc2:	89 d8                	mov    %ebx,%eax
  401fc4:	99                   	cltd   
  401fc5:	f7 fd                	idiv   %ebp
  401fc7:	39 d1                	cmp    %edx,%ecx
  401fc9:	7d 05                	jge    401fd0 <_ZN15CPU_MATHEMATICS4copyI10continuousIdS_E6bufferIdS_S3_IdS_S2_S2_N9Operation3addIdEEES2_S6_EEEvT_T0_i._omp_fn.6+0x30>
  401fcb:	83 c0 01             	add    $0x1,%eax
  401fce:	31 d2                	xor    %edx,%edx
  401fd0:	0f af c8             	imul   %eax,%ecx
  401fd3:	01 ca                	add    %ecx,%edx
  401fd5:	01 d0                	add    %edx,%eax
  401fd7:	39 c2                	cmp    %eax,%edx
  401fd9:	0f 8d 38 01 00 00    	jge    402117 <_ZN15CPU_MATHEMATICS4copyI10continuousIdS_E6bufferIdS_S3_IdS_S2_S2_N9Operation3addIdEEES2_S6_EEEvT_T0_i._omp_fn.6+0x177>
  401fdf:	49 8b 4d 08          	mov    0x8(%r13),%rcx
  401fe3:	29 d0                	sub    %edx,%eax
  401fe5:	48 8b 59 58          	mov    0x58(%rcx),%rbx
  401fe9:	48 8b 69 38          	mov    0x38(%rcx),%rbp
  401fed:	4c 8b 61 18          	mov    0x18(%rcx),%r12
  401ff1:	49 8b 4d 00          	mov    0x0(%r13),%rcx
  401ff5:	4c 8b 59 08          	mov    0x8(%rcx),%r11
  401ff9:	48 63 ca             	movslq %edx,%rcx
  401ffc:	48 8d 3c cd 10 00 00 	lea    0x10(,%rcx,8),%rdi
  402003:	00 
  402004:	48 c1 e1 03          	shl    $0x3,%rcx
  402008:	4c 8d 4c 0d 00       	lea    0x0(%rbp,%rcx,1),%r9
  40200d:	4c 8d 14 0b          	lea    (%rbx,%rcx,1),%r10
  402011:	4d 8d 04 0c          	lea    (%r12,%rcx,1),%r8
  402015:	49 8d 34 0b          	lea    (%r11,%rcx,1),%rsi
  402019:	4c 8d 6c 3d 00       	lea    0x0(%rbp,%rdi,1),%r13
  40201e:	4d 8d 34 3b          	lea    (%r11,%rdi,1),%r14
  402022:	4c 39 ee             	cmp    %r13,%rsi
  402025:	41 0f 93 c7          	setae  %r15b
  402029:	4d 39 f1             	cmp    %r14,%r9
  40202c:	41 0f 93 c5          	setae  %r13b
  402030:	45 09 fd             	or     %r15d,%r13d
  402033:	4c 8d 3c 3b          	lea    (%rbx,%rdi,1),%r15
  402037:	4c 39 fe             	cmp    %r15,%rsi
  40203a:	41 0f 93 c7          	setae  %r15b
  40203e:	4d 39 f2             	cmp    %r14,%r10
  402041:	0f 93 44 24 0f       	setae  0xf(%rsp)
  402046:	44 0a 7c 24 0f       	or     0xf(%rsp),%r15b
  40204b:	45 21 fd             	and    %r15d,%r13d
  40204e:	83 f8 0a             	cmp    $0xa,%eax
  402051:	41 0f 97 c7          	seta   %r15b
  402055:	45 84 fd             	test   %r15b,%r13b
  402058:	0f 84 d2 00 00 00    	je     402130 <_ZN15CPU_MATHEMATICS4copyI10continuousIdS_E6bufferIdS_S3_IdS_S2_S2_N9Operation3addIdEEES2_S6_EEEvT_T0_i._omp_fn.6+0x190>
  40205e:	4c 01 e7             	add    %r12,%rdi
  402061:	48 39 fe             	cmp    %rdi,%rsi
  402064:	41 0f 93 c5          	setae  %r13b
  402068:	4d 39 c6             	cmp    %r8,%r14
  40206b:	40 0f 96 c7          	setbe  %dil
  40206f:	41 08 fd             	or     %dil,%r13b
  402072:	0f 84 b8 00 00 00    	je     402130 <_ZN15CPU_MATHEMATICS4copyI10continuousIdS_E6bufferIdS_S3_IdS_S2_S2_N9Operation3addIdEEES2_S6_EEEvT_T0_i._omp_fn.6+0x190>
  402078:	4c 89 c7             	mov    %r8,%rdi
  40207b:	48 c1 e7 3c          	shl    $0x3c,%rdi
  40207f:	48 c1 ef 3f          	shr    $0x3f,%rdi
  402083:	39 c7                	cmp    %eax,%edi
  402085:	0f 47 f8             	cmova  %eax,%edi
  402088:	85 ff                	test   %edi,%edi
  40208a:	74 16                	je     4020a2 <_ZN15CPU_MATHEMATICS4copyI10continuousIdS_E6bufferIdS_S3_IdS_S2_S2_N9Operation3addIdEEES2_S6_EEEvT_T0_i._omp_fn.6+0x102>
  40208c:	f2 41 0f 10 00       	movsd  (%r8),%xmm0
  402091:	83 c2 01             	add    $0x1,%edx
  402094:	f2 41 0f 58 01       	addsd  (%r9),%xmm0
  402099:	f2 41 0f 58 02       	addsd  (%r10),%xmm0
  40209e:	f2 0f 11 06          	movsd  %xmm0,(%rsi)
  4020a2:	29 f8                	sub    %edi,%eax
  4020a4:	89 ff                	mov    %edi,%edi
  4020a6:	31 f6                	xor    %esi,%esi
  4020a8:	44 8d 48 fe          	lea    -0x2(%rax),%r9d
  4020ac:	48 8d 0c f9          	lea    (%rcx,%rdi,8),%rcx
  4020b0:	41 d1 e9             	shr    %r9d
  4020b3:	4d 8d 34 0c          	lea    (%r12,%rcx,1),%r14
  4020b7:	4c 8d 6c 0d 00       	lea    0x0(%rbp,%rcx,1),%r13
  4020bc:	41 83 c1 01          	add    $0x1,%r9d
  4020c0:	4c 8d 14 0b          	lea    (%rbx,%rcx,1),%r10
  4020c4:	49 8d 3c 0b          	lea    (%r11,%rcx,1),%rdi
  4020c8:	47 8d 04 09          	lea    (%r9,%r9,1),%r8d
  4020cc:	31 c9                	xor    %ecx,%ecx
  4020ce:	66 41 0f 10 44 0d 00 	movupd 0x0(%r13,%rcx,1),%xmm0
  4020d5:	83 c6 01             	add    $0x1,%esi
  4020d8:	66 41 0f 58 04 0e    	addpd  (%r14,%rcx,1),%xmm0
  4020de:	66 41 0f 10 0c 0a    	movupd (%r10,%rcx,1),%xmm1
  4020e4:	66 0f 58 c1          	addpd  %xmm1,%xmm0
  4020e8:	0f 11 04 0f          	movups %xmm0,(%rdi,%rcx,1)
  4020ec:	48 83 c1 10          	add    $0x10,%rcx
  4020f0:	44 39 ce             	cmp    %r9d,%esi
  4020f3:	72 d9                	jb     4020ce <_ZN15CPU_MATHEMATICS4copyI10continuousIdS_E6bufferIdS_S3_IdS_S2_S2_N9Operation3addIdEEES2_S6_EEEvT_T0_i._omp_fn.6+0x12e>
  4020f5:	44 01 c2             	add    %r8d,%edx
  4020f8:	44 39 c0             	cmp    %r8d,%eax
  4020fb:	74 1a                	je     402117 <_ZN15CPU_MATHEMATICS4copyI10continuousIdS_E6bufferIdS_S3_IdS_S2_S2_N9Operation3addIdEEES2_S6_EEEvT_T0_i._omp_fn.6+0x177>
  4020fd:	48 63 d2             	movslq %edx,%rdx
  402100:	f2 41 0f 10 04 d4    	movsd  (%r12,%rdx,8),%xmm0
  402106:	f2 0f 58 44 d5 00    	addsd  0x0(%rbp,%rdx,8),%xmm0
  40210c:	f2 0f 58 04 d3       	addsd  (%rbx,%rdx,8),%xmm0
  402111:	f2 41 0f 11 04 d3    	movsd  %xmm0,(%r11,%rdx,8)
  402117:	48 83 c4 18          	add    $0x18,%rsp
  40211b:	5b                   	pop    %rbx
  40211c:	5d                   	pop    %rbp
  40211d:	41 5c                	pop    %r12
  40211f:	41 5d                	pop    %r13
  402121:	41 5e                	pop    %r14
  402123:	41 5f                	pop    %r15
  402125:	c3                   	retq   
  402126:	66 2e 0f 1f 84 00 00 	nopw   %cs:0x0(%rax,%rax,1)
  40212d:	00 00 00 
  402130:	8d 50 ff             	lea    -0x1(%rax),%edx
  402133:	31 c0                	xor    %eax,%eax
  402135:	48 83 c2 01          	add    $0x1,%rdx
  402139:	0f 1f 80 00 00 00 00 	nopl   0x0(%rax)
  402140:	f2 41 0f 10 04 c0    	movsd  (%r8,%rax,8),%xmm0
  402146:	f2 41 0f 58 04 c1    	addsd  (%r9,%rax,8),%xmm0
  40214c:	f2 41 0f 58 04 c2    	addsd  (%r10,%rax,8),%xmm0
  402152:	f2 0f 11 04 c6       	movsd  %xmm0,(%rsi,%rax,8)
  402157:	48 83 c0 01          	add    $0x1,%rax
  40215b:	48 39 c2             	cmp    %rax,%rdx
  40215e:	75 e0                	jne    402140 <_ZN15CPU_MATHEMATICS4copyI10continuousIdS_E6bufferIdS_S3_IdS_S2_S2_N9Operation3addIdEEES2_S6_EEEvT_T0_i._omp_fn.6+0x1a0>
  402160:	48 83 c4 18          	add    $0x18,%rsp
  402164:	5b                   	pop    %rbx
  402165:	5d                   	pop    %rbp
  402166:	41 5c                	pop    %r12
  402168:	41 5d                	pop    %r13
  40216a:	41 5e                	pop    %r14
  40216c:	41 5f                	pop    %r15
  40216e:	c3                   	retq   
  40216f:	90                   	nop

0000000000402170 <_ZN9__gnu_cxx12__to_xstringINSt7__cxx1112basic_stringIcSt11char_traitsIcESaIcEEEcEET_PFiPT0_mPKS8_P13__va_list_tagEmSB_z.constprop.62>:
  402170:	55                   	push   %rbp
  402171:	48 89 d6             	mov    %rdx,%rsi
  402174:	48 89 e5             	mov    %rsp,%rbp
  402177:	41 55                	push   %r13
  402179:	41 54                	push   %r12
  40217b:	53                   	push   %rbx
  40217c:	49 89 fc             	mov    %rdi,%r12
  40217f:	48 81 ec e8 00 00 00 	sub    $0xe8,%rsp
  402186:	84 c0                	test   %al,%al
  402188:	4c 89 85 50 ff ff ff 	mov    %r8,-0xb0(%rbp)
  40218f:	4c 89 8d 58 ff ff ff 	mov    %r9,-0xa8(%rbp)
  402196:	74 26                	je     4021be <_ZN9__gnu_cxx12__to_xstringINSt7__cxx1112basic_stringIcSt11char_traitsIcESaIcEEEcEET_PFiPT0_mPKS8_P13__va_list_tagEmSB_z.constprop.62+0x4e>
  402198:	0f 29 85 60 ff ff ff 	movaps %xmm0,-0xa0(%rbp)
  40219f:	0f 29 8d 70 ff ff ff 	movaps %xmm1,-0x90(%rbp)
  4021a6:	0f 29 55 80          	movaps %xmm2,-0x80(%rbp)
  4021aa:	0f 29 5d 90          	movaps %xmm3,-0x70(%rbp)
  4021ae:	0f 29 65 a0          	movaps %xmm4,-0x60(%rbp)
  4021b2:	0f 29 6d b0          	movaps %xmm5,-0x50(%rbp)
  4021b6:	0f 29 75 c0          	movaps %xmm6,-0x40(%rbp)
  4021ba:	0f 29 7d d0          	movaps %xmm7,-0x30(%rbp)
  4021be:	64 48 8b 04 25 28 00 	mov    %fs:0x28,%rax
  4021c5:	00 00 
  4021c7:	48 89 85 28 ff ff ff 	mov    %rax,-0xd8(%rbp)
  4021ce:	31 c0                	xor    %eax,%eax
  4021d0:	48 8d 46 1e          	lea    0x1e(%rsi),%rax
  4021d4:	4c 8d 8d 10 ff ff ff 	lea    -0xf0(%rbp),%r9
  4021db:	49 89 c8             	mov    %rcx,%r8
  4021de:	ba 01 00 00 00       	mov    $0x1,%edx
  4021e3:	48 c7 c1 ff ff ff ff 	mov    $0xffffffffffffffff,%rcx
  4021ea:	48 83 e0 f0          	and    $0xfffffffffffffff0,%rax
  4021ee:	c7 85 10 ff ff ff 20 	movl   $0x20,-0xf0(%rbp)
  4021f5:	00 00 00 
  4021f8:	c7 85 14 ff ff ff 30 	movl   $0x30,-0xec(%rbp)
  4021ff:	00 00 00 
  402202:	48 29 c4             	sub    %rax,%rsp
  402205:	48 8d 45 10          	lea    0x10(%rbp),%rax
  402209:	4c 8d 6c 24 0f       	lea    0xf(%rsp),%r13
  40220e:	48 89 85 18 ff ff ff 	mov    %rax,-0xe8(%rbp)
  402215:	48 8d 85 30 ff ff ff 	lea    -0xd0(%rbp),%rax
  40221c:	49 83 e5 f0          	and    $0xfffffffffffffff0,%r13
  402220:	4c 89 ef             	mov    %r13,%rdi
  402223:	48 89 85 20 ff ff ff 	mov    %rax,-0xe0(%rbp)
  40222a:	e8 31 f2 ff ff       	callq  401460 <__vsnprintf_chk@plt>
  40222f:	49 8d 7c 24 10       	lea    0x10(%r12),%rdi
  402234:	48 63 d8             	movslq %eax,%rbx
  402237:	48 83 fb 0f          	cmp    $0xf,%rbx
  40223b:	48 89 9d 08 ff ff ff 	mov    %rbx,-0xf8(%rbp)
  402242:	49 89 3c 24          	mov    %rdi,(%r12)
  402246:	77 40                	ja     402288 <_ZN9__gnu_cxx12__to_xstringINSt7__cxx1112basic_stringIcSt11char_traitsIcESaIcEEEcEET_PFiPT0_mPKS8_P13__va_list_tagEmSB_z.constprop.62+0x118>
  402248:	48 83 fb 01          	cmp    $0x1,%rbx
  40224c:	74 7a                	je     4022c8 <_ZN9__gnu_cxx12__to_xstringINSt7__cxx1112basic_stringIcSt11char_traitsIcESaIcEEEcEET_PFiPT0_mPKS8_P13__va_list_tagEmSB_z.constprop.62+0x158>
  40224e:	31 c0                	xor    %eax,%eax
  402250:	48 85 db             	test   %rbx,%rbx
  402253:	48 89 fa             	mov    %rdi,%rdx
  402256:	75 54                	jne    4022ac <_ZN9__gnu_cxx12__to_xstringINSt7__cxx1112basic_stringIcSt11char_traitsIcESaIcEEEcEET_PFiPT0_mPKS8_P13__va_list_tagEmSB_z.constprop.62+0x13c>
  402258:	48 8b 8d 28 ff ff ff 	mov    -0xd8(%rbp),%rcx
  40225f:	64 48 33 0c 25 28 00 	xor    %fs:0x28,%rcx
  402266:	00 00 
  402268:	49 89 44 24 08       	mov    %rax,0x8(%r12)
  40226d:	c6 04 02 00          	movb   $0x0,(%rdx,%rax,1)
  402271:	4c 89 e0             	mov    %r12,%rax
  402274:	75 69                	jne    4022df <_ZN9__gnu_cxx12__to_xstringINSt7__cxx1112basic_stringIcSt11char_traitsIcESaIcEEEcEET_PFiPT0_mPKS8_P13__va_list_tagEmSB_z.constprop.62+0x16f>
  402276:	48 8d 65 e8          	lea    -0x18(%rbp),%rsp
  40227a:	5b                   	pop    %rbx
  40227b:	41 5c                	pop    %r12
  40227d:	41 5d                	pop    %r13
  40227f:	5d                   	pop    %rbp
  402280:	c3                   	retq   
  402281:	0f 1f 80 00 00 00 00 	nopl   0x0(%rax)
  402288:	48 8d b5 08 ff ff ff 	lea    -0xf8(%rbp),%rsi
  40228f:	4c 89 e7             	mov    %r12,%rdi
  402292:	31 d2                	xor    %edx,%edx
  402294:	e8 17 f3 ff ff       	callq  4015b0 <_ZNSt7__cxx1112basic_stringIcSt11char_traitsIcESaIcEE9_M_createERmm@plt>
  402299:	48 89 c7             	mov    %rax,%rdi
  40229c:	49 89 04 24          	mov    %rax,(%r12)
  4022a0:	48 8b 85 08 ff ff ff 	mov    -0xf8(%rbp),%rax
  4022a7:	49 89 44 24 10       	mov    %rax,0x10(%r12)
  4022ac:	48 89 da             	mov    %rbx,%rdx
  4022af:	4c 89 ee             	mov    %r13,%rsi
  4022b2:	e8 b9 f1 ff ff       	callq  401470 <memcpy@plt>
  4022b7:	48 8b 85 08 ff ff ff 	mov    -0xf8(%rbp),%rax
  4022be:	49 8b 14 24          	mov    (%r12),%rdx
  4022c2:	eb 94                	jmp    402258 <_ZN9__gnu_cxx12__to_xstringINSt7__cxx1112basic_stringIcSt11char_traitsIcESaIcEEEcEET_PFiPT0_mPKS8_P13__va_list_tagEmSB_z.constprop.62+0xe8>
  4022c4:	0f 1f 40 00          	nopl   0x0(%rax)
  4022c8:	41 0f b6 45 00       	movzbl 0x0(%r13),%eax
  4022cd:	48 89 fa             	mov    %rdi,%rdx
  4022d0:	41 88 44 24 10       	mov    %al,0x10(%r12)
  4022d5:	b8 01 00 00 00       	mov    $0x1,%eax
  4022da:	e9 79 ff ff ff       	jmpq   402258 <_ZN9__gnu_cxx12__to_xstringINSt7__cxx1112basic_stringIcSt11char_traitsIcESaIcEEEcEET_PFiPT0_mPKS8_P13__va_list_tagEmSB_z.constprop.62+0xe8>
  4022df:	e8 dc f1 ff ff       	callq  4014c0 <__stack_chk_fail@plt>
  4022e4:	66 90                	xchg   %ax,%ax
  4022e6:	66 2e 0f 1f 84 00 00 	nopw   %cs:0x0(%rax,%rax,1)
  4022ed:	00 00 00 

00000000004022f0 <_Z3maxii>:
  4022f0:	39 f7                	cmp    %esi,%edi
  4022f2:	89 f0                	mov    %esi,%eax
  4022f4:	0f 4d c7             	cmovge %edi,%eax
  4022f7:	c3                   	retq   
  4022f8:	0f 1f 84 00 00 00 00 	nopl   0x0(%rax,%rax,1)
  4022ff:	00 

0000000000402300 <_ZNK10Tensor_Ace9same_sizeERKS_>:
  402300:	55                   	push   %rbp
  402301:	53                   	push   %rbx
  402302:	48 89 f3             	mov    %rsi,%rbx
  402305:	48 83 ec 08          	sub    $0x8,%rsp
  402309:	48 8b 07             	mov    (%rdi),%rax
  40230c:	ff 10                	callq  *(%rax)
  40230e:	89 c5                	mov    %eax,%ebp
  402310:	48 8b 03             	mov    (%rbx),%rax
  402313:	48 89 df             	mov    %rbx,%rdi
  402316:	ff 10                	callq  *(%rax)
  402318:	39 c5                	cmp    %eax,%ebp
  40231a:	0f 94 c0             	sete   %al
  40231d:	48 83 c4 08          	add    $0x8,%rsp
  402321:	5b                   	pop    %rbx
  402322:	5d                   	pop    %rbp
  402323:	c3                   	retq   
  402324:	66 90                	xchg   %ax,%ax
  402326:	66 2e 0f 1f 84 00 00 	nopw   %cs:0x0(%rax,%rax,1)
  40232d:	00 00 00 

0000000000402330 <_ZNK10Tensor_Ace15same_dimensionsERKS_>:
  402330:	41 55                	push   %r13
  402332:	41 54                	push   %r12
  402334:	49 89 fd             	mov    %rdi,%r13
  402337:	55                   	push   %rbp
  402338:	53                   	push   %rbx
  402339:	49 89 f4             	mov    %rsi,%r12
  40233c:	31 ed                	xor    %ebp,%ebp
  40233e:	48 83 ec 08          	sub    $0x8,%rsp
  402342:	eb 25                	jmp    402369 <_ZNK10Tensor_Ace15same_dimensionsERKS_+0x39>
  402344:	0f 1f 40 00          	nopl   0x0(%rax)
  402348:	49 8b 45 00          	mov    0x0(%r13),%rax
  40234c:	89 ee                	mov    %ebp,%esi
  40234e:	4c 89 ef             	mov    %r13,%rdi
  402351:	ff 50 08             	callq  *0x8(%rax)
  402354:	89 c3                	mov    %eax,%ebx
  402356:	49 8b 04 24          	mov    (%r12),%rax
  40235a:	89 ee                	mov    %ebp,%esi
  40235c:	4c 89 e7             	mov    %r12,%rdi
  40235f:	ff 50 08             	callq  *0x8(%rax)
  402362:	39 c3                	cmp    %eax,%ebx
  402364:	75 3a                	jne    4023a0 <_ZNK10Tensor_Ace15same_dimensionsERKS_+0x70>
  402366:	83 c5 01             	add    $0x1,%ebp
  402369:	49 8b 45 00          	mov    0x0(%r13),%rax
  40236d:	4c 89 ef             	mov    %r13,%rdi
  402370:	ff 50 18             	callq  *0x18(%rax)
  402373:	89 c3                	mov    %eax,%ebx
  402375:	49 8b 04 24          	mov    (%r12),%rax
  402379:	4c 89 e7             	mov    %r12,%rdi
  40237c:	ff 50 18             	callq  *0x18(%rax)
  40237f:	39 c3                	cmp    %eax,%ebx
  402381:	0f 4c d8             	cmovl  %eax,%ebx
  402384:	39 dd                	cmp    %ebx,%ebp
  402386:	7c c0                	jl     402348 <_ZNK10Tensor_Ace15same_dimensionsERKS_+0x18>
  402388:	48 83 c4 08          	add    $0x8,%rsp
  40238c:	b8 01 00 00 00       	mov    $0x1,%eax
  402391:	5b                   	pop    %rbx
  402392:	5d                   	pop    %rbp
  402393:	41 5c                	pop    %r12
  402395:	41 5d                	pop    %r13
  402397:	c3                   	retq   
  402398:	0f 1f 84 00 00 00 00 	nopl   0x0(%rax,%rax,1)
  40239f:	00 
  4023a0:	48 83 c4 08          	add    $0x8,%rsp
  4023a4:	31 c0                	xor    %eax,%eax
  4023a6:	5b                   	pop    %rbx
  4023a7:	5d                   	pop    %rbp
  4023a8:	41 5c                	pop    %r12
  4023aa:	41 5d                	pop    %r13
  4023ac:	c3                   	retq   
  4023ad:	90                   	nop
  4023ae:	66 90                	xchg   %ax,%ax

00000000004023b0 <_ZNK10Tensor_Ace16assert_same_sizeERKS_>:
  4023b0:	55                   	push   %rbp
  4023b1:	53                   	push   %rbx
  4023b2:	48 89 f3             	mov    %rsi,%rbx
  4023b5:	48 83 ec 08          	sub    $0x8,%rsp
  4023b9:	48 8b 07             	mov    (%rdi),%rax
  4023bc:	ff 10                	callq  *(%rax)
  4023be:	89 c5                	mov    %eax,%ebp
  4023c0:	48 8b 03             	mov    (%rbx),%rax
  4023c3:	48 89 df             	mov    %rbx,%rdi
  4023c6:	ff 10                	callq  *(%rax)
  4023c8:	39 c5                	cmp    %eax,%ebp
  4023ca:	75 07                	jne    4023d3 <_ZNK10Tensor_Ace16assert_same_sizeERKS_+0x23>
  4023cc:	48 83 c4 08          	add    $0x8,%rsp
  4023d0:	5b                   	pop    %rbx
  4023d1:	5d                   	pop    %rbp
  4023d2:	c3                   	retq   
  4023d3:	bf 10 00 00 00       	mov    $0x10,%edi
  4023d8:	e8 03 f0 ff ff       	callq  4013e0 <__cxa_allocate_exception@plt>
  4023dd:	be e8 91 40 00       	mov    $0x4091e8,%esi
  4023e2:	48 89 c7             	mov    %rax,%rdi
  4023e5:	48 89 c3             	mov    %rax,%rbx
  4023e8:	e8 03 f2 ff ff       	callq  4015f0 <_ZNSt16invalid_argumentC1EPKc@plt>
  4023ed:	ba 60 15 40 00       	mov    $0x401560,%edx
  4023f2:	be a0 d3 60 00       	mov    $0x60d3a0,%esi
  4023f7:	48 89 df             	mov    %rbx,%rdi
  4023fa:	e8 71 f1 ff ff       	callq  401570 <__cxa_throw@plt>
  4023ff:	48 89 c5             	mov    %rax,%rbp
  402402:	48 89 df             	mov    %rbx,%rdi
  402405:	e8 46 f0 ff ff       	callq  401450 <__cxa_free_exception@plt>
  40240a:	48 89 ef             	mov    %rbp,%rdi
  40240d:	e8 7e f1 ff ff       	callq  401590 <_Unwind_Resume@plt>
  402412:	0f 1f 40 00          	nopl   0x0(%rax)
  402416:	66 2e 0f 1f 84 00 00 	nopw   %cs:0x0(%rax,%rax,1)
  40241d:	00 00 00 

0000000000402420 <_ZNK10Tensor_Ace22assert_same_dimensionsERKS_>:
  402420:	41 55                	push   %r13
  402422:	41 54                	push   %r12
  402424:	49 89 fd             	mov    %rdi,%r13
  402427:	55                   	push   %rbp
  402428:	53                   	push   %rbx
  402429:	49 89 f4             	mov    %rsi,%r12
  40242c:	31 ed                	xor    %ebp,%ebp
  40242e:	48 83 ec 08          	sub    $0x8,%rsp
  402432:	eb 25                	jmp    402459 <_ZNK10Tensor_Ace22assert_same_dimensionsERKS_+0x39>
  402434:	0f 1f 40 00          	nopl   0x0(%rax)
  402438:	49 8b 45 00          	mov    0x0(%r13),%rax
  40243c:	89 ee                	mov    %ebp,%esi
  40243e:	4c 89 ef             	mov    %r13,%rdi
  402441:	ff 50 08             	callq  *0x8(%rax)
  402444:	89 c3                	mov    %eax,%ebx
  402446:	49 8b 04 24          	mov    (%r12),%rax
  40244a:	89 ee                	mov    %ebp,%esi
  40244c:	4c 89 e7             	mov    %r12,%rdi
  40244f:	ff 50 08             	callq  *0x8(%rax)
  402452:	39 c3                	cmp    %eax,%ebx
  402454:	75 32                	jne    402488 <_ZNK10Tensor_Ace22assert_same_dimensionsERKS_+0x68>
  402456:	83 c5 01             	add    $0x1,%ebp
  402459:	49 8b 45 00          	mov    0x0(%r13),%rax
  40245d:	4c 89 ef             	mov    %r13,%rdi
  402460:	ff 50 18             	callq  *0x18(%rax)
  402463:	89 c3                	mov    %eax,%ebx
  402465:	49 8b 04 24          	mov    (%r12),%rax
  402469:	4c 89 e7             	mov    %r12,%rdi
  40246c:	ff 50 18             	callq  *0x18(%rax)
  40246f:	39 c3                	cmp    %eax,%ebx
  402471:	0f 4c d8             	cmovl  %eax,%ebx
  402474:	39 dd                	cmp    %ebx,%ebp
  402476:	7c c0                	jl     402438 <_ZNK10Tensor_Ace22assert_same_dimensionsERKS_+0x18>
  402478:	48 83 c4 08          	add    $0x8,%rsp
  40247c:	5b                   	pop    %rbx
  40247d:	5d                   	pop    %rbp
  40247e:	41 5c                	pop    %r12
  402480:	41 5d                	pop    %r13
  402482:	c3                   	retq   
  402483:	0f 1f 44 00 00       	nopl   0x0(%rax,%rax,1)
  402488:	bf 10 00 00 00       	mov    $0x10,%edi
  40248d:	e8 4e ef ff ff       	callq  4013e0 <__cxa_allocate_exception@plt>
  402492:	be f6 91 40 00       	mov    $0x4091f6,%esi
  402497:	48 89 c7             	mov    %rax,%rdi
  40249a:	48 89 c3             	mov    %rax,%rbx
  40249d:	e8 4e f1 ff ff       	callq  4015f0 <_ZNSt16invalid_argumentC1EPKc@plt>
  4024a2:	ba 60 15 40 00       	mov    $0x401560,%edx
  4024a7:	be a0 d3 60 00       	mov    $0x60d3a0,%esi
  4024ac:	48 89 df             	mov    %rbx,%rdi
  4024af:	e8 bc f0 ff ff       	callq  401570 <__cxa_throw@plt>
  4024b4:	48 89 c5             	mov    %rax,%rbp
  4024b7:	48 89 df             	mov    %rbx,%rdi
  4024ba:	e8 91 ef ff ff       	callq  401450 <__cxa_free_exception@plt>
  4024bf:	48 89 ef             	mov    %rbp,%rdi
  4024c2:	e8 c9 f0 ff ff       	callq  401590 <_Unwind_Resume@plt>
  4024c7:	66 0f 1f 84 00 00 00 	nopw   0x0(%rax,%rax,1)
  4024ce:	00 00 

00000000004024d0 <_Z3addPdS_S_i>:
  4024d0:	48 83 ec 38          	sub    $0x38,%rsp
  4024d4:	48 89 3c 24          	mov    %rdi,(%rsp)
  4024d8:	48 89 74 24 08       	mov    %rsi,0x8(%rsp)
  4024dd:	bf b0 1b 40 00       	mov    $0x401bb0,%edi
  4024e2:	48 89 54 24 10       	mov    %rdx,0x10(%rsp)
  4024e7:	89 4c 24 18          	mov    %ecx,0x18(%rsp)
  4024eb:	31 d2                	xor    %edx,%edx
  4024ed:	31 c9                	xor    %ecx,%ecx
  4024ef:	48 89 e6             	mov    %rsp,%rsi
  4024f2:	64 48 8b 04 25 28 00 	mov    %fs:0x28,%rax
  4024f9:	00 00 
  4024fb:	48 89 44 24 28       	mov    %rax,0x28(%rsp)
  402500:	31 c0                	xor    %eax,%eax
  402502:	e8 19 f0 ff ff       	callq  401520 <GOMP_parallel@plt>
  402507:	e8 b4 f0 ff ff       	callq  4015c0 <GOMP_barrier@plt>
  40250c:	48 8b 44 24 28       	mov    0x28(%rsp),%rax
  402511:	64 48 33 04 25 28 00 	xor    %fs:0x28,%rax
  402518:	00 00 
  40251a:	75 05                	jne    402521 <_Z3addPdS_S_i+0x51>
  40251c:	48 83 c4 38          	add    $0x38,%rsp
  402520:	c3                   	retq   
  402521:	e8 9a ef ff ff       	callq  4014c0 <__stack_chk_fail@plt>
  402526:	66 2e 0f 1f 84 00 00 	nopw   %cs:0x0(%rax,%rax,1)
  40252d:	00 00 00 

0000000000402530 <_Z3addPdS_S_S_i>:
  402530:	48 83 ec 58          	sub    $0x58,%rsp
  402534:	48 89 7c 24 18       	mov    %rdi,0x18(%rsp)
  402539:	48 89 74 24 08       	mov    %rsi,0x8(%rsp)
  40253e:	48 8d 74 24 20       	lea    0x20(%rsp),%rsi
  402543:	f3 0f 7e 4c 24 18    	movq   0x18(%rsp),%xmm1
  402549:	48 89 4c 24 10       	mov    %rcx,0x10(%rsp)
  40254e:	0f 16 4c 24 08       	movhps 0x8(%rsp),%xmm1
  402553:	48 89 54 24 08       	mov    %rdx,0x8(%rsp)
  402558:	31 c9                	xor    %ecx,%ecx
  40255a:	f3 0f 7e 44 24 08    	movq   0x8(%rsp),%xmm0
  402560:	31 d2                	xor    %edx,%edx
  402562:	0f 16 44 24 10       	movhps 0x10(%rsp),%xmm0
  402567:	bf 20 1d 40 00       	mov    $0x401d20,%edi
  40256c:	44 89 44 24 40       	mov    %r8d,0x40(%rsp)
  402571:	64 48 8b 04 25 28 00 	mov    %fs:0x28,%rax
  402578:	00 00 
  40257a:	48 89 44 24 48       	mov    %rax,0x48(%rsp)
  40257f:	31 c0                	xor    %eax,%eax
  402581:	0f 29 4c 24 20       	movaps %xmm1,0x20(%rsp)
  402586:	0f 29 44 24 30       	movaps %xmm0,0x30(%rsp)
  40258b:	e8 90 ef ff ff       	callq  401520 <GOMP_parallel@plt>
  402590:	e8 2b f0 ff ff       	callq  4015c0 <GOMP_barrier@plt>
  402595:	48 8b 44 24 48       	mov    0x48(%rsp),%rax
  40259a:	64 48 33 04 25 28 00 	xor    %fs:0x28,%rax
  4025a1:	00 00 
  4025a3:	75 05                	jne    4025aa <_Z3addPdS_S_S_i+0x7a>
  4025a5:	48 83 c4 58          	add    $0x58,%rsp
  4025a9:	c3                   	retq   
  4025aa:	e8 11 ef ff ff       	callq  4014c0 <__stack_chk_fail@plt>
  4025af:	90                   	nop

00000000004025b0 <_Z10printCheckv>:
  4025b0:	55                   	push   %rbp
  4025b1:	53                   	push   %rbx
  4025b2:	48 83 ec 08          	sub    $0x8,%rsp
  4025b6:	e8 d5 ee ff ff       	callq  401490 <pthread_self@plt>
  4025bb:	bf e0 d1 60 00       	mov    $0x60d1e0,%edi
  4025c0:	48 89 c6             	mov    %rax,%rsi
  4025c3:	e8 48 ee ff ff       	callq  401410 <_ZNSo9_M_insertImEERSoT_@plt>
  4025c8:	48 89 c5             	mov    %rax,%rbp
  4025cb:	48 8b 00             	mov    (%rax),%rax
  4025ce:	48 8b 40 e8          	mov    -0x18(%rax),%rax
  4025d2:	48 8b 9c 05 f0 00 00 	mov    0xf0(%rbp,%rax,1),%rbx
  4025d9:	00 
  4025da:	48 85 db             	test   %rbx,%rbx
  4025dd:	74 47                	je     402626 <_Z10printCheckv+0x76>
  4025df:	80 7b 38 00          	cmpb   $0x0,0x38(%rbx)
  4025e3:	74 1b                	je     402600 <_Z10printCheckv+0x50>
  4025e5:	0f be 73 43          	movsbl 0x43(%rbx),%esi
  4025e9:	48 89 ef             	mov    %rbp,%rdi
  4025ec:	e8 bf ed ff ff       	callq  4013b0 <_ZNSo3putEc@plt>
  4025f1:	48 83 c4 08          	add    $0x8,%rsp
  4025f5:	48 89 c7             	mov    %rax,%rdi
  4025f8:	5b                   	pop    %rbx
  4025f9:	5d                   	pop    %rbp
  4025fa:	e9 21 ee ff ff       	jmpq   401420 <_ZNSo5flushEv@plt>
  4025ff:	90                   	nop
  402600:	48 89 df             	mov    %rbx,%rdi
  402603:	e8 d8 ee ff ff       	callq  4014e0 <_ZNKSt5ctypeIcE13_M_widen_initEv@plt>
  402608:	48 8b 03             	mov    (%rbx),%rax
  40260b:	be 0a 00 00 00       	mov    $0xa,%esi
  402610:	48 8b 40 30          	mov    0x30(%rax),%rax
  402614:	48 3d 20 5c 40 00    	cmp    $0x405c20,%rax
  40261a:	74 cd                	je     4025e9 <_Z10printCheckv+0x39>
  40261c:	48 89 df             	mov    %rbx,%rdi
  40261f:	ff d0                	callq  *%rax
  402621:	0f be f0             	movsbl %al,%esi
  402624:	eb c3                	jmp    4025e9 <_Z10printCheckv+0x39>
  402626:	e8 c5 ee ff ff       	callq  4014f0 <_ZSt16__throw_bad_castv@plt>
  40262b:	0f 1f 44 00 00       	nopl   0x0(%rax,%rax,1)

0000000000402630 <_Z10SpeedTestsv>:
  402630:	41 57                	push   %r15
  402632:	41 56                	push   %r14
  402634:	41 55                	push   %r13
  402636:	41 54                	push   %r12
  402638:	55                   	push   %rbp
  402639:	53                   	push   %rbx
  40263a:	48 81 ec 98 01 00 00 	sub    $0x198,%rsp
  402641:	64 48 8b 04 25 28 00 	mov    %fs:0x28,%rax
  402648:	00 00 
  40264a:	48 89 84 24 88 01 00 	mov    %rax,0x188(%rsp)
  402651:	00 
  402652:	31 c0                	xor    %eax,%eax
  402654:	e8 37 ee ff ff       	callq  401490 <pthread_self@plt>
  402659:	bf e0 d1 60 00       	mov    $0x60d1e0,%edi
  40265e:	48 89 c6             	mov    %rax,%rsi
  402661:	e8 aa ed ff ff       	callq  401410 <_ZNSo9_M_insertImEERSoT_@plt>
  402666:	48 89 c5             	mov    %rax,%rbp
  402669:	48 8b 00             	mov    (%rax),%rax
  40266c:	48 8b 40 e8          	mov    -0x18(%rax),%rax
  402670:	48 8b 9c 05 f0 00 00 	mov    0xf0(%rbp,%rax,1),%rbx
  402677:	00 
  402678:	48 85 db             	test   %rbx,%rbx
  40267b:	0f 84 0c 12 00 00    	je     40388d <_Z10SpeedTestsv+0x125d>
  402681:	80 7b 38 00          	cmpb   $0x0,0x38(%rbx)
  402685:	0f 84 a4 0e 00 00    	je     40352f <_Z10SpeedTestsv+0xeff>
  40268b:	0f be 73 43          	movsbl 0x43(%rbx),%esi
  40268f:	48 89 ef             	mov    %rbp,%rdi
  402692:	48 8d 9c 24 00 01 00 	lea    0x100(%rsp),%rbx
  402699:	00 
  40269a:	48 8d ac 24 80 01 00 	lea    0x180(%rsp),%rbp
  4026a1:	00 
  4026a2:	e8 09 ed ff ff       	callq  4013b0 <_ZNSo3putEc@plt>
  4026a7:	48 89 c7             	mov    %rax,%rdi
  4026aa:	e8 71 ed ff ff       	callq  401420 <_ZNSo5flushEv@plt>
  4026af:	bf 0c 00 00 00       	mov    $0xc,%edi
  4026b4:	c7 84 24 80 01 00 00 	movl   $0x3e8,0x180(%rsp)
  4026bb:	e8 03 00 00 
  4026bf:	c7 84 24 84 01 00 00 	movl   $0x3e8,0x184(%rsp)
  4026c6:	e8 03 00 00 
  4026ca:	48 c7 44 24 70 90 a2 	movq   $0x40a290,0x70(%rsp)
  4026d1:	40 00 
  4026d3:	48 c7 44 24 78 20 a2 	movq   $0x40a220,0x78(%rsp)
  4026da:	40 00 
  4026dc:	c7 84 24 90 00 00 00 	movl   $0x2,0x90(%rsp)
  4026e3:	02 00 00 00 
  4026e7:	e8 b4 ec ff ff       	callq  4013a0 <_Znam@plt>
  4026ec:	48 89 84 24 88 00 00 	mov    %rax,0x88(%rsp)
  4026f3:	00 
  4026f4:	48 8d 84 24 88 00 00 	lea    0x88(%rsp),%rax
  4026fb:	00 
  4026fc:	31 c9                	xor    %ecx,%ecx
  4026fe:	31 d2                	xor    %edx,%edx
  402700:	48 89 de             	mov    %rbx,%rsi
  402703:	bf 60 17 40 00       	mov    $0x401760,%edi
  402708:	48 89 84 24 00 01 00 	mov    %rax,0x100(%rsp)
  40270f:	00 
  402710:	48 89 ac 24 08 01 00 	mov    %rbp,0x108(%rsp)
  402717:	00 
  402718:	c7 84 24 10 01 00 00 	movl   $0x2,0x110(%rsp)
  40271f:	02 00 00 00 
  402723:	e8 f8 ed ff ff       	callq  401520 <GOMP_parallel@plt>
  402728:	e8 93 ee ff ff       	callq  4015c0 <GOMP_barrier@plt>
  40272d:	48 63 84 24 90 00 00 	movslq 0x90(%rsp),%rax
  402734:	00 
  402735:	48 8b 8c 24 88 00 00 	mov    0x88(%rsp),%rcx
  40273c:	00 
  40273d:	85 c0                	test   %eax,%eax
  40273f:	48 89 c6             	mov    %rax,%rsi
  402742:	4c 8d 0c 81          	lea    (%rcx,%rax,4),%r9
  402746:	0f 8e c8 0f 00 00    	jle    403714 <_Z10SpeedTestsv+0x10e4>
  40274c:	48 89 c8             	mov    %rcx,%rax
  40274f:	83 e0 0f             	and    $0xf,%eax
  402752:	48 c1 e8 02          	shr    $0x2,%rax
  402756:	48 f7 d8             	neg    %rax
  402759:	83 e0 03             	and    $0x3,%eax
  40275c:	39 f0                	cmp    %esi,%eax
  40275e:	0f 47 c6             	cmova  %esi,%eax
  402761:	83 fe 08             	cmp    $0x8,%esi
  402764:	0f 8f 64 0f 00 00    	jg     4036ce <_Z10SpeedTestsv+0x109e>
  40276a:	89 f0                	mov    %esi,%eax
  40276c:	83 f8 01             	cmp    $0x1,%eax
  40276f:	8b 11                	mov    (%rcx),%edx
  402771:	0f 84 01 10 00 00    	je     403778 <_Z10SpeedTestsv+0x1148>
  402777:	0f af 51 04          	imul   0x4(%rcx),%edx
  40277b:	83 f8 02             	cmp    $0x2,%eax
  40277e:	0f 84 fe 0f 00 00    	je     403782 <_Z10SpeedTestsv+0x1152>
  402784:	0f af 51 08          	imul   0x8(%rcx),%edx
  402788:	83 f8 03             	cmp    $0x3,%eax
  40278b:	0f 84 fb 0f 00 00    	je     40378c <_Z10SpeedTestsv+0x115c>
  402791:	0f af 51 0c          	imul   0xc(%rcx),%edx
  402795:	83 f8 04             	cmp    $0x4,%eax
  402798:	0f 84 f8 0f 00 00    	je     403796 <_Z10SpeedTestsv+0x1166>
  40279e:	0f af 51 10          	imul   0x10(%rcx),%edx
  4027a2:	83 f8 05             	cmp    $0x5,%eax
  4027a5:	0f 84 f5 0f 00 00    	je     4037a0 <_Z10SpeedTestsv+0x1170>
  4027ab:	0f af 51 14          	imul   0x14(%rcx),%edx
  4027af:	83 f8 06             	cmp    $0x6,%eax
  4027b2:	0f 84 7a 0f 00 00    	je     403732 <_Z10SpeedTestsv+0x1102>
  4027b8:	0f af 51 18          	imul   0x18(%rcx),%edx
  4027bc:	83 f8 07             	cmp    $0x7,%eax
  4027bf:	0f 84 77 0f 00 00    	je     40373c <_Z10SpeedTestsv+0x110c>
  4027c5:	0f af 51 1c          	imul   0x1c(%rcx),%edx
  4027c9:	bf 08 00 00 00       	mov    $0x8,%edi
  4027ce:	39 c6                	cmp    %eax,%esi
  4027d0:	0f 84 de 00 00 00    	je     4028b4 <_Z10SpeedTestsv+0x284>
  4027d6:	41 89 f3             	mov    %esi,%r11d
  4027d9:	44 8d 56 ff          	lea    -0x1(%rsi),%r10d
  4027dd:	41 89 c5             	mov    %eax,%r13d
  4027e0:	41 29 c3             	sub    %eax,%r11d
  4027e3:	45 8d 43 fc          	lea    -0x4(%r11),%r8d
  4027e7:	41 29 c2             	sub    %eax,%r10d
  4027ea:	41 c1 e8 02          	shr    $0x2,%r8d
  4027ee:	41 83 c0 01          	add    $0x1,%r8d
  4027f2:	41 83 fa 02          	cmp    $0x2,%r10d
  4027f6:	46 8d 24 85 00 00 00 	lea    0x0(,%r8,4),%r12d
  4027fd:	00 
  4027fe:	0f 86 8e 00 00 00    	jbe    402892 <_Z10SpeedTestsv+0x262>
  402804:	4a 8d 04 a9          	lea    (%rcx,%r13,4),%rax
  402808:	66 0f 6f 05 30 7c 00 	movdqa 0x7c30(%rip),%xmm0        # 40a440 <_ZTV6bufferId15CPU_MATHEMATICSS_IdS0_10continuousIdS0_ES2_N9Operation3addIdEEES2_S5_E+0x90>
  40280f:	00 
  402810:	45 31 d2             	xor    %r10d,%r10d
  402813:	66 0f 6f 08          	movdqa (%rax),%xmm1
  402817:	66 0f 6f d0          	movdqa %xmm0,%xmm2
  40281b:	66 0f 73 d0 20       	psrlq  $0x20,%xmm0
  402820:	41 83 c2 01          	add    $0x1,%r10d
  402824:	48 83 c0 10          	add    $0x10,%rax
  402828:	66 0f f4 50 f0       	pmuludq -0x10(%rax),%xmm2
  40282d:	66 0f 73 d1 20       	psrlq  $0x20,%xmm1
  402832:	66 0f f4 c8          	pmuludq %xmm0,%xmm1
  402836:	66 0f 70 c2 08       	pshufd $0x8,%xmm2,%xmm0
  40283b:	45 39 c2             	cmp    %r8d,%r10d
  40283e:	66 0f 70 c9 08       	pshufd $0x8,%xmm1,%xmm1
  402843:	66 0f 62 c1          	punpckldq %xmm1,%xmm0
  402847:	72 ca                	jb     402813 <_Z10SpeedTestsv+0x1e3>
  402849:	66 0f 6f d0          	movdqa %xmm0,%xmm2
  40284d:	44 01 e7             	add    %r12d,%edi
  402850:	66 0f 6f c8          	movdqa %xmm0,%xmm1
  402854:	66 0f 73 d0 20       	psrlq  $0x20,%xmm0
  402859:	66 0f 73 da 08       	psrldq $0x8,%xmm2
  40285e:	66 0f f4 ca          	pmuludq %xmm2,%xmm1
  402862:	66 0f 73 d2 20       	psrlq  $0x20,%xmm2
  402867:	66 0f 70 c9 08       	pshufd $0x8,%xmm1,%xmm1
  40286c:	66 0f f4 c2          	pmuludq %xmm2,%xmm0
  402870:	66 0f 70 c0 08       	pshufd $0x8,%xmm0,%xmm0
  402875:	66 0f 62 c8          	punpckldq %xmm0,%xmm1
  402879:	66 0f 6f c1          	movdqa %xmm1,%xmm0
  40287d:	66 0f 73 d9 04       	psrldq $0x4,%xmm1
  402882:	66 0f f4 c1          	pmuludq %xmm1,%xmm0
  402886:	66 0f 7e c0          	movd   %xmm0,%eax
  40288a:	0f af d0             	imul   %eax,%edx
  40288d:	45 39 dc             	cmp    %r11d,%r12d
  402890:	74 22                	je     4028b4 <_Z10SpeedTestsv+0x284>
  402892:	48 63 c7             	movslq %edi,%rax
  402895:	0f af 14 81          	imul   (%rcx,%rax,4),%edx
  402899:	8d 47 01             	lea    0x1(%rdi),%eax
  40289c:	39 c6                	cmp    %eax,%esi
  40289e:	7e 14                	jle    4028b4 <_Z10SpeedTestsv+0x284>
  4028a0:	48 98                	cltq   
  4028a2:	83 c7 02             	add    $0x2,%edi
  4028a5:	0f af 14 81          	imul   (%rcx,%rax,4),%edx
  4028a9:	39 fe                	cmp    %edi,%esi
  4028ab:	7e 07                	jle    4028b4 <_Z10SpeedTestsv+0x284>
  4028ad:	48 63 ff             	movslq %edi,%rdi
  4028b0:	0f af 14 b9          	imul   (%rcx,%rdi,4),%edx
  4028b4:	41 89 11             	mov    %edx,(%r9)
  4028b7:	48 63 84 24 90 00 00 	movslq 0x90(%rsp),%rax
  4028be:	00 
  4028bf:	48 ba 00 00 00 00 00 	movabs $0xfe0000000000000,%rdx
  4028c6:	00 e0 0f 
  4028c9:	48 63 04 81          	movslq (%rcx,%rax,4),%rax
  4028cd:	48 39 d0             	cmp    %rdx,%rax
  4028d0:	0f 87 da 0f 00 00    	ja     4038b0 <_Z10SpeedTestsv+0x1280>
  4028d6:	48 8d 3c c5 00 00 00 	lea    0x0(,%rax,8),%rdi
  4028dd:	00 
  4028de:	e8 bd ea ff ff       	callq  4013a0 <_Znam@plt>
  4028e3:	bf 0c 00 00 00       	mov    $0xc,%edi
  4028e8:	48 89 84 24 80 00 00 	mov    %rax,0x80(%rsp)
  4028ef:	00 
  4028f0:	c6 84 24 98 00 00 00 	movb   $0x1,0x98(%rsp)
  4028f7:	01 
  4028f8:	c6 84 24 99 00 00 00 	movb   $0x1,0x99(%rsp)
  4028ff:	01 
  402900:	48 c7 44 24 70 10 a3 	movq   $0x40a310,0x70(%rsp)
  402907:	40 00 
  402909:	c7 84 24 70 01 00 00 	movl   $0x3e8,0x170(%rsp)
  402910:	e8 03 00 00 
  402914:	c7 84 24 74 01 00 00 	movl   $0x3e8,0x174(%rsp)
  40291b:	e8 03 00 00 
  40291f:	48 c7 84 24 a0 00 00 	movq   $0x40a290,0xa0(%rsp)
  402926:	00 90 a2 40 00 
  40292b:	48 c7 84 24 a8 00 00 	movq   $0x40a220,0xa8(%rsp)
  402932:	00 20 a2 40 00 
  402937:	c7 84 24 c0 00 00 00 	movl   $0x2,0xc0(%rsp)
  40293e:	02 00 00 00 
  402942:	e8 59 ea ff ff       	callq  4013a0 <_Znam@plt>
  402947:	48 89 84 24 b8 00 00 	mov    %rax,0xb8(%rsp)
  40294e:	00 
  40294f:	48 8d 84 24 b8 00 00 	lea    0xb8(%rsp),%rax
  402956:	00 
  402957:	31 c9                	xor    %ecx,%ecx
  402959:	31 d2                	xor    %edx,%edx
  40295b:	48 89 de             	mov    %rbx,%rsi
  40295e:	bf 60 17 40 00       	mov    $0x401760,%edi
  402963:	48 89 84 24 00 01 00 	mov    %rax,0x100(%rsp)
  40296a:	00 
  40296b:	48 8d 84 24 70 01 00 	lea    0x170(%rsp),%rax
  402972:	00 
  402973:	c7 84 24 10 01 00 00 	movl   $0x2,0x110(%rsp)
  40297a:	02 00 00 00 
  40297e:	48 89 84 24 08 01 00 	mov    %rax,0x108(%rsp)
  402985:	00 
  402986:	e8 95 eb ff ff       	callq  401520 <GOMP_parallel@plt>
  40298b:	e8 30 ec ff ff       	callq  4015c0 <GOMP_barrier@plt>
  402990:	48 63 84 24 c0 00 00 	movslq 0xc0(%rsp),%rax
  402997:	00 
  402998:	48 8b 8c 24 b8 00 00 	mov    0xb8(%rsp),%rcx
  40299f:	00 
  4029a0:	85 c0                	test   %eax,%eax
  4029a2:	48 89 c6             	mov    %rax,%rsi
  4029a5:	4c 8d 0c 81          	lea    (%rcx,%rax,4),%r9
  4029a9:	0f 8e 6f 0d 00 00    	jle    40371e <_Z10SpeedTestsv+0x10ee>
  4029af:	48 89 c8             	mov    %rcx,%rax
  4029b2:	83 e0 0f             	and    $0xf,%eax
  4029b5:	48 c1 e8 02          	shr    $0x2,%rax
  4029b9:	48 f7 d8             	neg    %rax
  4029bc:	83 e0 03             	and    $0x3,%eax
  4029bf:	39 f0                	cmp    %esi,%eax
  4029c1:	0f 47 c6             	cmova  %esi,%eax
  4029c4:	83 fe 08             	cmp    $0x8,%esi
  4029c7:	0f 8f 29 0d 00 00    	jg     4036f6 <_Z10SpeedTestsv+0x10c6>
  4029cd:	89 f0                	mov    %esi,%eax
  4029cf:	83 f8 01             	cmp    $0x1,%eax
  4029d2:	8b 11                	mov    (%rcx),%edx
  4029d4:	0f 84 8a 0d 00 00    	je     403764 <_Z10SpeedTestsv+0x1134>
  4029da:	0f af 51 04          	imul   0x4(%rcx),%edx
  4029de:	83 f8 02             	cmp    $0x2,%eax
  4029e1:	0f 84 87 0d 00 00    	je     40376e <_Z10SpeedTestsv+0x113e>
  4029e7:	0f af 51 08          	imul   0x8(%rcx),%edx
  4029eb:	83 f8 03             	cmp    $0x3,%eax
  4029ee:	0f 84 e8 0d 00 00    	je     4037dc <_Z10SpeedTestsv+0x11ac>
  4029f4:	0f af 51 0c          	imul   0xc(%rcx),%edx
  4029f8:	83 f8 04             	cmp    $0x4,%eax
  4029fb:	0f 84 e5 0d 00 00    	je     4037e6 <_Z10SpeedTestsv+0x11b6>
  402a01:	0f af 51 10          	imul   0x10(%rcx),%edx
  402a05:	83 f8 05             	cmp    $0x5,%eax
  402a08:	0f 84 e2 0d 00 00    	je     4037f0 <_Z10SpeedTestsv+0x11c0>
  402a0e:	0f af 51 14          	imul   0x14(%rcx),%edx
  402a12:	83 f8 06             	cmp    $0x6,%eax
  402a15:	0f 84 3f 0d 00 00    	je     40375a <_Z10SpeedTestsv+0x112a>
  402a1b:	0f af 51 18          	imul   0x18(%rcx),%edx
  402a1f:	83 f8 07             	cmp    $0x7,%eax
  402a22:	0f 84 1e 0d 00 00    	je     403746 <_Z10SpeedTestsv+0x1116>
  402a28:	0f af 51 1c          	imul   0x1c(%rcx),%edx
  402a2c:	bf 08 00 00 00       	mov    $0x8,%edi
  402a31:	39 f0                	cmp    %esi,%eax
  402a33:	0f 84 de 00 00 00    	je     402b17 <_Z10SpeedTestsv+0x4e7>
  402a39:	41 89 f3             	mov    %esi,%r11d
  402a3c:	44 8d 56 ff          	lea    -0x1(%rsi),%r10d
  402a40:	41 89 c5             	mov    %eax,%r13d
  402a43:	41 29 c3             	sub    %eax,%r11d
  402a46:	45 8d 43 fc          	lea    -0x4(%r11),%r8d
  402a4a:	41 29 c2             	sub    %eax,%r10d
  402a4d:	41 c1 e8 02          	shr    $0x2,%r8d
  402a51:	41 83 c0 01          	add    $0x1,%r8d
  402a55:	41 83 fa 02          	cmp    $0x2,%r10d
  402a59:	46 8d 24 85 00 00 00 	lea    0x0(,%r8,4),%r12d
  402a60:	00 
  402a61:	0f 86 8e 00 00 00    	jbe    402af5 <_Z10SpeedTestsv+0x4c5>
  402a67:	4a 8d 04 a9          	lea    (%rcx,%r13,4),%rax
  402a6b:	66 0f 6f 05 cd 79 00 	movdqa 0x79cd(%rip),%xmm0        # 40a440 <_ZTV6bufferId15CPU_MATHEMATICSS_IdS0_10continuousIdS0_ES2_N9Operation3addIdEEES2_S5_E+0x90>
  402a72:	00 
  402a73:	45 31 d2             	xor    %r10d,%r10d
  402a76:	66 0f 6f 08          	movdqa (%rax),%xmm1
  402a7a:	66 0f 6f d0          	movdqa %xmm0,%xmm2
  402a7e:	66 0f 73 d0 20       	psrlq  $0x20,%xmm0
  402a83:	41 83 c2 01          	add    $0x1,%r10d
  402a87:	48 83 c0 10          	add    $0x10,%rax
  402a8b:	66 0f f4 50 f0       	pmuludq -0x10(%rax),%xmm2
  402a90:	66 0f 73 d1 20       	psrlq  $0x20,%xmm1
  402a95:	66 0f f4 c8          	pmuludq %xmm0,%xmm1
  402a99:	66 0f 70 c2 08       	pshufd $0x8,%xmm2,%xmm0
  402a9e:	45 39 d0             	cmp    %r10d,%r8d
  402aa1:	66 0f 70 c9 08       	pshufd $0x8,%xmm1,%xmm1
  402aa6:	66 0f 62 c1          	punpckldq %xmm1,%xmm0
  402aaa:	77 ca                	ja     402a76 <_Z10SpeedTestsv+0x446>
  402aac:	66 0f 6f c8          	movdqa %xmm0,%xmm1
  402ab0:	44 01 e7             	add    %r12d,%edi
  402ab3:	66 0f 6f d0          	movdqa %xmm0,%xmm2
  402ab7:	66 0f 73 d0 20       	psrlq  $0x20,%xmm0
  402abc:	66 0f 73 d9 08       	psrldq $0x8,%xmm1
  402ac1:	66 0f f4 d1          	pmuludq %xmm1,%xmm2
  402ac5:	66 0f 73 d1 20       	psrlq  $0x20,%xmm1
  402aca:	66 0f f4 c1          	pmuludq %xmm1,%xmm0
  402ace:	66 0f 70 ca 08       	pshufd $0x8,%xmm2,%xmm1
  402ad3:	66 0f 70 c0 08       	pshufd $0x8,%xmm0,%xmm0
  402ad8:	66 0f 62 c8          	punpckldq %xmm0,%xmm1
  402adc:	66 0f 6f c1          	movdqa %xmm1,%xmm0
  402ae0:	66 0f 73 d9 04       	psrldq $0x4,%xmm1
  402ae5:	66 0f f4 c1          	pmuludq %xmm1,%xmm0
  402ae9:	66 0f 7e c0          	movd   %xmm0,%eax
  402aed:	0f af d0             	imul   %eax,%edx
  402af0:	45 39 e3             	cmp    %r12d,%r11d
  402af3:	74 22                	je     402b17 <_Z10SpeedTestsv+0x4e7>
  402af5:	48 63 c7             	movslq %edi,%rax
  402af8:	0f af 14 81          	imul   (%rcx,%rax,4),%edx
  402afc:	8d 47 01             	lea    0x1(%rdi),%eax
  402aff:	39 f0                	cmp    %esi,%eax
  402b01:	7d 14                	jge    402b17 <_Z10SpeedTestsv+0x4e7>
  402b03:	48 98                	cltq   
  402b05:	83 c7 02             	add    $0x2,%edi
  402b08:	0f af 14 81          	imul   (%rcx,%rax,4),%edx
  402b0c:	39 f7                	cmp    %esi,%edi
  402b0e:	7d 07                	jge    402b17 <_Z10SpeedTestsv+0x4e7>
  402b10:	48 63 ff             	movslq %edi,%rdi
  402b13:	0f af 14 b9          	imul   (%rcx,%rdi,4),%edx
  402b17:	41 89 11             	mov    %edx,(%r9)
  402b1a:	48 63 84 24 c0 00 00 	movslq 0xc0(%rsp),%rax
  402b21:	00 
  402b22:	48 ba 00 00 00 00 00 	movabs $0xfe0000000000000,%rdx
  402b29:	00 e0 0f 
  402b2c:	48 63 04 81          	movslq (%rcx,%rax,4),%rax
  402b30:	48 39 d0             	cmp    %rdx,%rax
  402b33:	0f 87 5e 0d 00 00    	ja     403897 <_Z10SpeedTestsv+0x1267>
  402b39:	48 8d 3c c5 00 00 00 	lea    0x0(,%rax,8),%rdi
  402b40:	00 
  402b41:	e8 5a e8 ff ff       	callq  4013a0 <_Znam@plt>
  402b46:	bf 0c 00 00 00       	mov    $0xc,%edi
  402b4b:	48 89 84 24 b0 00 00 	mov    %rax,0xb0(%rsp)
  402b52:	00 
  402b53:	c6 84 24 c8 00 00 00 	movb   $0x1,0xc8(%rsp)
  402b5a:	01 
  402b5b:	c6 84 24 c9 00 00 00 	movb   $0x1,0xc9(%rsp)
  402b62:	01 
  402b63:	48 c7 84 24 a0 00 00 	movq   $0x40a310,0xa0(%rsp)
  402b6a:	00 10 a3 40 00 
  402b6f:	c7 84 24 80 01 00 00 	movl   $0x3e8,0x180(%rsp)
  402b76:	e8 03 00 00 
  402b7a:	c7 84 24 84 01 00 00 	movl   $0x3e8,0x184(%rsp)
  402b81:	e8 03 00 00 
  402b85:	48 c7 84 24 d0 00 00 	movq   $0x40a290,0xd0(%rsp)
  402b8c:	00 90 a2 40 00 
  402b91:	48 c7 84 24 d8 00 00 	movq   $0x40a220,0xd8(%rsp)
  402b98:	00 20 a2 40 00 
  402b9d:	c7 84 24 f0 00 00 00 	movl   $0x2,0xf0(%rsp)
  402ba4:	02 00 00 00 
  402ba8:	e8 f3 e7 ff ff       	callq  4013a0 <_Znam@plt>
  402bad:	48 89 84 24 e8 00 00 	mov    %rax,0xe8(%rsp)
  402bb4:	00 
  402bb5:	48 8d 84 24 e8 00 00 	lea    0xe8(%rsp),%rax
  402bbc:	00 
  402bbd:	31 c9                	xor    %ecx,%ecx
  402bbf:	31 d2                	xor    %edx,%edx
  402bc1:	48 89 de             	mov    %rbx,%rsi
  402bc4:	bf 60 17 40 00       	mov    $0x401760,%edi
  402bc9:	48 89 84 24 00 01 00 	mov    %rax,0x100(%rsp)
  402bd0:	00 
  402bd1:	48 89 ac 24 08 01 00 	mov    %rbp,0x108(%rsp)
  402bd8:	00 
  402bd9:	c7 84 24 10 01 00 00 	movl   $0x2,0x110(%rsp)
  402be0:	02 00 00 00 
  402be4:	e8 37 e9 ff ff       	callq  401520 <GOMP_parallel@plt>
  402be9:	e8 d2 e9 ff ff       	callq  4015c0 <GOMP_barrier@plt>
  402bee:	48 63 84 24 f0 00 00 	movslq 0xf0(%rsp),%rax
  402bf5:	00 
  402bf6:	48 8b 8c 24 e8 00 00 	mov    0xe8(%rsp),%rcx
  402bfd:	00 
  402bfe:	85 c0                	test   %eax,%eax
  402c00:	48 89 c6             	mov    %rax,%rsi
  402c03:	4c 8d 0c 81          	lea    (%rcx,%rax,4),%r9
  402c07:	0f 8e fd 0a 00 00    	jle    40370a <_Z10SpeedTestsv+0x10da>
  402c0d:	48 89 c8             	mov    %rcx,%rax
  402c10:	83 e0 0f             	and    $0xf,%eax
  402c13:	48 c1 e8 02          	shr    $0x2,%rax
  402c17:	48 f7 d8             	neg    %rax
  402c1a:	83 e0 03             	and    $0x3,%eax
  402c1d:	39 f0                	cmp    %esi,%eax
  402c1f:	0f 47 c6             	cmova  %esi,%eax
  402c22:	83 fe 08             	cmp    $0x8,%esi
  402c25:	0f 8f b7 0a 00 00    	jg     4036e2 <_Z10SpeedTestsv+0x10b2>
  402c2b:	89 f0                	mov    %esi,%eax
  402c2d:	83 f8 01             	cmp    $0x1,%eax
  402c30:	8b 11                	mov    (%rcx),%edx
  402c32:	0f 84 18 0b 00 00    	je     403750 <_Z10SpeedTestsv+0x1120>
  402c38:	0f af 51 04          	imul   0x4(%rcx),%edx
  402c3c:	83 f8 02             	cmp    $0x2,%eax
  402c3f:	0f 84 e3 0a 00 00    	je     403728 <_Z10SpeedTestsv+0x10f8>
  402c45:	0f af 51 08          	imul   0x8(%rcx),%edx
  402c49:	83 f8 03             	cmp    $0x3,%eax
  402c4c:	0f 84 62 0b 00 00    	je     4037b4 <_Z10SpeedTestsv+0x1184>
  402c52:	0f af 51 0c          	imul   0xc(%rcx),%edx
  402c56:	83 f8 04             	cmp    $0x4,%eax
  402c59:	0f 84 5f 0b 00 00    	je     4037be <_Z10SpeedTestsv+0x118e>
  402c5f:	0f af 51 10          	imul   0x10(%rcx),%edx
  402c63:	83 f8 05             	cmp    $0x5,%eax
  402c66:	0f 84 5c 0b 00 00    	je     4037c8 <_Z10SpeedTestsv+0x1198>
  402c6c:	0f af 51 14          	imul   0x14(%rcx),%edx
  402c70:	83 f8 06             	cmp    $0x6,%eax
  402c73:	0f 84 59 0b 00 00    	je     4037d2 <_Z10SpeedTestsv+0x11a2>
  402c79:	0f af 51 18          	imul   0x18(%rcx),%edx
  402c7d:	83 f8 07             	cmp    $0x7,%eax
  402c80:	0f 84 24 0b 00 00    	je     4037aa <_Z10SpeedTestsv+0x117a>
  402c86:	0f af 51 1c          	imul   0x1c(%rcx),%edx
  402c8a:	bf 08 00 00 00       	mov    $0x8,%edi
  402c8f:	39 f0                	cmp    %esi,%eax
  402c91:	0f 84 dd 00 00 00    	je     402d74 <_Z10SpeedTestsv+0x744>
  402c97:	41 89 f3             	mov    %esi,%r11d
  402c9a:	44 8d 56 ff          	lea    -0x1(%rsi),%r10d
  402c9e:	41 89 c4             	mov    %eax,%r12d
  402ca1:	41 29 c3             	sub    %eax,%r11d
  402ca4:	45 8d 43 fc          	lea    -0x4(%r11),%r8d
  402ca8:	41 29 c2             	sub    %eax,%r10d
  402cab:	41 c1 e8 02          	shr    $0x2,%r8d
  402caf:	41 83 c0 01          	add    $0x1,%r8d
  402cb3:	41 83 fa 02          	cmp    $0x2,%r10d
  402cb7:	42 8d 2c 85 00 00 00 	lea    0x0(,%r8,4),%ebp
  402cbe:	00 
  402cbf:	0f 86 8d 00 00 00    	jbe    402d52 <_Z10SpeedTestsv+0x722>
  402cc5:	4a 8d 04 a1          	lea    (%rcx,%r12,4),%rax
  402cc9:	66 0f 6f 05 6f 77 00 	movdqa 0x776f(%rip),%xmm0        # 40a440 <_ZTV6bufferId15CPU_MATHEMATICSS_IdS0_10continuousIdS0_ES2_N9Operation3addIdEEES2_S5_E+0x90>
  402cd0:	00 
  402cd1:	45 31 d2             	xor    %r10d,%r10d
  402cd4:	66 0f 6f 08          	movdqa (%rax),%xmm1
  402cd8:	66 0f 6f d0          	movdqa %xmm0,%xmm2
  402cdc:	66 0f 73 d0 20       	psrlq  $0x20,%xmm0
  402ce1:	41 83 c2 01          	add    $0x1,%r10d
  402ce5:	48 83 c0 10          	add    $0x10,%rax
  402ce9:	66 0f f4 50 f0       	pmuludq -0x10(%rax),%xmm2
  402cee:	66 0f 73 d1 20       	psrlq  $0x20,%xmm1
  402cf3:	66 0f f4 c8          	pmuludq %xmm0,%xmm1
  402cf7:	66 0f 70 c2 08       	pshufd $0x8,%xmm2,%xmm0
  402cfc:	45 39 d0             	cmp    %r10d,%r8d
  402cff:	66 0f 70 c9 08       	pshufd $0x8,%xmm1,%xmm1
  402d04:	66 0f 62 c1          	punpckldq %xmm1,%xmm0
  402d08:	77 ca                	ja     402cd4 <_Z10SpeedTestsv+0x6a4>
  402d0a:	66 0f 6f d0          	movdqa %xmm0,%xmm2
  402d0e:	01 ef                	add    %ebp,%edi
  402d10:	66 0f 73 da 08       	psrldq $0x8,%xmm2
  402d15:	66 0f 6f ca          	movdqa %xmm2,%xmm1
  402d19:	66 0f 73 d2 20       	psrlq  $0x20,%xmm2
  402d1e:	66 0f f4 c8          	pmuludq %xmm0,%xmm1
  402d22:	66 0f 73 d0 20       	psrlq  $0x20,%xmm0
  402d27:	66 0f 70 c9 08       	pshufd $0x8,%xmm1,%xmm1
  402d2c:	66 0f f4 c2          	pmuludq %xmm2,%xmm0
  402d30:	66 0f 70 c0 08       	pshufd $0x8,%xmm0,%xmm0
  402d35:	66 0f 62 c8          	punpckldq %xmm0,%xmm1
  402d39:	66 0f 6f c1          	movdqa %xmm1,%xmm0
  402d3d:	66 0f 73 d9 04       	psrldq $0x4,%xmm1
  402d42:	66 0f f4 c1          	pmuludq %xmm1,%xmm0
  402d46:	66 0f 7e c0          	movd   %xmm0,%eax
  402d4a:	0f af d0             	imul   %eax,%edx
  402d4d:	44 39 dd             	cmp    %r11d,%ebp
  402d50:	74 22                	je     402d74 <_Z10SpeedTestsv+0x744>
  402d52:	48 63 c7             	movslq %edi,%rax
  402d55:	0f af 14 81          	imul   (%rcx,%rax,4),%edx
  402d59:	8d 47 01             	lea    0x1(%rdi),%eax
  402d5c:	39 c6                	cmp    %eax,%esi
  402d5e:	7e 14                	jle    402d74 <_Z10SpeedTestsv+0x744>
  402d60:	48 98                	cltq   
  402d62:	83 c7 02             	add    $0x2,%edi
  402d65:	0f af 14 81          	imul   (%rcx,%rax,4),%edx
  402d69:	39 f7                	cmp    %esi,%edi
  402d6b:	7d 07                	jge    402d74 <_Z10SpeedTestsv+0x744>
  402d6d:	48 63 ff             	movslq %edi,%rdi
  402d70:	0f af 14 b9          	imul   (%rcx,%rdi,4),%edx
  402d74:	41 89 11             	mov    %edx,(%r9)
  402d77:	48 63 84 24 f0 00 00 	movslq 0xf0(%rsp),%rax
  402d7e:	00 
  402d7f:	48 ba 00 00 00 00 00 	movabs $0xfe0000000000000,%rdx
  402d86:	00 e0 0f 
  402d89:	48 63 04 81          	movslq (%rcx,%rax,4),%rax
  402d8d:	48 39 d0             	cmp    %rdx,%rax
  402d90:	0f 87 ed 0a 00 00    	ja     403883 <_Z10SpeedTestsv+0x1253>
  402d96:	48 8d 3c c5 00 00 00 	lea    0x0(,%rax,8),%rdi
  402d9d:	00 
  402d9e:	e8 fd e5 ff ff       	callq  4013a0 <_Znam@plt>
  402da3:	48 63 8c 24 90 00 00 	movslq 0x90(%rsp),%rcx
  402daa:	00 
  402dab:	48 8b 94 24 88 00 00 	mov    0x88(%rsp),%rdx
  402db2:	00 
  402db3:	4c 8d 64 24 50       	lea    0x50(%rsp),%r12
  402db8:	48 8b b4 24 80 00 00 	mov    0x80(%rsp),%rsi
  402dbf:	00 
  402dc0:	48 89 84 24 e0 00 00 	mov    %rax,0xe0(%rsp)
  402dc7:	00 
  402dc8:	bf f0 1e 40 00       	mov    $0x401ef0,%edi
  402dcd:	f2 0f 10 35 5b 76 00 	movsd  0x765b(%rip),%xmm6        # 40a430 <_ZTV6bufferId15CPU_MATHEMATICSS_IdS0_10continuousIdS0_ES2_N9Operation3addIdEEES2_S5_E+0x80>
  402dd4:	00 
  402dd5:	c6 84 24 f8 00 00 00 	movb   $0x1,0xf8(%rsp)
  402ddc:	01 
  402ddd:	f2 0f 10 2d 43 76 00 	movsd  0x7643(%rip),%xmm5        # 40a428 <_ZTV6bufferId15CPU_MATHEMATICSS_IdS0_10continuousIdS0_ES2_N9Operation3addIdEEES2_S5_E+0x78>
  402de4:	00 
  402de5:	c6 84 24 f9 00 00 00 	movb   $0x1,0xf9(%rsp)
  402dec:	01 
  402ded:	48 89 c8             	mov    %rcx,%rax
  402df0:	8b 0c 8a             	mov    (%rdx,%rcx,4),%ecx
  402df3:	48 89 74 24 58       	mov    %rsi,0x58(%rsp)
  402df8:	48 89 54 24 60       	mov    %rdx,0x60(%rsp)
  402dfd:	48 89 de             	mov    %rbx,%rsi
  402e00:	31 d2                	xor    %edx,%edx
  402e02:	f2 0f 11 b4 24 10 01 	movsd  %xmm6,0x110(%rsp)
  402e09:	00 00 
  402e0b:	89 44 24 68          	mov    %eax,0x68(%rsp)
  402e0f:	48 c7 84 24 d0 00 00 	movq   $0x40a310,0xd0(%rsp)
  402e16:	00 10 a3 40 00 
  402e1b:	89 8c 24 18 01 00 00 	mov    %ecx,0x118(%rsp)
  402e22:	31 c9                	xor    %ecx,%ecx
  402e24:	f2 0f 11 ac 24 08 01 	movsd  %xmm5,0x108(%rsp)
  402e2b:	00 00 
  402e2d:	48 c7 44 24 50 20 a2 	movq   $0x40a220,0x50(%rsp)
  402e34:	40 00 
  402e36:	4c 89 a4 24 00 01 00 	mov    %r12,0x100(%rsp)
  402e3d:	00 
  402e3e:	e8 dd e6 ff ff       	callq  401520 <GOMP_parallel@plt>
  402e43:	e8 78 e7 ff ff       	callq  4015c0 <GOMP_barrier@plt>
  402e48:	48 63 8c 24 c0 00 00 	movslq 0xc0(%rsp),%rcx
  402e4f:	00 
  402e50:	48 8b 94 24 b8 00 00 	mov    0xb8(%rsp),%rdx
  402e57:	00 
  402e58:	bf f0 1e 40 00       	mov    $0x401ef0,%edi
  402e5d:	48 8b b4 24 b0 00 00 	mov    0xb0(%rsp),%rsi
  402e64:	00 
  402e65:	f2 0f 10 3d bb 75 00 	movsd  0x75bb(%rip),%xmm7        # 40a428 <_ZTV6bufferId15CPU_MATHEMATICSS_IdS0_10continuousIdS0_ES2_N9Operation3addIdEEES2_S5_E+0x78>
  402e6c:	00 
  402e6d:	f2 0f 10 2d bb 75 00 	movsd  0x75bb(%rip),%xmm5        # 40a430 <_ZTV6bufferId15CPU_MATHEMATICSS_IdS0_10continuousIdS0_ES2_N9Operation3addIdEEES2_S5_E+0x80>
  402e74:	00 
  402e75:	48 89 c8             	mov    %rcx,%rax
  402e78:	8b 0c 8a             	mov    (%rdx,%rcx,4),%ecx
  402e7b:	48 89 74 24 58       	mov    %rsi,0x58(%rsp)
  402e80:	48 89 54 24 60       	mov    %rdx,0x60(%rsp)
  402e85:	48 89 de             	mov    %rbx,%rsi
  402e88:	31 d2                	xor    %edx,%edx
  402e8a:	89 44 24 68          	mov    %eax,0x68(%rsp)
  402e8e:	f2 0f 11 bc 24 08 01 	movsd  %xmm7,0x108(%rsp)
  402e95:	00 00 
  402e97:	48 c7 44 24 50 20 a2 	movq   $0x40a220,0x50(%rsp)
  402e9e:	40 00 
  402ea0:	89 8c 24 18 01 00 00 	mov    %ecx,0x118(%rsp)
  402ea7:	31 c9                	xor    %ecx,%ecx
  402ea9:	f2 0f 11 ac 24 10 01 	movsd  %xmm5,0x110(%rsp)
  402eb0:	00 00 
  402eb2:	4c 89 a4 24 00 01 00 	mov    %r12,0x100(%rsp)
  402eb9:	00 
  402eba:	e8 61 e6 ff ff       	callq  401520 <GOMP_parallel@plt>
  402ebf:	e8 fc e6 ff ff       	callq  4015c0 <GOMP_barrier@plt>
  402ec4:	e8 d7 e6 ff ff       	callq  4015a0 <omp_get_wtime@plt>
  402ec9:	66 0f ef f6          	pxor   %xmm6,%xmm6
  402ecd:	be 09 92 40 00       	mov    $0x409209,%esi
  402ed2:	bf 01 00 00 00       	mov    $0x1,%edi
  402ed7:	31 c0                	xor    %eax,%eax
  402ed9:	f2 0f 5a f0          	cvtsd2ss %xmm0,%xmm6
  402edd:	f3 0f 11 34 24       	movss  %xmm6,(%rsp)
  402ee2:	e8 a9 e4 ff ff       	callq  401390 <__printf_chk@plt>
  402ee7:	bd e8 03 00 00       	mov    $0x3e8,%ebp
  402eec:	0f 1f 40 00          	nopl   0x0(%rax)
  402ef0:	48 63 84 24 f0 00 00 	movslq 0xf0(%rsp),%rax
  402ef7:	00 
  402ef8:	48 63 b4 24 90 00 00 	movslq 0x90(%rsp),%rsi
  402eff:	00 
  402f00:	44 8b 94 24 c0 00 00 	mov    0xc0(%rsp),%r10d
  402f07:	00 
  402f08:	4c 8b 8c 24 e8 00 00 	mov    0xe8(%rsp),%r9
  402f0f:	00 
  402f10:	48 8b 94 24 88 00 00 	mov    0x88(%rsp),%rdx
  402f17:	00 
  402f18:	4c 8b 9c 24 b8 00 00 	mov    0xb8(%rsp),%r11
  402f1f:	00 
  402f20:	4c 8b b4 24 b0 00 00 	mov    0xb0(%rsp),%r14
  402f27:	00 
  402f28:	4c 8b ac 24 80 00 00 	mov    0x80(%rsp),%r13
  402f2f:	00 
  402f30:	41 8b 3c 81          	mov    (%r9,%rax,4),%edi
  402f34:	49 89 c0             	mov    %rax,%r8
  402f37:	49 63 c2             	movslq %r10d,%rax
  402f3a:	41 8b 04 83          	mov    (%r11,%rax,4),%eax
  402f3e:	39 04 b2             	cmp    %eax,(%rdx,%rsi,4)
  402f41:	0f 4d 04 b2          	cmovge (%rdx,%rsi,4),%eax
  402f45:	39 c7                	cmp    %eax,%edi
  402f47:	0f 85 ad 08 00 00    	jne    4037fa <_Z10SpeedTestsv+0x11ca>
  402f4d:	48 8b 84 24 e0 00 00 	mov    0xe0(%rsp),%rax
  402f54:	00 
  402f55:	89 b4 24 28 01 00 00 	mov    %esi,0x128(%rsp)
  402f5c:	31 c9                	xor    %ecx,%ecx
  402f5e:	89 b4 24 68 01 00 00 	mov    %esi,0x168(%rsp)
  402f65:	48 8d 74 24 30       	lea    0x30(%rsp),%rsi
  402f6a:	48 89 94 24 20 01 00 	mov    %rdx,0x120(%rsp)
  402f71:	00 
  402f72:	48 89 94 24 60 01 00 	mov    %rdx,0x160(%rsp)
  402f79:	00 
  402f7a:	89 7c 24 40          	mov    %edi,0x40(%rsp)
  402f7e:	31 d2                	xor    %edx,%edx
  402f80:	bf a0 1f 40 00       	mov    $0x401fa0,%edi
  402f85:	4c 89 9c 24 40 01 00 	mov    %r11,0x140(%rsp)
  402f8c:	00 
  402f8d:	44 89 94 24 48 01 00 	mov    %r10d,0x148(%rsp)
  402f94:	00 
  402f95:	48 89 44 24 58       	mov    %rax,0x58(%rsp)
  402f9a:	4c 89 4c 24 60       	mov    %r9,0x60(%rsp)
  402f9f:	44 89 44 24 68       	mov    %r8d,0x68(%rsp)
  402fa4:	48 c7 84 24 00 01 00 	movq   $0x40a3c0,0x100(%rsp)
  402fab:	00 c0 a3 40 00 
  402fb0:	48 c7 84 24 08 01 00 	movq   $0x40a350,0x108(%rsp)
  402fb7:	00 50 a3 40 00 
  402fbc:	48 c7 84 24 10 01 00 	movq   $0x40a220,0x110(%rsp)
  402fc3:	00 20 a2 40 00 
  402fc8:	4c 89 ac 24 18 01 00 	mov    %r13,0x118(%rsp)
  402fcf:	00 
  402fd0:	48 c7 84 24 30 01 00 	movq   $0x40a220,0x130(%rsp)
  402fd7:	00 20 a2 40 00 
  402fdc:	4c 89 b4 24 38 01 00 	mov    %r14,0x138(%rsp)
  402fe3:	00 
  402fe4:	48 c7 84 24 50 01 00 	movq   $0x40a220,0x150(%rsp)
  402feb:	00 20 a2 40 00 
  402ff0:	4c 89 ac 24 58 01 00 	mov    %r13,0x158(%rsp)
  402ff7:	00 
  402ff8:	48 c7 44 24 50 20 a2 	movq   $0x40a220,0x50(%rsp)
  402fff:	40 00 
  403001:	4c 89 64 24 30       	mov    %r12,0x30(%rsp)
  403006:	48 89 5c 24 38       	mov    %rbx,0x38(%rsp)
  40300b:	e8 10 e5 ff ff       	callq  401520 <GOMP_parallel@plt>
  403010:	e8 ab e5 ff ff       	callq  4015c0 <GOMP_barrier@plt>
  403015:	83 ed 01             	sub    $0x1,%ebp
  403018:	0f 85 d2 fe ff ff    	jne    402ef0 <_Z10SpeedTestsv+0x8c0>
  40301e:	66 0f ef ff          	pxor   %xmm7,%xmm7
  403022:	be 08 91 40 00       	mov    $0x409108,%esi
  403027:	bf 01 00 00 00       	mov    $0x1,%edi
  40302c:	b8 01 00 00 00       	mov    $0x1,%eax
  403031:	f3 0f 5a 3c 24       	cvtss2sd (%rsp),%xmm7
  403036:	66 0f 28 c7          	movapd %xmm7,%xmm0
  40303a:	f2 0f 11 3c 24       	movsd  %xmm7,(%rsp)
  40303f:	e8 4c e3 ff ff       	callq  401390 <__printf_chk@plt>
  403044:	e8 57 e5 ff ff       	callq  4015a0 <omp_get_wtime@plt>
  403049:	f2 0f 5c 04 24       	subsd  (%rsp),%xmm0
  40304e:	be 24 92 40 00       	mov    $0x409224,%esi
  403053:	bf 01 00 00 00       	mov    $0x1,%edi
  403058:	b8 02 00 00 00       	mov    $0x2,%eax
  40305d:	f2 0f 5a c0          	cvtsd2ss %xmm0,%xmm0
  403061:	f3 0f 5a c0          	cvtss2sd %xmm0,%xmm0
  403065:	66 0f 28 c8          	movapd %xmm0,%xmm1
  403069:	e8 22 e3 ff ff       	callq  401390 <__printf_chk@plt>
  40306e:	48 63 94 24 f0 00 00 	movslq 0xf0(%rsp),%rdx
  403075:	00 
  403076:	48 8b 84 24 e8 00 00 	mov    0xe8(%rsp),%rax
  40307d:	00 
  40307e:	48 8b ac 24 e0 00 00 	mov    0xe0(%rsp),%rbp
  403085:	00 
  403086:	4c 8b b4 24 80 00 00 	mov    0x80(%rsp),%r14
  40308d:	00 
  40308e:	4c 8b ac 24 b0 00 00 	mov    0xb0(%rsp),%r13
  403095:	00 
  403096:	44 8b 24 90          	mov    (%rax,%rdx,4),%r12d
  40309a:	e8 01 e5 ff ff       	callq  4015a0 <omp_get_wtime@plt>
  40309f:	66 0f ef ed          	pxor   %xmm5,%xmm5
  4030a3:	48 8b 05 36 a1 20 00 	mov    0x20a136(%rip),%rax        # 60d1e0 <_ZSt4cout@@GLIBCXX_3.4>
  4030aa:	f2 0f 5a e8          	cvtsd2ss %xmm0,%xmm5
  4030ae:	48 8b 40 e8          	mov    -0x18(%rax),%rax
  4030b2:	4c 8b b8 d0 d2 60 00 	mov    0x60d2d0(%rax),%r15
  4030b9:	4d 85 ff             	test   %r15,%r15
  4030bc:	f3 0f 11 6c 24 10    	movss  %xmm5,0x10(%rsp)
  4030c2:	0f 84 f2 07 00 00    	je     4038ba <_Z10SpeedTestsv+0x128a>
  4030c8:	41 80 7f 38 00       	cmpb   $0x0,0x38(%r15)
  4030cd:	0f 84 15 05 00 00    	je     4035e8 <_Z10SpeedTestsv+0xfb8>
  4030d3:	41 0f be 77 43       	movsbl 0x43(%r15),%esi
  4030d8:	bf e0 d1 60 00       	mov    $0x60d1e0,%edi
  4030dd:	e8 ce e2 ff ff       	callq  4013b0 <_ZNSo3putEc@plt>
  4030e2:	48 89 c7             	mov    %rax,%rdi
  4030e5:	e8 36 e3 ff ff       	callq  401420 <_ZNSo5flushEv@plt>
  4030ea:	49 89 c7             	mov    %rax,%r15
  4030ed:	48 8b 00             	mov    (%rax),%rax
  4030f0:	48 8b 40 e8          	mov    -0x18(%rax),%rax
  4030f4:	49 8b 84 07 f0 00 00 	mov    0xf0(%r15,%rax,1),%rax
  4030fb:	00 
  4030fc:	48 85 c0             	test   %rax,%rax
  4030ff:	48 89 04 24          	mov    %rax,(%rsp)
  403103:	0f 84 a2 07 00 00    	je     4038ab <_Z10SpeedTestsv+0x127b>
  403109:	80 78 38 00          	cmpb   $0x0,0x38(%rax)
  40310d:	0f 84 a3 04 00 00    	je     4035b6 <_Z10SpeedTestsv+0xf86>
  403113:	0f be 70 43          	movsbl 0x43(%rax),%esi
  403117:	4c 89 ff             	mov    %r15,%rdi
  40311a:	e8 91 e2 ff ff       	callq  4013b0 <_ZNSo3putEc@plt>
  40311f:	48 89 c7             	mov    %rax,%rdi
  403122:	e8 f9 e2 ff ff       	callq  401420 <_ZNSo5flushEv@plt>
  403127:	be 48 91 40 00       	mov    $0x409148,%esi
  40312c:	bf 01 00 00 00       	mov    $0x1,%edi
  403131:	31 c0                	xor    %eax,%eax
  403133:	e8 58 e2 ff ff       	callq  401390 <__printf_chk@plt>
  403138:	41 bf e8 03 00 00    	mov    $0x3e8,%r15d
  40313e:	66 90                	xchg   %ax,%ax
  403140:	31 c9                	xor    %ecx,%ecx
  403142:	31 d2                	xor    %edx,%edx
  403144:	48 89 de             	mov    %rbx,%rsi
  403147:	bf b0 1b 40 00       	mov    $0x401bb0,%edi
  40314c:	48 89 ac 24 00 01 00 	mov    %rbp,0x100(%rsp)
  403153:	00 
  403154:	4c 89 b4 24 08 01 00 	mov    %r14,0x108(%rsp)
  40315b:	00 
  40315c:	4c 89 ac 24 10 01 00 	mov    %r13,0x110(%rsp)
  403163:	00 
  403164:	44 89 a4 24 18 01 00 	mov    %r12d,0x118(%rsp)
  40316b:	00 
  40316c:	e8 af e3 ff ff       	callq  401520 <GOMP_parallel@plt>
  403171:	e8 4a e4 ff ff       	callq  4015c0 <GOMP_barrier@plt>
  403176:	31 c9                	xor    %ecx,%ecx
  403178:	31 d2                	xor    %edx,%edx
  40317a:	48 89 de             	mov    %rbx,%rsi
  40317d:	bf b0 1b 40 00       	mov    $0x401bb0,%edi
  403182:	48 89 ac 24 00 01 00 	mov    %rbp,0x100(%rsp)
  403189:	00 
  40318a:	48 89 ac 24 08 01 00 	mov    %rbp,0x108(%rsp)
  403191:	00 
  403192:	4c 89 b4 24 10 01 00 	mov    %r14,0x110(%rsp)
  403199:	00 
  40319a:	44 89 a4 24 18 01 00 	mov    %r12d,0x118(%rsp)
  4031a1:	00 
  4031a2:	e8 79 e3 ff ff       	callq  401520 <GOMP_parallel@plt>
  4031a7:	e8 14 e4 ff ff       	callq  4015c0 <GOMP_barrier@plt>
  4031ac:	41 83 ef 01          	sub    $0x1,%r15d
  4031b0:	75 8e                	jne    403140 <_Z10SpeedTestsv+0xb10>
  4031b2:	e8 e9 e3 ff ff       	callq  4015a0 <omp_get_wtime@plt>
  4031b7:	66 0f ef c9          	pxor   %xmm1,%xmm1
  4031bb:	be 24 92 40 00       	mov    $0x409224,%esi
  4031c0:	bf 01 00 00 00       	mov    $0x1,%edi
  4031c5:	b8 02 00 00 00       	mov    $0x2,%eax
  4031ca:	f3 0f 5a 4c 24 10    	cvtss2sd 0x10(%rsp),%xmm1
  4031d0:	f2 0f 5c c1          	subsd  %xmm1,%xmm0
  4031d4:	f2 0f 5a c0          	cvtsd2ss %xmm0,%xmm0
  4031d8:	f3 0f 5a c0          	cvtss2sd %xmm0,%xmm0
  4031dc:	66 0f 28 c8          	movapd %xmm0,%xmm1
  4031e0:	e8 ab e1 ff ff       	callq  401390 <__printf_chk@plt>
  4031e5:	ba 08 00 00 00       	mov    $0x8,%edx
  4031ea:	be 95 92 40 00       	mov    $0x409295,%esi
  4031ef:	bf e0 d1 60 00       	mov    $0x60d1e0,%edi
  4031f4:	e8 d7 e2 ff ff       	callq  4014d0 <_ZSt16__ostream_insertIcSt11char_traitsIcEERSt13basic_ostreamIT_T0_ES6_PKS3_l@plt>
  4031f9:	48 8b 05 e0 9f 20 00 	mov    0x209fe0(%rip),%rax        # 60d1e0 <_ZSt4cout@@GLIBCXX_3.4>
  403200:	48 8b 40 e8          	mov    -0x18(%rax),%rax
  403204:	4c 8b b8 d0 d2 60 00 	mov    0x60d2d0(%rax),%r15
  40320b:	4d 85 ff             	test   %r15,%r15
  40320e:	0f 84 ab 06 00 00    	je     4038bf <_Z10SpeedTestsv+0x128f>
  403214:	41 80 7f 38 00       	cmpb   $0x0,0x38(%r15)
  403219:	0f 84 6a 03 00 00    	je     403589 <_Z10SpeedTestsv+0xf59>
  40321f:	41 0f be 77 43       	movsbl 0x43(%r15),%esi
  403224:	bf e0 d1 60 00       	mov    $0x60d1e0,%edi
  403229:	e8 82 e1 ff ff       	callq  4013b0 <_ZNSo3putEc@plt>
  40322e:	48 89 c7             	mov    %rax,%rdi
  403231:	e8 ea e1 ff ff       	callq  401420 <_ZNSo5flushEv@plt>
  403236:	48 8b 05 a3 9f 20 00 	mov    0x209fa3(%rip),%rax        # 60d1e0 <_ZSt4cout@@GLIBCXX_3.4>
  40323d:	48 8b 40 e8          	mov    -0x18(%rax),%rax
  403241:	4c 8b b8 d0 d2 60 00 	mov    0x60d2d0(%rax),%r15
  403248:	4d 85 ff             	test   %r15,%r15
  40324b:	0f 84 73 06 00 00    	je     4038c4 <_Z10SpeedTestsv+0x1294>
  403251:	41 80 7f 38 00       	cmpb   $0x0,0x38(%r15)
  403256:	0f 84 45 04 00 00    	je     4036a1 <_Z10SpeedTestsv+0x1071>
  40325c:	41 0f be 77 43       	movsbl 0x43(%r15),%esi
  403261:	bf e0 d1 60 00       	mov    $0x60d1e0,%edi
  403266:	e8 45 e1 ff ff       	callq  4013b0 <_ZNSo3putEc@plt>
  40326b:	48 89 c7             	mov    %rax,%rdi
  40326e:	e8 ad e1 ff ff       	callq  401420 <_ZNSo5flushEv@plt>
  403273:	49 89 c7             	mov    %rax,%r15
  403276:	48 8b 00             	mov    (%rax),%rax
  403279:	48 8b 40 e8          	mov    -0x18(%rax),%rax
  40327d:	49 8b 84 07 f0 00 00 	mov    0xf0(%r15,%rax,1),%rax
  403284:	00 
  403285:	48 85 c0             	test   %rax,%rax
  403288:	48 89 04 24          	mov    %rax,(%rsp)
  40328c:	0f 84 0f 06 00 00    	je     4038a1 <_Z10SpeedTestsv+0x1271>
  403292:	80 78 38 00          	cmpb   $0x0,0x38(%rax)
  403296:	0f 84 d3 03 00 00    	je     40366f <_Z10SpeedTestsv+0x103f>
  40329c:	0f be 70 43          	movsbl 0x43(%rax),%esi
  4032a0:	4c 89 ff             	mov    %r15,%rdi
  4032a3:	e8 08 e1 ff ff       	callq  4013b0 <_ZNSo3putEc@plt>
  4032a8:	48 89 c7             	mov    %rax,%rdi
  4032ab:	e8 70 e1 ff ff       	callq  401420 <_ZNSo5flushEv@plt>
  4032b0:	be 90 91 40 00       	mov    $0x409190,%esi
  4032b5:	bf 01 00 00 00       	mov    $0x1,%edi
  4032ba:	31 c0                	xor    %eax,%eax
  4032bc:	e8 cf e0 ff ff       	callq  401390 <__printf_chk@plt>
  4032c1:	e8 da e2 ff ff       	callq  4015a0 <omp_get_wtime@plt>
  4032c6:	66 0f ef ff          	pxor   %xmm7,%xmm7
  4032ca:	48 89 2c 24          	mov    %rbp,(%rsp)
  4032ce:	f3 0f 7e 2c 24       	movq   (%rsp),%xmm5
  4032d3:	4c 89 34 24          	mov    %r14,(%rsp)
  4032d7:	0f 16 2c 24          	movhps (%rsp),%xmm5
  4032db:	4c 89 2c 24          	mov    %r13,(%rsp)
  4032df:	41 bf e8 03 00 00    	mov    $0x3e8,%r15d
  4032e5:	f2 0f 5a f8          	cvtsd2ss %xmm0,%xmm7
  4032e9:	f3 0f 7e 34 24       	movq   (%rsp),%xmm6
  4032ee:	66 0f 6c f6          	punpcklqdq %xmm6,%xmm6
  4032f2:	0f 29 6c 24 10       	movaps %xmm5,0x10(%rsp)
  4032f7:	0f 29 34 24          	movaps %xmm6,(%rsp)
  4032fb:	f3 0f 11 7c 24 2c    	movss  %xmm7,0x2c(%rsp)
  403301:	0f 1f 80 00 00 00 00 	nopl   0x0(%rax)
  403308:	66 0f 6f 5c 24 10    	movdqa 0x10(%rsp),%xmm3
  40330e:	31 c9                	xor    %ecx,%ecx
  403310:	31 d2                	xor    %edx,%edx
  403312:	48 89 de             	mov    %rbx,%rsi
  403315:	bf 20 1d 40 00       	mov    $0x401d20,%edi
  40331a:	44 89 a4 24 20 01 00 	mov    %r12d,0x120(%rsp)
  403321:	00 
  403322:	66 0f 6f 24 24       	movdqa (%rsp),%xmm4
  403327:	0f 29 9c 24 00 01 00 	movaps %xmm3,0x100(%rsp)
  40332e:	00 
  40332f:	0f 29 a4 24 10 01 00 	movaps %xmm4,0x110(%rsp)
  403336:	00 
  403337:	e8 e4 e1 ff ff       	callq  401520 <GOMP_parallel@plt>
  40333c:	e8 7f e2 ff ff       	callq  4015c0 <GOMP_barrier@plt>
  403341:	41 83 ef 01          	sub    $0x1,%r15d
  403345:	75 c1                	jne    403308 <_Z10SpeedTestsv+0xcd8>
  403347:	e8 54 e2 ff ff       	callq  4015a0 <omp_get_wtime@plt>
  40334c:	66 0f ef c9          	pxor   %xmm1,%xmm1
  403350:	be 24 92 40 00       	mov    $0x409224,%esi
  403355:	bf 01 00 00 00       	mov    $0x1,%edi
  40335a:	b8 02 00 00 00       	mov    $0x2,%eax
  40335f:	f3 0f 5a 4c 24 2c    	cvtss2sd 0x2c(%rsp),%xmm1
  403365:	f2 0f 5c c1          	subsd  %xmm1,%xmm0
  403369:	f2 0f 5a c0          	cvtsd2ss %xmm0,%xmm0
  40336d:	f3 0f 5a c0          	cvtss2sd %xmm0,%xmm0
  403371:	66 0f 28 c8          	movapd %xmm0,%xmm1
  403375:	e8 16 e0 ff ff       	callq  401390 <__printf_chk@plt>
  40337a:	48 8b 05 5f 9e 20 00 	mov    0x209e5f(%rip),%rax        # 60d1e0 <_ZSt4cout@@GLIBCXX_3.4>
  403381:	48 8b 40 e8          	mov    -0x18(%rax),%rax
  403385:	48 8b 98 d0 d2 60 00 	mov    0x60d2d0(%rax),%rbx
  40338c:	48 85 db             	test   %rbx,%rbx
  40338f:	0f 84 07 05 00 00    	je     40389c <_Z10SpeedTestsv+0x126c>
  403395:	80 7b 38 00          	cmpb   $0x0,0x38(%rbx)
  403399:	0f 84 a3 02 00 00    	je     403642 <_Z10SpeedTestsv+0x1012>
  40339f:	0f be 73 43          	movsbl 0x43(%rbx),%esi
  4033a3:	bf e0 d1 60 00       	mov    $0x60d1e0,%edi
  4033a8:	e8 03 e0 ff ff       	callq  4013b0 <_ZNSo3putEc@plt>
  4033ad:	48 89 c7             	mov    %rax,%rdi
  4033b0:	e8 6b e0 ff ff       	callq  401420 <_ZNSo5flushEv@plt>
  4033b5:	48 89 c5             	mov    %rax,%rbp
  4033b8:	48 8b 00             	mov    (%rax),%rax
  4033bb:	48 8b 40 e8          	mov    -0x18(%rax),%rax
  4033bf:	48 8b 9c 05 f0 00 00 	mov    0xf0(%rbp,%rax,1),%rbx
  4033c6:	00 
  4033c7:	48 85 db             	test   %rbx,%rbx
  4033ca:	0f 84 f9 04 00 00    	je     4038c9 <_Z10SpeedTestsv+0x1299>
  4033d0:	80 7b 38 00          	cmpb   $0x0,0x38(%rbx)
  4033d4:	0f 84 3b 02 00 00    	je     403615 <_Z10SpeedTestsv+0xfe5>
  4033da:	0f be 73 43          	movsbl 0x43(%rbx),%esi
  4033de:	48 89 ef             	mov    %rbp,%rdi
  4033e1:	e8 ca df ff ff       	callq  4013b0 <_ZNSo3putEc@plt>
  4033e6:	48 89 c7             	mov    %rax,%rdi
  4033e9:	e8 32 e0 ff ff       	callq  401420 <_ZNSo5flushEv@plt>
  4033ee:	ba 08 00 00 00       	mov    $0x8,%edx
  4033f3:	be 95 92 40 00       	mov    $0x409295,%esi
  4033f8:	bf e0 d1 60 00       	mov    $0x60d1e0,%edi
  4033fd:	e8 ce e0 ff ff       	callq  4014d0 <_ZSt16__ostream_insertIcSt11char_traitsIcEERSt13basic_ostreamIT_T0_ES6_PKS3_l@plt>
  403402:	48 8b 05 d7 9d 20 00 	mov    0x209dd7(%rip),%rax        # 60d1e0 <_ZSt4cout@@GLIBCXX_3.4>
  403409:	48 8b 40 e8          	mov    -0x18(%rax),%rax
  40340d:	48 8b 98 d0 d2 60 00 	mov    0x60d2d0(%rax),%rbx
  403414:	48 85 db             	test   %rbx,%rbx
  403417:	0f 84 89 04 00 00    	je     4038a6 <_Z10SpeedTestsv+0x1276>
  40341d:	80 7b 38 00          	cmpb   $0x0,0x38(%rbx)
  403421:	0f 84 35 01 00 00    	je     40355c <_Z10SpeedTestsv+0xf2c>
  403427:	0f be 73 43          	movsbl 0x43(%rbx),%esi
  40342b:	bf e0 d1 60 00       	mov    $0x60d1e0,%edi
  403430:	e8 7b df ff ff       	callq  4013b0 <_ZNSo3putEc@plt>
  403435:	48 89 c7             	mov    %rax,%rdi
  403438:	e8 e3 df ff ff       	callq  401420 <_ZNSo5flushEv@plt>
  40343d:	80 bc 24 f8 00 00 00 	cmpb   $0x0,0xf8(%rsp)
  403444:	00 
  403445:	48 c7 84 24 d0 00 00 	movq   $0x40a2d0,0xd0(%rsp)
  40344c:	00 d0 a2 40 00 
  403451:	74 12                	je     403465 <_Z10SpeedTestsv+0xe35>
  403453:	48 8b bc 24 e0 00 00 	mov    0xe0(%rsp),%rdi
  40345a:	00 
  40345b:	48 85 ff             	test   %rdi,%rdi
  40345e:	74 05                	je     403465 <_Z10SpeedTestsv+0xe35>
  403460:	e8 9b e0 ff ff       	callq  401500 <_ZdaPv@plt>
  403465:	80 bc 24 f9 00 00 00 	cmpb   $0x0,0xf9(%rsp)
  40346c:	00 
  40346d:	74 12                	je     403481 <_Z10SpeedTestsv+0xe51>
  40346f:	48 8b bc 24 e8 00 00 	mov    0xe8(%rsp),%rdi
  403476:	00 
  403477:	48 85 ff             	test   %rdi,%rdi
  40347a:	74 05                	je     403481 <_Z10SpeedTestsv+0xe51>
  40347c:	e8 7f e0 ff ff       	callq  401500 <_ZdaPv@plt>
  403481:	80 bc 24 c8 00 00 00 	cmpb   $0x0,0xc8(%rsp)
  403488:	00 
  403489:	48 c7 84 24 a0 00 00 	movq   $0x40a2d0,0xa0(%rsp)
  403490:	00 d0 a2 40 00 
  403495:	74 12                	je     4034a9 <_Z10SpeedTestsv+0xe79>
  403497:	48 8b bc 24 b0 00 00 	mov    0xb0(%rsp),%rdi
  40349e:	00 
  40349f:	48 85 ff             	test   %rdi,%rdi
  4034a2:	74 05                	je     4034a9 <_Z10SpeedTestsv+0xe79>
  4034a4:	e8 57 e0 ff ff       	callq  401500 <_ZdaPv@plt>
  4034a9:	80 bc 24 c9 00 00 00 	cmpb   $0x0,0xc9(%rsp)
  4034b0:	00 
  4034b1:	74 12                	je     4034c5 <_Z10SpeedTestsv+0xe95>
  4034b3:	48 8b bc 24 b8 00 00 	mov    0xb8(%rsp),%rdi
  4034ba:	00 
  4034bb:	48 85 ff             	test   %rdi,%rdi
  4034be:	74 05                	je     4034c5 <_Z10SpeedTestsv+0xe95>
  4034c0:	e8 3b e0 ff ff       	callq  401500 <_ZdaPv@plt>
  4034c5:	80 bc 24 98 00 00 00 	cmpb   $0x0,0x98(%rsp)
  4034cc:	00 
  4034cd:	48 c7 44 24 70 d0 a2 	movq   $0x40a2d0,0x70(%rsp)
  4034d4:	40 00 
  4034d6:	74 12                	je     4034ea <_Z10SpeedTestsv+0xeba>
  4034d8:	48 8b bc 24 80 00 00 	mov    0x80(%rsp),%rdi
  4034df:	00 
  4034e0:	48 85 ff             	test   %rdi,%rdi
  4034e3:	74 05                	je     4034ea <_Z10SpeedTestsv+0xeba>
  4034e5:	e8 16 e0 ff ff       	callq  401500 <_ZdaPv@plt>
  4034ea:	80 bc 24 99 00 00 00 	cmpb   $0x0,0x99(%rsp)
  4034f1:	00 
  4034f2:	74 12                	je     403506 <_Z10SpeedTestsv+0xed6>
  4034f4:	48 8b bc 24 88 00 00 	mov    0x88(%rsp),%rdi
  4034fb:	00 
  4034fc:	48 85 ff             	test   %rdi,%rdi
  4034ff:	74 05                	je     403506 <_Z10SpeedTestsv+0xed6>
  403501:	e8 fa df ff ff       	callq  401500 <_ZdaPv@plt>
  403506:	48 8b 9c 24 88 01 00 	mov    0x188(%rsp),%rbx
  40350d:	00 
  40350e:	64 48 33 1c 25 28 00 	xor    %fs:0x28,%rbx
  403515:	00 00 
  403517:	0f 85 6b 03 00 00    	jne    403888 <_Z10SpeedTestsv+0x1258>
  40351d:	48 81 c4 98 01 00 00 	add    $0x198,%rsp
  403524:	5b                   	pop    %rbx
  403525:	5d                   	pop    %rbp
  403526:	41 5c                	pop    %r12
  403528:	41 5d                	pop    %r13
  40352a:	41 5e                	pop    %r14
  40352c:	41 5f                	pop    %r15
  40352e:	c3                   	retq   
  40352f:	48 89 df             	mov    %rbx,%rdi
  403532:	e8 a9 df ff ff       	callq  4014e0 <_ZNKSt5ctypeIcE13_M_widen_initEv@plt>
  403537:	48 8b 03             	mov    (%rbx),%rax
  40353a:	be 0a 00 00 00       	mov    $0xa,%esi
  40353f:	48 8b 40 30          	mov    0x30(%rax),%rax
  403543:	48 3d 20 5c 40 00    	cmp    $0x405c20,%rax
  403549:	0f 84 40 f1 ff ff    	je     40268f <_Z10SpeedTestsv+0x5f>
  40354f:	48 89 df             	mov    %rbx,%rdi
  403552:	ff d0                	callq  *%rax
  403554:	0f be f0             	movsbl %al,%esi
  403557:	e9 33 f1 ff ff       	jmpq   40268f <_Z10SpeedTestsv+0x5f>
  40355c:	48 89 df             	mov    %rbx,%rdi
  40355f:	e8 7c df ff ff       	callq  4014e0 <_ZNKSt5ctypeIcE13_M_widen_initEv@plt>
  403564:	48 8b 03             	mov    (%rbx),%rax
  403567:	be 0a 00 00 00       	mov    $0xa,%esi
  40356c:	48 8b 40 30          	mov    0x30(%rax),%rax
  403570:	48 3d 20 5c 40 00    	cmp    $0x405c20,%rax
  403576:	0f 84 af fe ff ff    	je     40342b <_Z10SpeedTestsv+0xdfb>
  40357c:	48 89 df             	mov    %rbx,%rdi
  40357f:	ff d0                	callq  *%rax
  403581:	0f be f0             	movsbl %al,%esi
  403584:	e9 a2 fe ff ff       	jmpq   40342b <_Z10SpeedTestsv+0xdfb>
  403589:	4c 89 ff             	mov    %r15,%rdi
  40358c:	e8 4f df ff ff       	callq  4014e0 <_ZNKSt5ctypeIcE13_M_widen_initEv@plt>
  403591:	49 8b 07             	mov    (%r15),%rax
  403594:	be 0a 00 00 00       	mov    $0xa,%esi
  403599:	48 8b 40 30          	mov    0x30(%rax),%rax
  40359d:	48 3d 20 5c 40 00    	cmp    $0x405c20,%rax
  4035a3:	0f 84 7b fc ff ff    	je     403224 <_Z10SpeedTestsv+0xbf4>
  4035a9:	4c 89 ff             	mov    %r15,%rdi
  4035ac:	ff d0                	callq  *%rax
  4035ae:	0f be f0             	movsbl %al,%esi
  4035b1:	e9 6e fc ff ff       	jmpq   403224 <_Z10SpeedTestsv+0xbf4>
  4035b6:	48 89 c7             	mov    %rax,%rdi
  4035b9:	e8 22 df ff ff       	callq  4014e0 <_ZNKSt5ctypeIcE13_M_widen_initEv@plt>
  4035be:	48 8b 04 24          	mov    (%rsp),%rax
  4035c2:	be 0a 00 00 00       	mov    $0xa,%esi
  4035c7:	48 8b 00             	mov    (%rax),%rax
  4035ca:	48 8b 40 30          	mov    0x30(%rax),%rax
  4035ce:	48 3d 20 5c 40 00    	cmp    $0x405c20,%rax
  4035d4:	0f 84 3d fb ff ff    	je     403117 <_Z10SpeedTestsv+0xae7>
  4035da:	48 8b 3c 24          	mov    (%rsp),%rdi
  4035de:	ff d0                	callq  *%rax
  4035e0:	0f be f0             	movsbl %al,%esi
  4035e3:	e9 2f fb ff ff       	jmpq   403117 <_Z10SpeedTestsv+0xae7>
  4035e8:	4c 89 ff             	mov    %r15,%rdi
  4035eb:	e8 f0 de ff ff       	callq  4014e0 <_ZNKSt5ctypeIcE13_M_widen_initEv@plt>
  4035f0:	49 8b 07             	mov    (%r15),%rax
  4035f3:	be 0a 00 00 00       	mov    $0xa,%esi
  4035f8:	48 8b 40 30          	mov    0x30(%rax),%rax
  4035fc:	48 3d 20 5c 40 00    	cmp    $0x405c20,%rax
  403602:	0f 84 d0 fa ff ff    	je     4030d8 <_Z10SpeedTestsv+0xaa8>
  403608:	4c 89 ff             	mov    %r15,%rdi
  40360b:	ff d0                	callq  *%rax
  40360d:	0f be f0             	movsbl %al,%esi
  403610:	e9 c3 fa ff ff       	jmpq   4030d8 <_Z10SpeedTestsv+0xaa8>
  403615:	48 89 df             	mov    %rbx,%rdi
  403618:	e8 c3 de ff ff       	callq  4014e0 <_ZNKSt5ctypeIcE13_M_widen_initEv@plt>
  40361d:	48 8b 03             	mov    (%rbx),%rax
  403620:	be 0a 00 00 00       	mov    $0xa,%esi
  403625:	48 8b 40 30          	mov    0x30(%rax),%rax
  403629:	48 3d 20 5c 40 00    	cmp    $0x405c20,%rax
  40362f:	0f 84 a9 fd ff ff    	je     4033de <_Z10SpeedTestsv+0xdae>
  403635:	48 89 df             	mov    %rbx,%rdi
  403638:	ff d0                	callq  *%rax
  40363a:	0f be f0             	movsbl %al,%esi
  40363d:	e9 9c fd ff ff       	jmpq   4033de <_Z10SpeedTestsv+0xdae>
  403642:	48 89 df             	mov    %rbx,%rdi
  403645:	e8 96 de ff ff       	callq  4014e0 <_ZNKSt5ctypeIcE13_M_widen_initEv@plt>
  40364a:	48 8b 03             	mov    (%rbx),%rax
  40364d:	be 0a 00 00 00       	mov    $0xa,%esi
  403652:	48 8b 40 30          	mov    0x30(%rax),%rax
  403656:	48 3d 20 5c 40 00    	cmp    $0x405c20,%rax
  40365c:	0f 84 41 fd ff ff    	je     4033a3 <_Z10SpeedTestsv+0xd73>
  403662:	48 89 df             	mov    %rbx,%rdi
  403665:	ff d0                	callq  *%rax
  403667:	0f be f0             	movsbl %al,%esi
  40366a:	e9 34 fd ff ff       	jmpq   4033a3 <_Z10SpeedTestsv+0xd73>
  40366f:	48 89 c7             	mov    %rax,%rdi
  403672:	e8 69 de ff ff       	callq  4014e0 <_ZNKSt5ctypeIcE13_M_widen_initEv@plt>
  403677:	48 8b 04 24          	mov    (%rsp),%rax
  40367b:	be 0a 00 00 00       	mov    $0xa,%esi
  403680:	48 8b 00             	mov    (%rax),%rax
  403683:	48 8b 40 30          	mov    0x30(%rax),%rax
  403687:	48 3d 20 5c 40 00    	cmp    $0x405c20,%rax
  40368d:	0f 84 0d fc ff ff    	je     4032a0 <_Z10SpeedTestsv+0xc70>
  403693:	48 8b 3c 24          	mov    (%rsp),%rdi
  403697:	ff d0                	callq  *%rax
  403699:	0f be f0             	movsbl %al,%esi
  40369c:	e9 ff fb ff ff       	jmpq   4032a0 <_Z10SpeedTestsv+0xc70>
  4036a1:	4c 89 ff             	mov    %r15,%rdi
  4036a4:	e8 37 de ff ff       	callq  4014e0 <_ZNKSt5ctypeIcE13_M_widen_initEv@plt>
  4036a9:	49 8b 07             	mov    (%r15),%rax
  4036ac:	be 0a 00 00 00       	mov    $0xa,%esi
  4036b1:	48 8b 40 30          	mov    0x30(%rax),%rax
  4036b5:	48 3d 20 5c 40 00    	cmp    $0x405c20,%rax
  4036bb:	0f 84 a0 fb ff ff    	je     403261 <_Z10SpeedTestsv+0xc31>
  4036c1:	4c 89 ff             	mov    %r15,%rdi
  4036c4:	ff d0                	callq  *%rax
  4036c6:	0f be f0             	movsbl %al,%esi
  4036c9:	e9 93 fb ff ff       	jmpq   403261 <_Z10SpeedTestsv+0xc31>
  4036ce:	85 c0                	test   %eax,%eax
  4036d0:	0f 85 96 f0 ff ff    	jne    40276c <_Z10SpeedTestsv+0x13c>
  4036d6:	ba 01 00 00 00       	mov    $0x1,%edx
  4036db:	31 ff                	xor    %edi,%edi
  4036dd:	e9 f4 f0 ff ff       	jmpq   4027d6 <_Z10SpeedTestsv+0x1a6>
  4036e2:	85 c0                	test   %eax,%eax
  4036e4:	0f 85 43 f5 ff ff    	jne    402c2d <_Z10SpeedTestsv+0x5fd>
  4036ea:	ba 01 00 00 00       	mov    $0x1,%edx
  4036ef:	31 ff                	xor    %edi,%edi
  4036f1:	e9 a1 f5 ff ff       	jmpq   402c97 <_Z10SpeedTestsv+0x667>
  4036f6:	85 c0                	test   %eax,%eax
  4036f8:	0f 85 d1 f2 ff ff    	jne    4029cf <_Z10SpeedTestsv+0x39f>
  4036fe:	ba 01 00 00 00       	mov    $0x1,%edx
  403703:	31 ff                	xor    %edi,%edi
  403705:	e9 2f f3 ff ff       	jmpq   402a39 <_Z10SpeedTestsv+0x409>
  40370a:	ba 01 00 00 00       	mov    $0x1,%edx
  40370f:	e9 60 f6 ff ff       	jmpq   402d74 <_Z10SpeedTestsv+0x744>
  403714:	ba 01 00 00 00       	mov    $0x1,%edx
  403719:	e9 96 f1 ff ff       	jmpq   4028b4 <_Z10SpeedTestsv+0x284>
  40371e:	ba 01 00 00 00       	mov    $0x1,%edx
  403723:	e9 ef f3 ff ff       	jmpq   402b17 <_Z10SpeedTestsv+0x4e7>
  403728:	bf 02 00 00 00       	mov    $0x2,%edi
  40372d:	e9 5d f5 ff ff       	jmpq   402c8f <_Z10SpeedTestsv+0x65f>
  403732:	bf 06 00 00 00       	mov    $0x6,%edi
  403737:	e9 92 f0 ff ff       	jmpq   4027ce <_Z10SpeedTestsv+0x19e>
  40373c:	bf 07 00 00 00       	mov    $0x7,%edi
  403741:	e9 88 f0 ff ff       	jmpq   4027ce <_Z10SpeedTestsv+0x19e>
  403746:	bf 07 00 00 00       	mov    $0x7,%edi
  40374b:	e9 e1 f2 ff ff       	jmpq   402a31 <_Z10SpeedTestsv+0x401>
  403750:	bf 01 00 00 00       	mov    $0x1,%edi
  403755:	e9 35 f5 ff ff       	jmpq   402c8f <_Z10SpeedTestsv+0x65f>
  40375a:	bf 06 00 00 00       	mov    $0x6,%edi
  40375f:	e9 cd f2 ff ff       	jmpq   402a31 <_Z10SpeedTestsv+0x401>
  403764:	bf 01 00 00 00       	mov    $0x1,%edi
  403769:	e9 c3 f2 ff ff       	jmpq   402a31 <_Z10SpeedTestsv+0x401>
  40376e:	bf 02 00 00 00       	mov    $0x2,%edi
  403773:	e9 b9 f2 ff ff       	jmpq   402a31 <_Z10SpeedTestsv+0x401>
  403778:	bf 01 00 00 00       	mov    $0x1,%edi
  40377d:	e9 4c f0 ff ff       	jmpq   4027ce <_Z10SpeedTestsv+0x19e>
  403782:	bf 02 00 00 00       	mov    $0x2,%edi
  403787:	e9 42 f0 ff ff       	jmpq   4027ce <_Z10SpeedTestsv+0x19e>
  40378c:	bf 03 00 00 00       	mov    $0x3,%edi
  403791:	e9 38 f0 ff ff       	jmpq   4027ce <_Z10SpeedTestsv+0x19e>
  403796:	bf 04 00 00 00       	mov    $0x4,%edi
  40379b:	e9 2e f0 ff ff       	jmpq   4027ce <_Z10SpeedTestsv+0x19e>
  4037a0:	bf 05 00 00 00       	mov    $0x5,%edi
  4037a5:	e9 24 f0 ff ff       	jmpq   4027ce <_Z10SpeedTestsv+0x19e>
  4037aa:	bf 07 00 00 00       	mov    $0x7,%edi
  4037af:	e9 db f4 ff ff       	jmpq   402c8f <_Z10SpeedTestsv+0x65f>
  4037b4:	bf 03 00 00 00       	mov    $0x3,%edi
  4037b9:	e9 d1 f4 ff ff       	jmpq   402c8f <_Z10SpeedTestsv+0x65f>
  4037be:	bf 04 00 00 00       	mov    $0x4,%edi
  4037c3:	e9 c7 f4 ff ff       	jmpq   402c8f <_Z10SpeedTestsv+0x65f>
  4037c8:	bf 05 00 00 00       	mov    $0x5,%edi
  4037cd:	e9 bd f4 ff ff       	jmpq   402c8f <_Z10SpeedTestsv+0x65f>
  4037d2:	bf 06 00 00 00       	mov    $0x6,%edi
  4037d7:	e9 b3 f4 ff ff       	jmpq   402c8f <_Z10SpeedTestsv+0x65f>
  4037dc:	bf 03 00 00 00       	mov    $0x3,%edi
  4037e1:	e9 4b f2 ff ff       	jmpq   402a31 <_Z10SpeedTestsv+0x401>
  4037e6:	bf 04 00 00 00       	mov    $0x4,%edi
  4037eb:	e9 41 f2 ff ff       	jmpq   402a31 <_Z10SpeedTestsv+0x401>
  4037f0:	bf 05 00 00 00       	mov    $0x5,%edi
  4037f5:	e9 37 f2 ff ff       	jmpq   402a31 <_Z10SpeedTestsv+0x401>
  4037fa:	bf 10 00 00 00       	mov    $0x10,%edi
  4037ff:	e8 dc db ff ff       	callq  4013e0 <__cxa_allocate_exception@plt>
  403804:	be e8 91 40 00       	mov    $0x4091e8,%esi
  403809:	48 89 c7             	mov    %rax,%rdi
  40380c:	48 89 c5             	mov    %rax,%rbp
  40380f:	e8 dc dd ff ff       	callq  4015f0 <_ZNSt16invalid_argumentC1EPKc@plt>
  403814:	ba 60 15 40 00       	mov    $0x401560,%edx
  403819:	be a0 d3 60 00       	mov    $0x60d3a0,%esi
  40381e:	48 89 ef             	mov    %rbp,%rdi
  403821:	e8 4a dd ff ff       	callq  401570 <__cxa_throw@plt>
  403826:	48 89 c3             	mov    %rax,%rbx
  403829:	48 8d bc 24 d0 00 00 	lea    0xd0(%rsp),%rdi
  403830:	00 
  403831:	48 c7 84 24 d0 00 00 	movq   $0x40a310,0xd0(%rsp)
  403838:	00 10 a3 40 00 
  40383d:	e8 3e 35 00 00       	callq  406d80 <_ZN11Tensor_JackId15CPU_MATHEMATICS10continuousIdS0_EED1Ev>
  403842:	48 8d bc 24 a0 00 00 	lea    0xa0(%rsp),%rdi
  403849:	00 
  40384a:	48 c7 84 24 a0 00 00 	movq   $0x40a310,0xa0(%rsp)
  403851:	00 10 a3 40 00 
  403856:	e8 25 35 00 00       	callq  406d80 <_ZN11Tensor_JackId15CPU_MATHEMATICS10continuousIdS0_EED1Ev>
  40385b:	48 8d 7c 24 70       	lea    0x70(%rsp),%rdi
  403860:	48 c7 44 24 70 10 a3 	movq   $0x40a310,0x70(%rsp)
  403867:	40 00 
  403869:	e8 12 35 00 00       	callq  406d80 <_ZN11Tensor_JackId15CPU_MATHEMATICS10continuousIdS0_EED1Ev>
  40386e:	48 89 df             	mov    %rbx,%rdi
  403871:	e8 1a dd ff ff       	callq  401590 <_Unwind_Resume@plt>
  403876:	48 89 ef             	mov    %rbp,%rdi
  403879:	48 89 c3             	mov    %rax,%rbx
  40387c:	e8 cf db ff ff       	callq  401450 <__cxa_free_exception@plt>
  403881:	eb a6                	jmp    403829 <_Z10SpeedTestsv+0x11f9>
  403883:	e8 88 dc ff ff       	callq  401510 <__cxa_throw_bad_array_new_length@plt>
  403888:	e8 33 dc ff ff       	callq  4014c0 <__stack_chk_fail@plt>
  40388d:	e8 5e dc ff ff       	callq  4014f0 <_ZSt16__throw_bad_castv@plt>
  403892:	48 89 c3             	mov    %rax,%rbx
  403895:	eb ab                	jmp    403842 <_Z10SpeedTestsv+0x1212>
  403897:	e8 74 dc ff ff       	callq  401510 <__cxa_throw_bad_array_new_length@plt>
  40389c:	e8 4f dc ff ff       	callq  4014f0 <_ZSt16__throw_bad_castv@plt>
  4038a1:	e8 4a dc ff ff       	callq  4014f0 <_ZSt16__throw_bad_castv@plt>
  4038a6:	e8 45 dc ff ff       	callq  4014f0 <_ZSt16__throw_bad_castv@plt>
  4038ab:	e8 40 dc ff ff       	callq  4014f0 <_ZSt16__throw_bad_castv@plt>
  4038b0:	e8 5b dc ff ff       	callq  401510 <__cxa_throw_bad_array_new_length@plt>
  4038b5:	48 89 c3             	mov    %rax,%rbx
  4038b8:	eb a1                	jmp    40385b <_Z10SpeedTestsv+0x122b>
  4038ba:	e8 31 dc ff ff       	callq  4014f0 <_ZSt16__throw_bad_castv@plt>
  4038bf:	e8 2c dc ff ff       	callq  4014f0 <_ZSt16__throw_bad_castv@plt>
  4038c4:	e8 27 dc ff ff       	callq  4014f0 <_ZSt16__throw_bad_castv@plt>
  4038c9:	e8 22 dc ff ff       	callq  4014f0 <_ZSt16__throw_bad_castv@plt>
  4038ce:	66 90                	xchg   %ax,%ax

00000000004038d0 <_Z7tq_testv>:
  4038d0:	41 54                	push   %r12
  4038d2:	55                   	push   %rbp
  4038d3:	ba 06 00 00 00       	mov    $0x6,%edx
  4038d8:	53                   	push   %rbx
  4038d9:	be 8d 92 40 00       	mov    $0x40928d,%esi
  4038de:	bf e0 d1 60 00       	mov    $0x60d1e0,%edi
  4038e3:	48 81 ec 60 01 00 00 	sub    $0x160,%rsp
  4038ea:	64 48 8b 04 25 28 00 	mov    %fs:0x28,%rax
  4038f1:	00 00 
  4038f3:	48 89 84 24 58 01 00 	mov    %rax,0x158(%rsp)
  4038fa:	00 
  4038fb:	31 c0                	xor    %eax,%eax
  4038fd:	e8 ce db ff ff       	callq  4014d0 <_ZSt16__ostream_insertIcSt11char_traitsIcEERSt13basic_ostreamIT_T0_ES6_PKS3_l@plt>
  403902:	48 8b 05 d7 98 20 00 	mov    0x2098d7(%rip),%rax        # 60d1e0 <_ZSt4cout@@GLIBCXX_3.4>
  403909:	48 8b 40 e8          	mov    -0x18(%rax),%rax
  40390d:	48 8b 98 d0 d2 60 00 	mov    0x60d2d0(%rax),%rbx
  403914:	48 85 db             	test   %rbx,%rbx
  403917:	0f 84 62 0f 00 00    	je     40487f <_Z7tq_testv+0xfaf>
  40391d:	80 7b 38 00          	cmpb   $0x0,0x38(%rbx)
  403921:	0f 84 99 0c 00 00    	je     4045c0 <_Z7tq_testv+0xcf0>
  403927:	0f be 73 43          	movsbl 0x43(%rbx),%esi
  40392b:	bf e0 d1 60 00       	mov    $0x60d1e0,%edi
  403930:	48 8d 9c 24 10 01 00 	lea    0x110(%rsp),%rbx
  403937:	00 
  403938:	e8 73 da ff ff       	callq  4013b0 <_ZNSo3putEc@plt>
  40393d:	48 89 c7             	mov    %rax,%rdi
  403940:	e8 db da ff ff       	callq  401420 <_ZNSo5flushEv@plt>
  403945:	bf 0c 00 00 00       	mov    $0xc,%edi
  40394a:	48 c7 44 24 50 b0 9d 	movq   $0x409db0,0x50(%rsp)
  403951:	40 00 
  403953:	48 c7 44 24 58 40 9d 	movq   $0x409d40,0x58(%rsp)
  40395a:	40 00 
  40395c:	c7 44 24 70 02 00 00 	movl   $0x2,0x70(%rsp)
  403963:	00 
  403964:	e8 37 da ff ff       	callq  4013a0 <_Znam@plt>
  403969:	48 89 44 24 68       	mov    %rax,0x68(%rsp)
  40396e:	48 8d 44 24 68       	lea    0x68(%rsp),%rax
  403973:	31 c9                	xor    %ecx,%ecx
  403975:	31 d2                	xor    %edx,%edx
  403977:	48 89 de             	mov    %rbx,%rsi
  40397a:	bf 60 17 40 00       	mov    $0x401760,%edi
  40397f:	48 89 84 24 10 01 00 	mov    %rax,0x110(%rsp)
  403986:	00 
  403987:	48 c7 84 24 18 01 00 	movq   $0x4092b8,0x118(%rsp)
  40398e:	00 b8 92 40 00 
  403993:	c7 84 24 20 01 00 00 	movl   $0x2,0x120(%rsp)
  40399a:	02 00 00 00 
  40399e:	e8 7d db ff ff       	callq  401520 <GOMP_parallel@plt>
  4039a3:	e8 18 dc ff ff       	callq  4015c0 <GOMP_barrier@plt>
  4039a8:	48 63 44 24 70       	movslq 0x70(%rsp),%rax
  4039ad:	48 8b 4c 24 68       	mov    0x68(%rsp),%rcx
  4039b2:	85 c0                	test   %eax,%eax
  4039b4:	48 89 c6             	mov    %rax,%rsi
  4039b7:	4c 8d 0c 81          	lea    (%rcx,%rax,4),%r9
  4039bb:	0f 8e bf 0c 00 00    	jle    404680 <_Z7tq_testv+0xdb0>
  4039c1:	48 89 c8             	mov    %rcx,%rax
  4039c4:	83 e0 0f             	and    $0xf,%eax
  4039c7:	48 c1 e8 02          	shr    $0x2,%rax
  4039cb:	48 f7 d8             	neg    %rax
  4039ce:	83 e0 03             	and    $0x3,%eax
  4039d1:	39 f0                	cmp    %esi,%eax
  4039d3:	0f 47 c6             	cmova  %esi,%eax
  4039d6:	83 fe 08             	cmp    $0x8,%esi
  4039d9:	0f 8f 41 0c 00 00    	jg     404620 <_Z7tq_testv+0xd50>
  4039df:	89 f0                	mov    %esi,%eax
  4039e1:	83 f8 01             	cmp    $0x1,%eax
  4039e4:	8b 11                	mov    (%rcx),%edx
  4039e6:	0f 84 34 0d 00 00    	je     404720 <_Z7tq_testv+0xe50>
  4039ec:	0f af 51 04          	imul   0x4(%rcx),%edx
  4039f0:	83 f8 02             	cmp    $0x2,%eax
  4039f3:	0f 84 37 0d 00 00    	je     404730 <_Z7tq_testv+0xe60>
  4039f9:	0f af 51 08          	imul   0x8(%rcx),%edx
  4039fd:	83 f8 03             	cmp    $0x3,%eax
  403a00:	0f 84 4a 0e 00 00    	je     404850 <_Z7tq_testv+0xf80>
  403a06:	0f af 51 0c          	imul   0xc(%rcx),%edx
  403a0a:	83 f8 04             	cmp    $0x4,%eax
  403a0d:	0f 84 4d 0e 00 00    	je     404860 <_Z7tq_testv+0xf90>
  403a13:	0f af 51 10          	imul   0x10(%rcx),%edx
  403a17:	83 f8 05             	cmp    $0x5,%eax
  403a1a:	0f 84 50 0e 00 00    	je     404870 <_Z7tq_testv+0xfa0>
  403a20:	0f af 51 14          	imul   0x14(%rcx),%edx
  403a24:	83 f8 06             	cmp    $0x6,%eax
  403a27:	0f 84 d3 0c 00 00    	je     404700 <_Z7tq_testv+0xe30>
  403a2d:	0f af 51 18          	imul   0x18(%rcx),%edx
  403a31:	83 f8 07             	cmp    $0x7,%eax
  403a34:	0f 84 d6 0c 00 00    	je     404710 <_Z7tq_testv+0xe40>
  403a3a:	0f af 51 1c          	imul   0x1c(%rcx),%edx
  403a3e:	bf 08 00 00 00       	mov    $0x8,%edi
  403a43:	39 c6                	cmp    %eax,%esi
  403a45:	0f 84 dd 00 00 00    	je     403b28 <_Z7tq_testv+0x258>
  403a4b:	41 89 f3             	mov    %esi,%r11d
  403a4e:	44 8d 56 ff          	lea    -0x1(%rsi),%r10d
  403a52:	41 89 c4             	mov    %eax,%r12d
  403a55:	41 29 c3             	sub    %eax,%r11d
  403a58:	45 8d 43 fc          	lea    -0x4(%r11),%r8d
  403a5c:	41 29 c2             	sub    %eax,%r10d
  403a5f:	41 c1 e8 02          	shr    $0x2,%r8d
  403a63:	41 83 c0 01          	add    $0x1,%r8d
  403a67:	41 83 fa 02          	cmp    $0x2,%r10d
  403a6b:	42 8d 2c 85 00 00 00 	lea    0x0(,%r8,4),%ebp
  403a72:	00 
  403a73:	0f 86 8d 00 00 00    	jbe    403b06 <_Z7tq_testv+0x236>
  403a79:	4a 8d 04 a1          	lea    (%rcx,%r12,4),%rax
  403a7d:	66 0f 6f 05 bb 69 00 	movdqa 0x69bb(%rip),%xmm0        # 40a440 <_ZTV6bufferId15CPU_MATHEMATICSS_IdS0_10continuousIdS0_ES2_N9Operation3addIdEEES2_S5_E+0x90>
  403a84:	00 
  403a85:	45 31 d2             	xor    %r10d,%r10d
  403a88:	66 0f 6f 08          	movdqa (%rax),%xmm1
  403a8c:	66 0f 6f d0          	movdqa %xmm0,%xmm2
  403a90:	66 0f 73 d0 20       	psrlq  $0x20,%xmm0
  403a95:	41 83 c2 01          	add    $0x1,%r10d
  403a99:	48 83 c0 10          	add    $0x10,%rax
  403a9d:	66 0f f4 50 f0       	pmuludq -0x10(%rax),%xmm2
  403aa2:	66 0f 73 d1 20       	psrlq  $0x20,%xmm1
  403aa7:	66 0f f4 c8          	pmuludq %xmm0,%xmm1
  403aab:	66 0f 70 c2 08       	pshufd $0x8,%xmm2,%xmm0
  403ab0:	45 39 c2             	cmp    %r8d,%r10d
  403ab3:	66 0f 70 c9 08       	pshufd $0x8,%xmm1,%xmm1
  403ab8:	66 0f 62 c1          	punpckldq %xmm1,%xmm0
  403abc:	72 ca                	jb     403a88 <_Z7tq_testv+0x1b8>
  403abe:	66 0f 6f c8          	movdqa %xmm0,%xmm1
  403ac2:	01 ef                	add    %ebp,%edi
  403ac4:	66 0f 6f d0          	movdqa %xmm0,%xmm2
  403ac8:	66 0f 73 d0 20       	psrlq  $0x20,%xmm0
  403acd:	66 0f 73 d9 08       	psrldq $0x8,%xmm1
  403ad2:	66 0f f4 d1          	pmuludq %xmm1,%xmm2
  403ad6:	66 0f 73 d1 20       	psrlq  $0x20,%xmm1
  403adb:	66 0f f4 c1          	pmuludq %xmm1,%xmm0
  403adf:	66 0f 70 ca 08       	pshufd $0x8,%xmm2,%xmm1
  403ae4:	66 0f 70 c0 08       	pshufd $0x8,%xmm0,%xmm0
  403ae9:	66 0f 62 c8          	punpckldq %xmm0,%xmm1
  403aed:	66 0f 6f c1          	movdqa %xmm1,%xmm0
  403af1:	66 0f 73 d9 04       	psrldq $0x4,%xmm1
  403af6:	66 0f f4 c1          	pmuludq %xmm1,%xmm0
  403afa:	66 0f 7e c0          	movd   %xmm0,%eax
  403afe:	0f af d0             	imul   %eax,%edx
  403b01:	41 39 eb             	cmp    %ebp,%r11d
  403b04:	74 22                	je     403b28 <_Z7tq_testv+0x258>
  403b06:	48 63 c7             	movslq %edi,%rax
  403b09:	0f af 14 81          	imul   (%rcx,%rax,4),%edx
  403b0d:	8d 47 01             	lea    0x1(%rdi),%eax
  403b10:	39 c6                	cmp    %eax,%esi
  403b12:	7e 14                	jle    403b28 <_Z7tq_testv+0x258>
  403b14:	48 98                	cltq   
  403b16:	83 c7 02             	add    $0x2,%edi
  403b19:	0f af 14 81          	imul   (%rcx,%rax,4),%edx
  403b1d:	39 fe                	cmp    %edi,%esi
  403b1f:	7e 07                	jle    403b28 <_Z7tq_testv+0x258>
  403b21:	48 63 ff             	movslq %edi,%rdi
  403b24:	0f af 14 b9          	imul   (%rcx,%rdi,4),%edx
  403b28:	41 89 11             	mov    %edx,(%r9)
  403b2b:	48 63 44 24 70       	movslq 0x70(%rsp),%rax
  403b30:	48 63 3c 81          	movslq (%rcx,%rax,4),%rdi
  403b34:	48 b8 00 00 00 00 00 	movabs $0x1fc0000000000000,%rax
  403b3b:	00 c0 1f 
  403b3e:	48 39 c7             	cmp    %rax,%rdi
  403b41:	0f 87 33 0d 00 00    	ja     40487a <_Z7tq_testv+0xfaa>
  403b47:	48 c1 e7 02          	shl    $0x2,%rdi
  403b4b:	e8 50 d8 ff ff       	callq  4013a0 <_Znam@plt>
  403b50:	bf 0c 00 00 00       	mov    $0xc,%edi
  403b55:	48 89 44 24 60       	mov    %rax,0x60(%rsp)
  403b5a:	48 c7 44 24 50 f0 9d 	movq   $0x409df0,0x50(%rsp)
  403b61:	40 00 
  403b63:	c6 44 24 78 01       	movb   $0x1,0x78(%rsp)
  403b68:	c6 44 24 79 01       	movb   $0x1,0x79(%rsp)
  403b6d:	48 c7 84 24 80 00 00 	movq   $0x409db0,0x80(%rsp)
  403b74:	00 b0 9d 40 00 
  403b79:	48 c7 84 24 88 00 00 	movq   $0x409d40,0x88(%rsp)
  403b80:	00 40 9d 40 00 
  403b85:	c7 84 24 a0 00 00 00 	movl   $0x2,0xa0(%rsp)
  403b8c:	02 00 00 00 
  403b90:	e8 0b d8 ff ff       	callq  4013a0 <_Znam@plt>
  403b95:	48 89 84 24 98 00 00 	mov    %rax,0x98(%rsp)
  403b9c:	00 
  403b9d:	48 8d 84 24 98 00 00 	lea    0x98(%rsp),%rax
  403ba4:	00 
  403ba5:	31 c9                	xor    %ecx,%ecx
  403ba7:	31 d2                	xor    %edx,%edx
  403ba9:	48 89 de             	mov    %rbx,%rsi
  403bac:	bf 60 17 40 00       	mov    $0x401760,%edi
  403bb1:	48 89 84 24 10 01 00 	mov    %rax,0x110(%rsp)
  403bb8:	00 
  403bb9:	48 c7 84 24 18 01 00 	movq   $0x4092b0,0x118(%rsp)
  403bc0:	00 b0 92 40 00 
  403bc5:	c7 84 24 20 01 00 00 	movl   $0x2,0x120(%rsp)
  403bcc:	02 00 00 00 
  403bd0:	e8 4b d9 ff ff       	callq  401520 <GOMP_parallel@plt>
  403bd5:	e8 e6 d9 ff ff       	callq  4015c0 <GOMP_barrier@plt>
  403bda:	48 63 84 24 a0 00 00 	movslq 0xa0(%rsp),%rax
  403be1:	00 
  403be2:	48 8b 8c 24 98 00 00 	mov    0x98(%rsp),%rcx
  403be9:	00 
  403bea:	85 c0                	test   %eax,%eax
  403bec:	48 89 c6             	mov    %rax,%rsi
  403bef:	4c 8d 0c 81          	lea    (%rcx,%rax,4),%r9
  403bf3:	0f 8e 97 0a 00 00    	jle    404690 <_Z7tq_testv+0xdc0>
  403bf9:	48 89 c8             	mov    %rcx,%rax
  403bfc:	83 e0 0f             	and    $0xf,%eax
  403bff:	48 c1 e8 02          	shr    $0x2,%rax
  403c03:	48 f7 d8             	neg    %rax
  403c06:	83 e0 03             	and    $0x3,%eax
  403c09:	39 f0                	cmp    %esi,%eax
  403c0b:	0f 47 c6             	cmova  %esi,%eax
  403c0e:	83 fe 08             	cmp    $0x8,%esi
  403c11:	0f 8f 39 0a 00 00    	jg     404650 <_Z7tq_testv+0xd80>
  403c17:	89 f0                	mov    %esi,%eax
  403c19:	83 f8 01             	cmp    $0x1,%eax
  403c1c:	8b 11                	mov    (%rcx),%edx
  403c1e:	0f 84 1c 0b 00 00    	je     404740 <_Z7tq_testv+0xe70>
  403c24:	0f af 51 04          	imul   0x4(%rcx),%edx
  403c28:	83 f8 02             	cmp    $0x2,%eax
  403c2b:	0f 84 1f 0b 00 00    	je     404750 <_Z7tq_testv+0xe80>
  403c31:	0f af 51 08          	imul   0x8(%rcx),%edx
  403c35:	83 f8 03             	cmp    $0x3,%eax
  403c38:	0f 84 22 0b 00 00    	je     404760 <_Z7tq_testv+0xe90>
  403c3e:	0f af 51 0c          	imul   0xc(%rcx),%edx
  403c42:	83 f8 04             	cmp    $0x4,%eax
  403c45:	0f 84 25 0b 00 00    	je     404770 <_Z7tq_testv+0xea0>
  403c4b:	0f af 51 10          	imul   0x10(%rcx),%edx
  403c4f:	83 f8 05             	cmp    $0x5,%eax
  403c52:	0f 84 68 0a 00 00    	je     4046c0 <_Z7tq_testv+0xdf0>
  403c58:	0f af 51 14          	imul   0x14(%rcx),%edx
  403c5c:	83 f8 06             	cmp    $0x6,%eax
  403c5f:	0f 84 6b 0a 00 00    	je     4046d0 <_Z7tq_testv+0xe00>
  403c65:	0f af 51 18          	imul   0x18(%rcx),%edx
  403c69:	83 f8 07             	cmp    $0x7,%eax
  403c6c:	0f 84 6e 0a 00 00    	je     4046e0 <_Z7tq_testv+0xe10>
  403c72:	0f af 51 1c          	imul   0x1c(%rcx),%edx
  403c76:	bf 08 00 00 00       	mov    $0x8,%edi
  403c7b:	39 c6                	cmp    %eax,%esi
  403c7d:	0f 84 dd 00 00 00    	je     403d60 <_Z7tq_testv+0x490>
  403c83:	41 89 f3             	mov    %esi,%r11d
  403c86:	44 8d 56 ff          	lea    -0x1(%rsi),%r10d
  403c8a:	41 89 c4             	mov    %eax,%r12d
  403c8d:	41 29 c3             	sub    %eax,%r11d
  403c90:	45 8d 43 fc          	lea    -0x4(%r11),%r8d
  403c94:	41 29 c2             	sub    %eax,%r10d
  403c97:	41 c1 e8 02          	shr    $0x2,%r8d
  403c9b:	41 83 c0 01          	add    $0x1,%r8d
  403c9f:	41 83 fa 02          	cmp    $0x2,%r10d
  403ca3:	42 8d 2c 85 00 00 00 	lea    0x0(,%r8,4),%ebp
  403caa:	00 
  403cab:	0f 86 8d 00 00 00    	jbe    403d3e <_Z7tq_testv+0x46e>
  403cb1:	4a 8d 04 a1          	lea    (%rcx,%r12,4),%rax
  403cb5:	66 0f 6f 05 83 67 00 	movdqa 0x6783(%rip),%xmm0        # 40a440 <_ZTV6bufferId15CPU_MATHEMATICSS_IdS0_10continuousIdS0_ES2_N9Operation3addIdEEES2_S5_E+0x90>
  403cbc:	00 
  403cbd:	45 31 d2             	xor    %r10d,%r10d
  403cc0:	66 0f 6f 08          	movdqa (%rax),%xmm1
  403cc4:	66 0f 6f d0          	movdqa %xmm0,%xmm2
  403cc8:	66 0f 73 d0 20       	psrlq  $0x20,%xmm0
  403ccd:	41 83 c2 01          	add    $0x1,%r10d
  403cd1:	48 83 c0 10          	add    $0x10,%rax
  403cd5:	66 0f f4 50 f0       	pmuludq -0x10(%rax),%xmm2
  403cda:	66 0f 73 d1 20       	psrlq  $0x20,%xmm1
  403cdf:	66 0f f4 c8          	pmuludq %xmm0,%xmm1
  403ce3:	66 0f 70 c2 08       	pshufd $0x8,%xmm2,%xmm0
  403ce8:	45 39 d0             	cmp    %r10d,%r8d
  403ceb:	66 0f 70 c9 08       	pshufd $0x8,%xmm1,%xmm1
  403cf0:	66 0f 62 c1          	punpckldq %xmm1,%xmm0
  403cf4:	77 ca                	ja     403cc0 <_Z7tq_testv+0x3f0>
  403cf6:	66 0f 6f c8          	movdqa %xmm0,%xmm1
  403cfa:	01 ef                	add    %ebp,%edi
  403cfc:	66 0f 6f d0          	movdqa %xmm0,%xmm2
  403d00:	66 0f 73 d0 20       	psrlq  $0x20,%xmm0
  403d05:	66 0f 73 d9 08       	psrldq $0x8,%xmm1
  403d0a:	66 0f f4 d1          	pmuludq %xmm1,%xmm2
  403d0e:	66 0f 73 d1 20       	psrlq  $0x20,%xmm1
  403d13:	66 0f f4 c1          	pmuludq %xmm1,%xmm0
  403d17:	66 0f 70 ca 08       	pshufd $0x8,%xmm2,%xmm1
  403d1c:	66 0f 70 c0 08       	pshufd $0x8,%xmm0,%xmm0
  403d21:	66 0f 62 c8          	punpckldq %xmm0,%xmm1
  403d25:	66 0f 6f c1          	movdqa %xmm1,%xmm0
  403d29:	66 0f 73 d9 04       	psrldq $0x4,%xmm1
  403d2e:	66 0f f4 c1          	pmuludq %xmm1,%xmm0
  403d32:	66 0f 7e c0          	movd   %xmm0,%eax
  403d36:	0f af d0             	imul   %eax,%edx
  403d39:	41 39 eb             	cmp    %ebp,%r11d
  403d3c:	74 22                	je     403d60 <_Z7tq_testv+0x490>
  403d3e:	48 63 c7             	movslq %edi,%rax
  403d41:	0f af 14 81          	imul   (%rcx,%rax,4),%edx
  403d45:	8d 47 01             	lea    0x1(%rdi),%eax
  403d48:	39 c6                	cmp    %eax,%esi
  403d4a:	7e 14                	jle    403d60 <_Z7tq_testv+0x490>
  403d4c:	48 98                	cltq   
  403d4e:	83 c7 02             	add    $0x2,%edi
  403d51:	0f af 14 81          	imul   (%rcx,%rax,4),%edx
  403d55:	39 fe                	cmp    %edi,%esi
  403d57:	7e 07                	jle    403d60 <_Z7tq_testv+0x490>
  403d59:	48 63 ff             	movslq %edi,%rdi
  403d5c:	0f af 14 b9          	imul   (%rcx,%rdi,4),%edx
  403d60:	41 89 11             	mov    %edx,(%r9)
  403d63:	48 63 84 24 a0 00 00 	movslq 0xa0(%rsp),%rax
  403d6a:	00 
  403d6b:	48 63 3c 81          	movslq (%rcx,%rax,4),%rdi
  403d6f:	48 b8 00 00 00 00 00 	movabs $0x1fc0000000000000,%rax
  403d76:	00 c0 1f 
  403d79:	48 39 c7             	cmp    %rax,%rdi
  403d7c:	0f 87 24 0b 00 00    	ja     4048a6 <_Z7tq_testv+0xfd6>
  403d82:	48 c1 e7 02          	shl    $0x2,%rdi
  403d86:	e8 15 d6 ff ff       	callq  4013a0 <_Znam@plt>
  403d8b:	bf 0c 00 00 00       	mov    $0xc,%edi
  403d90:	48 89 84 24 90 00 00 	mov    %rax,0x90(%rsp)
  403d97:	00 
  403d98:	48 c7 84 24 80 00 00 	movq   $0x409df0,0x80(%rsp)
  403d9f:	00 f0 9d 40 00 
  403da4:	c6 84 24 a8 00 00 00 	movb   $0x1,0xa8(%rsp)
  403dab:	01 
  403dac:	c6 84 24 a9 00 00 00 	movb   $0x1,0xa9(%rsp)
  403db3:	01 
  403db4:	48 c7 84 24 b0 00 00 	movq   $0x409db0,0xb0(%rsp)
  403dbb:	00 b0 9d 40 00 
  403dc0:	48 c7 84 24 b8 00 00 	movq   $0x409d40,0xb8(%rsp)
  403dc7:	00 40 9d 40 00 
  403dcc:	c7 84 24 d0 00 00 00 	movl   $0x2,0xd0(%rsp)
  403dd3:	02 00 00 00 
  403dd7:	e8 c4 d5 ff ff       	callq  4013a0 <_Znam@plt>
  403ddc:	48 89 84 24 c8 00 00 	mov    %rax,0xc8(%rsp)
  403de3:	00 
  403de4:	48 8d 84 24 c8 00 00 	lea    0xc8(%rsp),%rax
  403deb:	00 
  403dec:	31 c9                	xor    %ecx,%ecx
  403dee:	31 d2                	xor    %edx,%edx
  403df0:	48 89 de             	mov    %rbx,%rsi
  403df3:	bf 60 17 40 00       	mov    $0x401760,%edi
  403df8:	48 89 84 24 10 01 00 	mov    %rax,0x110(%rsp)
  403dff:	00 
  403e00:	48 c7 84 24 18 01 00 	movq   $0x4092a8,0x118(%rsp)
  403e07:	00 a8 92 40 00 
  403e0c:	c7 84 24 20 01 00 00 	movl   $0x2,0x120(%rsp)
  403e13:	02 00 00 00 
  403e17:	e8 04 d7 ff ff       	callq  401520 <GOMP_parallel@plt>
  403e1c:	e8 9f d7 ff ff       	callq  4015c0 <GOMP_barrier@plt>
  403e21:	48 63 84 24 d0 00 00 	movslq 0xd0(%rsp),%rax
  403e28:	00 
  403e29:	48 8b 8c 24 c8 00 00 	mov    0xc8(%rsp),%rcx
  403e30:	00 
  403e31:	85 c0                	test   %eax,%eax
  403e33:	48 89 c6             	mov    %rax,%rsi
  403e36:	4c 8d 0c 81          	lea    (%rcx,%rax,4),%r9
  403e3a:	0f 8e 60 08 00 00    	jle    4046a0 <_Z7tq_testv+0xdd0>
  403e40:	48 89 c8             	mov    %rcx,%rax
  403e43:	83 e0 0f             	and    $0xf,%eax
  403e46:	48 c1 e8 02          	shr    $0x2,%rax
  403e4a:	48 f7 d8             	neg    %rax
  403e4d:	83 e0 03             	and    $0x3,%eax
  403e50:	39 f0                	cmp    %esi,%eax
  403e52:	0f 47 c6             	cmova  %esi,%eax
  403e55:	83 fe 08             	cmp    $0x8,%esi
  403e58:	0f 8f da 07 00 00    	jg     404638 <_Z7tq_testv+0xd68>
  403e5e:	89 f0                	mov    %esi,%eax
  403e60:	83 f8 01             	cmp    $0x1,%eax
  403e63:	8b 11                	mov    (%rcx),%edx
  403e65:	0f 84 c5 09 00 00    	je     404830 <_Z7tq_testv+0xf60>
  403e6b:	0f af 51 04          	imul   0x4(%rcx),%edx
  403e6f:	83 f8 02             	cmp    $0x2,%eax
  403e72:	0f 84 c8 09 00 00    	je     404840 <_Z7tq_testv+0xf70>
  403e78:	0f af 51 08          	imul   0x8(%rcx),%edx
  403e7c:	83 f8 03             	cmp    $0x3,%eax
  403e7f:	0f 84 fb 08 00 00    	je     404780 <_Z7tq_testv+0xeb0>
  403e85:	0f af 51 0c          	imul   0xc(%rcx),%edx
  403e89:	83 f8 04             	cmp    $0x4,%eax
  403e8c:	0f 84 fe 08 00 00    	je     404790 <_Z7tq_testv+0xec0>
  403e92:	0f af 51 10          	imul   0x10(%rcx),%edx
  403e96:	83 f8 05             	cmp    $0x5,%eax
  403e99:	0f 84 01 09 00 00    	je     4047a0 <_Z7tq_testv+0xed0>
  403e9f:	0f af 51 14          	imul   0x14(%rcx),%edx
  403ea3:	83 f8 06             	cmp    $0x6,%eax
  403ea6:	0f 84 04 09 00 00    	je     4047b0 <_Z7tq_testv+0xee0>
  403eac:	0f af 51 18          	imul   0x18(%rcx),%edx
  403eb0:	83 f8 07             	cmp    $0x7,%eax
  403eb3:	0f 84 37 08 00 00    	je     4046f0 <_Z7tq_testv+0xe20>
  403eb9:	0f af 51 1c          	imul   0x1c(%rcx),%edx
  403ebd:	bf 08 00 00 00       	mov    $0x8,%edi
  403ec2:	39 c6                	cmp    %eax,%esi
  403ec4:	0f 84 dd 00 00 00    	je     403fa7 <_Z7tq_testv+0x6d7>
  403eca:	41 89 f3             	mov    %esi,%r11d
  403ecd:	44 8d 56 ff          	lea    -0x1(%rsi),%r10d
  403ed1:	41 89 c4             	mov    %eax,%r12d
  403ed4:	41 29 c3             	sub    %eax,%r11d
  403ed7:	45 8d 43 fc          	lea    -0x4(%r11),%r8d
  403edb:	41 29 c2             	sub    %eax,%r10d
  403ede:	41 c1 e8 02          	shr    $0x2,%r8d
  403ee2:	41 83 c0 01          	add    $0x1,%r8d
  403ee6:	41 83 fa 02          	cmp    $0x2,%r10d
  403eea:	42 8d 2c 85 00 00 00 	lea    0x0(,%r8,4),%ebp
  403ef1:	00 
  403ef2:	0f 86 8d 00 00 00    	jbe    403f85 <_Z7tq_testv+0x6b5>
  403ef8:	4a 8d 04 a1          	lea    (%rcx,%r12,4),%rax
  403efc:	66 0f 6f 05 3c 65 00 	movdqa 0x653c(%rip),%xmm0        # 40a440 <_ZTV6bufferId15CPU_MATHEMATICSS_IdS0_10continuousIdS0_ES2_N9Operation3addIdEEES2_S5_E+0x90>
  403f03:	00 
  403f04:	45 31 d2             	xor    %r10d,%r10d
  403f07:	66 0f 6f 08          	movdqa (%rax),%xmm1
  403f0b:	66 0f 6f d0          	movdqa %xmm0,%xmm2
  403f0f:	66 0f 73 d0 20       	psrlq  $0x20,%xmm0
  403f14:	41 83 c2 01          	add    $0x1,%r10d
  403f18:	48 83 c0 10          	add    $0x10,%rax
  403f1c:	66 0f f4 50 f0       	pmuludq -0x10(%rax),%xmm2
  403f21:	66 0f 73 d1 20       	psrlq  $0x20,%xmm1
  403f26:	66 0f f4 c8          	pmuludq %xmm0,%xmm1
  403f2a:	66 0f 70 c2 08       	pshufd $0x8,%xmm2,%xmm0
  403f2f:	45 39 d0             	cmp    %r10d,%r8d
  403f32:	66 0f 70 c9 08       	pshufd $0x8,%xmm1,%xmm1
  403f37:	66 0f 62 c1          	punpckldq %xmm1,%xmm0
  403f3b:	77 ca                	ja     403f07 <_Z7tq_testv+0x637>
  403f3d:	66 0f 6f c8          	movdqa %xmm0,%xmm1
  403f41:	01 ef                	add    %ebp,%edi
  403f43:	66 0f 6f d0          	movdqa %xmm0,%xmm2
  403f47:	66 0f 73 d0 20       	psrlq  $0x20,%xmm0
  403f4c:	66 0f 73 d9 08       	psrldq $0x8,%xmm1
  403f51:	66 0f f4 d1          	pmuludq %xmm1,%xmm2
  403f55:	66 0f 73 d1 20       	psrlq  $0x20,%xmm1
  403f5a:	66 0f f4 c1          	pmuludq %xmm1,%xmm0
  403f5e:	66 0f 70 ca 08       	pshufd $0x8,%xmm2,%xmm1
  403f63:	66 0f 70 c0 08       	pshufd $0x8,%xmm0,%xmm0
  403f68:	66 0f 62 c8          	punpckldq %xmm0,%xmm1
  403f6c:	66 0f 6f c1          	movdqa %xmm1,%xmm0
  403f70:	66 0f 73 d9 04       	psrldq $0x4,%xmm1
  403f75:	66 0f f4 c1          	pmuludq %xmm1,%xmm0
  403f79:	66 0f 7e c0          	movd   %xmm0,%eax
  403f7d:	0f af d0             	imul   %eax,%edx
  403f80:	41 39 eb             	cmp    %ebp,%r11d
  403f83:	74 22                	je     403fa7 <_Z7tq_testv+0x6d7>
  403f85:	48 63 c7             	movslq %edi,%rax
  403f88:	0f af 14 81          	imul   (%rcx,%rax,4),%edx
  403f8c:	8d 47 01             	lea    0x1(%rdi),%eax
  403f8f:	39 c6                	cmp    %eax,%esi
  403f91:	7e 14                	jle    403fa7 <_Z7tq_testv+0x6d7>
  403f93:	48 98                	cltq   
  403f95:	83 c7 02             	add    $0x2,%edi
  403f98:	0f af 14 81          	imul   (%rcx,%rax,4),%edx
  403f9c:	39 fe                	cmp    %edi,%esi
  403f9e:	7e 07                	jle    403fa7 <_Z7tq_testv+0x6d7>
  403fa0:	48 63 ff             	movslq %edi,%rdi
  403fa3:	0f af 14 b9          	imul   (%rcx,%rdi,4),%edx
  403fa7:	41 89 11             	mov    %edx,(%r9)
  403faa:	48 63 84 24 d0 00 00 	movslq 0xd0(%rsp),%rax
  403fb1:	00 
  403fb2:	48 63 3c 81          	movslq (%rcx,%rax,4),%rdi
  403fb6:	48 b8 00 00 00 00 00 	movabs $0x1fc0000000000000,%rax
  403fbd:	00 c0 1f 
  403fc0:	48 39 c7             	cmp    %rax,%rdi
  403fc3:	0f 87 f4 08 00 00    	ja     4048bd <_Z7tq_testv+0xfed>
  403fc9:	48 c1 e7 02          	shl    $0x2,%rdi
  403fcd:	e8 ce d3 ff ff       	callq  4013a0 <_Znam@plt>
  403fd2:	bf 0c 00 00 00       	mov    $0xc,%edi
  403fd7:	48 89 84 24 c0 00 00 	mov    %rax,0xc0(%rsp)
  403fde:	00 
  403fdf:	48 c7 84 24 b0 00 00 	movq   $0x409df0,0xb0(%rsp)
  403fe6:	00 f0 9d 40 00 
  403feb:	c6 84 24 d8 00 00 00 	movb   $0x1,0xd8(%rsp)
  403ff2:	01 
  403ff3:	c6 84 24 d9 00 00 00 	movb   $0x1,0xd9(%rsp)
  403ffa:	01 
  403ffb:	48 c7 84 24 e0 00 00 	movq   $0x409db0,0xe0(%rsp)
  404002:	00 b0 9d 40 00 
  404007:	48 c7 84 24 e8 00 00 	movq   $0x409d40,0xe8(%rsp)
  40400e:	00 40 9d 40 00 
  404013:	c7 84 24 00 01 00 00 	movl   $0x2,0x100(%rsp)
  40401a:	02 00 00 00 
  40401e:	e8 7d d3 ff ff       	callq  4013a0 <_Znam@plt>
  404023:	48 89 84 24 f8 00 00 	mov    %rax,0xf8(%rsp)
  40402a:	00 
  40402b:	48 8d 84 24 f8 00 00 	lea    0xf8(%rsp),%rax
  404032:	00 
  404033:	31 c9                	xor    %ecx,%ecx
  404035:	31 d2                	xor    %edx,%edx
  404037:	48 89 de             	mov    %rbx,%rsi
  40403a:	bf 60 17 40 00       	mov    $0x401760,%edi
  40403f:	48 89 84 24 10 01 00 	mov    %rax,0x110(%rsp)
  404046:	00 
  404047:	48 c7 84 24 18 01 00 	movq   $0x4092a0,0x118(%rsp)
  40404e:	00 a0 92 40 00 
  404053:	c7 84 24 20 01 00 00 	movl   $0x2,0x120(%rsp)
  40405a:	02 00 00 00 
  40405e:	e8 bd d4 ff ff       	callq  401520 <GOMP_parallel@plt>
  404063:	e8 58 d5 ff ff       	callq  4015c0 <GOMP_barrier@plt>
  404068:	48 63 84 24 00 01 00 	movslq 0x100(%rsp),%rax
  40406f:	00 
  404070:	48 8b 8c 24 f8 00 00 	mov    0xf8(%rsp),%rcx
  404077:	00 
  404078:	85 c0                	test   %eax,%eax
  40407a:	48 89 c6             	mov    %rax,%rsi
  40407d:	4c 8d 0c 81          	lea    (%rcx,%rax,4),%r9
  404081:	0f 8e 29 06 00 00    	jle    4046b0 <_Z7tq_testv+0xde0>
  404087:	48 89 c8             	mov    %rcx,%rax
  40408a:	83 e0 0f             	and    $0xf,%eax
  40408d:	48 c1 e8 02          	shr    $0x2,%rax
  404091:	48 f7 d8             	neg    %rax
  404094:	83 e0 03             	and    $0x3,%eax
  404097:	39 f0                	cmp    %esi,%eax
  404099:	0f 47 c6             	cmova  %esi,%eax
  40409c:	83 fe 08             	cmp    $0x8,%esi
  40409f:	0f 8f c3 05 00 00    	jg     404668 <_Z7tq_testv+0xd98>
  4040a5:	89 f0                	mov    %esi,%eax
  4040a7:	83 f8 01             	cmp    $0x1,%eax
  4040aa:	8b 11                	mov    (%rcx),%edx
  4040ac:	0f 84 5e 07 00 00    	je     404810 <_Z7tq_testv+0xf40>
  4040b2:	0f af 51 04          	imul   0x4(%rcx),%edx
  4040b6:	83 f8 02             	cmp    $0x2,%eax
  4040b9:	0f 84 61 07 00 00    	je     404820 <_Z7tq_testv+0xf50>
  4040bf:	0f af 51 08          	imul   0x8(%rcx),%edx
  4040c3:	83 f8 03             	cmp    $0x3,%eax
  4040c6:	0f 84 04 07 00 00    	je     4047d0 <_Z7tq_testv+0xf00>
  4040cc:	0f af 51 0c          	imul   0xc(%rcx),%edx
  4040d0:	83 f8 04             	cmp    $0x4,%eax
  4040d3:	0f 84 07 07 00 00    	je     4047e0 <_Z7tq_testv+0xf10>
  4040d9:	0f af 51 10          	imul   0x10(%rcx),%edx
  4040dd:	83 f8 05             	cmp    $0x5,%eax
  4040e0:	0f 84 0a 07 00 00    	je     4047f0 <_Z7tq_testv+0xf20>
  4040e6:	0f af 51 14          	imul   0x14(%rcx),%edx
  4040ea:	83 f8 06             	cmp    $0x6,%eax
  4040ed:	0f 84 0d 07 00 00    	je     404800 <_Z7tq_testv+0xf30>
  4040f3:	0f af 51 18          	imul   0x18(%rcx),%edx
  4040f7:	83 f8 07             	cmp    $0x7,%eax
  4040fa:	0f 84 c0 06 00 00    	je     4047c0 <_Z7tq_testv+0xef0>
  404100:	0f af 51 1c          	imul   0x1c(%rcx),%edx
  404104:	bf 08 00 00 00       	mov    $0x8,%edi
  404109:	39 c6                	cmp    %eax,%esi
  40410b:	0f 84 dd 00 00 00    	je     4041ee <_Z7tq_testv+0x91e>
  404111:	41 89 f3             	mov    %esi,%r11d
  404114:	44 8d 56 ff          	lea    -0x1(%rsi),%r10d
  404118:	41 89 c4             	mov    %eax,%r12d
  40411b:	41 29 c3             	sub    %eax,%r11d
  40411e:	45 8d 43 fc          	lea    -0x4(%r11),%r8d
  404122:	41 29 c2             	sub    %eax,%r10d
  404125:	41 c1 e8 02          	shr    $0x2,%r8d
  404129:	41 83 c0 01          	add    $0x1,%r8d
  40412d:	41 83 fa 02          	cmp    $0x2,%r10d
  404131:	42 8d 2c 85 00 00 00 	lea    0x0(,%r8,4),%ebp
  404138:	00 
  404139:	0f 86 8d 00 00 00    	jbe    4041cc <_Z7tq_testv+0x8fc>
  40413f:	4a 8d 04 a1          	lea    (%rcx,%r12,4),%rax
  404143:	66 0f 6f 05 f5 62 00 	movdqa 0x62f5(%rip),%xmm0        # 40a440 <_ZTV6bufferId15CPU_MATHEMATICSS_IdS0_10continuousIdS0_ES2_N9Operation3addIdEEES2_S5_E+0x90>
  40414a:	00 
  40414b:	45 31 d2             	xor    %r10d,%r10d
  40414e:	66 0f 6f 08          	movdqa (%rax),%xmm1
  404152:	66 0f 6f d0          	movdqa %xmm0,%xmm2
  404156:	66 0f 73 d0 20       	psrlq  $0x20,%xmm0
  40415b:	41 83 c2 01          	add    $0x1,%r10d
  40415f:	48 83 c0 10          	add    $0x10,%rax
  404163:	66 0f f4 50 f0       	pmuludq -0x10(%rax),%xmm2
  404168:	66 0f 73 d1 20       	psrlq  $0x20,%xmm1
  40416d:	66 0f f4 c8          	pmuludq %xmm0,%xmm1
  404171:	66 0f 70 c2 08       	pshufd $0x8,%xmm2,%xmm0
  404176:	45 39 d0             	cmp    %r10d,%r8d
  404179:	66 0f 70 c9 08       	pshufd $0x8,%xmm1,%xmm1
  40417e:	66 0f 62 c1          	punpckldq %xmm1,%xmm0
  404182:	77 ca                	ja     40414e <_Z7tq_testv+0x87e>
  404184:	66 0f 6f c8          	movdqa %xmm0,%xmm1
  404188:	01 ef                	add    %ebp,%edi
  40418a:	66 0f 6f d0          	movdqa %xmm0,%xmm2
  40418e:	66 0f 73 d0 20       	psrlq  $0x20,%xmm0
  404193:	66 0f 73 d9 08       	psrldq $0x8,%xmm1
  404198:	66 0f f4 d1          	pmuludq %xmm1,%xmm2
  40419c:	66 0f 73 d1 20       	psrlq  $0x20,%xmm1
  4041a1:	66 0f f4 c1          	pmuludq %xmm1,%xmm0
  4041a5:	66 0f 70 ca 08       	pshufd $0x8,%xmm2,%xmm1
  4041aa:	66 0f 70 c0 08       	pshufd $0x8,%xmm0,%xmm0
  4041af:	66 0f 62 c8          	punpckldq %xmm0,%xmm1
  4041b3:	66 0f 6f c1          	movdqa %xmm1,%xmm0
  4041b7:	66 0f 73 d9 04       	psrldq $0x4,%xmm1
  4041bc:	66 0f f4 c1          	pmuludq %xmm1,%xmm0
  4041c0:	66 0f 7e c0          	movd   %xmm0,%eax
  4041c4:	0f af d0             	imul   %eax,%edx
  4041c7:	44 39 dd             	cmp    %r11d,%ebp
  4041ca:	74 22                	je     4041ee <_Z7tq_testv+0x91e>
  4041cc:	48 63 c7             	movslq %edi,%rax
  4041cf:	0f af 14 81          	imul   (%rcx,%rax,4),%edx
  4041d3:	8d 47 01             	lea    0x1(%rdi),%eax
  4041d6:	39 f0                	cmp    %esi,%eax
  4041d8:	7d 14                	jge    4041ee <_Z7tq_testv+0x91e>
  4041da:	48 98                	cltq   
  4041dc:	83 c7 02             	add    $0x2,%edi
  4041df:	0f af 14 81          	imul   (%rcx,%rax,4),%edx
  4041e3:	39 fe                	cmp    %edi,%esi
  4041e5:	7e 07                	jle    4041ee <_Z7tq_testv+0x91e>
  4041e7:	48 63 ff             	movslq %edi,%rdi
  4041ea:	0f af 14 b9          	imul   (%rcx,%rdi,4),%edx
  4041ee:	41 89 11             	mov    %edx,(%r9)
  4041f1:	48 63 84 24 00 01 00 	movslq 0x100(%rsp),%rax
  4041f8:	00 
  4041f9:	48 63 3c 81          	movslq (%rcx,%rax,4),%rdi
  4041fd:	48 b8 00 00 00 00 00 	movabs $0x1fc0000000000000,%rax
  404204:	00 c0 1f 
  404207:	48 39 c7             	cmp    %rax,%rdi
  40420a:	0f 87 c4 06 00 00    	ja     4048d4 <_Z7tq_testv+0x1004>
  404210:	48 c1 e7 02          	shl    $0x2,%rdi
  404214:	e8 87 d1 ff ff       	callq  4013a0 <_Znam@plt>
  404219:	48 63 8c 24 a0 00 00 	movslq 0xa0(%rsp),%rcx
  404220:	00 
  404221:	48 8b 94 24 98 00 00 	mov    0x98(%rsp),%rdx
  404228:	00 
  404229:	bf f0 18 40 00       	mov    $0x4018f0,%edi
  40422e:	48 8b b4 24 90 00 00 	mov    0x90(%rsp),%rsi
  404235:	00 
  404236:	48 89 84 24 f0 00 00 	mov    %rax,0xf0(%rsp)
  40423d:	00 
  40423e:	48 c7 84 24 e0 00 00 	movq   $0x409df0,0xe0(%rsp)
  404245:	00 f0 9d 40 00 
  40424a:	c6 84 24 08 01 00 00 	movb   $0x1,0x108(%rsp)
  404251:	01 
  404252:	c6 84 24 09 01 00 00 	movb   $0x1,0x109(%rsp)
  404259:	01 
  40425a:	48 89 c8             	mov    %rcx,%rax
  40425d:	8b 0c 8a             	mov    (%rdx,%rcx,4),%ecx
  404260:	48 89 b4 24 18 01 00 	mov    %rsi,0x118(%rsp)
  404267:	00 
  404268:	48 8d 74 24 20       	lea    0x20(%rsp),%rsi
  40426d:	48 89 94 24 20 01 00 	mov    %rdx,0x120(%rsp)
  404274:	00 
  404275:	31 d2                	xor    %edx,%edx
  404277:	89 84 24 28 01 00 00 	mov    %eax,0x128(%rsp)
  40427e:	48 c7 84 24 10 01 00 	movq   $0x409d40,0x110(%rsp)
  404285:	00 40 9d 40 00 
  40428a:	89 4c 24 30          	mov    %ecx,0x30(%rsp)
  40428e:	31 c9                	xor    %ecx,%ecx
  404290:	48 89 5c 24 20       	mov    %rbx,0x20(%rsp)
  404295:	c7 44 24 28 00 00 48 	movl   $0xc2480000,0x28(%rsp)
  40429c:	c2 
  40429d:	c7 44 24 2c 00 00 48 	movl   $0x42480000,0x2c(%rsp)
  4042a4:	42 
  4042a5:	e8 76 d2 ff ff       	callq  401520 <GOMP_parallel@plt>
  4042aa:	e8 11 d3 ff ff       	callq  4015c0 <GOMP_barrier@plt>
  4042af:	48 63 8c 24 d0 00 00 	movslq 0xd0(%rsp),%rcx
  4042b6:	00 
  4042b7:	48 8b 94 24 c8 00 00 	mov    0xc8(%rsp),%rdx
  4042be:	00 
  4042bf:	bf f0 18 40 00       	mov    $0x4018f0,%edi
  4042c4:	48 8b b4 24 c0 00 00 	mov    0xc0(%rsp),%rsi
  4042cb:	00 
  4042cc:	48 89 c8             	mov    %rcx,%rax
  4042cf:	8b 0c 8a             	mov    (%rdx,%rcx,4),%ecx
  4042d2:	48 89 b4 24 18 01 00 	mov    %rsi,0x118(%rsp)
  4042d9:	00 
  4042da:	48 8d 74 24 20       	lea    0x20(%rsp),%rsi
  4042df:	48 89 94 24 20 01 00 	mov    %rdx,0x120(%rsp)
  4042e6:	00 
  4042e7:	31 d2                	xor    %edx,%edx
  4042e9:	89 84 24 28 01 00 00 	mov    %eax,0x128(%rsp)
  4042f0:	48 c7 84 24 10 01 00 	movq   $0x409d40,0x110(%rsp)
  4042f7:	00 40 9d 40 00 
  4042fc:	89 4c 24 30          	mov    %ecx,0x30(%rsp)
  404300:	31 c9                	xor    %ecx,%ecx
  404302:	48 89 5c 24 20       	mov    %rbx,0x20(%rsp)
  404307:	c7 44 24 28 00 00 48 	movl   $0xc2480000,0x28(%rsp)
  40430e:	c2 
  40430f:	c7 44 24 2c 00 00 48 	movl   $0x42480000,0x2c(%rsp)
  404316:	42 
  404317:	e8 04 d2 ff ff       	callq  401520 <GOMP_parallel@plt>
  40431c:	e8 9f d2 ff ff       	callq  4015c0 <GOMP_barrier@plt>
  404321:	48 8d bc 24 80 00 00 	lea    0x80(%rsp),%rdi
  404328:	00 
  404329:	e8 12 4b 00 00       	callq  408e40 <_ZNK11Tensor_JackIf15CPU_MATHEMATICS10continuousIfS0_EE5printEv>
  40432e:	48 8d bc 24 b0 00 00 	lea    0xb0(%rsp),%rdi
  404335:	00 
  404336:	e8 05 4b 00 00       	callq  408e40 <_ZNK11Tensor_JackIf15CPU_MATHEMATICS10continuousIfS0_EE5printEv>
  40433b:	48 8d bc 24 e0 00 00 	lea    0xe0(%rsp),%rdi
  404342:	00 
  404343:	e8 f8 4a 00 00       	callq  408e40 <_ZNK11Tensor_JackIf15CPU_MATHEMATICS10continuousIfS0_EE5printEv>
  404348:	48 63 54 24 70       	movslq 0x70(%rsp),%rdx
  40434d:	48 8b 44 24 68       	mov    0x68(%rsp),%rax
  404352:	41 b8 01 00 00 00    	mov    $0x1,%r8d
  404358:	8b 8c 24 00 01 00 00 	mov    0x100(%rsp),%ecx
  40435f:	48 8b b4 24 f8 00 00 	mov    0xf8(%rsp),%rsi
  404366:	00 
  404367:	48 c7 44 24 28 30 9e 	movq   $0x409e30,0x28(%rsp)
  40436e:	40 00 
  404370:	48 c7 44 24 30 b0 9e 	movq   $0x409eb0,0x30(%rsp)
  404377:	40 00 
  404379:	c7 44 24 38 00 00 48 	movl   $0x43480000,0x38(%rsp)
  404380:	43 
  404381:	c6 44 24 40 00       	movb   $0x0,0x40(%rsp)
  404386:	8b 14 90             	mov    (%rax,%rdx,4),%edx
  404389:	48 63 c1             	movslq %ecx,%rax
  40438c:	c6 44 24 41 00       	movb   $0x0,0x41(%rsp)
  404391:	8b 04 86             	mov    (%rsi,%rax,4),%eax
  404394:	48 c7 44 24 20 70 9f 	movq   $0x409f70,0x20(%rsp)
  40439b:	40 00 
  40439d:	48 8b bc 24 f0 00 00 	mov    0xf0(%rsp),%rdi
  4043a4:	00 
  4043a5:	85 c0                	test   %eax,%eax
  4043a7:	41 0f 4e c0          	cmovle %r8d,%eax
  4043ab:	39 c2                	cmp    %eax,%edx
  4043ad:	0f 85 34 05 00 00    	jne    4048e7 <_Z7tq_testv+0x1017>
  4043b3:	48 8b 44 24 60       	mov    0x60(%rsp),%rax
  4043b8:	48 89 bc 24 38 01 00 	mov    %rdi,0x138(%rsp)
  4043bf:	00 
  4043c0:	bf b0 19 40 00       	mov    $0x4019b0,%edi
  4043c5:	48 89 b4 24 40 01 00 	mov    %rsi,0x140(%rsp)
  4043cc:	00 
  4043cd:	89 8c 24 48 01 00 00 	mov    %ecx,0x148(%rsp)
  4043d4:	48 89 e6             	mov    %rsp,%rsi
  4043d7:	31 c9                	xor    %ecx,%ecx
  4043d9:	89 54 24 10          	mov    %edx,0x10(%rsp)
  4043dd:	31 d2                	xor    %edx,%edx
  4043df:	48 89 04 24          	mov    %rax,(%rsp)
  4043e3:	48 c7 84 24 10 01 00 	movq   $0x409fb0,0x110(%rsp)
  4043ea:	00 b0 9f 40 00 
  4043ef:	48 c7 84 24 18 01 00 	movq   $0x409e30,0x118(%rsp)
  4043f6:	00 30 9e 40 00 
  4043fb:	48 c7 84 24 20 01 00 	movq   $0x409eb0,0x120(%rsp)
  404402:	00 b0 9e 40 00 
  404407:	c7 84 24 28 01 00 00 	movl   $0x43480000,0x128(%rsp)
  40440e:	00 00 48 43 
  404412:	48 c7 84 24 30 01 00 	movq   $0x409d40,0x130(%rsp)
  404419:	00 40 9d 40 00 
  40441e:	48 89 5c 24 08       	mov    %rbx,0x8(%rsp)
  404423:	e8 f8 d0 ff ff       	callq  401520 <GOMP_parallel@plt>
  404428:	e8 93 d1 ff ff       	callq  4015c0 <GOMP_barrier@plt>
  40442d:	80 7c 24 40 00       	cmpb   $0x0,0x40(%rsp)
  404432:	48 c7 44 24 20 30 9f 	movq   $0x409f30,0x20(%rsp)
  404439:	40 00 
  40443b:	0f 85 98 04 00 00    	jne    4048d9 <_Z7tq_testv+0x1009>
  404441:	48 8d 7c 24 50       	lea    0x50(%rsp),%rdi
  404446:	e8 f5 49 00 00       	callq  408e40 <_ZNK11Tensor_JackIf15CPU_MATHEMATICS10continuousIfS0_EE5printEv>
  40444b:	ba 08 00 00 00       	mov    $0x8,%edx
  404450:	be 95 92 40 00       	mov    $0x409295,%esi
  404455:	bf e0 d1 60 00       	mov    $0x60d1e0,%edi
  40445a:	e8 71 d0 ff ff       	callq  4014d0 <_ZSt16__ostream_insertIcSt11char_traitsIcEERSt13basic_ostreamIT_T0_ES6_PKS3_l@plt>
  40445f:	48 8b 05 7a 8d 20 00 	mov    0x208d7a(%rip),%rax        # 60d1e0 <_ZSt4cout@@GLIBCXX_3.4>
  404466:	48 8b 40 e8          	mov    -0x18(%rax),%rax
  40446a:	48 8b 98 d0 d2 60 00 	mov    0x60d2d0(%rax),%rbx
  404471:	48 85 db             	test   %rbx,%rbx
  404474:	0f 84 99 04 00 00    	je     404913 <_Z7tq_testv+0x1043>
  40447a:	80 7b 38 00          	cmpb   $0x0,0x38(%rbx)
  40447e:	0f 84 6c 01 00 00    	je     4045f0 <_Z7tq_testv+0xd20>
  404484:	0f be 73 43          	movsbl 0x43(%rbx),%esi
  404488:	bf e0 d1 60 00       	mov    $0x60d1e0,%edi
  40448d:	e8 1e cf ff ff       	callq  4013b0 <_ZNSo3putEc@plt>
  404492:	48 89 c7             	mov    %rax,%rdi
  404495:	e8 86 cf ff ff       	callq  401420 <_ZNSo5flushEv@plt>
  40449a:	80 bc 24 08 01 00 00 	cmpb   $0x0,0x108(%rsp)
  4044a1:	00 
  4044a2:	48 c7 84 24 e0 00 00 	movq   $0x409df0,0xe0(%rsp)
  4044a9:	00 f0 9d 40 00 
  4044ae:	74 12                	je     4044c2 <_Z7tq_testv+0xbf2>
  4044b0:	48 8b bc 24 f0 00 00 	mov    0xf0(%rsp),%rdi
  4044b7:	00 
  4044b8:	48 85 ff             	test   %rdi,%rdi
  4044bb:	74 05                	je     4044c2 <_Z7tq_testv+0xbf2>
  4044bd:	e8 3e d0 ff ff       	callq  401500 <_ZdaPv@plt>
  4044c2:	80 bc 24 09 01 00 00 	cmpb   $0x0,0x109(%rsp)
  4044c9:	00 
  4044ca:	74 12                	je     4044de <_Z7tq_testv+0xc0e>
  4044cc:	48 8b bc 24 f8 00 00 	mov    0xf8(%rsp),%rdi
  4044d3:	00 
  4044d4:	48 85 ff             	test   %rdi,%rdi
  4044d7:	74 05                	je     4044de <_Z7tq_testv+0xc0e>
  4044d9:	e8 22 d0 ff ff       	callq  401500 <_ZdaPv@plt>
  4044de:	80 bc 24 d8 00 00 00 	cmpb   $0x0,0xd8(%rsp)
  4044e5:	00 
  4044e6:	48 c7 84 24 b0 00 00 	movq   $0x409df0,0xb0(%rsp)
  4044ed:	00 f0 9d 40 00 
  4044f2:	74 12                	je     404506 <_Z7tq_testv+0xc36>
  4044f4:	48 8b bc 24 c0 00 00 	mov    0xc0(%rsp),%rdi
  4044fb:	00 
  4044fc:	48 85 ff             	test   %rdi,%rdi
  4044ff:	74 05                	je     404506 <_Z7tq_testv+0xc36>
  404501:	e8 fa cf ff ff       	callq  401500 <_ZdaPv@plt>
  404506:	80 bc 24 d9 00 00 00 	cmpb   $0x0,0xd9(%rsp)
  40450d:	00 
  40450e:	74 12                	je     404522 <_Z7tq_testv+0xc52>
  404510:	48 8b bc 24 c8 00 00 	mov    0xc8(%rsp),%rdi
  404517:	00 
  404518:	48 85 ff             	test   %rdi,%rdi
  40451b:	74 05                	je     404522 <_Z7tq_testv+0xc52>
  40451d:	e8 de cf ff ff       	callq  401500 <_ZdaPv@plt>
  404522:	80 bc 24 a8 00 00 00 	cmpb   $0x0,0xa8(%rsp)
  404529:	00 
  40452a:	48 c7 84 24 80 00 00 	movq   $0x409df0,0x80(%rsp)
  404531:	00 f0 9d 40 00 
  404536:	74 12                	je     40454a <_Z7tq_testv+0xc7a>
  404538:	48 8b bc 24 90 00 00 	mov    0x90(%rsp),%rdi
  40453f:	00 
  404540:	48 85 ff             	test   %rdi,%rdi
  404543:	74 05                	je     40454a <_Z7tq_testv+0xc7a>
  404545:	e8 b6 cf ff ff       	callq  401500 <_ZdaPv@plt>
  40454a:	80 bc 24 a9 00 00 00 	cmpb   $0x0,0xa9(%rsp)
  404551:	00 
  404552:	74 12                	je     404566 <_Z7tq_testv+0xc96>
  404554:	48 8b bc 24 98 00 00 	mov    0x98(%rsp),%rdi
  40455b:	00 
  40455c:	48 85 ff             	test   %rdi,%rdi
  40455f:	74 05                	je     404566 <_Z7tq_testv+0xc96>
  404561:	e8 9a cf ff ff       	callq  401500 <_ZdaPv@plt>
  404566:	80 7c 24 78 00       	cmpb   $0x0,0x78(%rsp)
  40456b:	48 c7 44 24 50 f0 9d 	movq   $0x409df0,0x50(%rsp)
  404572:	40 00 
  404574:	74 0f                	je     404585 <_Z7tq_testv+0xcb5>
  404576:	48 8b 7c 24 60       	mov    0x60(%rsp),%rdi
  40457b:	48 85 ff             	test   %rdi,%rdi
  40457e:	74 05                	je     404585 <_Z7tq_testv+0xcb5>
  404580:	e8 7b cf ff ff       	callq  401500 <_ZdaPv@plt>
  404585:	80 7c 24 79 00       	cmpb   $0x0,0x79(%rsp)
  40458a:	74 0f                	je     40459b <_Z7tq_testv+0xccb>
  40458c:	48 8b 7c 24 68       	mov    0x68(%rsp),%rdi
  404591:	48 85 ff             	test   %rdi,%rdi
  404594:	74 05                	je     40459b <_Z7tq_testv+0xccb>
  404596:	e8 65 cf ff ff       	callq  401500 <_ZdaPv@plt>
  40459b:	31 c0                	xor    %eax,%eax
  40459d:	48 8b 9c 24 58 01 00 	mov    0x158(%rsp),%rbx
  4045a4:	00 
  4045a5:	64 48 33 1c 25 28 00 	xor    %fs:0x28,%rbx
  4045ac:	00 00 
  4045ae:	0f 85 89 03 00 00    	jne    40493d <_Z7tq_testv+0x106d>
  4045b4:	48 81 c4 60 01 00 00 	add    $0x160,%rsp
  4045bb:	5b                   	pop    %rbx
  4045bc:	5d                   	pop    %rbp
  4045bd:	41 5c                	pop    %r12
  4045bf:	c3                   	retq   
  4045c0:	48 89 df             	mov    %rbx,%rdi
  4045c3:	e8 18 cf ff ff       	callq  4014e0 <_ZNKSt5ctypeIcE13_M_widen_initEv@plt>
  4045c8:	48 8b 03             	mov    (%rbx),%rax
  4045cb:	be 0a 00 00 00       	mov    $0xa,%esi
  4045d0:	48 8b 40 30          	mov    0x30(%rax),%rax
  4045d4:	48 3d 20 5c 40 00    	cmp    $0x405c20,%rax
  4045da:	0f 84 4b f3 ff ff    	je     40392b <_Z7tq_testv+0x5b>
  4045e0:	48 89 df             	mov    %rbx,%rdi
  4045e3:	ff d0                	callq  *%rax
  4045e5:	0f be f0             	movsbl %al,%esi
  4045e8:	e9 3e f3 ff ff       	jmpq   40392b <_Z7tq_testv+0x5b>
  4045ed:	0f 1f 00             	nopl   (%rax)
  4045f0:	48 89 df             	mov    %rbx,%rdi
  4045f3:	e8 e8 ce ff ff       	callq  4014e0 <_ZNKSt5ctypeIcE13_M_widen_initEv@plt>
  4045f8:	48 8b 03             	mov    (%rbx),%rax
  4045fb:	be 0a 00 00 00       	mov    $0xa,%esi
  404600:	48 8b 40 30          	mov    0x30(%rax),%rax
  404604:	48 3d 20 5c 40 00    	cmp    $0x405c20,%rax
  40460a:	0f 84 78 fe ff ff    	je     404488 <_Z7tq_testv+0xbb8>
  404610:	48 89 df             	mov    %rbx,%rdi
  404613:	ff d0                	callq  *%rax
  404615:	0f be f0             	movsbl %al,%esi
  404618:	e9 6b fe ff ff       	jmpq   404488 <_Z7tq_testv+0xbb8>
  40461d:	0f 1f 00             	nopl   (%rax)
  404620:	85 c0                	test   %eax,%eax
  404622:	0f 85 b9 f3 ff ff    	jne    4039e1 <_Z7tq_testv+0x111>
  404628:	ba 01 00 00 00       	mov    $0x1,%edx
  40462d:	31 ff                	xor    %edi,%edi
  40462f:	e9 17 f4 ff ff       	jmpq   403a4b <_Z7tq_testv+0x17b>
  404634:	0f 1f 40 00          	nopl   0x0(%rax)
  404638:	85 c0                	test   %eax,%eax
  40463a:	0f 85 20 f8 ff ff    	jne    403e60 <_Z7tq_testv+0x590>
  404640:	ba 01 00 00 00       	mov    $0x1,%edx
  404645:	31 ff                	xor    %edi,%edi
  404647:	e9 7e f8 ff ff       	jmpq   403eca <_Z7tq_testv+0x5fa>
  40464c:	0f 1f 40 00          	nopl   0x0(%rax)
  404650:	85 c0                	test   %eax,%eax
  404652:	0f 85 c1 f5 ff ff    	jne    403c19 <_Z7tq_testv+0x349>
  404658:	ba 01 00 00 00       	mov    $0x1,%edx
  40465d:	31 ff                	xor    %edi,%edi
  40465f:	e9 1f f6 ff ff       	jmpq   403c83 <_Z7tq_testv+0x3b3>
  404664:	0f 1f 40 00          	nopl   0x0(%rax)
  404668:	85 c0                	test   %eax,%eax
  40466a:	0f 85 37 fa ff ff    	jne    4040a7 <_Z7tq_testv+0x7d7>
  404670:	ba 01 00 00 00       	mov    $0x1,%edx
  404675:	31 ff                	xor    %edi,%edi
  404677:	e9 95 fa ff ff       	jmpq   404111 <_Z7tq_testv+0x841>
  40467c:	0f 1f 40 00          	nopl   0x0(%rax)
  404680:	ba 01 00 00 00       	mov    $0x1,%edx
  404685:	e9 9e f4 ff ff       	jmpq   403b28 <_Z7tq_testv+0x258>
  40468a:	66 0f 1f 44 00 00    	nopw   0x0(%rax,%rax,1)
  404690:	ba 01 00 00 00       	mov    $0x1,%edx
  404695:	e9 c6 f6 ff ff       	jmpq   403d60 <_Z7tq_testv+0x490>
  40469a:	66 0f 1f 44 00 00    	nopw   0x0(%rax,%rax,1)
  4046a0:	ba 01 00 00 00       	mov    $0x1,%edx
  4046a5:	e9 fd f8 ff ff       	jmpq   403fa7 <_Z7tq_testv+0x6d7>
  4046aa:	66 0f 1f 44 00 00    	nopw   0x0(%rax,%rax,1)
  4046b0:	ba 01 00 00 00       	mov    $0x1,%edx
  4046b5:	e9 34 fb ff ff       	jmpq   4041ee <_Z7tq_testv+0x91e>
  4046ba:	66 0f 1f 44 00 00    	nopw   0x0(%rax,%rax,1)
  4046c0:	bf 05 00 00 00       	mov    $0x5,%edi
  4046c5:	e9 b1 f5 ff ff       	jmpq   403c7b <_Z7tq_testv+0x3ab>
  4046ca:	66 0f 1f 44 00 00    	nopw   0x0(%rax,%rax,1)
  4046d0:	bf 06 00 00 00       	mov    $0x6,%edi
  4046d5:	e9 a1 f5 ff ff       	jmpq   403c7b <_Z7tq_testv+0x3ab>
  4046da:	66 0f 1f 44 00 00    	nopw   0x0(%rax,%rax,1)
  4046e0:	bf 07 00 00 00       	mov    $0x7,%edi
  4046e5:	e9 91 f5 ff ff       	jmpq   403c7b <_Z7tq_testv+0x3ab>
  4046ea:	66 0f 1f 44 00 00    	nopw   0x0(%rax,%rax,1)
  4046f0:	bf 07 00 00 00       	mov    $0x7,%edi
  4046f5:	e9 c8 f7 ff ff       	jmpq   403ec2 <_Z7tq_testv+0x5f2>
  4046fa:	66 0f 1f 44 00 00    	nopw   0x0(%rax,%rax,1)
  404700:	bf 06 00 00 00       	mov    $0x6,%edi
  404705:	e9 39 f3 ff ff       	jmpq   403a43 <_Z7tq_testv+0x173>
  40470a:	66 0f 1f 44 00 00    	nopw   0x0(%rax,%rax,1)
  404710:	bf 07 00 00 00       	mov    $0x7,%edi
  404715:	e9 29 f3 ff ff       	jmpq   403a43 <_Z7tq_testv+0x173>
  40471a:	66 0f 1f 44 00 00    	nopw   0x0(%rax,%rax,1)
  404720:	bf 01 00 00 00       	mov    $0x1,%edi
  404725:	e9 19 f3 ff ff       	jmpq   403a43 <_Z7tq_testv+0x173>
  40472a:	66 0f 1f 44 00 00    	nopw   0x0(%rax,%rax,1)
  404730:	bf 02 00 00 00       	mov    $0x2,%edi
  404735:	e9 09 f3 ff ff       	jmpq   403a43 <_Z7tq_testv+0x173>
  40473a:	66 0f 1f 44 00 00    	nopw   0x0(%rax,%rax,1)
  404740:	bf 01 00 00 00       	mov    $0x1,%edi
  404745:	e9 31 f5 ff ff       	jmpq   403c7b <_Z7tq_testv+0x3ab>
  40474a:	66 0f 1f 44 00 00    	nopw   0x0(%rax,%rax,1)
  404750:	bf 02 00 00 00       	mov    $0x2,%edi
  404755:	e9 21 f5 ff ff       	jmpq   403c7b <_Z7tq_testv+0x3ab>
  40475a:	66 0f 1f 44 00 00    	nopw   0x0(%rax,%rax,1)
  404760:	bf 03 00 00 00       	mov    $0x3,%edi
  404765:	e9 11 f5 ff ff       	jmpq   403c7b <_Z7tq_testv+0x3ab>
  40476a:	66 0f 1f 44 00 00    	nopw   0x0(%rax,%rax,1)
  404770:	bf 04 00 00 00       	mov    $0x4,%edi
  404775:	e9 01 f5 ff ff       	jmpq   403c7b <_Z7tq_testv+0x3ab>
  40477a:	66 0f 1f 44 00 00    	nopw   0x0(%rax,%rax,1)
  404780:	bf 03 00 00 00       	mov    $0x3,%edi
  404785:	e9 38 f7 ff ff       	jmpq   403ec2 <_Z7tq_testv+0x5f2>
  40478a:	66 0f 1f 44 00 00    	nopw   0x0(%rax,%rax,1)
  404790:	bf 04 00 00 00       	mov    $0x4,%edi
  404795:	e9 28 f7 ff ff       	jmpq   403ec2 <_Z7tq_testv+0x5f2>
  40479a:	66 0f 1f 44 00 00    	nopw   0x0(%rax,%rax,1)
  4047a0:	bf 05 00 00 00       	mov    $0x5,%edi
  4047a5:	e9 18 f7 ff ff       	jmpq   403ec2 <_Z7tq_testv+0x5f2>
  4047aa:	66 0f 1f 44 00 00    	nopw   0x0(%rax,%rax,1)
  4047b0:	bf 06 00 00 00       	mov    $0x6,%edi
  4047b5:	e9 08 f7 ff ff       	jmpq   403ec2 <_Z7tq_testv+0x5f2>
  4047ba:	66 0f 1f 44 00 00    	nopw   0x0(%rax,%rax,1)
  4047c0:	bf 07 00 00 00       	mov    $0x7,%edi
  4047c5:	e9 3f f9 ff ff       	jmpq   404109 <_Z7tq_testv+0x839>
  4047ca:	66 0f 1f 44 00 00    	nopw   0x0(%rax,%rax,1)
  4047d0:	bf 03 00 00 00       	mov    $0x3,%edi
  4047d5:	e9 2f f9 ff ff       	jmpq   404109 <_Z7tq_testv+0x839>
  4047da:	66 0f 1f 44 00 00    	nopw   0x0(%rax,%rax,1)
  4047e0:	bf 04 00 00 00       	mov    $0x4,%edi
  4047e5:	e9 1f f9 ff ff       	jmpq   404109 <_Z7tq_testv+0x839>
  4047ea:	66 0f 1f 44 00 00    	nopw   0x0(%rax,%rax,1)
  4047f0:	bf 05 00 00 00       	mov    $0x5,%edi
  4047f5:	e9 0f f9 ff ff       	jmpq   404109 <_Z7tq_testv+0x839>
  4047fa:	66 0f 1f 44 00 00    	nopw   0x0(%rax,%rax,1)
  404800:	bf 06 00 00 00       	mov    $0x6,%edi
  404805:	e9 ff f8 ff ff       	jmpq   404109 <_Z7tq_testv+0x839>
  40480a:	66 0f 1f 44 00 00    	nopw   0x0(%rax,%rax,1)
  404810:	bf 01 00 00 00       	mov    $0x1,%edi
  404815:	e9 ef f8 ff ff       	jmpq   404109 <_Z7tq_testv+0x839>
  40481a:	66 0f 1f 44 00 00    	nopw   0x0(%rax,%rax,1)
  404820:	bf 02 00 00 00       	mov    $0x2,%edi
  404825:	e9 df f8 ff ff       	jmpq   404109 <_Z7tq_testv+0x839>
  40482a:	66 0f 1f 44 00 00    	nopw   0x0(%rax,%rax,1)
  404830:	bf 01 00 00 00       	mov    $0x1,%edi
  404835:	e9 88 f6 ff ff       	jmpq   403ec2 <_Z7tq_testv+0x5f2>
  40483a:	66 0f 1f 44 00 00    	nopw   0x0(%rax,%rax,1)
  404840:	bf 02 00 00 00       	mov    $0x2,%edi
  404845:	e9 78 f6 ff ff       	jmpq   403ec2 <_Z7tq_testv+0x5f2>
  40484a:	66 0f 1f 44 00 00    	nopw   0x0(%rax,%rax,1)
  404850:	bf 03 00 00 00       	mov    $0x3,%edi
  404855:	e9 e9 f1 ff ff       	jmpq   403a43 <_Z7tq_testv+0x173>
  40485a:	66 0f 1f 44 00 00    	nopw   0x0(%rax,%rax,1)
  404860:	bf 04 00 00 00       	mov    $0x4,%edi
  404865:	e9 d9 f1 ff ff       	jmpq   403a43 <_Z7tq_testv+0x173>
  40486a:	66 0f 1f 44 00 00    	nopw   0x0(%rax,%rax,1)
  404870:	bf 05 00 00 00       	mov    $0x5,%edi
  404875:	e9 c9 f1 ff ff       	jmpq   403a43 <_Z7tq_testv+0x173>
  40487a:	e8 91 cc ff ff       	callq  401510 <__cxa_throw_bad_array_new_length@plt>
  40487f:	e8 6c cc ff ff       	callq  4014f0 <_ZSt16__throw_bad_castv@plt>
  404884:	48 89 c3             	mov    %rax,%rbx
  404887:	48 8d bc 24 80 00 00 	lea    0x80(%rsp),%rdi
  40488e:	00 
  40488f:	e8 7c 24 00 00       	callq  406d10 <_ZN11Tensor_JackIf15CPU_MATHEMATICS10continuousIfS0_EED1Ev>
  404894:	48 8d 7c 24 50       	lea    0x50(%rsp),%rdi
  404899:	e8 72 24 00 00       	callq  406d10 <_ZN11Tensor_JackIf15CPU_MATHEMATICS10continuousIfS0_EED1Ev>
  40489e:	48 89 df             	mov    %rbx,%rdi
  4048a1:	e8 ea cc ff ff       	callq  401590 <_Unwind_Resume@plt>
  4048a6:	e8 65 cc ff ff       	callq  401510 <__cxa_throw_bad_array_new_length@plt>
  4048ab:	48 89 c3             	mov    %rax,%rbx
  4048ae:	48 8d bc 24 b0 00 00 	lea    0xb0(%rsp),%rdi
  4048b5:	00 
  4048b6:	e8 55 24 00 00       	callq  406d10 <_ZN11Tensor_JackIf15CPU_MATHEMATICS10continuousIfS0_EED1Ev>
  4048bb:	eb ca                	jmp    404887 <_Z7tq_testv+0xfb7>
  4048bd:	e8 4e cc ff ff       	callq  401510 <__cxa_throw_bad_array_new_length@plt>
  4048c2:	48 89 c3             	mov    %rax,%rbx
  4048c5:	48 8d bc 24 e0 00 00 	lea    0xe0(%rsp),%rdi
  4048cc:	00 
  4048cd:	e8 3e 24 00 00       	callq  406d10 <_ZN11Tensor_JackIf15CPU_MATHEMATICS10continuousIfS0_EED1Ev>
  4048d2:	eb da                	jmp    4048ae <_Z7tq_testv+0xfde>
  4048d4:	e8 37 cc ff ff       	callq  401510 <__cxa_throw_bad_array_new_length@plt>
  4048d9:	48 8d 44 24 20       	lea    0x20(%rsp),%rax
  4048de:	48 8d 78 08          	lea    0x8(%rax),%rdi
  4048e2:	e8 99 1c 00 00       	callq  406580 <_ZNK19StackScalarAccessorIf15CPU_MATHEMATICSE7getDataEv>
  4048e7:	bf 10 00 00 00       	mov    $0x10,%edi
  4048ec:	e8 ef ca ff ff       	callq  4013e0 <__cxa_allocate_exception@plt>
  4048f1:	be e8 91 40 00       	mov    $0x4091e8,%esi
  4048f6:	48 89 c7             	mov    %rax,%rdi
  4048f9:	48 89 c5             	mov    %rax,%rbp
  4048fc:	e8 ef cc ff ff       	callq  4015f0 <_ZNSt16invalid_argumentC1EPKc@plt>
  404901:	ba 60 15 40 00       	mov    $0x401560,%edx
  404906:	be a0 d3 60 00       	mov    $0x60d3a0,%esi
  40490b:	48 89 ef             	mov    %rbp,%rdi
  40490e:	e8 5d cc ff ff       	callq  401570 <__cxa_throw@plt>
  404913:	e8 d8 cb ff ff       	callq  4014f0 <_ZSt16__throw_bad_castv@plt>
  404918:	48 89 c3             	mov    %rax,%rbx
  40491b:	48 8d 7c 24 20       	lea    0x20(%rsp),%rdi
  404920:	48 c7 44 24 20 70 9f 	movq   $0x409f70,0x20(%rsp)
  404927:	40 00 
  404929:	e8 b2 1c 00 00       	callq  4065e0 <_ZN11Tensor_JackIf15CPU_MATHEMATICS19StackScalarAccessorIfS0_EED1Ev>
  40492e:	eb 95                	jmp    4048c5 <_Z7tq_testv+0xff5>
  404930:	48 89 ef             	mov    %rbp,%rdi
  404933:	48 89 c3             	mov    %rax,%rbx
  404936:	e8 15 cb ff ff       	callq  401450 <__cxa_free_exception@plt>
  40493b:	eb de                	jmp    40491b <_Z7tq_testv+0x104b>
  40493d:	e8 7e cb ff ff       	callq  4014c0 <__stack_chk_fail@plt>
  404942:	48 89 c3             	mov    %rax,%rbx
  404945:	e9 4a ff ff ff       	jmpq   404894 <_Z7tq_testv+0xfc4>
  40494a:	66 0f 1f 44 00 00    	nopw   0x0(%rax,%rax,1)

0000000000404950 <_Z12matrix_testsv>:
  404950:	41 56                	push   %r14
  404952:	41 55                	push   %r13
  404954:	41 54                	push   %r12
  404956:	55                   	push   %rbp
  404957:	53                   	push   %rbx
  404958:	48 81 ec 40 01 00 00 	sub    $0x140,%rsp
  40495f:	64 48 8b 04 25 28 00 	mov    %fs:0x28,%rax
  404966:	00 00 
  404968:	48 89 84 24 38 01 00 	mov    %rax,0x138(%rsp)
  40496f:	00 
  404970:	31 c0                	xor    %eax,%eax
  404972:	48 8d 9c 24 e0 00 00 	lea    0xe0(%rsp),%rbx
  404979:	00 
  40497a:	48 8d ac 24 30 01 00 	lea    0x130(%rsp),%rbp
  404981:	00 
  404982:	e8 49 ef ff ff       	callq  4038d0 <_Z7tq_testv>
  404987:	bf 08 00 00 00       	mov    $0x8,%edi
  40498c:	c7 84 24 30 01 00 00 	movl   $0x5,0x130(%rsp)
  404993:	05 00 00 00 
  404997:	48 c7 44 24 50 b0 9d 	movq   $0x409db0,0x50(%rsp)
  40499e:	40 00 
  4049a0:	48 c7 44 24 58 40 9d 	movq   $0x409d40,0x58(%rsp)
  4049a7:	40 00 
  4049a9:	c7 44 24 70 01 00 00 	movl   $0x1,0x70(%rsp)
  4049b0:	00 
  4049b1:	e8 ea c9 ff ff       	callq  4013a0 <_Znam@plt>
  4049b6:	48 89 44 24 68       	mov    %rax,0x68(%rsp)
  4049bb:	48 8d 44 24 68       	lea    0x68(%rsp),%rax
  4049c0:	31 c9                	xor    %ecx,%ecx
  4049c2:	31 d2                	xor    %edx,%edx
  4049c4:	48 89 de             	mov    %rbx,%rsi
  4049c7:	bf 60 17 40 00       	mov    $0x401760,%edi
  4049cc:	48 89 84 24 e0 00 00 	mov    %rax,0xe0(%rsp)
  4049d3:	00 
  4049d4:	48 89 ac 24 e8 00 00 	mov    %rbp,0xe8(%rsp)
  4049db:	00 
  4049dc:	c7 84 24 f0 00 00 00 	movl   $0x1,0xf0(%rsp)
  4049e3:	01 00 00 00 
  4049e7:	e8 34 cb ff ff       	callq  401520 <GOMP_parallel@plt>
  4049ec:	e8 cf cb ff ff       	callq  4015c0 <GOMP_barrier@plt>
  4049f1:	48 63 44 24 70       	movslq 0x70(%rsp),%rax
  4049f6:	48 8b 4c 24 68       	mov    0x68(%rsp),%rcx
  4049fb:	85 c0                	test   %eax,%eax
  4049fd:	4c 8d 0c 81          	lea    (%rcx,%rax,4),%r9
  404a01:	0f 8e 89 0f 00 00    	jle    405990 <_Z12matrix_testsv+0x1040>
  404a07:	48 89 c6             	mov    %rax,%rsi
  404a0a:	48 89 c8             	mov    %rcx,%rax
  404a0d:	83 e0 0f             	and    $0xf,%eax
  404a10:	48 c1 e8 02          	shr    $0x2,%rax
  404a14:	48 f7 d8             	neg    %rax
  404a17:	83 e0 03             	and    $0x3,%eax
  404a1a:	39 f0                	cmp    %esi,%eax
  404a1c:	0f 47 c6             	cmova  %esi,%eax
  404a1f:	83 fe 08             	cmp    $0x8,%esi
  404a22:	0f 8f 98 0e 00 00    	jg     4058c0 <_Z12matrix_testsv+0xf70>
  404a28:	89 f0                	mov    %esi,%eax
  404a2a:	83 f8 01             	cmp    $0x1,%eax
  404a2d:	8b 11                	mov    (%rcx),%edx
  404a2f:	0f 84 6b 0f 00 00    	je     4059a0 <_Z12matrix_testsv+0x1050>
  404a35:	0f af 51 04          	imul   0x4(%rcx),%edx
  404a39:	83 f8 02             	cmp    $0x2,%eax
  404a3c:	0f 84 6e 0f 00 00    	je     4059b0 <_Z12matrix_testsv+0x1060>
  404a42:	0f af 51 08          	imul   0x8(%rcx),%edx
  404a46:	83 f8 03             	cmp    $0x3,%eax
  404a49:	0f 84 11 10 00 00    	je     405a60 <_Z12matrix_testsv+0x1110>
  404a4f:	0f af 51 0c          	imul   0xc(%rcx),%edx
  404a53:	83 f8 04             	cmp    $0x4,%eax
  404a56:	0f 84 14 10 00 00    	je     405a70 <_Z12matrix_testsv+0x1120>
  404a5c:	0f af 51 10          	imul   0x10(%rcx),%edx
  404a60:	83 f8 05             	cmp    $0x5,%eax
  404a63:	0f 84 57 10 00 00    	je     405ac0 <_Z12matrix_testsv+0x1170>
  404a69:	0f af 51 14          	imul   0x14(%rcx),%edx
  404a6d:	83 f8 06             	cmp    $0x6,%eax
  404a70:	0f 84 5a 10 00 00    	je     405ad0 <_Z12matrix_testsv+0x1180>
  404a76:	0f af 51 18          	imul   0x18(%rcx),%edx
  404a7a:	83 f8 07             	cmp    $0x7,%eax
  404a7d:	0f 84 ad 10 00 00    	je     405b30 <_Z12matrix_testsv+0x11e0>
  404a83:	0f af 51 1c          	imul   0x1c(%rcx),%edx
  404a87:	bf 08 00 00 00       	mov    $0x8,%edi
  404a8c:	39 c6                	cmp    %eax,%esi
  404a8e:	0f 84 dd 00 00 00    	je     404b71 <_Z12matrix_testsv+0x221>
  404a94:	41 89 f3             	mov    %esi,%r11d
  404a97:	44 8d 56 ff          	lea    -0x1(%rsi),%r10d
  404a9b:	41 89 c5             	mov    %eax,%r13d
  404a9e:	41 29 c3             	sub    %eax,%r11d
  404aa1:	45 8d 43 fc          	lea    -0x4(%r11),%r8d
  404aa5:	41 29 c2             	sub    %eax,%r10d
  404aa8:	41 c1 e8 02          	shr    $0x2,%r8d
  404aac:	41 83 c0 01          	add    $0x1,%r8d
  404ab0:	41 83 fa 02          	cmp    $0x2,%r10d
  404ab4:	46 8d 24 85 00 00 00 	lea    0x0(,%r8,4),%r12d
  404abb:	00 
  404abc:	0f 86 8e 00 00 00    	jbe    404b50 <_Z12matrix_testsv+0x200>
  404ac2:	4a 8d 04 a9          	lea    (%rcx,%r13,4),%rax
  404ac6:	66 0f 6f 05 72 59 00 	movdqa 0x5972(%rip),%xmm0        # 40a440 <_ZTV6bufferId15CPU_MATHEMATICSS_IdS0_10continuousIdS0_ES2_N9Operation3addIdEEES2_S5_E+0x90>
  404acd:	00 
  404ace:	45 31 d2             	xor    %r10d,%r10d
  404ad1:	66 0f 6f 08          	movdqa (%rax),%xmm1
  404ad5:	66 0f 6f d0          	movdqa %xmm0,%xmm2
  404ad9:	66 0f 73 d0 20       	psrlq  $0x20,%xmm0
  404ade:	41 83 c2 01          	add    $0x1,%r10d
  404ae2:	48 83 c0 10          	add    $0x10,%rax
  404ae6:	66 0f f4 50 f0       	pmuludq -0x10(%rax),%xmm2
  404aeb:	66 0f 73 d1 20       	psrlq  $0x20,%xmm1
  404af0:	66 0f f4 c8          	pmuludq %xmm0,%xmm1
  404af4:	66 0f 70 c2 08       	pshufd $0x8,%xmm2,%xmm0
  404af9:	45 39 c2             	cmp    %r8d,%r10d
  404afc:	66 0f 70 c9 08       	pshufd $0x8,%xmm1,%xmm1
  404b01:	66 0f 62 c1          	punpckldq %xmm1,%xmm0
  404b05:	72 ca                	jb     404ad1 <_Z12matrix_testsv+0x181>
  404b07:	66 0f 6f c8          	movdqa %xmm0,%xmm1
  404b0b:	44 01 e7             	add    %r12d,%edi
  404b0e:	66 0f 6f d0          	movdqa %xmm0,%xmm2
  404b12:	66 0f 73 d0 20       	psrlq  $0x20,%xmm0
  404b17:	66 0f 73 d9 08       	psrldq $0x8,%xmm1
  404b1c:	66 0f f4 d1          	pmuludq %xmm1,%xmm2
  404b20:	66 0f 73 d1 20       	psrlq  $0x20,%xmm1
  404b25:	66 0f f4 c1          	pmuludq %xmm1,%xmm0
  404b29:	66 0f 70 ca 08       	pshufd $0x8,%xmm2,%xmm1
  404b2e:	66 0f 70 c0 08       	pshufd $0x8,%xmm0,%xmm0
  404b33:	66 0f 62 c8          	punpckldq %xmm0,%xmm1
  404b37:	66 0f 6f c1          	movdqa %xmm1,%xmm0
  404b3b:	66 0f 73 d9 04       	psrldq $0x4,%xmm1
  404b40:	66 0f f4 c1          	pmuludq %xmm1,%xmm0
  404b44:	66 0f 7e c0          	movd   %xmm0,%eax
  404b48:	0f af d0             	imul   %eax,%edx
  404b4b:	45 39 e3             	cmp    %r12d,%r11d
  404b4e:	74 21                	je     404b71 <_Z12matrix_testsv+0x221>
  404b50:	48 63 c7             	movslq %edi,%rax
  404b53:	0f af 14 81          	imul   (%rcx,%rax,4),%edx
  404b57:	8d 47 01             	lea    0x1(%rdi),%eax
  404b5a:	39 c6                	cmp    %eax,%esi
  404b5c:	7e 13                	jle    404b71 <_Z12matrix_testsv+0x221>
  404b5e:	48 98                	cltq   
  404b60:	0f af 14 81          	imul   (%rcx,%rax,4),%edx
  404b64:	8d 47 02             	lea    0x2(%rdi),%eax
  404b67:	39 c6                	cmp    %eax,%esi
  404b69:	7e 06                	jle    404b71 <_Z12matrix_testsv+0x221>
  404b6b:	48 98                	cltq   
  404b6d:	0f af 14 81          	imul   (%rcx,%rax,4),%edx
  404b71:	41 89 11             	mov    %edx,(%r9)
  404b74:	48 63 44 24 70       	movslq 0x70(%rsp),%rax
  404b79:	48 63 3c 81          	movslq (%rcx,%rax,4),%rdi
  404b7d:	48 b8 00 00 00 00 00 	movabs $0x1fc0000000000000,%rax
  404b84:	00 c0 1f 
  404b87:	48 39 c7             	cmp    %rax,%rdi
  404b8a:	0f 87 ca 0f 00 00    	ja     405b5a <_Z12matrix_testsv+0x120a>
  404b90:	48 c1 e7 02          	shl    $0x2,%rdi
  404b94:	e8 07 c8 ff ff       	callq  4013a0 <_Znam@plt>
  404b99:	48 63 74 24 70       	movslq 0x70(%rsp),%rsi
  404b9e:	48 8b 4c 24 68       	mov    0x68(%rsp),%rcx
  404ba3:	bf f0 18 40 00       	mov    $0x4018f0,%edi
  404ba8:	48 89 44 24 60       	mov    %rax,0x60(%rsp)
  404bad:	c6 44 24 78 01       	movb   $0x1,0x78(%rsp)
  404bb2:	c6 44 24 79 01       	movb   $0x1,0x79(%rsp)
  404bb7:	48 c7 44 24 50 20 a0 	movq   $0x40a020,0x50(%rsp)
  404bbe:	40 00 
  404bc0:	48 89 f2             	mov    %rsi,%rdx
  404bc3:	8b 34 b1             	mov    (%rcx,%rsi,4),%esi
  404bc6:	48 89 8c 24 f0 00 00 	mov    %rcx,0xf0(%rsp)
  404bcd:	00 
  404bce:	89 94 24 f8 00 00 00 	mov    %edx,0xf8(%rsp)
  404bd5:	31 c9                	xor    %ecx,%ecx
  404bd7:	31 d2                	xor    %edx,%edx
  404bd9:	48 89 84 24 e8 00 00 	mov    %rax,0xe8(%rsp)
  404be0:	00 
  404be1:	48 c7 84 24 e0 00 00 	movq   $0x409d40,0xe0(%rsp)
  404be8:	00 40 9d 40 00 
  404bed:	89 b4 24 c0 00 00 00 	mov    %esi,0xc0(%rsp)
  404bf4:	48 8d b4 24 b0 00 00 	lea    0xb0(%rsp),%rsi
  404bfb:	00 
  404bfc:	48 89 9c 24 b0 00 00 	mov    %rbx,0xb0(%rsp)
  404c03:	00 
  404c04:	c7 84 24 b8 00 00 00 	movl   $0xbf800000,0xb8(%rsp)
  404c0b:	00 00 80 bf 
  404c0f:	c7 84 24 bc 00 00 00 	movl   $0x3f800000,0xbc(%rsp)
  404c16:	00 00 80 3f 
  404c1a:	e8 01 c9 ff ff       	callq  401520 <GOMP_parallel@plt>
  404c1f:	e8 9c c9 ff ff       	callq  4015c0 <GOMP_barrier@plt>
  404c24:	48 8d 7c 24 50       	lea    0x50(%rsp),%rdi
  404c29:	e8 12 42 00 00       	callq  408e40 <_ZNK11Tensor_JackIf15CPU_MATHEMATICS10continuousIfS0_EE5printEv>
  404c2e:	48 8b 44 24 60       	mov    0x60(%rsp),%rax
  404c33:	48 89 df             	mov    %rbx,%rdi
  404c36:	48 c7 84 24 e8 00 00 	movq   $0x40a060,0xe8(%rsp)
  404c3d:	00 60 a0 40 00 
  404c42:	48 c7 84 24 f0 00 00 	movq   $0x40a0e0,0xf0(%rsp)
  404c49:	00 e0 a0 40 00 
  404c4e:	c6 84 24 00 01 00 00 	movb   $0x0,0x100(%rsp)
  404c55:	00 
  404c56:	c6 84 24 01 01 00 00 	movb   $0x0,0x101(%rsp)
  404c5d:	00 
  404c5e:	48 c7 84 24 e0 00 00 	movq   $0x40a1a0,0xe0(%rsp)
  404c65:	00 a0 a1 40 00 
  404c6a:	48 89 84 24 f8 00 00 	mov    %rax,0xf8(%rsp)
  404c71:	00 
  404c72:	e8 29 29 00 00       	callq  4075a0 <_ZNK11Tensor_JackIf15CPU_MATHEMATICS23ReferenceScalarAccessorIfS0_EE5printEv>
  404c77:	80 bc 24 00 01 00 00 	cmpb   $0x0,0x100(%rsp)
  404c7e:	00 
  404c7f:	48 c7 84 24 e0 00 00 	movq   $0x40a160,0xe0(%rsp)
  404c86:	00 60 a1 40 00 
  404c8b:	74 12                	je     404c9f <_Z12matrix_testsv+0x34f>
  404c8d:	48 8b bc 24 f8 00 00 	mov    0xf8(%rsp),%rdi
  404c94:	00 
  404c95:	48 85 ff             	test   %rdi,%rdi
  404c98:	74 05                	je     404c9f <_Z12matrix_testsv+0x34f>
  404c9a:	e8 61 c8 ff ff       	callq  401500 <_ZdaPv@plt>
  404c9f:	48 8b 44 24 60       	mov    0x60(%rsp),%rax
  404ca4:	48 89 df             	mov    %rbx,%rdi
  404ca7:	48 c7 84 24 e8 00 00 	movq   $0x40a060,0xe8(%rsp)
  404cae:	00 60 a0 40 00 
  404cb3:	48 c7 84 24 f0 00 00 	movq   $0x40a0e0,0xf0(%rsp)
  404cba:	00 e0 a0 40 00 
  404cbf:	c6 84 24 00 01 00 00 	movb   $0x0,0x100(%rsp)
  404cc6:	00 
  404cc7:	c6 84 24 01 01 00 00 	movb   $0x0,0x101(%rsp)
  404cce:	00 
  404ccf:	48 c7 84 24 e0 00 00 	movq   $0x40a1a0,0xe0(%rsp)
  404cd6:	00 a0 a1 40 00 
  404cdb:	48 83 c0 0c          	add    $0xc,%rax
  404cdf:	48 89 84 24 f8 00 00 	mov    %rax,0xf8(%rsp)
  404ce6:	00 
  404ce7:	e8 b4 28 00 00       	callq  4075a0 <_ZNK11Tensor_JackIf15CPU_MATHEMATICS23ReferenceScalarAccessorIfS0_EE5printEv>
  404cec:	80 bc 24 00 01 00 00 	cmpb   $0x0,0x100(%rsp)
  404cf3:	00 
  404cf4:	48 c7 84 24 e0 00 00 	movq   $0x40a160,0xe0(%rsp)
  404cfb:	00 60 a1 40 00 
  404d00:	74 12                	je     404d14 <_Z12matrix_testsv+0x3c4>
  404d02:	48 8b bc 24 f8 00 00 	mov    0xf8(%rsp),%rdi
  404d09:	00 
  404d0a:	48 85 ff             	test   %rdi,%rdi
  404d0d:	74 05                	je     404d14 <_Z12matrix_testsv+0x3c4>
  404d0f:	e8 ec c7 ff ff       	callq  401500 <_ZdaPv@plt>
  404d14:	48 8d 7c 24 50       	lea    0x50(%rsp),%rdi
  404d19:	e8 22 41 00 00       	callq  408e40 <_ZNK11Tensor_JackIf15CPU_MATHEMATICS10continuousIfS0_EE5printEv>
  404d1e:	48 8b 05 bb 84 20 00 	mov    0x2084bb(%rip),%rax        # 60d1e0 <_ZSt4cout@@GLIBCXX_3.4>
  404d25:	48 8b 40 e8          	mov    -0x18(%rax),%rax
  404d29:	4c 8b a0 d0 d2 60 00 	mov    0x60d2d0(%rax),%r12
  404d30:	4d 85 e4             	test   %r12,%r12
  404d33:	0f 84 2b 0e 00 00    	je     405b64 <_Z12matrix_testsv+0x1214>
  404d39:	41 80 7c 24 38 00    	cmpb   $0x0,0x38(%r12)
  404d3f:	0f 84 1b 0b 00 00    	je     405860 <_Z12matrix_testsv+0xf10>
  404d45:	41 0f be 74 24 43    	movsbl 0x43(%r12),%esi
  404d4b:	bf e0 d1 60 00       	mov    $0x60d1e0,%edi
  404d50:	e8 5b c6 ff ff       	callq  4013b0 <_ZNSo3putEc@plt>
  404d55:	48 89 c7             	mov    %rax,%rdi
  404d58:	e8 c3 c6 ff ff       	callq  401420 <_ZNSo5flushEv@plt>
  404d5d:	bf 0c 00 00 00       	mov    $0xc,%edi
  404d62:	c7 84 24 10 01 00 00 	movl   $0x2,0x110(%rsp)
  404d69:	02 00 00 00 
  404d6d:	c7 84 24 14 01 00 00 	movl   $0x3,0x114(%rsp)
  404d74:	03 00 00 00 
  404d78:	48 c7 84 24 80 00 00 	movq   $0x409db0,0x80(%rsp)
  404d7f:	00 b0 9d 40 00 
  404d84:	48 c7 84 24 88 00 00 	movq   $0x409d40,0x88(%rsp)
  404d8b:	00 40 9d 40 00 
  404d90:	c7 84 24 a0 00 00 00 	movl   $0x2,0xa0(%rsp)
  404d97:	02 00 00 00 
  404d9b:	e8 00 c6 ff ff       	callq  4013a0 <_Znam@plt>
  404da0:	48 89 84 24 98 00 00 	mov    %rax,0x98(%rsp)
  404da7:	00 
  404da8:	48 8d 84 24 98 00 00 	lea    0x98(%rsp),%rax
  404daf:	00 
  404db0:	31 c9                	xor    %ecx,%ecx
  404db2:	31 d2                	xor    %edx,%edx
  404db4:	48 89 de             	mov    %rbx,%rsi
  404db7:	bf 60 17 40 00       	mov    $0x401760,%edi
  404dbc:	48 89 84 24 e0 00 00 	mov    %rax,0xe0(%rsp)
  404dc3:	00 
  404dc4:	48 8d 84 24 10 01 00 	lea    0x110(%rsp),%rax
  404dcb:	00 
  404dcc:	c7 84 24 f0 00 00 00 	movl   $0x2,0xf0(%rsp)
  404dd3:	02 00 00 00 
  404dd7:	48 89 84 24 e8 00 00 	mov    %rax,0xe8(%rsp)
  404dde:	00 
  404ddf:	e8 3c c7 ff ff       	callq  401520 <GOMP_parallel@plt>
  404de4:	e8 d7 c7 ff ff       	callq  4015c0 <GOMP_barrier@plt>
  404de9:	48 63 84 24 a0 00 00 	movslq 0xa0(%rsp),%rax
  404df0:	00 
  404df1:	48 8b 8c 24 98 00 00 	mov    0x98(%rsp),%rcx
  404df8:	00 
  404df9:	85 c0                	test   %eax,%eax
  404dfb:	48 89 c6             	mov    %rax,%rsi
  404dfe:	4c 8d 0c 81          	lea    (%rcx,%rax,4),%r9
  404e02:	0f 8e 78 0b 00 00    	jle    405980 <_Z12matrix_testsv+0x1030>
  404e08:	48 89 c8             	mov    %rcx,%rax
  404e0b:	83 e0 0f             	and    $0xf,%eax
  404e0e:	48 c1 e8 02          	shr    $0x2,%rax
  404e12:	48 f7 d8             	neg    %rax
  404e15:	83 e0 03             	and    $0x3,%eax
  404e18:	39 f0                	cmp    %esi,%eax
  404e1a:	0f 47 c6             	cmova  %esi,%eax
  404e1d:	83 fe 08             	cmp    $0x8,%esi
  404e20:	0f 8f b2 0a 00 00    	jg     4058d8 <_Z12matrix_testsv+0xf88>
  404e26:	89 f0                	mov    %esi,%eax
  404e28:	83 f8 01             	cmp    $0x1,%eax
  404e2b:	8b 11                	mov    (%rcx),%edx
  404e2d:	0f 84 ad 0b 00 00    	je     4059e0 <_Z12matrix_testsv+0x1090>
  404e33:	0f af 51 04          	imul   0x4(%rcx),%edx
  404e37:	83 f8 02             	cmp    $0x2,%eax
  404e3a:	0f 84 b0 0b 00 00    	je     4059f0 <_Z12matrix_testsv+0x10a0>
  404e40:	0f af 51 08          	imul   0x8(%rcx),%edx
  404e44:	83 f8 03             	cmp    $0x3,%eax
  404e47:	0f 84 93 0c 00 00    	je     405ae0 <_Z12matrix_testsv+0x1190>
  404e4d:	0f af 51 0c          	imul   0xc(%rcx),%edx
  404e51:	83 f8 04             	cmp    $0x4,%eax
  404e54:	0f 84 96 0c 00 00    	je     405af0 <_Z12matrix_testsv+0x11a0>
  404e5a:	0f af 51 10          	imul   0x10(%rcx),%edx
  404e5e:	83 f8 05             	cmp    $0x5,%eax
  404e61:	0f 84 99 0c 00 00    	je     405b00 <_Z12matrix_testsv+0x11b0>
  404e67:	0f af 51 14          	imul   0x14(%rcx),%edx
  404e6b:	83 f8 06             	cmp    $0x6,%eax
  404e6e:	0f 84 9c 0c 00 00    	je     405b10 <_Z12matrix_testsv+0x11c0>
  404e74:	0f af 51 18          	imul   0x18(%rcx),%edx
  404e78:	83 f8 07             	cmp    $0x7,%eax
  404e7b:	0f 84 9f 0c 00 00    	je     405b20 <_Z12matrix_testsv+0x11d0>
  404e81:	0f af 51 1c          	imul   0x1c(%rcx),%edx
  404e85:	bf 08 00 00 00       	mov    $0x8,%edi
  404e8a:	39 f0                	cmp    %esi,%eax
  404e8c:	0f 84 dd 00 00 00    	je     404f6f <_Z12matrix_testsv+0x61f>
  404e92:	41 89 f3             	mov    %esi,%r11d
  404e95:	44 8d 56 ff          	lea    -0x1(%rsi),%r10d
  404e99:	41 89 c5             	mov    %eax,%r13d
  404e9c:	41 29 c3             	sub    %eax,%r11d
  404e9f:	45 8d 43 fc          	lea    -0x4(%r11),%r8d
  404ea3:	41 29 c2             	sub    %eax,%r10d
  404ea6:	41 c1 e8 02          	shr    $0x2,%r8d
  404eaa:	41 83 c0 01          	add    $0x1,%r8d
  404eae:	41 83 fa 02          	cmp    $0x2,%r10d
  404eb2:	46 8d 24 85 00 00 00 	lea    0x0(,%r8,4),%r12d
  404eb9:	00 
  404eba:	0f 86 8e 00 00 00    	jbe    404f4e <_Z12matrix_testsv+0x5fe>
  404ec0:	4a 8d 04 a9          	lea    (%rcx,%r13,4),%rax
  404ec4:	66 0f 6f 05 74 55 00 	movdqa 0x5574(%rip),%xmm0        # 40a440 <_ZTV6bufferId15CPU_MATHEMATICSS_IdS0_10continuousIdS0_ES2_N9Operation3addIdEEES2_S5_E+0x90>
  404ecb:	00 
  404ecc:	45 31 d2             	xor    %r10d,%r10d
  404ecf:	66 0f 6f 08          	movdqa (%rax),%xmm1
  404ed3:	66 0f 6f d0          	movdqa %xmm0,%xmm2
  404ed7:	66 0f 73 d0 20       	psrlq  $0x20,%xmm0
  404edc:	41 83 c2 01          	add    $0x1,%r10d
  404ee0:	48 83 c0 10          	add    $0x10,%rax
  404ee4:	66 0f f4 50 f0       	pmuludq -0x10(%rax),%xmm2
  404ee9:	66 0f 73 d1 20       	psrlq  $0x20,%xmm1
  404eee:	66 0f f4 c8          	pmuludq %xmm0,%xmm1
  404ef2:	66 0f 70 c2 08       	pshufd $0x8,%xmm2,%xmm0
  404ef7:	45 39 c2             	cmp    %r8d,%r10d
  404efa:	66 0f 70 c9 08       	pshufd $0x8,%xmm1,%xmm1
  404eff:	66 0f 62 c1          	punpckldq %xmm1,%xmm0
  404f03:	72 ca                	jb     404ecf <_Z12matrix_testsv+0x57f>
  404f05:	66 0f 6f c8          	movdqa %xmm0,%xmm1
  404f09:	44 01 e7             	add    %r12d,%edi
  404f0c:	66 0f 6f d0          	movdqa %xmm0,%xmm2
  404f10:	66 0f 73 d0 20       	psrlq  $0x20,%xmm0
  404f15:	66 0f 73 d9 08       	psrldq $0x8,%xmm1
  404f1a:	66 0f f4 d1          	pmuludq %xmm1,%xmm2
  404f1e:	66 0f 73 d1 20       	psrlq  $0x20,%xmm1
  404f23:	66 0f f4 c1          	pmuludq %xmm1,%xmm0
  404f27:	66 0f 70 ca 08       	pshufd $0x8,%xmm2,%xmm1
  404f2c:	66 0f 70 c0 08       	pshufd $0x8,%xmm0,%xmm0
  404f31:	66 0f 62 c8          	punpckldq %xmm0,%xmm1
  404f35:	66 0f 6f c1          	movdqa %xmm1,%xmm0
  404f39:	66 0f 73 d9 04       	psrldq $0x4,%xmm1
  404f3e:	66 0f f4 c1          	pmuludq %xmm1,%xmm0
  404f42:	66 0f 7e c0          	movd   %xmm0,%eax
  404f46:	0f af d0             	imul   %eax,%edx
  404f49:	45 39 e3             	cmp    %r12d,%r11d
  404f4c:	74 21                	je     404f6f <_Z12matrix_testsv+0x61f>
  404f4e:	48 63 c7             	movslq %edi,%rax
  404f51:	0f af 14 81          	imul   (%rcx,%rax,4),%edx
  404f55:	8d 47 01             	lea    0x1(%rdi),%eax
  404f58:	39 c6                	cmp    %eax,%esi
  404f5a:	7e 13                	jle    404f6f <_Z12matrix_testsv+0x61f>
  404f5c:	48 98                	cltq   
  404f5e:	0f af 14 81          	imul   (%rcx,%rax,4),%edx
  404f62:	8d 47 02             	lea    0x2(%rdi),%eax
  404f65:	39 c6                	cmp    %eax,%esi
  404f67:	7e 06                	jle    404f6f <_Z12matrix_testsv+0x61f>
  404f69:	48 98                	cltq   
  404f6b:	0f af 14 81          	imul   (%rcx,%rax,4),%edx
  404f6f:	41 89 11             	mov    %edx,(%r9)
  404f72:	48 63 84 24 a0 00 00 	movslq 0xa0(%rsp),%rax
  404f79:	00 
  404f7a:	48 63 3c 81          	movslq (%rcx,%rax,4),%rdi
  404f7e:	48 b8 00 00 00 00 00 	movabs $0x1fc0000000000000,%rax
  404f85:	00 c0 1f 
  404f88:	48 39 c7             	cmp    %rax,%rdi
  404f8b:	0f 87 ce 0b 00 00    	ja     405b5f <_Z12matrix_testsv+0x120f>
  404f91:	48 c1 e7 02          	shl    $0x2,%rdi
  404f95:	e8 06 c4 ff ff       	callq  4013a0 <_Znam@plt>
  404f9a:	bf 0c 00 00 00       	mov    $0xc,%edi
  404f9f:	48 89 84 24 90 00 00 	mov    %rax,0x90(%rsp)
  404fa6:	00 
  404fa7:	c6 84 24 a8 00 00 00 	movb   $0x1,0xa8(%rsp)
  404fae:	01 
  404faf:	c6 84 24 a9 00 00 00 	movb   $0x1,0xa9(%rsp)
  404fb6:	01 
  404fb7:	48 c7 84 24 80 00 00 	movq   $0x40a1e0,0x80(%rsp)
  404fbe:	00 e0 a1 40 00 
  404fc3:	c7 84 24 20 01 00 00 	movl   $0x3,0x120(%rsp)
  404fca:	03 00 00 00 
  404fce:	c7 84 24 24 01 00 00 	movl   $0x2,0x124(%rsp)
  404fd5:	02 00 00 00 
  404fd9:	48 c7 84 24 b0 00 00 	movq   $0x409db0,0xb0(%rsp)
  404fe0:	00 b0 9d 40 00 
  404fe5:	48 c7 84 24 b8 00 00 	movq   $0x409d40,0xb8(%rsp)
  404fec:	00 40 9d 40 00 
  404ff1:	c7 84 24 d0 00 00 00 	movl   $0x2,0xd0(%rsp)
  404ff8:	02 00 00 00 
  404ffc:	e8 9f c3 ff ff       	callq  4013a0 <_Znam@plt>
  405001:	48 89 84 24 c8 00 00 	mov    %rax,0xc8(%rsp)
  405008:	00 
  405009:	48 8d 84 24 c8 00 00 	lea    0xc8(%rsp),%rax
  405010:	00 
  405011:	31 c9                	xor    %ecx,%ecx
  405013:	31 d2                	xor    %edx,%edx
  405015:	48 89 de             	mov    %rbx,%rsi
  405018:	bf 60 17 40 00       	mov    $0x401760,%edi
  40501d:	48 89 84 24 e0 00 00 	mov    %rax,0xe0(%rsp)
  405024:	00 
  405025:	48 8d 84 24 20 01 00 	lea    0x120(%rsp),%rax
  40502c:	00 
  40502d:	c7 84 24 f0 00 00 00 	movl   $0x2,0xf0(%rsp)
  405034:	02 00 00 00 
  405038:	48 89 84 24 e8 00 00 	mov    %rax,0xe8(%rsp)
  40503f:	00 
  405040:	e8 db c4 ff ff       	callq  401520 <GOMP_parallel@plt>
  405045:	e8 76 c5 ff ff       	callq  4015c0 <GOMP_barrier@plt>
  40504a:	48 63 84 24 d0 00 00 	movslq 0xd0(%rsp),%rax
  405051:	00 
  405052:	48 8b 8c 24 c8 00 00 	mov    0xc8(%rsp),%rcx
  405059:	00 
  40505a:	85 c0                	test   %eax,%eax
  40505c:	48 89 c6             	mov    %rax,%rsi
  40505f:	4c 8d 04 81          	lea    (%rcx,%rax,4),%r8
  405063:	0f 8e f7 08 00 00    	jle    405960 <_Z12matrix_testsv+0x1010>
  405069:	48 89 c8             	mov    %rcx,%rax
  40506c:	83 e0 0f             	and    $0xf,%eax
  40506f:	48 c1 e8 02          	shr    $0x2,%rax
  405073:	48 f7 d8             	neg    %rax
  405076:	83 e0 03             	and    $0x3,%eax
  405079:	39 f0                	cmp    %esi,%eax
  40507b:	0f 47 c6             	cmova  %esi,%eax
  40507e:	83 fe 08             	cmp    $0x8,%esi
  405081:	0f 8f 81 08 00 00    	jg     405908 <_Z12matrix_testsv+0xfb8>
  405087:	89 f0                	mov    %esi,%eax
  405089:	83 f8 01             	cmp    $0x1,%eax
  40508c:	8b 11                	mov    (%rcx),%edx
  40508e:	0f 84 6c 09 00 00    	je     405a00 <_Z12matrix_testsv+0x10b0>
  405094:	0f af 51 04          	imul   0x4(%rcx),%edx
  405098:	83 f8 02             	cmp    $0x2,%eax
  40509b:	0f 84 6f 09 00 00    	je     405a10 <_Z12matrix_testsv+0x10c0>
  4050a1:	0f af 51 08          	imul   0x8(%rcx),%edx
  4050a5:	83 f8 03             	cmp    $0x3,%eax
  4050a8:	0f 84 72 09 00 00    	je     405a20 <_Z12matrix_testsv+0x10d0>
  4050ae:	0f af 51 0c          	imul   0xc(%rcx),%edx
  4050b2:	83 f8 04             	cmp    $0x4,%eax
  4050b5:	0f 84 75 09 00 00    	je     405a30 <_Z12matrix_testsv+0x10e0>
  4050bb:	0f af 51 10          	imul   0x10(%rcx),%edx
  4050bf:	83 f8 05             	cmp    $0x5,%eax
  4050c2:	0f 84 78 09 00 00    	je     405a40 <_Z12matrix_testsv+0x10f0>
  4050c8:	0f af 51 14          	imul   0x14(%rcx),%edx
  4050cc:	83 f8 06             	cmp    $0x6,%eax
  4050cf:	0f 84 7b 09 00 00    	je     405a50 <_Z12matrix_testsv+0x1100>
  4050d5:	0f af 51 18          	imul   0x18(%rcx),%edx
  4050d9:	83 f8 07             	cmp    $0x7,%eax
  4050dc:	0f 84 de 08 00 00    	je     4059c0 <_Z12matrix_testsv+0x1070>
  4050e2:	0f af 51 1c          	imul   0x1c(%rcx),%edx
  4050e6:	bf 08 00 00 00       	mov    $0x8,%edi
  4050eb:	39 c6                	cmp    %eax,%esi
  4050ed:	0f 84 dd 00 00 00    	je     4051d0 <_Z12matrix_testsv+0x880>
  4050f3:	41 89 f3             	mov    %esi,%r11d
  4050f6:	44 8d 56 ff          	lea    -0x1(%rsi),%r10d
  4050fa:	41 89 c5             	mov    %eax,%r13d
  4050fd:	41 29 c3             	sub    %eax,%r11d
  405100:	45 8d 4b fc          	lea    -0x4(%r11),%r9d
  405104:	41 29 c2             	sub    %eax,%r10d
  405107:	41 c1 e9 02          	shr    $0x2,%r9d
  40510b:	41 83 c1 01          	add    $0x1,%r9d
  40510f:	41 83 fa 02          	cmp    $0x2,%r10d
  405113:	46 8d 24 8d 00 00 00 	lea    0x0(,%r9,4),%r12d
  40511a:	00 
  40511b:	0f 86 8e 00 00 00    	jbe    4051af <_Z12matrix_testsv+0x85f>
  405121:	4a 8d 04 a9          	lea    (%rcx,%r13,4),%rax
  405125:	66 0f 6f 05 13 53 00 	movdqa 0x5313(%rip),%xmm0        # 40a440 <_ZTV6bufferId15CPU_MATHEMATICSS_IdS0_10continuousIdS0_ES2_N9Operation3addIdEEES2_S5_E+0x90>
  40512c:	00 
  40512d:	45 31 d2             	xor    %r10d,%r10d
  405130:	66 0f 6f 08          	movdqa (%rax),%xmm1
  405134:	66 0f 6f d0          	movdqa %xmm0,%xmm2
  405138:	66 0f 73 d0 20       	psrlq  $0x20,%xmm0
  40513d:	41 83 c2 01          	add    $0x1,%r10d
  405141:	48 83 c0 10          	add    $0x10,%rax
  405145:	66 0f f4 50 f0       	pmuludq -0x10(%rax),%xmm2
  40514a:	66 0f 73 d1 20       	psrlq  $0x20,%xmm1
  40514f:	66 0f f4 c8          	pmuludq %xmm0,%xmm1
  405153:	66 0f 70 c2 08       	pshufd $0x8,%xmm2,%xmm0
  405158:	45 39 d1             	cmp    %r10d,%r9d
  40515b:	66 0f 70 c9 08       	pshufd $0x8,%xmm1,%xmm1
  405160:	66 0f 62 c1          	punpckldq %xmm1,%xmm0
  405164:	77 ca                	ja     405130 <_Z12matrix_testsv+0x7e0>
  405166:	66 0f 6f d0          	movdqa %xmm0,%xmm2
  40516a:	44 01 e7             	add    %r12d,%edi
  40516d:	66 0f 6f c8          	movdqa %xmm0,%xmm1
  405171:	66 0f 73 d0 20       	psrlq  $0x20,%xmm0
  405176:	66 0f 73 da 08       	psrldq $0x8,%xmm2
  40517b:	66 0f f4 ca          	pmuludq %xmm2,%xmm1
  40517f:	66 0f 73 d2 20       	psrlq  $0x20,%xmm2
  405184:	66 0f 70 c9 08       	pshufd $0x8,%xmm1,%xmm1
  405189:	66 0f f4 c2          	pmuludq %xmm2,%xmm0
  40518d:	66 0f 70 c0 08       	pshufd $0x8,%xmm0,%xmm0
  405192:	66 0f 62 c8          	punpckldq %xmm0,%xmm1
  405196:	66 0f 6f c1          	movdqa %xmm1,%xmm0
  40519a:	66 0f 73 d9 04       	psrldq $0x4,%xmm1
  40519f:	66 0f f4 c1          	pmuludq %xmm1,%xmm0
  4051a3:	66 0f 7e c0          	movd   %xmm0,%eax
  4051a7:	0f af d0             	imul   %eax,%edx
  4051aa:	45 39 e3             	cmp    %r12d,%r11d
  4051ad:	74 21                	je     4051d0 <_Z12matrix_testsv+0x880>
  4051af:	48 63 c7             	movslq %edi,%rax
  4051b2:	0f af 14 81          	imul   (%rcx,%rax,4),%edx
  4051b6:	8d 47 01             	lea    0x1(%rdi),%eax
  4051b9:	39 c6                	cmp    %eax,%esi
  4051bb:	7e 13                	jle    4051d0 <_Z12matrix_testsv+0x880>
  4051bd:	48 98                	cltq   
  4051bf:	0f af 14 81          	imul   (%rcx,%rax,4),%edx
  4051c3:	8d 47 02             	lea    0x2(%rdi),%eax
  4051c6:	39 c6                	cmp    %eax,%esi
  4051c8:	7e 06                	jle    4051d0 <_Z12matrix_testsv+0x880>
  4051ca:	48 98                	cltq   
  4051cc:	0f af 14 81          	imul   (%rcx,%rax,4),%edx
  4051d0:	41 89 10             	mov    %edx,(%r8)
  4051d3:	48 63 84 24 d0 00 00 	movslq 0xd0(%rsp),%rax
  4051da:	00 
  4051db:	48 63 3c 81          	movslq (%rcx,%rax,4),%rdi
  4051df:	48 b8 00 00 00 00 00 	movabs $0x1fc0000000000000,%rax
  4051e6:	00 c0 1f 
  4051e9:	48 39 c7             	cmp    %rax,%rdi
  4051ec:	0f 87 f4 09 00 00    	ja     405be6 <_Z12matrix_testsv+0x1296>
  4051f2:	48 c1 e7 02          	shl    $0x2,%rdi
  4051f6:	e8 a5 c1 ff ff       	callq  4013a0 <_Znam@plt>
  4051fb:	bf 0c 00 00 00       	mov    $0xc,%edi
  405200:	48 89 84 24 c0 00 00 	mov    %rax,0xc0(%rsp)
  405207:	00 
  405208:	c6 84 24 d8 00 00 00 	movb   $0x1,0xd8(%rsp)
  40520f:	01 
  405210:	c6 84 24 d9 00 00 00 	movb   $0x1,0xd9(%rsp)
  405217:	01 
  405218:	48 c7 84 24 b0 00 00 	movq   $0x40a1e0,0xb0(%rsp)
  40521f:	00 e0 a1 40 00 
  405224:	c7 84 24 30 01 00 00 	movl   $0x2,0x130(%rsp)
  40522b:	02 00 00 00 
  40522f:	c7 84 24 34 01 00 00 	movl   $0x2,0x134(%rsp)
  405236:	02 00 00 00 
  40523a:	48 c7 84 24 e0 00 00 	movq   $0x409db0,0xe0(%rsp)
  405241:	00 b0 9d 40 00 
  405246:	48 c7 84 24 e8 00 00 	movq   $0x409d40,0xe8(%rsp)
  40524d:	00 40 9d 40 00 
  405252:	c7 84 24 00 01 00 00 	movl   $0x2,0x100(%rsp)
  405259:	02 00 00 00 
  40525d:	e8 3e c1 ff ff       	callq  4013a0 <_Znam@plt>
  405262:	48 89 6c 24 38       	mov    %rbp,0x38(%rsp)
  405267:	48 8d 6c 24 30       	lea    0x30(%rsp),%rbp
  40526c:	48 89 84 24 f8 00 00 	mov    %rax,0xf8(%rsp)
  405273:	00 
  405274:	48 8d 43 18          	lea    0x18(%rbx),%rax
  405278:	31 c9                	xor    %ecx,%ecx
  40527a:	31 d2                	xor    %edx,%edx
  40527c:	48 89 ee             	mov    %rbp,%rsi
  40527f:	bf 60 17 40 00       	mov    $0x401760,%edi
  405284:	c7 44 24 40 02 00 00 	movl   $0x2,0x40(%rsp)
  40528b:	00 
  40528c:	48 89 44 24 30       	mov    %rax,0x30(%rsp)
  405291:	e8 8a c2 ff ff       	callq  401520 <GOMP_parallel@plt>
  405296:	e8 25 c3 ff ff       	callq  4015c0 <GOMP_barrier@plt>
  40529b:	48 63 84 24 00 01 00 	movslq 0x100(%rsp),%rax
  4052a2:	00 
  4052a3:	48 8b 8c 24 f8 00 00 	mov    0xf8(%rsp),%rcx
  4052aa:	00 
  4052ab:	85 c0                	test   %eax,%eax
  4052ad:	48 89 c6             	mov    %rax,%rsi
  4052b0:	4c 8d 04 81          	lea    (%rcx,%rax,4),%r8
  4052b4:	0f 8e b6 06 00 00    	jle    405970 <_Z12matrix_testsv+0x1020>
  4052ba:	48 89 c8             	mov    %rcx,%rax
  4052bd:	83 e0 0f             	and    $0xf,%eax
  4052c0:	48 c1 e8 02          	shr    $0x2,%rax
  4052c4:	48 f7 d8             	neg    %rax
  4052c7:	83 e0 03             	and    $0x3,%eax
  4052ca:	39 f0                	cmp    %esi,%eax
  4052cc:	0f 47 c6             	cmova  %esi,%eax
  4052cf:	83 fe 08             	cmp    $0x8,%esi
  4052d2:	0f 8f 18 06 00 00    	jg     4058f0 <_Z12matrix_testsv+0xfa0>
  4052d8:	89 f0                	mov    %esi,%eax
  4052da:	83 f8 01             	cmp    $0x1,%eax
  4052dd:	8b 11                	mov    (%rcx),%edx
  4052df:	0f 84 5b 08 00 00    	je     405b40 <_Z12matrix_testsv+0x11f0>
  4052e5:	0f af 51 04          	imul   0x4(%rcx),%edx
  4052e9:	83 f8 02             	cmp    $0x2,%eax
  4052ec:	0f 84 5e 08 00 00    	je     405b50 <_Z12matrix_testsv+0x1200>
  4052f2:	0f af 51 08          	imul   0x8(%rcx),%edx
  4052f6:	83 f8 03             	cmp    $0x3,%eax
  4052f9:	0f 84 81 07 00 00    	je     405a80 <_Z12matrix_testsv+0x1130>
  4052ff:	0f af 51 0c          	imul   0xc(%rcx),%edx
  405303:	83 f8 04             	cmp    $0x4,%eax
  405306:	0f 84 84 07 00 00    	je     405a90 <_Z12matrix_testsv+0x1140>
  40530c:	0f af 51 10          	imul   0x10(%rcx),%edx
  405310:	83 f8 05             	cmp    $0x5,%eax
  405313:	0f 84 87 07 00 00    	je     405aa0 <_Z12matrix_testsv+0x1150>
  405319:	0f af 51 14          	imul   0x14(%rcx),%edx
  40531d:	83 f8 06             	cmp    $0x6,%eax
  405320:	0f 84 8a 07 00 00    	je     405ab0 <_Z12matrix_testsv+0x1160>
  405326:	0f af 51 18          	imul   0x18(%rcx),%edx
  40532a:	83 f8 07             	cmp    $0x7,%eax
  40532d:	0f 84 9d 06 00 00    	je     4059d0 <_Z12matrix_testsv+0x1080>
  405333:	0f af 51 1c          	imul   0x1c(%rcx),%edx
  405337:	bf 08 00 00 00       	mov    $0x8,%edi
  40533c:	39 c6                	cmp    %eax,%esi
  40533e:	0f 84 dd 00 00 00    	je     405421 <_Z12matrix_testsv+0xad1>
  405344:	41 89 f3             	mov    %esi,%r11d
  405347:	44 8d 56 ff          	lea    -0x1(%rsi),%r10d
  40534b:	41 89 c5             	mov    %eax,%r13d
  40534e:	41 29 c3             	sub    %eax,%r11d
  405351:	45 8d 4b fc          	lea    -0x4(%r11),%r9d
  405355:	41 29 c2             	sub    %eax,%r10d
  405358:	41 c1 e9 02          	shr    $0x2,%r9d
  40535c:	41 83 c1 01          	add    $0x1,%r9d
  405360:	41 83 fa 02          	cmp    $0x2,%r10d
  405364:	46 8d 24 8d 00 00 00 	lea    0x0(,%r9,4),%r12d
  40536b:	00 
  40536c:	0f 86 8e 00 00 00    	jbe    405400 <_Z12matrix_testsv+0xab0>
  405372:	4a 8d 04 a9          	lea    (%rcx,%r13,4),%rax
  405376:	66 0f 6f 05 c2 50 00 	movdqa 0x50c2(%rip),%xmm0        # 40a440 <_ZTV6bufferId15CPU_MATHEMATICSS_IdS0_10continuousIdS0_ES2_N9Operation3addIdEEES2_S5_E+0x90>
  40537d:	00 
  40537e:	45 31 d2             	xor    %r10d,%r10d
  405381:	66 0f 6f 08          	movdqa (%rax),%xmm1
  405385:	66 0f 6f d0          	movdqa %xmm0,%xmm2
  405389:	66 0f 73 d0 20       	psrlq  $0x20,%xmm0
  40538e:	41 83 c2 01          	add    $0x1,%r10d
  405392:	48 83 c0 10          	add    $0x10,%rax
  405396:	66 0f f4 50 f0       	pmuludq -0x10(%rax),%xmm2
  40539b:	66 0f 73 d1 20       	psrlq  $0x20,%xmm1
  4053a0:	66 0f f4 c8          	pmuludq %xmm0,%xmm1
  4053a4:	66 0f 70 c2 08       	pshufd $0x8,%xmm2,%xmm0
  4053a9:	45 39 d1             	cmp    %r10d,%r9d
  4053ac:	66 0f 70 c9 08       	pshufd $0x8,%xmm1,%xmm1
  4053b1:	66 0f 62 c1          	punpckldq %xmm1,%xmm0
  4053b5:	77 ca                	ja     405381 <_Z12matrix_testsv+0xa31>
  4053b7:	66 0f 6f d0          	movdqa %xmm0,%xmm2
  4053bb:	44 01 e7             	add    %r12d,%edi
  4053be:	66 0f 6f c8          	movdqa %xmm0,%xmm1
  4053c2:	66 0f 73 d0 20       	psrlq  $0x20,%xmm0
  4053c7:	66 0f 73 da 08       	psrldq $0x8,%xmm2
  4053cc:	66 0f f4 ca          	pmuludq %xmm2,%xmm1
  4053d0:	66 0f 73 d2 20       	psrlq  $0x20,%xmm2
  4053d5:	66 0f 70 c9 08       	pshufd $0x8,%xmm1,%xmm1
  4053da:	66 0f f4 c2          	pmuludq %xmm2,%xmm0
  4053de:	66 0f 70 c0 08       	pshufd $0x8,%xmm0,%xmm0
  4053e3:	66 0f 62 c8          	punpckldq %xmm0,%xmm1
  4053e7:	66 0f 6f c1          	movdqa %xmm1,%xmm0
  4053eb:	66 0f 73 d9 04       	psrldq $0x4,%xmm1
  4053f0:	66 0f f4 c1          	pmuludq %xmm1,%xmm0
  4053f4:	66 0f 7e c0          	movd   %xmm0,%eax
  4053f8:	0f af d0             	imul   %eax,%edx
  4053fb:	45 39 dc             	cmp    %r11d,%r12d
  4053fe:	74 21                	je     405421 <_Z12matrix_testsv+0xad1>
  405400:	48 63 c7             	movslq %edi,%rax
  405403:	0f af 14 81          	imul   (%rcx,%rax,4),%edx
  405407:	8d 47 01             	lea    0x1(%rdi),%eax
  40540a:	39 c6                	cmp    %eax,%esi
  40540c:	7e 13                	jle    405421 <_Z12matrix_testsv+0xad1>
  40540e:	48 98                	cltq   
  405410:	0f af 14 81          	imul   (%rcx,%rax,4),%edx
  405414:	8d 47 02             	lea    0x2(%rdi),%eax
  405417:	39 c6                	cmp    %eax,%esi
  405419:	7e 06                	jle    405421 <_Z12matrix_testsv+0xad1>
  40541b:	48 98                	cltq   
  40541d:	0f af 14 81          	imul   (%rcx,%rax,4),%edx
  405421:	41 89 10             	mov    %edx,(%r8)
  405424:	48 63 84 24 00 01 00 	movslq 0x100(%rsp),%rax
  40542b:	00 
  40542c:	48 63 3c 81          	movslq (%rcx,%rax,4),%rdi
  405430:	48 b8 00 00 00 00 00 	movabs $0x1fc0000000000000,%rax
  405437:	00 c0 1f 
  40543a:	48 39 c7             	cmp    %rax,%rdi
  40543d:	0f 87 67 07 00 00    	ja     405baa <_Z12matrix_testsv+0x125a>
  405443:	48 c1 e7 02          	shl    $0x2,%rdi
  405447:	e8 54 bf ff ff       	callq  4013a0 <_Znam@plt>
  40544c:	48 63 8c 24 a0 00 00 	movslq 0xa0(%rsp),%rcx
  405453:	00 
  405454:	48 8b 94 24 98 00 00 	mov    0x98(%rsp),%rdx
  40545b:	00 
  40545c:	48 89 84 24 f0 00 00 	mov    %rax,0xf0(%rsp)
  405463:	00 
  405464:	c6 84 24 08 01 00 00 	movb   $0x1,0x108(%rsp)
  40546b:	01 
  40546c:	c6 84 24 09 01 00 00 	movb   $0x1,0x109(%rsp)
  405473:	01 
  405474:	48 c7 84 24 e0 00 00 	movq   $0x40a1e0,0xe0(%rsp)
  40547b:	00 e0 a1 40 00 
  405480:	8b 3c 8a             	mov    (%rdx,%rcx,4),%edi
  405483:	85 ff                	test   %edi,%edi
  405485:	0f 8e b6 01 00 00    	jle    405641 <_Z12matrix_testsv+0xcf1>
  40548b:	48 8b b4 24 c0 00 00 	mov    0xc0(%rsp),%rsi
  405492:	00 
  405493:	48 8b 8c 24 90 00 00 	mov    0x90(%rsp),%rcx
  40549a:	00 
  40549b:	48 8d 56 10          	lea    0x10(%rsi),%rdx
  40549f:	48 39 d1             	cmp    %rdx,%rcx
  4054a2:	48 8d 51 10          	lea    0x10(%rcx),%rdx
  4054a6:	41 0f 93 c0          	setae  %r8b
  4054aa:	48 39 d6             	cmp    %rdx,%rsi
  4054ad:	0f 93 c2             	setae  %dl
  4054b0:	41 08 d0             	or     %dl,%r8b
  4054b3:	0f 84 67 04 00 00    	je     405920 <_Z12matrix_testsv+0xfd0>
  4054b9:	83 ff 07             	cmp    $0x7,%edi
  4054bc:	0f 86 5e 04 00 00    	jbe    405920 <_Z12matrix_testsv+0xfd0>
  4054c2:	48 89 ca             	mov    %rcx,%rdx
  4054c5:	83 e2 0f             	and    $0xf,%edx
  4054c8:	48 c1 ea 02          	shr    $0x2,%rdx
  4054cc:	48 f7 da             	neg    %rdx
  4054cf:	83 e2 03             	and    $0x3,%edx
  4054d2:	39 fa                	cmp    %edi,%edx
  4054d4:	48 0f 47 d7          	cmova  %rdi,%rdx
  4054d8:	45 31 c0             	xor    %r8d,%r8d
  4054db:	85 d2                	test   %edx,%edx
  4054dd:	74 44                	je     405523 <_Z12matrix_testsv+0xbd3>
  4054df:	83 fa 01             	cmp    $0x1,%edx
  4054e2:	c7 01 00 00 80 3f    	movl   $0x3f800000,(%rcx)
  4054e8:	41 b8 01 00 00 00    	mov    $0x1,%r8d
  4054ee:	c7 06 00 00 e0 40    	movl   $0x40e00000,(%rsi)
  4054f4:	74 2d                	je     405523 <_Z12matrix_testsv+0xbd3>
  4054f6:	83 fa 03             	cmp    $0x3,%edx
  4054f9:	c7 41 04 00 00 00 40 	movl   $0x40000000,0x4(%rcx)
  405500:	41 b8 02 00 00 00    	mov    $0x2,%r8d
  405506:	c7 46 04 00 00 00 41 	movl   $0x41000000,0x4(%rsi)
  40550d:	75 14                	jne    405523 <_Z12matrix_testsv+0xbd3>
  40550f:	c7 41 08 00 00 40 40 	movl   $0x40400000,0x8(%rcx)
  405516:	41 b8 03 00 00 00    	mov    $0x3,%r8d
  40551c:	c7 46 08 00 00 10 41 	movl   $0x41100000,0x8(%rsi)
  405523:	41 89 fa             	mov    %edi,%r10d
  405526:	44 89 44 24 0c       	mov    %r8d,0xc(%rsp)
  40552b:	45 31 e4             	xor    %r12d,%r12d
  40552e:	41 29 d2             	sub    %edx,%r10d
  405531:	66 0f 6e 74 24 0c    	movd   0xc(%rsp),%xmm6
  405537:	48 c1 e2 02          	shl    $0x2,%rdx
  40553b:	45 8d 4a fc          	lea    -0x4(%r10),%r9d
  40553f:	66 0f 6f 25 f9 4e 00 	movdqa 0x4ef9(%rip),%xmm4        # 40a440 <_ZTV6bufferId15CPU_MATHEMATICSS_IdS0_10continuousIdS0_ES2_N9Operation3addIdEEES2_S5_E+0x90>
  405546:	00 
  405547:	66 0f 70 c6 00       	pshufd $0x0,%xmm6,%xmm0
  40554c:	4c 8d 34 11          	lea    (%rcx,%rdx,1),%r14
  405550:	41 c1 e9 02          	shr    $0x2,%r9d
  405554:	66 0f 6f 1d 04 4f 00 	movdqa 0x4f04(%rip),%xmm3        # 40a460 <_ZTV6bufferId15CPU_MATHEMATICSS_IdS0_10continuousIdS0_ES2_N9Operation3addIdEEES2_S5_E+0xb0>
  40555b:	00 
  40555c:	41 83 c1 01          	add    $0x1,%r9d
  405560:	48 01 f2             	add    %rsi,%rdx
  405563:	45 31 ed             	xor    %r13d,%r13d
  405566:	46 8d 1c 8d 00 00 00 	lea    0x0(,%r9,4),%r11d
  40556d:	00 
  40556e:	66 0f 6f 15 fa 4e 00 	movdqa 0x4efa(%rip),%xmm2        # 40a470 <_ZTV6bufferId15CPU_MATHEMATICSS_IdS0_10continuousIdS0_ES2_N9Operation3addIdEEES2_S5_E+0xc0>
  405575:	00 
  405576:	66 0f fe 05 d2 4e 00 	paddd  0x4ed2(%rip),%xmm0        # 40a450 <_ZTV6bufferId15CPU_MATHEMATICSS_IdS0_10continuousIdS0_ES2_N9Operation3addIdEEES2_S5_E+0xa0>
  40557d:	00 
  40557e:	66 0f 6f c8          	movdqa %xmm0,%xmm1
  405582:	41 83 c5 01          	add    $0x1,%r13d
  405586:	66 0f 6f e8          	movdqa %xmm0,%xmm5
  40558a:	66 0f fe c2          	paddd  %xmm2,%xmm0
  40558e:	0f 5b c0             	cvtdq2ps %xmm0,%xmm0
  405591:	66 0f fe cc          	paddd  %xmm4,%xmm1
  405595:	0f 5b c9             	cvtdq2ps %xmm1,%xmm1
  405598:	43 0f 29 0c 26       	movaps %xmm1,(%r14,%r12,1)
  40559d:	66 0f fe eb          	paddd  %xmm3,%xmm5
  4055a1:	42 0f 11 04 22       	movups %xmm0,(%rdx,%r12,1)
  4055a6:	49 83 c4 10          	add    $0x10,%r12
  4055aa:	45 39 e9             	cmp    %r13d,%r9d
  4055ad:	0f 87 9d 02 00 00    	ja     405850 <_Z12matrix_testsv+0xf00>
  4055b3:	45 39 d3             	cmp    %r10d,%r11d
  4055b6:	43 8d 14 03          	lea    (%r11,%r8,1),%edx
  4055ba:	0f 84 81 00 00 00    	je     405641 <_Z12matrix_testsv+0xcf1>
  4055c0:	66 0f ef c0          	pxor   %xmm0,%xmm0
  4055c4:	44 8d 42 01          	lea    0x1(%rdx),%r8d
  4055c8:	4c 63 d2             	movslq %edx,%r10
  4055cb:	44 8d 4a 07          	lea    0x7(%rdx),%r9d
  4055cf:	44 39 c7             	cmp    %r8d,%edi
  4055d2:	f3 41 0f 2a c0       	cvtsi2ss %r8d,%xmm0
  4055d7:	f3 42 0f 11 04 91    	movss  %xmm0,(%rcx,%r10,4)
  4055dd:	66 0f ef c0          	pxor   %xmm0,%xmm0
  4055e1:	f3 41 0f 2a c1       	cvtsi2ss %r9d,%xmm0
  4055e6:	f3 42 0f 11 04 96    	movss  %xmm0,(%rsi,%r10,4)
  4055ec:	7e 53                	jle    405641 <_Z12matrix_testsv+0xcf1>
  4055ee:	66 0f ef c0          	pxor   %xmm0,%xmm0
  4055f2:	4d 63 c8             	movslq %r8d,%r9
  4055f5:	44 8d 42 02          	lea    0x2(%rdx),%r8d
  4055f9:	44 8d 52 08          	lea    0x8(%rdx),%r10d
  4055fd:	44 39 c7             	cmp    %r8d,%edi
  405600:	f3 41 0f 2a c0       	cvtsi2ss %r8d,%xmm0
  405605:	f3 42 0f 11 04 89    	movss  %xmm0,(%rcx,%r9,4)
  40560b:	66 0f ef c0          	pxor   %xmm0,%xmm0
  40560f:	f3 41 0f 2a c2       	cvtsi2ss %r10d,%xmm0
  405614:	f3 42 0f 11 04 8e    	movss  %xmm0,(%rsi,%r9,4)
  40561a:	7e 25                	jle    405641 <_Z12matrix_testsv+0xcf1>
  40561c:	66 0f ef c0          	pxor   %xmm0,%xmm0
  405620:	8d 7a 03             	lea    0x3(%rdx),%edi
  405623:	4d 63 c0             	movslq %r8d,%r8
  405626:	83 c2 09             	add    $0x9,%edx
  405629:	f3 0f 2a c7          	cvtsi2ss %edi,%xmm0
  40562d:	f3 42 0f 11 04 81    	movss  %xmm0,(%rcx,%r8,4)
  405633:	66 0f ef c0          	pxor   %xmm0,%xmm0
  405637:	f3 0f 2a c2          	cvtsi2ss %edx,%xmm0
  40563b:	f3 42 0f 11 04 86    	movss  %xmm0,(%rsi,%r8,4)
  405641:	48 63 b4 24 00 01 00 	movslq 0x100(%rsp),%rsi
  405648:	00 
  405649:	48 8b 8c 24 f8 00 00 	mov    0xf8(%rsp),%rcx
  405650:	00 
  405651:	bf f0 18 40 00       	mov    $0x4018f0,%edi
  405656:	48 89 f2             	mov    %rsi,%rdx
  405659:	8b 34 b1             	mov    (%rcx,%rsi,4),%esi
  40565c:	48 89 4c 24 40       	mov    %rcx,0x40(%rsp)
  405661:	89 54 24 48          	mov    %edx,0x48(%rsp)
  405665:	31 c9                	xor    %ecx,%ecx
  405667:	31 d2                	xor    %edx,%edx
  405669:	48 89 44 24 38       	mov    %rax,0x38(%rsp)
  40566e:	48 c7 44 24 30 40 9d 	movq   $0x409d40,0x30(%rsp)
  405675:	40 00 
  405677:	89 74 24 20          	mov    %esi,0x20(%rsp)
  40567b:	48 8d 74 24 10       	lea    0x10(%rsp),%rsi
  405680:	48 89 6c 24 10       	mov    %rbp,0x10(%rsp)
  405685:	c7 44 24 18 00 00 80 	movl   $0xbf800000,0x18(%rsp)
  40568c:	bf 
  40568d:	c7 44 24 1c 00 00 80 	movl   $0x3f800000,0x1c(%rsp)
  405694:	3f 
  405695:	e8 86 be ff ff       	callq  401520 <GOMP_parallel@plt>
  40569a:	e8 21 bf ff ff       	callq  4015c0 <GOMP_barrier@plt>
  40569f:	48 89 df             	mov    %rbx,%rdi
  4056a2:	e8 99 37 00 00       	callq  408e40 <_ZNK11Tensor_JackIf15CPU_MATHEMATICS10continuousIfS0_EE5printEv>
  4056a7:	48 8d bc 24 80 00 00 	lea    0x80(%rsp),%rdi
  4056ae:	00 
  4056af:	e8 8c 37 00 00       	callq  408e40 <_ZNK11Tensor_JackIf15CPU_MATHEMATICS10continuousIfS0_EE5printEv>
  4056b4:	48 8d bc 24 b0 00 00 	lea    0xb0(%rsp),%rdi
  4056bb:	00 
  4056bc:	e8 7f 37 00 00       	callq  408e40 <_ZNK11Tensor_JackIf15CPU_MATHEMATICS10continuousIfS0_EE5printEv>
  4056c1:	48 89 df             	mov    %rbx,%rdi
  4056c4:	e8 77 37 00 00       	callq  408e40 <_ZNK11Tensor_JackIf15CPU_MATHEMATICS10continuousIfS0_EE5printEv>
  4056c9:	48 8d bc 24 b0 00 00 	lea    0xb0(%rsp),%rdi
  4056d0:	00 
  4056d1:	e8 6a 37 00 00       	callq  408e40 <_ZNK11Tensor_JackIf15CPU_MATHEMATICS10continuousIfS0_EE5printEv>
  4056d6:	ba 09 00 00 00       	mov    $0x9,%edx
  4056db:	be 94 92 40 00       	mov    $0x409294,%esi
  4056e0:	bf e0 d1 60 00       	mov    $0x60d1e0,%edi
  4056e5:	e8 e6 bd ff ff       	callq  4014d0 <_ZSt16__ostream_insertIcSt11char_traitsIcEERSt13basic_ostreamIT_T0_ES6_PKS3_l@plt>
  4056ea:	48 8b 05 ef 7a 20 00 	mov    0x207aef(%rip),%rax        # 60d1e0 <_ZSt4cout@@GLIBCXX_3.4>
  4056f1:	48 8b 40 e8          	mov    -0x18(%rax),%rax
  4056f5:	48 8b a8 d0 d2 60 00 	mov    0x60d2d0(%rax),%rbp
  4056fc:	48 85 ed             	test   %rbp,%rbp
  4056ff:	0f 84 64 04 00 00    	je     405b69 <_Z12matrix_testsv+0x1219>
  405705:	80 7d 38 00          	cmpb   $0x0,0x38(%rbp)
  405709:	0f 84 81 01 00 00    	je     405890 <_Z12matrix_testsv+0xf40>
  40570f:	0f be 75 43          	movsbl 0x43(%rbp),%esi
  405713:	bf e0 d1 60 00       	mov    $0x60d1e0,%edi
  405718:	e8 93 bc ff ff       	callq  4013b0 <_ZNSo3putEc@plt>
  40571d:	48 89 c7             	mov    %rax,%rdi
  405720:	e8 fb bc ff ff       	callq  401420 <_ZNSo5flushEv@plt>
  405725:	80 bc 24 08 01 00 00 	cmpb   $0x0,0x108(%rsp)
  40572c:	00 
  40572d:	48 c7 84 24 e0 00 00 	movq   $0x409df0,0xe0(%rsp)
  405734:	00 f0 9d 40 00 
  405739:	74 12                	je     40574d <_Z12matrix_testsv+0xdfd>
  40573b:	48 8b bc 24 f0 00 00 	mov    0xf0(%rsp),%rdi
  405742:	00 
  405743:	48 85 ff             	test   %rdi,%rdi
  405746:	74 05                	je     40574d <_Z12matrix_testsv+0xdfd>
  405748:	e8 b3 bd ff ff       	callq  401500 <_ZdaPv@plt>
  40574d:	80 bc 24 09 01 00 00 	cmpb   $0x0,0x109(%rsp)
  405754:	00 
  405755:	74 12                	je     405769 <_Z12matrix_testsv+0xe19>
  405757:	48 8b bc 24 f8 00 00 	mov    0xf8(%rsp),%rdi
  40575e:	00 
  40575f:	48 85 ff             	test   %rdi,%rdi
  405762:	74 05                	je     405769 <_Z12matrix_testsv+0xe19>
  405764:	e8 97 bd ff ff       	callq  401500 <_ZdaPv@plt>
  405769:	80 bc 24 d8 00 00 00 	cmpb   $0x0,0xd8(%rsp)
  405770:	00 
  405771:	48 c7 84 24 b0 00 00 	movq   $0x409df0,0xb0(%rsp)
  405778:	00 f0 9d 40 00 
  40577d:	74 12                	je     405791 <_Z12matrix_testsv+0xe41>
  40577f:	48 8b bc 24 c0 00 00 	mov    0xc0(%rsp),%rdi
  405786:	00 
  405787:	48 85 ff             	test   %rdi,%rdi
  40578a:	74 05                	je     405791 <_Z12matrix_testsv+0xe41>
  40578c:	e8 6f bd ff ff       	callq  401500 <_ZdaPv@plt>
  405791:	80 bc 24 d9 00 00 00 	cmpb   $0x0,0xd9(%rsp)
  405798:	00 
  405799:	74 12                	je     4057ad <_Z12matrix_testsv+0xe5d>
  40579b:	48 8b bc 24 c8 00 00 	mov    0xc8(%rsp),%rdi
  4057a2:	00 
  4057a3:	48 85 ff             	test   %rdi,%rdi
  4057a6:	74 05                	je     4057ad <_Z12matrix_testsv+0xe5d>
  4057a8:	e8 53 bd ff ff       	callq  401500 <_ZdaPv@plt>
  4057ad:	80 bc 24 a8 00 00 00 	cmpb   $0x0,0xa8(%rsp)
  4057b4:	00 
  4057b5:	48 c7 84 24 80 00 00 	movq   $0x409df0,0x80(%rsp)
  4057bc:	00 f0 9d 40 00 
  4057c1:	74 12                	je     4057d5 <_Z12matrix_testsv+0xe85>
  4057c3:	48 8b bc 24 90 00 00 	mov    0x90(%rsp),%rdi
  4057ca:	00 
  4057cb:	48 85 ff             	test   %rdi,%rdi
  4057ce:	74 05                	je     4057d5 <_Z12matrix_testsv+0xe85>
  4057d0:	e8 2b bd ff ff       	callq  401500 <_ZdaPv@plt>
  4057d5:	80 bc 24 a9 00 00 00 	cmpb   $0x0,0xa9(%rsp)
  4057dc:	00 
  4057dd:	74 12                	je     4057f1 <_Z12matrix_testsv+0xea1>
  4057df:	48 8b bc 24 98 00 00 	mov    0x98(%rsp),%rdi
  4057e6:	00 
  4057e7:	48 85 ff             	test   %rdi,%rdi
  4057ea:	74 05                	je     4057f1 <_Z12matrix_testsv+0xea1>
  4057ec:	e8 0f bd ff ff       	callq  401500 <_ZdaPv@plt>
  4057f1:	80 7c 24 78 00       	cmpb   $0x0,0x78(%rsp)
  4057f6:	48 c7 44 24 50 f0 9d 	movq   $0x409df0,0x50(%rsp)
  4057fd:	40 00 
  4057ff:	74 0f                	je     405810 <_Z12matrix_testsv+0xec0>
  405801:	48 8b 7c 24 60       	mov    0x60(%rsp),%rdi
  405806:	48 85 ff             	test   %rdi,%rdi
  405809:	74 05                	je     405810 <_Z12matrix_testsv+0xec0>
  40580b:	e8 f0 bc ff ff       	callq  401500 <_ZdaPv@plt>
  405810:	80 7c 24 79 00       	cmpb   $0x0,0x79(%rsp)
  405815:	74 0f                	je     405826 <_Z12matrix_testsv+0xed6>
  405817:	48 8b 7c 24 68       	mov    0x68(%rsp),%rdi
  40581c:	48 85 ff             	test   %rdi,%rdi
  40581f:	74 05                	je     405826 <_Z12matrix_testsv+0xed6>
  405821:	e8 da bc ff ff       	callq  401500 <_ZdaPv@plt>
  405826:	48 8b 84 24 38 01 00 	mov    0x138(%rsp),%rax
  40582d:	00 
  40582e:	64 48 33 04 25 28 00 	xor    %fs:0x28,%rax
  405835:	00 00 
  405837:	0f 85 ae 03 00 00    	jne    405beb <_Z12matrix_testsv+0x129b>
  40583d:	48 81 c4 40 01 00 00 	add    $0x140,%rsp
  405844:	5b                   	pop    %rbx
  405845:	5d                   	pop    %rbp
  405846:	41 5c                	pop    %r12
  405848:	41 5d                	pop    %r13
  40584a:	41 5e                	pop    %r14
  40584c:	c3                   	retq   
  40584d:	0f 1f 00             	nopl   (%rax)
  405850:	66 0f 6f c5          	movdqa %xmm5,%xmm0
  405854:	e9 25 fd ff ff       	jmpq   40557e <_Z12matrix_testsv+0xc2e>
  405859:	0f 1f 80 00 00 00 00 	nopl   0x0(%rax)
  405860:	4c 89 e7             	mov    %r12,%rdi
  405863:	e8 78 bc ff ff       	callq  4014e0 <_ZNKSt5ctypeIcE13_M_widen_initEv@plt>
  405868:	49 8b 04 24          	mov    (%r12),%rax
  40586c:	be 0a 00 00 00       	mov    $0xa,%esi
  405871:	48 8b 40 30          	mov    0x30(%rax),%rax
  405875:	48 3d 20 5c 40 00    	cmp    $0x405c20,%rax
  40587b:	0f 84 ca f4 ff ff    	je     404d4b <_Z12matrix_testsv+0x3fb>
  405881:	4c 89 e7             	mov    %r12,%rdi
  405884:	ff d0                	callq  *%rax
  405886:	0f be f0             	movsbl %al,%esi
  405889:	e9 bd f4 ff ff       	jmpq   404d4b <_Z12matrix_testsv+0x3fb>
  40588e:	66 90                	xchg   %ax,%ax
  405890:	48 89 ef             	mov    %rbp,%rdi
  405893:	e8 48 bc ff ff       	callq  4014e0 <_ZNKSt5ctypeIcE13_M_widen_initEv@plt>
  405898:	48 8b 45 00          	mov    0x0(%rbp),%rax
  40589c:	be 0a 00 00 00       	mov    $0xa,%esi
  4058a1:	48 8b 40 30          	mov    0x30(%rax),%rax
  4058a5:	48 3d 20 5c 40 00    	cmp    $0x405c20,%rax
  4058ab:	0f 84 62 fe ff ff    	je     405713 <_Z12matrix_testsv+0xdc3>
  4058b1:	48 89 ef             	mov    %rbp,%rdi
  4058b4:	ff d0                	callq  *%rax
  4058b6:	0f be f0             	movsbl %al,%esi
  4058b9:	e9 55 fe ff ff       	jmpq   405713 <_Z12matrix_testsv+0xdc3>
  4058be:	66 90                	xchg   %ax,%ax
  4058c0:	85 c0                	test   %eax,%eax
  4058c2:	0f 85 62 f1 ff ff    	jne    404a2a <_Z12matrix_testsv+0xda>
  4058c8:	ba 01 00 00 00       	mov    $0x1,%edx
  4058cd:	31 ff                	xor    %edi,%edi
  4058cf:	e9 c0 f1 ff ff       	jmpq   404a94 <_Z12matrix_testsv+0x144>
  4058d4:	0f 1f 40 00          	nopl   0x0(%rax)
  4058d8:	85 c0                	test   %eax,%eax
  4058da:	0f 85 48 f5 ff ff    	jne    404e28 <_Z12matrix_testsv+0x4d8>
  4058e0:	ba 01 00 00 00       	mov    $0x1,%edx
  4058e5:	31 ff                	xor    %edi,%edi
  4058e7:	e9 a6 f5 ff ff       	jmpq   404e92 <_Z12matrix_testsv+0x542>
  4058ec:	0f 1f 40 00          	nopl   0x0(%rax)
  4058f0:	85 c0                	test   %eax,%eax
  4058f2:	0f 85 e2 f9 ff ff    	jne    4052da <_Z12matrix_testsv+0x98a>
  4058f8:	ba 01 00 00 00       	mov    $0x1,%edx
  4058fd:	31 ff                	xor    %edi,%edi
  4058ff:	e9 40 fa ff ff       	jmpq   405344 <_Z12matrix_testsv+0x9f4>
  405904:	0f 1f 40 00          	nopl   0x0(%rax)
  405908:	85 c0                	test   %eax,%eax
  40590a:	0f 85 79 f7 ff ff    	jne    405089 <_Z12matrix_testsv+0x739>
  405910:	ba 01 00 00 00       	mov    $0x1,%edx
  405915:	31 ff                	xor    %edi,%edi
  405917:	e9 d7 f7 ff ff       	jmpq   4050f3 <_Z12matrix_testsv+0x7a3>
  40591c:	0f 1f 40 00          	nopl   0x0(%rax)
  405920:	45 31 c0             	xor    %r8d,%r8d
  405923:	31 d2                	xor    %edx,%edx
  405925:	0f 1f 00             	nopl   (%rax)
  405928:	66 0f ef c0          	pxor   %xmm0,%xmm0
  40592c:	83 c2 01             	add    $0x1,%edx
  40592f:	44 8d 4a 06          	lea    0x6(%rdx),%r9d
  405933:	f3 0f 2a c2          	cvtsi2ss %edx,%xmm0
  405937:	f3 42 0f 11 04 01    	movss  %xmm0,(%rcx,%r8,1)
  40593d:	66 0f ef c0          	pxor   %xmm0,%xmm0
  405941:	f3 41 0f 2a c1       	cvtsi2ss %r9d,%xmm0
  405946:	f3 42 0f 11 04 06    	movss  %xmm0,(%rsi,%r8,1)
  40594c:	49 83 c0 04          	add    $0x4,%r8
  405950:	39 d7                	cmp    %edx,%edi
  405952:	75 d4                	jne    405928 <_Z12matrix_testsv+0xfd8>
  405954:	e9 e8 fc ff ff       	jmpq   405641 <_Z12matrix_testsv+0xcf1>
  405959:	0f 1f 80 00 00 00 00 	nopl   0x0(%rax)
  405960:	ba 01 00 00 00       	mov    $0x1,%edx
  405965:	e9 66 f8 ff ff       	jmpq   4051d0 <_Z12matrix_testsv+0x880>
  40596a:	66 0f 1f 44 00 00    	nopw   0x0(%rax,%rax,1)
  405970:	ba 01 00 00 00       	mov    $0x1,%edx
  405975:	e9 a7 fa ff ff       	jmpq   405421 <_Z12matrix_testsv+0xad1>
  40597a:	66 0f 1f 44 00 00    	nopw   0x0(%rax,%rax,1)
  405980:	ba 01 00 00 00       	mov    $0x1,%edx
  405985:	e9 e5 f5 ff ff       	jmpq   404f6f <_Z12matrix_testsv+0x61f>
  40598a:	66 0f 1f 44 00 00    	nopw   0x0(%rax,%rax,1)
  405990:	ba 01 00 00 00       	mov    $0x1,%edx
  405995:	e9 d7 f1 ff ff       	jmpq   404b71 <_Z12matrix_testsv+0x221>
  40599a:	66 0f 1f 44 00 00    	nopw   0x0(%rax,%rax,1)
  4059a0:	bf 01 00 00 00       	mov    $0x1,%edi
  4059a5:	e9 e2 f0 ff ff       	jmpq   404a8c <_Z12matrix_testsv+0x13c>
  4059aa:	66 0f 1f 44 00 00    	nopw   0x0(%rax,%rax,1)
  4059b0:	bf 02 00 00 00       	mov    $0x2,%edi
  4059b5:	e9 d2 f0 ff ff       	jmpq   404a8c <_Z12matrix_testsv+0x13c>
  4059ba:	66 0f 1f 44 00 00    	nopw   0x0(%rax,%rax,1)
  4059c0:	bf 07 00 00 00       	mov    $0x7,%edi
  4059c5:	e9 21 f7 ff ff       	jmpq   4050eb <_Z12matrix_testsv+0x79b>
  4059ca:	66 0f 1f 44 00 00    	nopw   0x0(%rax,%rax,1)
  4059d0:	bf 07 00 00 00       	mov    $0x7,%edi
  4059d5:	e9 62 f9 ff ff       	jmpq   40533c <_Z12matrix_testsv+0x9ec>
  4059da:	66 0f 1f 44 00 00    	nopw   0x0(%rax,%rax,1)
  4059e0:	bf 01 00 00 00       	mov    $0x1,%edi
  4059e5:	e9 a0 f4 ff ff       	jmpq   404e8a <_Z12matrix_testsv+0x53a>
  4059ea:	66 0f 1f 44 00 00    	nopw   0x0(%rax,%rax,1)
  4059f0:	bf 02 00 00 00       	mov    $0x2,%edi
  4059f5:	e9 90 f4 ff ff       	jmpq   404e8a <_Z12matrix_testsv+0x53a>
  4059fa:	66 0f 1f 44 00 00    	nopw   0x0(%rax,%rax,1)
  405a00:	bf 01 00 00 00       	mov    $0x1,%edi
  405a05:	e9 e1 f6 ff ff       	jmpq   4050eb <_Z12matrix_testsv+0x79b>
  405a0a:	66 0f 1f 44 00 00    	nopw   0x0(%rax,%rax,1)
  405a10:	bf 02 00 00 00       	mov    $0x2,%edi
  405a15:	e9 d1 f6 ff ff       	jmpq   4050eb <_Z12matrix_testsv+0x79b>
  405a1a:	66 0f 1f 44 00 00    	nopw   0x0(%rax,%rax,1)
  405a20:	bf 03 00 00 00       	mov    $0x3,%edi
  405a25:	e9 c1 f6 ff ff       	jmpq   4050eb <_Z12matrix_testsv+0x79b>
  405a2a:	66 0f 1f 44 00 00    	nopw   0x0(%rax,%rax,1)
  405a30:	bf 04 00 00 00       	mov    $0x4,%edi
  405a35:	e9 b1 f6 ff ff       	jmpq   4050eb <_Z12matrix_testsv+0x79b>
  405a3a:	66 0f 1f 44 00 00    	nopw   0x0(%rax,%rax,1)
  405a40:	bf 05 00 00 00       	mov    $0x5,%edi
  405a45:	e9 a1 f6 ff ff       	jmpq   4050eb <_Z12matrix_testsv+0x79b>
  405a4a:	66 0f 1f 44 00 00    	nopw   0x0(%rax,%rax,1)
  405a50:	bf 06 00 00 00       	mov    $0x6,%edi
  405a55:	e9 91 f6 ff ff       	jmpq   4050eb <_Z12matrix_testsv+0x79b>
  405a5a:	66 0f 1f 44 00 00    	nopw   0x0(%rax,%rax,1)
  405a60:	bf 03 00 00 00       	mov    $0x3,%edi
  405a65:	e9 22 f0 ff ff       	jmpq   404a8c <_Z12matrix_testsv+0x13c>
  405a6a:	66 0f 1f 44 00 00    	nopw   0x0(%rax,%rax,1)
  405a70:	bf 04 00 00 00       	mov    $0x4,%edi
  405a75:	e9 12 f0 ff ff       	jmpq   404a8c <_Z12matrix_testsv+0x13c>
  405a7a:	66 0f 1f 44 00 00    	nopw   0x0(%rax,%rax,1)
  405a80:	bf 03 00 00 00       	mov    $0x3,%edi
  405a85:	e9 b2 f8 ff ff       	jmpq   40533c <_Z12matrix_testsv+0x9ec>
  405a8a:	66 0f 1f 44 00 00    	nopw   0x0(%rax,%rax,1)
  405a90:	bf 04 00 00 00       	mov    $0x4,%edi
  405a95:	e9 a2 f8 ff ff       	jmpq   40533c <_Z12matrix_testsv+0x9ec>
  405a9a:	66 0f 1f 44 00 00    	nopw   0x0(%rax,%rax,1)
  405aa0:	bf 05 00 00 00       	mov    $0x5,%edi
  405aa5:	e9 92 f8 ff ff       	jmpq   40533c <_Z12matrix_testsv+0x9ec>
  405aaa:	66 0f 1f 44 00 00    	nopw   0x0(%rax,%rax,1)
  405ab0:	bf 06 00 00 00       	mov    $0x6,%edi
  405ab5:	e9 82 f8 ff ff       	jmpq   40533c <_Z12matrix_testsv+0x9ec>
  405aba:	66 0f 1f 44 00 00    	nopw   0x0(%rax,%rax,1)
  405ac0:	bf 05 00 00 00       	mov    $0x5,%edi
  405ac5:	e9 c2 ef ff ff       	jmpq   404a8c <_Z12matrix_testsv+0x13c>
  405aca:	66 0f 1f 44 00 00    	nopw   0x0(%rax,%rax,1)
  405ad0:	bf 06 00 00 00       	mov    $0x6,%edi
  405ad5:	e9 b2 ef ff ff       	jmpq   404a8c <_Z12matrix_testsv+0x13c>
  405ada:	66 0f 1f 44 00 00    	nopw   0x0(%rax,%rax,1)
  405ae0:	bf 03 00 00 00       	mov    $0x3,%edi
  405ae5:	e9 a0 f3 ff ff       	jmpq   404e8a <_Z12matrix_testsv+0x53a>
  405aea:	66 0f 1f 44 00 00    	nopw   0x0(%rax,%rax,1)
  405af0:	bf 04 00 00 00       	mov    $0x4,%edi
  405af5:	e9 90 f3 ff ff       	jmpq   404e8a <_Z12matrix_testsv+0x53a>
  405afa:	66 0f 1f 44 00 00    	nopw   0x0(%rax,%rax,1)
  405b00:	bf 05 00 00 00       	mov    $0x5,%edi
  405b05:	e9 80 f3 ff ff       	jmpq   404e8a <_Z12matrix_testsv+0x53a>
  405b0a:	66 0f 1f 44 00 00    	nopw   0x0(%rax,%rax,1)
  405b10:	bf 06 00 00 00       	mov    $0x6,%edi
  405b15:	e9 70 f3 ff ff       	jmpq   404e8a <_Z12matrix_testsv+0x53a>
  405b1a:	66 0f 1f 44 00 00    	nopw   0x0(%rax,%rax,1)
  405b20:	bf 07 00 00 00       	mov    $0x7,%edi
  405b25:	e9 60 f3 ff ff       	jmpq   404e8a <_Z12matrix_testsv+0x53a>
  405b2a:	66 0f 1f 44 00 00    	nopw   0x0(%rax,%rax,1)
  405b30:	bf 07 00 00 00       	mov    $0x7,%edi
  405b35:	e9 52 ef ff ff       	jmpq   404a8c <_Z12matrix_testsv+0x13c>
  405b3a:	66 0f 1f 44 00 00    	nopw   0x0(%rax,%rax,1)
  405b40:	bf 01 00 00 00       	mov    $0x1,%edi
  405b45:	e9 f2 f7 ff ff       	jmpq   40533c <_Z12matrix_testsv+0x9ec>
  405b4a:	66 0f 1f 44 00 00    	nopw   0x0(%rax,%rax,1)
  405b50:	bf 02 00 00 00       	mov    $0x2,%edi
  405b55:	e9 e2 f7 ff ff       	jmpq   40533c <_Z12matrix_testsv+0x9ec>
  405b5a:	e8 b1 b9 ff ff       	callq  401510 <__cxa_throw_bad_array_new_length@plt>
  405b5f:	e8 ac b9 ff ff       	callq  401510 <__cxa_throw_bad_array_new_length@plt>
  405b64:	e8 87 b9 ff ff       	callq  4014f0 <_ZSt16__throw_bad_castv@plt>
  405b69:	e8 82 b9 ff ff       	callq  4014f0 <_ZSt16__throw_bad_castv@plt>
  405b6e:	48 89 c5             	mov    %rax,%rbp
  405b71:	48 89 df             	mov    %rbx,%rdi
  405b74:	48 c7 84 24 e0 00 00 	movq   $0x40a1a0,0xe0(%rsp)
  405b7b:	00 a0 a1 40 00 
  405b80:	48 89 eb             	mov    %rbp,%rbx
  405b83:	e8 c8 11 00 00       	callq  406d50 <_ZN11Tensor_JackIf15CPU_MATHEMATICS23ReferenceScalarAccessorIfS0_EED1Ev>
  405b88:	48 8d 7c 24 50       	lea    0x50(%rsp),%rdi
  405b8d:	48 c7 44 24 50 20 a0 	movq   $0x40a020,0x50(%rsp)
  405b94:	40 00 
  405b96:	e8 75 11 00 00       	callq  406d10 <_ZN11Tensor_JackIf15CPU_MATHEMATICS10continuousIfS0_EED1Ev>
  405b9b:	48 89 df             	mov    %rbx,%rdi
  405b9e:	e8 ed b9 ff ff       	callq  401590 <_Unwind_Resume@plt>
  405ba3:	eb c9                	jmp    405b6e <_Z12matrix_testsv+0x121e>
  405ba5:	48 89 c3             	mov    %rax,%rbx
  405ba8:	eb de                	jmp    405b88 <_Z12matrix_testsv+0x1238>
  405baa:	e8 61 b9 ff ff       	callq  401510 <__cxa_throw_bad_array_new_length@plt>
  405baf:	48 89 c3             	mov    %rax,%rbx
  405bb2:	48 8d bc 24 b0 00 00 	lea    0xb0(%rsp),%rdi
  405bb9:	00 
  405bba:	48 c7 84 24 b0 00 00 	movq   $0x40a1e0,0xb0(%rsp)
  405bc1:	00 e0 a1 40 00 
  405bc6:	e8 45 11 00 00       	callq  406d10 <_ZN11Tensor_JackIf15CPU_MATHEMATICS10continuousIfS0_EED1Ev>
  405bcb:	48 8d bc 24 80 00 00 	lea    0x80(%rsp),%rdi
  405bd2:	00 
  405bd3:	48 c7 84 24 80 00 00 	movq   $0x40a1e0,0x80(%rsp)
  405bda:	00 e0 a1 40 00 
  405bdf:	e8 2c 11 00 00       	callq  406d10 <_ZN11Tensor_JackIf15CPU_MATHEMATICS10continuousIfS0_EED1Ev>
  405be4:	eb a2                	jmp    405b88 <_Z12matrix_testsv+0x1238>
  405be6:	e8 25 b9 ff ff       	callq  401510 <__cxa_throw_bad_array_new_length@plt>
  405beb:	e8 d0 b8 ff ff       	callq  4014c0 <__stack_chk_fail@plt>
  405bf0:	48 89 c5             	mov    %rax,%rbp
  405bf3:	48 89 df             	mov    %rbx,%rdi
  405bf6:	48 c7 84 24 e0 00 00 	movq   $0x40a1e0,0xe0(%rsp)
  405bfd:	00 e0 a1 40 00 
  405c02:	48 89 eb             	mov    %rbp,%rbx
  405c05:	e8 06 11 00 00       	callq  406d10 <_ZN11Tensor_JackIf15CPU_MATHEMATICS10continuousIfS0_EED1Ev>
  405c0a:	eb a6                	jmp    405bb2 <_Z12matrix_testsv+0x1262>
  405c0c:	48 89 c3             	mov    %rax,%rbx
  405c0f:	eb ba                	jmp    405bcb <_Z12matrix_testsv+0x127b>
  405c11:	66 2e 0f 1f 84 00 00 	nopw   %cs:0x0(%rax,%rax,1)
  405c18:	00 00 00 
  405c1b:	0f 1f 44 00 00       	nopl   0x0(%rax,%rax,1)

0000000000405c20 <_ZNKSt5ctypeIcE8do_widenEc>:
  405c20:	89 f0                	mov    %esi,%eax
  405c22:	c3                   	retq   
  405c23:	66 2e 0f 1f 84 00 00 	nopw   %cs:0x0(%rax,%rax,1)
  405c2a:	00 00 00 
  405c2d:	0f 1f 00             	nopl   (%rax)

0000000000405c30 <_ZN10continuousIf15CPU_MATHEMATICSED1Ev>:
  405c30:	f3 c3                	repz retq 
  405c32:	66 2e 0f 1f 84 00 00 	nopw   %cs:0x0(%rax,%rax,1)
  405c39:	00 00 00 
  405c3c:	0f 1f 40 00          	nopl   0x0(%rax)

0000000000405c40 <_ZN11Tensor_KingIf15CPU_MATHEMATICS10continuousIfS0_EED1Ev>:
  405c40:	f3 c3                	repz retq 
  405c42:	66 2e 0f 1f 84 00 00 	nopw   %cs:0x0(%rax,%rax,1)
  405c49:	00 00 00 
  405c4c:	0f 1f 40 00          	nopl   0x0(%rax)

0000000000405c50 <_ZN12Tensor_QueenIf15CPU_MATHEMATICS10continuousIfS0_EED1Ev>:
  405c50:	f3 c3                	repz retq 
  405c52:	66 2e 0f 1f 84 00 00 	nopw   %cs:0x0(%rax,%rax,1)
  405c59:	00 00 00 
  405c5c:	0f 1f 40 00          	nopl   0x0(%rax)

0000000000405c60 <_ZN19StackScalarAccessorIf15CPU_MATHEMATICSED1Ev>:
  405c60:	f3 c3                	repz retq 
  405c62:	0f 1f 40 00          	nopl   0x0(%rax)
  405c66:	66 2e 0f 1f 84 00 00 	nopw   %cs:0x0(%rax,%rax,1)
  405c6d:	00 00 00 

0000000000405c70 <_ZThn8_N19StackScalarAccessorIf15CPU_MATHEMATICSED1Ev>:
  405c70:	48 83 ef 08          	sub    $0x8,%rdi
  405c74:	eb ea                	jmp    405c60 <_ZN19StackScalarAccessorIf15CPU_MATHEMATICSED1Ev>
  405c76:	66 2e 0f 1f 84 00 00 	nopw   %cs:0x0(%rax,%rax,1)
  405c7d:	00 00 00 

0000000000405c80 <_ZN6bufferIf15CPU_MATHEMATICS19StackScalarAccessorIfS0_E10continuousIfS0_EN9Operation3subIfEEED1Ev>:
  405c80:	f3 c3                	repz retq 
  405c82:	66 2e 0f 1f 84 00 00 	nopw   %cs:0x0(%rax,%rax,1)
  405c89:	00 00 00 
  405c8c:	0f 1f 40 00          	nopl   0x0(%rax)

0000000000405c90 <_ZN11Tensor_KingIf15CPU_MATHEMATICS6bufferIfS0_19StackScalarAccessorIfS0_E10continuousIfS0_EN9Operation3subIfEEEED1Ev>:
  405c90:	f3 c3                	repz retq 
  405c92:	66 2e 0f 1f 84 00 00 	nopw   %cs:0x0(%rax,%rax,1)
  405c99:	00 00 00 
  405c9c:	0f 1f 40 00          	nopl   0x0(%rax)

0000000000405ca0 <_ZN23ReferenceScalarAccessorIf15CPU_MATHEMATICSED1Ev>:
  405ca0:	f3 c3                	repz retq 
  405ca2:	0f 1f 40 00          	nopl   0x0(%rax)
  405ca6:	66 2e 0f 1f 84 00 00 	nopw   %cs:0x0(%rax,%rax,1)
  405cad:	00 00 00 

0000000000405cb0 <_ZThn8_N23ReferenceScalarAccessorIf15CPU_MATHEMATICSED1Ev>:
  405cb0:	48 83 ef 08          	sub    $0x8,%rdi
  405cb4:	eb ea                	jmp    405ca0 <_ZN23ReferenceScalarAccessorIf15CPU_MATHEMATICSED1Ev>
  405cb6:	66 2e 0f 1f 84 00 00 	nopw   %cs:0x0(%rax,%rax,1)
  405cbd:	00 00 00 

0000000000405cc0 <_ZN11Tensor_KingIf15CPU_MATHEMATICS23ReferenceScalarAccessorIfS0_EED1Ev>:
  405cc0:	f3 c3                	repz retq 
  405cc2:	66 2e 0f 1f 84 00 00 	nopw   %cs:0x0(%rax,%rax,1)
  405cc9:	00 00 00 
  405ccc:	0f 1f 40 00          	nopl   0x0(%rax)

0000000000405cd0 <_ZN12Tensor_QueenIf15CPU_MATHEMATICS23ReferenceScalarAccessorIfS0_EED1Ev>:
  405cd0:	f3 c3                	repz retq 
  405cd2:	66 2e 0f 1f 84 00 00 	nopw   %cs:0x0(%rax,%rax,1)
  405cd9:	00 00 00 
  405cdc:	0f 1f 40 00          	nopl   0x0(%rax)

0000000000405ce0 <_ZN10continuousId15CPU_MATHEMATICSED1Ev>:
  405ce0:	f3 c3                	repz retq 
  405ce2:	66 2e 0f 1f 84 00 00 	nopw   %cs:0x0(%rax,%rax,1)
  405ce9:	00 00 00 
  405cec:	0f 1f 40 00          	nopl   0x0(%rax)

0000000000405cf0 <_ZN6bufferId15CPU_MATHEMATICS10continuousIdS0_ES2_N9Operation3addIdEEED1Ev>:
  405cf0:	f3 c3                	repz retq 
  405cf2:	66 2e 0f 1f 84 00 00 	nopw   %cs:0x0(%rax,%rax,1)
  405cf9:	00 00 00 
  405cfc:	0f 1f 40 00          	nopl   0x0(%rax)

0000000000405d00 <_ZN11Tensor_KingId15CPU_MATHEMATICS6bufferIdS0_10continuousIdS0_ES3_N9Operation3addIdEEEED1Ev>:
  405d00:	f3 c3                	repz retq 
  405d02:	66 2e 0f 1f 84 00 00 	nopw   %cs:0x0(%rax,%rax,1)
  405d09:	00 00 00 
  405d0c:	0f 1f 40 00          	nopl   0x0(%rax)

0000000000405d10 <_ZN6bufferId15CPU_MATHEMATICSS_IdS0_10continuousIdS0_ES2_N9Operation3addIdEEES2_S5_ED1Ev>:
  405d10:	f3 c3                	repz retq 
  405d12:	66 2e 0f 1f 84 00 00 	nopw   %cs:0x0(%rax,%rax,1)
  405d19:	00 00 00 
  405d1c:	0f 1f 40 00          	nopl   0x0(%rax)

0000000000405d20 <_ZN11Tensor_KingId15CPU_MATHEMATICS6bufferIdS0_S1_IdS0_10continuousIdS0_ES3_N9Operation3addIdEEES3_S6_EED1Ev>:
  405d20:	f3 c3                	repz retq 
  405d22:	66 2e 0f 1f 84 00 00 	nopw   %cs:0x0(%rax,%rax,1)
  405d29:	00 00 00 
  405d2c:	0f 1f 40 00          	nopl   0x0(%rax)

0000000000405d30 <_ZN10continuousId15CPU_MATHEMATICSE7getDataEv>:
  405d30:	48 8b 47 08          	mov    0x8(%rdi),%rax
  405d34:	c3                   	retq   
  405d35:	66 2e 0f 1f 84 00 00 	nopw   %cs:0x0(%rax,%rax,1)
  405d3c:	00 00 00 
  405d3f:	90                   	nop

0000000000405d40 <_ZN10continuousIf15CPU_MATHEMATICSE7getDataEv>:
  405d40:	48 8b 47 08          	mov    0x8(%rdi),%rax
  405d44:	c3                   	retq   
  405d45:	66 2e 0f 1f 84 00 00 	nopw   %cs:0x0(%rax,%rax,1)
  405d4c:	00 00 00 
  405d4f:	90                   	nop

0000000000405d50 <_ZN10continuousIf15CPU_MATHEMATICSE8getShapeEv>:
  405d50:	48 8b 47 10          	mov    0x10(%rdi),%rax
  405d54:	c3                   	retq   
  405d55:	66 2e 0f 1f 84 00 00 	nopw   %cs:0x0(%rax,%rax,1)
  405d5c:	00 00 00 
  405d5f:	90                   	nop

0000000000405d60 <_ZNK10continuousIf15CPU_MATHEMATICSE8getShapeEv>:
  405d60:	48 8b 47 10          	mov    0x10(%rdi),%rax
  405d64:	c3                   	retq   
  405d65:	66 2e 0f 1f 84 00 00 	nopw   %cs:0x0(%rax,%rax,1)
  405d6c:	00 00 00 
  405d6f:	90                   	nop

0000000000405d70 <_ZNK11Tensor_KingIf15CPU_MATHEMATICS10continuousIfS0_EE5orderEv>:
  405d70:	8b 47 20             	mov    0x20(%rdi),%eax
  405d73:	c3                   	retq   
  405d74:	66 2e 0f 1f 84 00 00 	nopw   %cs:0x0(%rax,%rax,1)
  405d7b:	00 00 00 
  405d7e:	66 90                	xchg   %ax,%ax

0000000000405d80 <_ZN11Tensor_KingIf15CPU_MATHEMATICS19StackScalarAccessorIfS0_EED1Ev>:
  405d80:	f3 c3                	repz retq 
  405d82:	66 2e 0f 1f 84 00 00 	nopw   %cs:0x0(%rax,%rax,1)
  405d89:	00 00 00 
  405d8c:	0f 1f 40 00          	nopl   0x0(%rax)

0000000000405d90 <_ZN12Tensor_QueenIf15CPU_MATHEMATICS19StackScalarAccessorIfS0_EED1Ev>:
  405d90:	f3 c3                	repz retq 
  405d92:	66 2e 0f 1f 84 00 00 	nopw   %cs:0x0(%rax,%rax,1)
  405d99:	00 00 00 
  405d9c:	0f 1f 40 00          	nopl   0x0(%rax)

0000000000405da0 <_ZNK23ReferenceScalarAccessorIf15CPU_MATHEMATICSE8getShapeEv>:
  405da0:	31 c0                	xor    %eax,%eax
  405da2:	c3                   	retq   
  405da3:	0f 1f 00             	nopl   (%rax)
  405da6:	66 2e 0f 1f 84 00 00 	nopw   %cs:0x0(%rax,%rax,1)
  405dad:	00 00 00 

0000000000405db0 <_ZThn8_NK23ReferenceScalarAccessorIf15CPU_MATHEMATICSE8getShapeEv>:
  405db0:	48 83 ef 08          	sub    $0x8,%rdi
  405db4:	eb ea                	jmp    405da0 <_ZNK23ReferenceScalarAccessorIf15CPU_MATHEMATICSE8getShapeEv>
  405db6:	66 2e 0f 1f 84 00 00 	nopw   %cs:0x0(%rax,%rax,1)
  405dbd:	00 00 00 

0000000000405dc0 <_ZNK11Tensor_KingIf15CPU_MATHEMATICS23ReferenceScalarAccessorIfS0_EE5orderEv>:
  405dc0:	b8 01 00 00 00       	mov    $0x1,%eax
  405dc5:	c3                   	retq   
  405dc6:	66 2e 0f 1f 84 00 00 	nopw   %cs:0x0(%rax,%rax,1)
  405dcd:	00 00 00 

0000000000405dd0 <_ZNK11Tensor_KingIf15CPU_MATHEMATICS23ReferenceScalarAccessorIfS0_EE4sizeEv>:
  405dd0:	b8 01 00 00 00       	mov    $0x1,%eax
  405dd5:	c3                   	retq   
  405dd6:	66 2e 0f 1f 84 00 00 	nopw   %cs:0x0(%rax,%rax,1)
  405ddd:	00 00 00 

0000000000405de0 <_ZN11Tensor_KingId15CPU_MATHEMATICS10continuousIdS0_EED1Ev>:
  405de0:	f3 c3                	repz retq 
  405de2:	66 2e 0f 1f 84 00 00 	nopw   %cs:0x0(%rax,%rax,1)
  405de9:	00 00 00 
  405dec:	0f 1f 40 00          	nopl   0x0(%rax)

0000000000405df0 <_ZN12Tensor_QueenId15CPU_MATHEMATICS10continuousIdS0_EED1Ev>:
  405df0:	f3 c3                	repz retq 
  405df2:	66 2e 0f 1f 84 00 00 	nopw   %cs:0x0(%rax,%rax,1)
  405df9:	00 00 00 
  405dfc:	0f 1f 40 00          	nopl   0x0(%rax)

0000000000405e00 <_ZNK10continuousIf15CPU_MATHEMATICSE5orderEv>:
  405e00:	8b 47 18             	mov    0x18(%rdi),%eax
  405e03:	c3                   	retq   
  405e04:	66 2e 0f 1f 84 00 00 	nopw   %cs:0x0(%rax,%rax,1)
  405e0b:	00 00 00 
  405e0e:	66 90                	xchg   %ax,%ax

0000000000405e10 <_ZN19StackScalarAccessorIf15CPU_MATHEMATICSE8getShapeEv>:
  405e10:	31 c0                	xor    %eax,%eax
  405e12:	c3                   	retq   
  405e13:	0f 1f 00             	nopl   (%rax)
  405e16:	66 2e 0f 1f 84 00 00 	nopw   %cs:0x0(%rax,%rax,1)
  405e1d:	00 00 00 

0000000000405e20 <_ZThn8_N19StackScalarAccessorIf15CPU_MATHEMATICSE8getShapeEv>:
  405e20:	48 83 ef 08          	sub    $0x8,%rdi
  405e24:	eb ea                	jmp    405e10 <_ZN19StackScalarAccessorIf15CPU_MATHEMATICSE8getShapeEv>
  405e26:	66 2e 0f 1f 84 00 00 	nopw   %cs:0x0(%rax,%rax,1)
  405e2d:	00 00 00 

0000000000405e30 <_ZN23ReferenceScalarAccessorIf15CPU_MATHEMATICSE7getDataEv>:
  405e30:	48 8b 47 10          	mov    0x10(%rdi),%rax
  405e34:	c3                   	retq   
  405e35:	90                   	nop
  405e36:	66 2e 0f 1f 84 00 00 	nopw   %cs:0x0(%rax,%rax,1)
  405e3d:	00 00 00 

0000000000405e40 <_ZThn8_N23ReferenceScalarAccessorIf15CPU_MATHEMATICSE7getDataEv>:
  405e40:	48 83 ef 08          	sub    $0x8,%rdi
  405e44:	eb ea                	jmp    405e30 <_ZN23ReferenceScalarAccessorIf15CPU_MATHEMATICSE7getDataEv>
  405e46:	66 2e 0f 1f 84 00 00 	nopw   %cs:0x0(%rax,%rax,1)
  405e4d:	00 00 00 

0000000000405e50 <_ZN23ReferenceScalarAccessorIf15CPU_MATHEMATICSE8getShapeEv>:
  405e50:	31 c0                	xor    %eax,%eax
  405e52:	c3                   	retq   
  405e53:	0f 1f 00             	nopl   (%rax)
  405e56:	66 2e 0f 1f 84 00 00 	nopw   %cs:0x0(%rax,%rax,1)
  405e5d:	00 00 00 

0000000000405e60 <_ZThn8_N23ReferenceScalarAccessorIf15CPU_MATHEMATICSE8getShapeEv>:
  405e60:	48 83 ef 08          	sub    $0x8,%rdi
  405e64:	eb ea                	jmp    405e50 <_ZN23ReferenceScalarAccessorIf15CPU_MATHEMATICSE8getShapeEv>
  405e66:	66 2e 0f 1f 84 00 00 	nopw   %cs:0x0(%rax,%rax,1)
  405e6d:	00 00 00 

0000000000405e70 <_ZNK23ReferenceScalarAccessorIf15CPU_MATHEMATICSE5orderEv>:
  405e70:	b8 01 00 00 00       	mov    $0x1,%eax
  405e75:	c3                   	retq   
  405e76:	66 2e 0f 1f 84 00 00 	nopw   %cs:0x0(%rax,%rax,1)
  405e7d:	00 00 00 

0000000000405e80 <_ZThn8_NK23ReferenceScalarAccessorIf15CPU_MATHEMATICSE5orderEv>:
  405e80:	48 83 ef 08          	sub    $0x8,%rdi
  405e84:	eb ea                	jmp    405e70 <_ZNK23ReferenceScalarAccessorIf15CPU_MATHEMATICSE5orderEv>
  405e86:	66 2e 0f 1f 84 00 00 	nopw   %cs:0x0(%rax,%rax,1)
  405e8d:	00 00 00 

0000000000405e90 <_ZNK23ReferenceScalarAccessorIf15CPU_MATHEMATICSE4sizeEv>:
  405e90:	b8 01 00 00 00       	mov    $0x1,%eax
  405e95:	c3                   	retq   
  405e96:	66 2e 0f 1f 84 00 00 	nopw   %cs:0x0(%rax,%rax,1)
  405e9d:	00 00 00 

0000000000405ea0 <_ZThn8_NK23ReferenceScalarAccessorIf15CPU_MATHEMATICSE4sizeEv>:
  405ea0:	48 83 ef 08          	sub    $0x8,%rdi
  405ea4:	eb ea                	jmp    405e90 <_ZNK23ReferenceScalarAccessorIf15CPU_MATHEMATICSE4sizeEv>
  405ea6:	66 2e 0f 1f 84 00 00 	nopw   %cs:0x0(%rax,%rax,1)
  405ead:	00 00 00 

0000000000405eb0 <_ZNK23ReferenceScalarAccessorIf15CPU_MATHEMATICSEixEi>:
  405eb0:	48 8b 47 10          	mov    0x10(%rdi),%rax
  405eb4:	c3                   	retq   
  405eb5:	90                   	nop
  405eb6:	66 2e 0f 1f 84 00 00 	nopw   %cs:0x0(%rax,%rax,1)
  405ebd:	00 00 00 

0000000000405ec0 <_ZThn8_NK23ReferenceScalarAccessorIf15CPU_MATHEMATICSEixEi>:
  405ec0:	48 83 ef 08          	sub    $0x8,%rdi
  405ec4:	eb ea                	jmp    405eb0 <_ZNK23ReferenceScalarAccessorIf15CPU_MATHEMATICSEixEi>
  405ec6:	66 2e 0f 1f 84 00 00 	nopw   %cs:0x0(%rax,%rax,1)
  405ecd:	00 00 00 

0000000000405ed0 <_ZN10continuousId15CPU_MATHEMATICSE8getShapeEv>:
  405ed0:	48 8b 47 10          	mov    0x10(%rdi),%rax
  405ed4:	c3                   	retq   
  405ed5:	66 2e 0f 1f 84 00 00 	nopw   %cs:0x0(%rax,%rax,1)
  405edc:	00 00 00 
  405edf:	90                   	nop

0000000000405ee0 <_ZNK10continuousId15CPU_MATHEMATICSE5orderEv>:
  405ee0:	8b 47 18             	mov    0x18(%rdi),%eax
  405ee3:	c3                   	retq   
  405ee4:	66 2e 0f 1f 84 00 00 	nopw   %cs:0x0(%rax,%rax,1)
  405eeb:	00 00 00 
  405eee:	66 90                	xchg   %ax,%ax

0000000000405ef0 <_ZNK19StackScalarAccessorIf15CPU_MATHEMATICSEixEi>:
  405ef0:	f3 0f 10 47 10       	movss  0x10(%rdi),%xmm0
  405ef5:	c3                   	retq   
  405ef6:	66 2e 0f 1f 84 00 00 	nopw   %cs:0x0(%rax,%rax,1)
  405efd:	00 00 00 

0000000000405f00 <_ZThn8_NK19StackScalarAccessorIf15CPU_MATHEMATICSEixEi>:
  405f00:	48 83 ef 08          	sub    $0x8,%rdi
  405f04:	eb ea                	jmp    405ef0 <_ZNK19StackScalarAccessorIf15CPU_MATHEMATICSEixEi>
  405f06:	66 2e 0f 1f 84 00 00 	nopw   %cs:0x0(%rax,%rax,1)
  405f0d:	00 00 00 

0000000000405f10 <_ZN12Tensor_QueenId15CPU_MATHEMATICS6bufferIdS0_S1_IdS0_10continuousIdS0_ES3_N9Operation3addIdEEES3_S6_EED1Ev>:
  405f10:	f3 c3                	repz retq 
  405f12:	66 2e 0f 1f 84 00 00 	nopw   %cs:0x0(%rax,%rax,1)
  405f19:	00 00 00 
  405f1c:	0f 1f 40 00          	nopl   0x0(%rax)

0000000000405f20 <_ZN12Tensor_QueenId15CPU_MATHEMATICS6bufferIdS0_10continuousIdS0_ES3_N9Operation3addIdEEEED1Ev>:
  405f20:	f3 c3                	repz retq 
  405f22:	66 2e 0f 1f 84 00 00 	nopw   %cs:0x0(%rax,%rax,1)
  405f29:	00 00 00 
  405f2c:	0f 1f 40 00          	nopl   0x0(%rax)

0000000000405f30 <_ZN12Tensor_QueenIf15CPU_MATHEMATICS6bufferIfS0_19StackScalarAccessorIfS0_E10continuousIfS0_EN9Operation3subIfEEEED1Ev>:
  405f30:	f3 c3                	repz retq 
  405f32:	66 2e 0f 1f 84 00 00 	nopw   %cs:0x0(%rax,%rax,1)
  405f39:	00 00 00 
  405f3c:	0f 1f 40 00          	nopl   0x0(%rax)

0000000000405f40 <_ZNK11Tensor_KingId15CPU_MATHEMATICS6bufferIdS0_S1_IdS0_10continuousIdS0_ES3_N9Operation3addIdEEES3_S6_EE5orderEv>:
  405f40:	8b 47 70             	mov    0x70(%rdi),%eax
  405f43:	39 47 50             	cmp    %eax,0x50(%rdi)
  405f46:	0f 4d 47 50          	cmovge 0x50(%rdi),%eax
  405f4a:	8b 57 30             	mov    0x30(%rdi),%edx
  405f4d:	39 d0                	cmp    %edx,%eax
  405f4f:	0f 4c c2             	cmovl  %edx,%eax
  405f52:	c3                   	retq   
  405f53:	66 2e 0f 1f 84 00 00 	nopw   %cs:0x0(%rax,%rax,1)
  405f5a:	00 00 00 
  405f5d:	0f 1f 00             	nopl   (%rax)

0000000000405f60 <_ZNK6bufferId15CPU_MATHEMATICSS_IdS0_10continuousIdS0_ES2_N9Operation3addIdEEES2_S5_E4sizeEv>:
  405f60:	48 63 4f 48          	movslq 0x48(%rdi),%rcx
  405f64:	48 63 77 68          	movslq 0x68(%rdi),%rsi
  405f68:	48 8b 57 40          	mov    0x40(%rdi),%rdx
  405f6c:	48 8b 47 60          	mov    0x60(%rdi),%rax
  405f70:	8b 04 b0             	mov    (%rax,%rsi,4),%eax
  405f73:	39 04 8a             	cmp    %eax,(%rdx,%rcx,4)
  405f76:	0f 4d 04 8a          	cmovge (%rdx,%rcx,4),%eax
  405f7a:	48 63 4f 28          	movslq 0x28(%rdi),%rcx
  405f7e:	48 8b 57 20          	mov    0x20(%rdi),%rdx
  405f82:	8b 14 8a             	mov    (%rdx,%rcx,4),%edx
  405f85:	39 d0                	cmp    %edx,%eax
  405f87:	0f 4c c2             	cmovl  %edx,%eax
  405f8a:	c3                   	retq   
  405f8b:	0f 1f 44 00 00       	nopl   0x0(%rax,%rax,1)

0000000000405f90 <_ZNK6bufferId15CPU_MATHEMATICSS_IdS0_10continuousIdS0_ES2_N9Operation3addIdEEES2_S5_E9dimensionEi>:
  405f90:	3b 77 68             	cmp    0x68(%rdi),%esi
  405f93:	b9 01 00 00 00       	mov    $0x1,%ecx
  405f98:	7d 0a                	jge    405fa4 <_ZNK6bufferId15CPU_MATHEMATICSS_IdS0_10continuousIdS0_ES2_N9Operation3addIdEEES2_S5_E9dimensionEi+0x14>
  405f9a:	48 8b 57 60          	mov    0x60(%rdi),%rdx
  405f9e:	48 63 c6             	movslq %esi,%rax
  405fa1:	8b 0c 82             	mov    (%rdx,%rax,4),%ecx
  405fa4:	3b 77 48             	cmp    0x48(%rdi),%esi
  405fa7:	7d 37                	jge    405fe0 <_ZNK6bufferId15CPU_MATHEMATICSS_IdS0_10continuousIdS0_ES2_N9Operation3addIdEEES2_S5_E9dimensionEi+0x50>
  405fa9:	3b 77 28             	cmp    0x28(%rdi),%esi
  405fac:	48 8b 57 40          	mov    0x40(%rdi),%rdx
  405fb0:	48 63 c6             	movslq %esi,%rax
  405fb3:	4c 8d 04 85 00 00 00 	lea    0x0(,%rax,4),%r8
  405fba:	00 
  405fbb:	8b 14 82             	mov    (%rdx,%rax,4),%edx
  405fbe:	b8 01 00 00 00       	mov    $0x1,%eax
  405fc3:	7d 08                	jge    405fcd <_ZNK6bufferId15CPU_MATHEMATICSS_IdS0_10continuousIdS0_ES2_N9Operation3addIdEEES2_S5_E9dimensionEi+0x3d>
  405fc5:	48 8b 47 20          	mov    0x20(%rdi),%rax
  405fc9:	42 8b 04 00          	mov    (%rax,%r8,1),%eax
  405fcd:	39 c2                	cmp    %eax,%edx
  405fcf:	0f 4d c2             	cmovge %edx,%eax
  405fd2:	39 c8                	cmp    %ecx,%eax
  405fd4:	0f 4c c1             	cmovl  %ecx,%eax
  405fd7:	c3                   	retq   
  405fd8:	0f 1f 84 00 00 00 00 	nopl   0x0(%rax,%rax,1)
  405fdf:	00 
  405fe0:	3b 77 28             	cmp    0x28(%rdi),%esi
  405fe3:	b8 01 00 00 00       	mov    $0x1,%eax
  405fe8:	7d e8                	jge    405fd2 <_ZNK6bufferId15CPU_MATHEMATICSS_IdS0_10continuousIdS0_ES2_N9Operation3addIdEEES2_S5_E9dimensionEi+0x42>
  405fea:	48 63 f6             	movslq %esi,%rsi
  405fed:	ba 01 00 00 00       	mov    $0x1,%edx
  405ff2:	4c 8d 04 b5 00 00 00 	lea    0x0(,%rsi,4),%r8
  405ff9:	00 
  405ffa:	eb c9                	jmp    405fc5 <_ZNK6bufferId15CPU_MATHEMATICSS_IdS0_10continuousIdS0_ES2_N9Operation3addIdEEES2_S5_E9dimensionEi+0x35>
  405ffc:	0f 1f 40 00          	nopl   0x0(%rax)

0000000000406000 <_ZNK6bufferId15CPU_MATHEMATICSS_IdS0_10continuousIdS0_ES2_N9Operation3addIdEEES2_S5_E17leading_dimensionEi>:
  406000:	85 f6                	test   %esi,%esi
  406002:	0f 9f c2             	setg   %dl
  406005:	3b 77 68             	cmp    0x68(%rdi),%esi
  406008:	7d 5e                	jge    406068 <_ZNK6bufferId15CPU_MATHEMATICSS_IdS0_10continuousIdS0_ES2_N9Operation3addIdEEES2_S5_E17leading_dimensionEi+0x68>
  40600a:	84 d2                	test   %dl,%dl
  40600c:	74 5a                	je     406068 <_ZNK6bufferId15CPU_MATHEMATICSS_IdS0_10continuousIdS0_ES2_N9Operation3addIdEEES2_S5_E17leading_dimensionEi+0x68>
  40600e:	48 8b 47 60          	mov    0x60(%rdi),%rax
  406012:	4c 63 c6             	movslq %esi,%r8
  406015:	42 8b 4c 80 fc       	mov    -0x4(%rax,%r8,4),%ecx
  40601a:	3b 77 48             	cmp    0x48(%rdi),%esi
  40601d:	7d 31                	jge    406050 <_ZNK6bufferId15CPU_MATHEMATICSS_IdS0_10continuousIdS0_ES2_N9Operation3addIdEEES2_S5_E17leading_dimensionEi+0x50>
  40601f:	84 d2                	test   %dl,%dl
  406021:	74 2d                	je     406050 <_ZNK6bufferId15CPU_MATHEMATICSS_IdS0_10continuousIdS0_ES2_N9Operation3addIdEEES2_S5_E17leading_dimensionEi+0x50>
  406023:	3b 77 28             	cmp    0x28(%rdi),%esi
  406026:	48 8b 47 40          	mov    0x40(%rdi),%rax
  40602a:	4c 63 c6             	movslq %esi,%r8
  40602d:	42 8b 44 80 fc       	mov    -0x4(%rax,%r8,4),%eax
  406032:	7d 2c                	jge    406060 <_ZNK6bufferId15CPU_MATHEMATICSS_IdS0_10continuousIdS0_ES2_N9Operation3addIdEEES2_S5_E17leading_dimensionEi+0x60>
  406034:	48 8b 57 20          	mov    0x20(%rdi),%rdx
  406038:	42 8b 54 82 fc       	mov    -0x4(%rdx,%r8,4),%edx
  40603d:	39 c2                	cmp    %eax,%edx
  40603f:	0f 4d c2             	cmovge %edx,%eax
  406042:	39 c8                	cmp    %ecx,%eax
  406044:	0f 4c c1             	cmovl  %ecx,%eax
  406047:	c3                   	retq   
  406048:	0f 1f 84 00 00 00 00 	nopl   0x0(%rax,%rax,1)
  40604f:	00 
  406050:	31 c0                	xor    %eax,%eax
  406052:	3b 77 28             	cmp    0x28(%rdi),%esi
  406055:	7d eb                	jge    406042 <_ZNK6bufferId15CPU_MATHEMATICSS_IdS0_10continuousIdS0_ES2_N9Operation3addIdEEES2_S5_E17leading_dimensionEi+0x42>
  406057:	85 f6                	test   %esi,%esi
  406059:	7e 05                	jle    406060 <_ZNK6bufferId15CPU_MATHEMATICSS_IdS0_10continuousIdS0_ES2_N9Operation3addIdEEES2_S5_E17leading_dimensionEi+0x60>
  40605b:	4c 63 c6             	movslq %esi,%r8
  40605e:	eb d4                	jmp    406034 <_ZNK6bufferId15CPU_MATHEMATICSS_IdS0_10continuousIdS0_ES2_N9Operation3addIdEEES2_S5_E17leading_dimensionEi+0x34>
  406060:	31 d2                	xor    %edx,%edx
  406062:	eb d9                	jmp    40603d <_ZNK6bufferId15CPU_MATHEMATICSS_IdS0_10continuousIdS0_ES2_N9Operation3addIdEEES2_S5_E17leading_dimensionEi+0x3d>
  406064:	0f 1f 40 00          	nopl   0x0(%rax)
  406068:	31 c9                	xor    %ecx,%ecx
  40606a:	eb ae                	jmp    40601a <_ZNK6bufferId15CPU_MATHEMATICSS_IdS0_10continuousIdS0_ES2_N9Operation3addIdEEES2_S5_E17leading_dimensionEi+0x1a>
  40606c:	0f 1f 40 00          	nopl   0x0(%rax)

0000000000406070 <_ZNK6bufferId15CPU_MATHEMATICSS_IdS0_10continuousIdS0_ES2_N9Operation3addIdEEES2_S5_E5orderEv>:
  406070:	8b 47 68             	mov    0x68(%rdi),%eax
  406073:	39 47 48             	cmp    %eax,0x48(%rdi)
  406076:	0f 4d 47 48          	cmovge 0x48(%rdi),%eax
  40607a:	8b 57 28             	mov    0x28(%rdi),%edx
  40607d:	39 d0                	cmp    %edx,%eax
  40607f:	0f 4c c2             	cmovl  %edx,%eax
  406082:	c3                   	retq   
  406083:	66 2e 0f 1f 84 00 00 	nopw   %cs:0x0(%rax,%rax,1)
  40608a:	00 00 00 
  40608d:	0f 1f 00             	nopl   (%rax)

0000000000406090 <_ZNK11Tensor_KingId15CPU_MATHEMATICS6bufferIdS0_10continuousIdS0_ES3_N9Operation3addIdEEEE5orderEv>:
  406090:	8b 47 48             	mov    0x48(%rdi),%eax
  406093:	39 47 28             	cmp    %eax,0x28(%rdi)
  406096:	0f 4d 47 28          	cmovge 0x28(%rdi),%eax
  40609a:	c3                   	retq   
  40609b:	0f 1f 44 00 00       	nopl   0x0(%rax,%rax,1)

00000000004060a0 <_ZNK6bufferId15CPU_MATHEMATICS10continuousIdS0_ES2_N9Operation3addIdEEE4sizeEv>:
  4060a0:	48 63 4f 20          	movslq 0x20(%rdi),%rcx
  4060a4:	48 63 77 40          	movslq 0x40(%rdi),%rsi
  4060a8:	48 8b 57 18          	mov    0x18(%rdi),%rdx
  4060ac:	48 8b 47 38          	mov    0x38(%rdi),%rax
  4060b0:	8b 04 b0             	mov    (%rax,%rsi,4),%eax
  4060b3:	39 04 8a             	cmp    %eax,(%rdx,%rcx,4)
  4060b6:	0f 4d 04 8a          	cmovge (%rdx,%rcx,4),%eax
  4060ba:	c3                   	retq   
  4060bb:	0f 1f 44 00 00       	nopl   0x0(%rax,%rax,1)

00000000004060c0 <_ZNK6bufferId15CPU_MATHEMATICS10continuousIdS0_ES2_N9Operation3addIdEEE9dimensionEi>:
  4060c0:	3b 77 40             	cmp    0x40(%rdi),%esi
  4060c3:	7d 2b                	jge    4060f0 <_ZNK6bufferId15CPU_MATHEMATICS10continuousIdS0_ES2_N9Operation3addIdEEE9dimensionEi+0x30>
  4060c5:	3b 77 20             	cmp    0x20(%rdi),%esi
  4060c8:	48 8b 57 38          	mov    0x38(%rdi),%rdx
  4060cc:	48 63 c6             	movslq %esi,%rax
  4060cf:	48 8d 0c 85 00 00 00 	lea    0x0(,%rax,4),%rcx
  4060d6:	00 
  4060d7:	8b 14 82             	mov    (%rdx,%rax,4),%edx
  4060da:	b8 01 00 00 00       	mov    $0x1,%eax
  4060df:	7d 07                	jge    4060e8 <_ZNK6bufferId15CPU_MATHEMATICS10continuousIdS0_ES2_N9Operation3addIdEEE9dimensionEi+0x28>
  4060e1:	48 8b 47 18          	mov    0x18(%rdi),%rax
  4060e5:	8b 04 08             	mov    (%rax,%rcx,1),%eax
  4060e8:	39 d0                	cmp    %edx,%eax
  4060ea:	0f 4c c2             	cmovl  %edx,%eax
  4060ed:	c3                   	retq   
  4060ee:	66 90                	xchg   %ax,%ax
  4060f0:	3b 77 20             	cmp    0x20(%rdi),%esi
  4060f3:	b8 01 00 00 00       	mov    $0x1,%eax
  4060f8:	7d 16                	jge    406110 <_ZNK6bufferId15CPU_MATHEMATICS10continuousIdS0_ES2_N9Operation3addIdEEE9dimensionEi+0x50>
  4060fa:	48 63 f6             	movslq %esi,%rsi
  4060fd:	ba 01 00 00 00       	mov    $0x1,%edx
  406102:	48 8d 0c b5 00 00 00 	lea    0x0(,%rsi,4),%rcx
  406109:	00 
  40610a:	eb d5                	jmp    4060e1 <_ZNK6bufferId15CPU_MATHEMATICS10continuousIdS0_ES2_N9Operation3addIdEEE9dimensionEi+0x21>
  40610c:	0f 1f 40 00          	nopl   0x0(%rax)
  406110:	f3 c3                	repz retq 
  406112:	66 2e 0f 1f 84 00 00 	nopw   %cs:0x0(%rax,%rax,1)
  406119:	00 00 00 
  40611c:	0f 1f 40 00          	nopl   0x0(%rax)

0000000000406120 <_ZNK6bufferId15CPU_MATHEMATICS10continuousIdS0_ES2_N9Operation3addIdEEE17leading_dimensionEi>:
  406120:	3b 77 40             	cmp    0x40(%rdi),%esi
  406123:	7d 2b                	jge    406150 <_ZNK6bufferId15CPU_MATHEMATICS10continuousIdS0_ES2_N9Operation3addIdEEE17leading_dimensionEi+0x30>
  406125:	85 f6                	test   %esi,%esi
  406127:	7e 27                	jle    406150 <_ZNK6bufferId15CPU_MATHEMATICS10continuousIdS0_ES2_N9Operation3addIdEEE17leading_dimensionEi+0x30>
  406129:	3b 77 20             	cmp    0x20(%rdi),%esi
  40612c:	48 8b 47 38          	mov    0x38(%rdi),%rax
  406130:	48 63 d6             	movslq %esi,%rdx
  406133:	8b 44 90 fc          	mov    -0x4(%rax,%rdx,4),%eax
  406137:	7d 27                	jge    406160 <_ZNK6bufferId15CPU_MATHEMATICS10continuousIdS0_ES2_N9Operation3addIdEEE17leading_dimensionEi+0x40>
  406139:	48 8b 4f 18          	mov    0x18(%rdi),%rcx
  40613d:	8b 54 91 fc          	mov    -0x4(%rcx,%rdx,4),%edx
  406141:	39 d0                	cmp    %edx,%eax
  406143:	0f 4c c2             	cmovl  %edx,%eax
  406146:	c3                   	retq   
  406147:	66 0f 1f 84 00 00 00 	nopw   0x0(%rax,%rax,1)
  40614e:	00 00 
  406150:	31 c0                	xor    %eax,%eax
  406152:	3b 77 20             	cmp    0x20(%rdi),%esi
  406155:	7d 19                	jge    406170 <_ZNK6bufferId15CPU_MATHEMATICS10continuousIdS0_ES2_N9Operation3addIdEEE17leading_dimensionEi+0x50>
  406157:	85 f6                	test   %esi,%esi
  406159:	7e 05                	jle    406160 <_ZNK6bufferId15CPU_MATHEMATICS10continuousIdS0_ES2_N9Operation3addIdEEE17leading_dimensionEi+0x40>
  40615b:	48 63 d6             	movslq %esi,%rdx
  40615e:	eb d9                	jmp    406139 <_ZNK6bufferId15CPU_MATHEMATICS10continuousIdS0_ES2_N9Operation3addIdEEE17leading_dimensionEi+0x19>
  406160:	31 d2                	xor    %edx,%edx
  406162:	39 d0                	cmp    %edx,%eax
  406164:	0f 4c c2             	cmovl  %edx,%eax
  406167:	c3                   	retq   
  406168:	0f 1f 84 00 00 00 00 	nopl   0x0(%rax,%rax,1)
  40616f:	00 
  406170:	f3 c3                	repz retq 
  406172:	66 2e 0f 1f 84 00 00 	nopw   %cs:0x0(%rax,%rax,1)
  406179:	00 00 00 
  40617c:	0f 1f 40 00          	nopl   0x0(%rax)

0000000000406180 <_ZNK6bufferId15CPU_MATHEMATICS10continuousIdS0_ES2_N9Operation3addIdEEE5orderEv>:
  406180:	8b 47 40             	mov    0x40(%rdi),%eax
  406183:	39 47 20             	cmp    %eax,0x20(%rdi)
  406186:	0f 4d 47 20          	cmovge 0x20(%rdi),%eax
  40618a:	c3                   	retq   
  40618b:	0f 1f 44 00 00       	nopl   0x0(%rax,%rax,1)

0000000000406190 <_ZNK11Tensor_KingId15CPU_MATHEMATICS10continuousIdS0_EE5orderEv>:
  406190:	8b 47 20             	mov    0x20(%rdi),%eax
  406193:	c3                   	retq   
  406194:	66 2e 0f 1f 84 00 00 	nopw   %cs:0x0(%rax,%rax,1)
  40619b:	00 00 00 
  40619e:	66 90                	xchg   %ax,%ax

00000000004061a0 <_ZNK10continuousId15CPU_MATHEMATICSE7getDataEv>:
  4061a0:	48 8b 47 08          	mov    0x8(%rdi),%rax
  4061a4:	c3                   	retq   
  4061a5:	66 2e 0f 1f 84 00 00 	nopw   %cs:0x0(%rax,%rax,1)
  4061ac:	00 00 00 
  4061af:	90                   	nop

00000000004061b0 <_ZNK10continuousId15CPU_MATHEMATICSE8getShapeEv>:
  4061b0:	48 8b 47 10          	mov    0x10(%rdi),%rax
  4061b4:	c3                   	retq   
  4061b5:	66 2e 0f 1f 84 00 00 	nopw   %cs:0x0(%rax,%rax,1)
  4061bc:	00 00 00 
  4061bf:	90                   	nop

00000000004061c0 <_ZNK10continuousId15CPU_MATHEMATICSE24getLeadingDimensionShapeEv>:
  4061c0:	48 8b 47 10          	mov    0x10(%rdi),%rax
  4061c4:	c3                   	retq   
  4061c5:	66 2e 0f 1f 84 00 00 	nopw   %cs:0x0(%rax,%rax,1)
  4061cc:	00 00 00 
  4061cf:	90                   	nop

00000000004061d0 <_ZN10continuousId15CPU_MATHEMATICSE24getLeadingDimensionShapeEv>:
  4061d0:	48 8b 47 10          	mov    0x10(%rdi),%rax
  4061d4:	c3                   	retq   
  4061d5:	66 2e 0f 1f 84 00 00 	nopw   %cs:0x0(%rax,%rax,1)
  4061dc:	00 00 00 
  4061df:	90                   	nop

00000000004061e0 <_ZNK11Tensor_KingIf15CPU_MATHEMATICS23ReferenceScalarAccessorIfS0_EE9dimensionEi>:
  4061e0:	b8 01 00 00 00       	mov    $0x1,%eax
  4061e5:	c3                   	retq   
  4061e6:	66 2e 0f 1f 84 00 00 	nopw   %cs:0x0(%rax,%rax,1)
  4061ed:	00 00 00 

00000000004061f0 <_ZNK11Tensor_KingIf15CPU_MATHEMATICS23ReferenceScalarAccessorIfS0_EE17leading_dimensionEi>:
  4061f0:	31 c0                	xor    %eax,%eax
  4061f2:	c3                   	retq   
  4061f3:	66 2e 0f 1f 84 00 00 	nopw   %cs:0x0(%rax,%rax,1)
  4061fa:	00 00 00 
  4061fd:	0f 1f 00             	nopl   (%rax)

0000000000406200 <_ZNK23ReferenceScalarAccessorIf15CPU_MATHEMATICSE9dimensionEi>:
  406200:	b8 01 00 00 00       	mov    $0x1,%eax
  406205:	c3                   	retq   
  406206:	66 2e 0f 1f 84 00 00 	nopw   %cs:0x0(%rax,%rax,1)
  40620d:	00 00 00 

0000000000406210 <_ZThn8_NK23ReferenceScalarAccessorIf15CPU_MATHEMATICSE9dimensionEi>:
  406210:	48 83 ef 08          	sub    $0x8,%rdi
  406214:	eb ea                	jmp    406200 <_ZNK23ReferenceScalarAccessorIf15CPU_MATHEMATICSE9dimensionEi>
  406216:	66 2e 0f 1f 84 00 00 	nopw   %cs:0x0(%rax,%rax,1)
  40621d:	00 00 00 

0000000000406220 <_ZNK23ReferenceScalarAccessorIf15CPU_MATHEMATICSE17leading_dimensionEi>:
  406220:	31 c0                	xor    %eax,%eax
  406222:	c3                   	retq   
  406223:	0f 1f 00             	nopl   (%rax)
  406226:	66 2e 0f 1f 84 00 00 	nopw   %cs:0x0(%rax,%rax,1)
  40622d:	00 00 00 

0000000000406230 <_ZThn8_NK23ReferenceScalarAccessorIf15CPU_MATHEMATICSE17leading_dimensionEi>:
  406230:	48 83 ef 08          	sub    $0x8,%rdi
  406234:	eb ea                	jmp    406220 <_ZNK23ReferenceScalarAccessorIf15CPU_MATHEMATICSE17leading_dimensionEi>
  406236:	66 2e 0f 1f 84 00 00 	nopw   %cs:0x0(%rax,%rax,1)
  40623d:	00 00 00 

0000000000406240 <_ZNK23ReferenceScalarAccessorIf15CPU_MATHEMATICSE7getDataEv>:
  406240:	48 8b 47 10          	mov    0x10(%rdi),%rax
  406244:	c3                   	retq   
  406245:	90                   	nop
  406246:	66 2e 0f 1f 84 00 00 	nopw   %cs:0x0(%rax,%rax,1)
  40624d:	00 00 00 

0000000000406250 <_ZThn8_NK23ReferenceScalarAccessorIf15CPU_MATHEMATICSE7getDataEv>:
  406250:	48 83 ef 08          	sub    $0x8,%rdi
  406254:	eb ea                	jmp    406240 <_ZNK23ReferenceScalarAccessorIf15CPU_MATHEMATICSE7getDataEv>
  406256:	66 2e 0f 1f 84 00 00 	nopw   %cs:0x0(%rax,%rax,1)
  40625d:	00 00 00 

0000000000406260 <_ZNK23ReferenceScalarAccessorIf15CPU_MATHEMATICSE24getLeadingDimensionShapeEv>:
  406260:	31 c0                	xor    %eax,%eax
  406262:	c3                   	retq   
  406263:	0f 1f 00             	nopl   (%rax)
  406266:	66 2e 0f 1f 84 00 00 	nopw   %cs:0x0(%rax,%rax,1)
  40626d:	00 00 00 

0000000000406270 <_ZThn8_NK23ReferenceScalarAccessorIf15CPU_MATHEMATICSE24getLeadingDimensionShapeEv>:
  406270:	48 83 ef 08          	sub    $0x8,%rdi
  406274:	eb ea                	jmp    406260 <_ZNK23ReferenceScalarAccessorIf15CPU_MATHEMATICSE24getLeadingDimensionShapeEv>
  406276:	66 2e 0f 1f 84 00 00 	nopw   %cs:0x0(%rax,%rax,1)
  40627d:	00 00 00 

0000000000406280 <_ZN23ReferenceScalarAccessorIf15CPU_MATHEMATICSE24getLeadingDimensionShapeEv>:
  406280:	31 c0                	xor    %eax,%eax
  406282:	c3                   	retq   
  406283:	0f 1f 00             	nopl   (%rax)
  406286:	66 2e 0f 1f 84 00 00 	nopw   %cs:0x0(%rax,%rax,1)
  40628d:	00 00 00 

0000000000406290 <_ZThn8_N23ReferenceScalarAccessorIf15CPU_MATHEMATICSE24getLeadingDimensionShapeEv>:
  406290:	48 83 ef 08          	sub    $0x8,%rdi
  406294:	eb ea                	jmp    406280 <_ZN23ReferenceScalarAccessorIf15CPU_MATHEMATICSE24getLeadingDimensionShapeEv>
  406296:	66 2e 0f 1f 84 00 00 	nopw   %cs:0x0(%rax,%rax,1)
  40629d:	00 00 00 

00000000004062a0 <_ZN23ReferenceScalarAccessorIf15CPU_MATHEMATICSEixEi>:
  4062a0:	48 8b 47 10          	mov    0x10(%rdi),%rax
  4062a4:	c3                   	retq   
  4062a5:	90                   	nop
  4062a6:	66 2e 0f 1f 84 00 00 	nopw   %cs:0x0(%rax,%rax,1)
  4062ad:	00 00 00 

00000000004062b0 <_ZThn8_N23ReferenceScalarAccessorIf15CPU_MATHEMATICSEixEi>:
  4062b0:	48 83 ef 08          	sub    $0x8,%rdi
  4062b4:	eb ea                	jmp    4062a0 <_ZN23ReferenceScalarAccessorIf15CPU_MATHEMATICSEixEi>
  4062b6:	66 2e 0f 1f 84 00 00 	nopw   %cs:0x0(%rax,%rax,1)
  4062bd:	00 00 00 

00000000004062c0 <_ZNK11Tensor_KingIf15CPU_MATHEMATICS6bufferIfS0_19StackScalarAccessorIfS0_E10continuousIfS0_EN9Operation3subIfEEEE5orderEv>:
  4062c0:	8b 47 40             	mov    0x40(%rdi),%eax
  4062c3:	ba 01 00 00 00       	mov    $0x1,%edx
  4062c8:	85 c0                	test   %eax,%eax
  4062ca:	0f 4e c2             	cmovle %edx,%eax
  4062cd:	c3                   	retq   
  4062ce:	66 90                	xchg   %ax,%ax

00000000004062d0 <_ZNK6bufferIf15CPU_MATHEMATICS19StackScalarAccessorIfS0_E10continuousIfS0_EN9Operation3subIfEEE4sizeEv>:
  4062d0:	48 63 57 38          	movslq 0x38(%rdi),%rdx
  4062d4:	48 8b 47 30          	mov    0x30(%rdi),%rax
  4062d8:	8b 04 90             	mov    (%rax,%rdx,4),%eax
  4062db:	ba 01 00 00 00       	mov    $0x1,%edx
  4062e0:	85 c0                	test   %eax,%eax
  4062e2:	0f 4e c2             	cmovle %edx,%eax
  4062e5:	c3                   	retq   
  4062e6:	66 2e 0f 1f 84 00 00 	nopw   %cs:0x0(%rax,%rax,1)
  4062ed:	00 00 00 

00000000004062f0 <_ZNK6bufferIf15CPU_MATHEMATICS19StackScalarAccessorIfS0_E10continuousIfS0_EN9Operation3subIfEEE9dimensionEi>:
  4062f0:	3b 77 38             	cmp    0x38(%rdi),%esi
  4062f3:	b8 01 00 00 00       	mov    $0x1,%eax
  4062f8:	7d 14                	jge    40630e <_ZNK6bufferIf15CPU_MATHEMATICS19StackScalarAccessorIfS0_E10continuousIfS0_EN9Operation3subIfEEE9dimensionEi+0x1e>
  4062fa:	48 8b 47 30          	mov    0x30(%rdi),%rax
  4062fe:	48 63 f6             	movslq %esi,%rsi
  406301:	ba 01 00 00 00       	mov    $0x1,%edx
  406306:	8b 04 b0             	mov    (%rax,%rsi,4),%eax
  406309:	85 c0                	test   %eax,%eax
  40630b:	0f 4e c2             	cmovle %edx,%eax
  40630e:	f3 c3                	repz retq 

0000000000406310 <_ZNK6bufferIf15CPU_MATHEMATICS19StackScalarAccessorIfS0_E10continuousIfS0_EN9Operation3subIfEEE17leading_dimensionEi>:
  406310:	3b 77 38             	cmp    0x38(%rdi),%esi
  406313:	7d 23                	jge    406338 <_ZNK6bufferIf15CPU_MATHEMATICS19StackScalarAccessorIfS0_E10continuousIfS0_EN9Operation3subIfEEE17leading_dimensionEi+0x28>
  406315:	85 f6                	test   %esi,%esi
  406317:	7e 1f                	jle    406338 <_ZNK6bufferIf15CPU_MATHEMATICS19StackScalarAccessorIfS0_E10continuousIfS0_EN9Operation3subIfEEE17leading_dimensionEi+0x28>
  406319:	48 8b 57 30          	mov    0x30(%rdi),%rdx
  40631d:	48 63 f6             	movslq %esi,%rsi
  406320:	8b 44 b2 fc          	mov    -0x4(%rdx,%rsi,4),%eax
  406324:	85 c0                	test   %eax,%eax
  406326:	b8 00 00 00 00       	mov    $0x0,%eax
  40632b:	0f 49 44 b2 fc       	cmovns -0x4(%rdx,%rsi,4),%eax
  406330:	c3                   	retq   
  406331:	0f 1f 80 00 00 00 00 	nopl   0x0(%rax)
  406338:	31 c0                	xor    %eax,%eax
  40633a:	c3                   	retq   
  40633b:	0f 1f 44 00 00       	nopl   0x0(%rax,%rax,1)

0000000000406340 <_ZNK6bufferIf15CPU_MATHEMATICS19StackScalarAccessorIfS0_E10continuousIfS0_EN9Operation3subIfEEE5orderEv>:
  406340:	8b 47 38             	mov    0x38(%rdi),%eax
  406343:	ba 01 00 00 00       	mov    $0x1,%edx
  406348:	85 c0                	test   %eax,%eax
  40634a:	0f 4e c2             	cmovle %edx,%eax
  40634d:	c3                   	retq   
  40634e:	66 90                	xchg   %ax,%ax

0000000000406350 <_ZNK11Tensor_KingIf15CPU_MATHEMATICS19StackScalarAccessorIfS0_EE4sizeEv>:
  406350:	b8 01 00 00 00       	mov    $0x1,%eax
  406355:	c3                   	retq   
  406356:	66 2e 0f 1f 84 00 00 	nopw   %cs:0x0(%rax,%rax,1)
  40635d:	00 00 00 

0000000000406360 <_ZNK11Tensor_KingIf15CPU_MATHEMATICS19StackScalarAccessorIfS0_EE9dimensionEi>:
  406360:	b8 01 00 00 00       	mov    $0x1,%eax
  406365:	c3                   	retq   
  406366:	66 2e 0f 1f 84 00 00 	nopw   %cs:0x0(%rax,%rax,1)
  40636d:	00 00 00 

0000000000406370 <_ZNK11Tensor_KingIf15CPU_MATHEMATICS19StackScalarAccessorIfS0_EE17leading_dimensionEi>:
  406370:	31 c0                	xor    %eax,%eax
  406372:	c3                   	retq   
  406373:	66 2e 0f 1f 84 00 00 	nopw   %cs:0x0(%rax,%rax,1)
  40637a:	00 00 00 
  40637d:	0f 1f 00             	nopl   (%rax)

0000000000406380 <_ZNK11Tensor_KingIf15CPU_MATHEMATICS19StackScalarAccessorIfS0_EE5orderEv>:
  406380:	b8 01 00 00 00       	mov    $0x1,%eax
  406385:	c3                   	retq   
  406386:	66 2e 0f 1f 84 00 00 	nopw   %cs:0x0(%rax,%rax,1)
  40638d:	00 00 00 

0000000000406390 <_ZNK19StackScalarAccessorIf15CPU_MATHEMATICSE4sizeEv>:
  406390:	b8 01 00 00 00       	mov    $0x1,%eax
  406395:	c3                   	retq   
  406396:	66 2e 0f 1f 84 00 00 	nopw   %cs:0x0(%rax,%rax,1)
  40639d:	00 00 00 

00000000004063a0 <_ZThn8_NK19StackScalarAccessorIf15CPU_MATHEMATICSE4sizeEv>:
  4063a0:	48 83 ef 08          	sub    $0x8,%rdi
  4063a4:	eb ea                	jmp    406390 <_ZNK19StackScalarAccessorIf15CPU_MATHEMATICSE4sizeEv>
  4063a6:	66 2e 0f 1f 84 00 00 	nopw   %cs:0x0(%rax,%rax,1)
  4063ad:	00 00 00 

00000000004063b0 <_ZNK19StackScalarAccessorIf15CPU_MATHEMATICSE9dimensionEi>:
  4063b0:	b8 01 00 00 00       	mov    $0x1,%eax
  4063b5:	c3                   	retq   
  4063b6:	66 2e 0f 1f 84 00 00 	nopw   %cs:0x0(%rax,%rax,1)
  4063bd:	00 00 00 

00000000004063c0 <_ZThn8_NK19StackScalarAccessorIf15CPU_MATHEMATICSE9dimensionEi>:
  4063c0:	48 83 ef 08          	sub    $0x8,%rdi
  4063c4:	eb ea                	jmp    4063b0 <_ZNK19StackScalarAccessorIf15CPU_MATHEMATICSE9dimensionEi>
  4063c6:	66 2e 0f 1f 84 00 00 	nopw   %cs:0x0(%rax,%rax,1)
  4063cd:	00 00 00 

00000000004063d0 <_ZNK19StackScalarAccessorIf15CPU_MATHEMATICSE17leading_dimensionEi>:
  4063d0:	31 c0                	xor    %eax,%eax
  4063d2:	c3                   	retq   
  4063d3:	0f 1f 00             	nopl   (%rax)
  4063d6:	66 2e 0f 1f 84 00 00 	nopw   %cs:0x0(%rax,%rax,1)
  4063dd:	00 00 00 

00000000004063e0 <_ZThn8_NK19StackScalarAccessorIf15CPU_MATHEMATICSE17leading_dimensionEi>:
  4063e0:	48 83 ef 08          	sub    $0x8,%rdi
  4063e4:	eb ea                	jmp    4063d0 <_ZNK19StackScalarAccessorIf15CPU_MATHEMATICSE17leading_dimensionEi>
  4063e6:	66 2e 0f 1f 84 00 00 	nopw   %cs:0x0(%rax,%rax,1)
  4063ed:	00 00 00 

00000000004063f0 <_ZNK19StackScalarAccessorIf15CPU_MATHEMATICSE5orderEv>:
  4063f0:	b8 01 00 00 00       	mov    $0x1,%eax
  4063f5:	c3                   	retq   
  4063f6:	66 2e 0f 1f 84 00 00 	nopw   %cs:0x0(%rax,%rax,1)
  4063fd:	00 00 00 

0000000000406400 <_ZThn8_NK19StackScalarAccessorIf15CPU_MATHEMATICSE5orderEv>:
  406400:	48 83 ef 08          	sub    $0x8,%rdi
  406404:	eb ea                	jmp    4063f0 <_ZNK19StackScalarAccessorIf15CPU_MATHEMATICSE5orderEv>
  406406:	66 2e 0f 1f 84 00 00 	nopw   %cs:0x0(%rax,%rax,1)
  40640d:	00 00 00 

0000000000406410 <_ZNK19StackScalarAccessorIf15CPU_MATHEMATICSE8getShapeEv>:
  406410:	31 c0                	xor    %eax,%eax
  406412:	c3                   	retq   
  406413:	0f 1f 00             	nopl   (%rax)
  406416:	66 2e 0f 1f 84 00 00 	nopw   %cs:0x0(%rax,%rax,1)
  40641d:	00 00 00 

0000000000406420 <_ZThn8_NK19StackScalarAccessorIf15CPU_MATHEMATICSE8getShapeEv>:
  406420:	48 83 ef 08          	sub    $0x8,%rdi
  406424:	eb ea                	jmp    406410 <_ZNK19StackScalarAccessorIf15CPU_MATHEMATICSE8getShapeEv>
  406426:	66 2e 0f 1f 84 00 00 	nopw   %cs:0x0(%rax,%rax,1)
  40642d:	00 00 00 

0000000000406430 <_ZNK19StackScalarAccessorIf15CPU_MATHEMATICSE24getLeadingDimensionShapeEv>:
  406430:	31 c0                	xor    %eax,%eax
  406432:	c3                   	retq   
  406433:	0f 1f 00             	nopl   (%rax)
  406436:	66 2e 0f 1f 84 00 00 	nopw   %cs:0x0(%rax,%rax,1)
  40643d:	00 00 00 

0000000000406440 <_ZThn8_NK19StackScalarAccessorIf15CPU_MATHEMATICSE24getLeadingDimensionShapeEv>:
  406440:	48 83 ef 08          	sub    $0x8,%rdi
  406444:	eb ea                	jmp    406430 <_ZNK19StackScalarAccessorIf15CPU_MATHEMATICSE24getLeadingDimensionShapeEv>
  406446:	66 2e 0f 1f 84 00 00 	nopw   %cs:0x0(%rax,%rax,1)
  40644d:	00 00 00 

0000000000406450 <_ZN19StackScalarAccessorIf15CPU_MATHEMATICSE24getLeadingDimensionShapeEv>:
  406450:	31 c0                	xor    %eax,%eax
  406452:	c3                   	retq   
  406453:	0f 1f 00             	nopl   (%rax)
  406456:	66 2e 0f 1f 84 00 00 	nopw   %cs:0x0(%rax,%rax,1)
  40645d:	00 00 00 

0000000000406460 <_ZThn8_N19StackScalarAccessorIf15CPU_MATHEMATICSE24getLeadingDimensionShapeEv>:
  406460:	48 83 ef 08          	sub    $0x8,%rdi
  406464:	eb ea                	jmp    406450 <_ZN19StackScalarAccessorIf15CPU_MATHEMATICSE24getLeadingDimensionShapeEv>
  406466:	66 2e 0f 1f 84 00 00 	nopw   %cs:0x0(%rax,%rax,1)
  40646d:	00 00 00 

0000000000406470 <_ZN19StackScalarAccessorIf15CPU_MATHEMATICSEixEi>:
  406470:	f3 0f 10 47 10       	movss  0x10(%rdi),%xmm0
  406475:	c3                   	retq   
  406476:	66 2e 0f 1f 84 00 00 	nopw   %cs:0x0(%rax,%rax,1)
  40647d:	00 00 00 

0000000000406480 <_ZThn8_N19StackScalarAccessorIf15CPU_MATHEMATICSEixEi>:
  406480:	48 83 ef 08          	sub    $0x8,%rdi
  406484:	eb ea                	jmp    406470 <_ZN19StackScalarAccessorIf15CPU_MATHEMATICSEixEi>
  406486:	66 2e 0f 1f 84 00 00 	nopw   %cs:0x0(%rax,%rax,1)
  40648d:	00 00 00 

0000000000406490 <_ZNK15Scalar_AccessorIf15CPU_MATHEMATICSE4sizeEv>:
  406490:	b8 01 00 00 00       	mov    $0x1,%eax
  406495:	c3                   	retq   
  406496:	66 2e 0f 1f 84 00 00 	nopw   %cs:0x0(%rax,%rax,1)
  40649d:	00 00 00 

00000000004064a0 <_ZNK15Scalar_AccessorIf15CPU_MATHEMATICSE9dimensionEi>:
  4064a0:	b8 01 00 00 00       	mov    $0x1,%eax
  4064a5:	c3                   	retq   
  4064a6:	66 2e 0f 1f 84 00 00 	nopw   %cs:0x0(%rax,%rax,1)
  4064ad:	00 00 00 

00000000004064b0 <_ZNK15Scalar_AccessorIf15CPU_MATHEMATICSE17leading_dimensionEi>:
  4064b0:	31 c0                	xor    %eax,%eax
  4064b2:	c3                   	retq   
  4064b3:	66 2e 0f 1f 84 00 00 	nopw   %cs:0x0(%rax,%rax,1)
  4064ba:	00 00 00 
  4064bd:	0f 1f 00             	nopl   (%rax)

00000000004064c0 <_ZNK15Scalar_AccessorIf15CPU_MATHEMATICSE5orderEv>:
  4064c0:	b8 01 00 00 00       	mov    $0x1,%eax
  4064c5:	c3                   	retq   
  4064c6:	66 2e 0f 1f 84 00 00 	nopw   %cs:0x0(%rax,%rax,1)
  4064cd:	00 00 00 

00000000004064d0 <_ZNK15Scalar_AccessorIf15CPU_MATHEMATICSE8getShapeEv>:
  4064d0:	31 c0                	xor    %eax,%eax
  4064d2:	c3                   	retq   
  4064d3:	66 2e 0f 1f 84 00 00 	nopw   %cs:0x0(%rax,%rax,1)
  4064da:	00 00 00 
  4064dd:	0f 1f 00             	nopl   (%rax)

00000000004064e0 <_ZNK15Scalar_AccessorIf15CPU_MATHEMATICSE24getLeadingDimensionShapeEv>:
  4064e0:	31 c0                	xor    %eax,%eax
  4064e2:	c3                   	retq   
  4064e3:	66 2e 0f 1f 84 00 00 	nopw   %cs:0x0(%rax,%rax,1)
  4064ea:	00 00 00 
  4064ed:	0f 1f 00             	nopl   (%rax)

00000000004064f0 <_ZNK10continuousIf15CPU_MATHEMATICSE7getDataEv>:
  4064f0:	48 8b 47 08          	mov    0x8(%rdi),%rax
  4064f4:	c3                   	retq   
  4064f5:	66 2e 0f 1f 84 00 00 	nopw   %cs:0x0(%rax,%rax,1)
  4064fc:	00 00 00 
  4064ff:	90                   	nop

0000000000406500 <_ZNK10continuousIf15CPU_MATHEMATICSE24getLeadingDimensionShapeEv>:
  406500:	48 8b 47 10          	mov    0x10(%rdi),%rax
  406504:	c3                   	retq   
  406505:	66 2e 0f 1f 84 00 00 	nopw   %cs:0x0(%rax,%rax,1)
  40650c:	00 00 00 
  40650f:	90                   	nop

0000000000406510 <_ZN10continuousIf15CPU_MATHEMATICSE24getLeadingDimensionShapeEv>:
  406510:	48 8b 47 10          	mov    0x10(%rdi),%rax
  406514:	c3                   	retq   
  406515:	66 2e 0f 1f 84 00 00 	nopw   %cs:0x0(%rax,%rax,1)
  40651c:	00 00 00 
  40651f:	90                   	nop

0000000000406520 <_ZN19StackScalarAccessorIf15CPU_MATHEMATICSE7getDataEv>:
  406520:	55                   	push   %rbp
  406521:	53                   	push   %rbx
  406522:	bf 10 00 00 00       	mov    $0x10,%edi
  406527:	48 83 ec 08          	sub    $0x8,%rsp
  40652b:	e8 b0 ae ff ff       	callq  4013e0 <__cxa_allocate_exception@plt>
  406530:	be 28 90 40 00       	mov    $0x409028,%esi
  406535:	48 89 c7             	mov    %rax,%rdi
  406538:	48 89 c3             	mov    %rax,%rbx
  40653b:	e8 b0 b0 ff ff       	callq  4015f0 <_ZNSt16invalid_argumentC1EPKc@plt>
  406540:	ba 60 15 40 00       	mov    $0x401560,%edx
  406545:	be a0 d3 60 00       	mov    $0x60d3a0,%esi
  40654a:	48 89 df             	mov    %rbx,%rdi
  40654d:	e8 1e b0 ff ff       	callq  401570 <__cxa_throw@plt>
  406552:	48 89 c5             	mov    %rax,%rbp
  406555:	48 89 df             	mov    %rbx,%rdi
  406558:	e8 f3 ae ff ff       	callq  401450 <__cxa_free_exception@plt>
  40655d:	48 89 ef             	mov    %rbp,%rdi
  406560:	e8 2b b0 ff ff       	callq  401590 <_Unwind_Resume@plt>
  406565:	90                   	nop
  406566:	66 2e 0f 1f 84 00 00 	nopw   %cs:0x0(%rax,%rax,1)
  40656d:	00 00 00 

0000000000406570 <_ZThn8_N19StackScalarAccessorIf15CPU_MATHEMATICSE7getDataEv>:
  406570:	48 83 ef 08          	sub    $0x8,%rdi
  406574:	eb aa                	jmp    406520 <_ZN19StackScalarAccessorIf15CPU_MATHEMATICSE7getDataEv>
  406576:	66 2e 0f 1f 84 00 00 	nopw   %cs:0x0(%rax,%rax,1)
  40657d:	00 00 00 

0000000000406580 <_ZNK19StackScalarAccessorIf15CPU_MATHEMATICSE7getDataEv>:
  406580:	55                   	push   %rbp
  406581:	53                   	push   %rbx
  406582:	bf 10 00 00 00       	mov    $0x10,%edi
  406587:	48 83 ec 08          	sub    $0x8,%rsp
  40658b:	e8 50 ae ff ff       	callq  4013e0 <__cxa_allocate_exception@plt>
  406590:	be 28 90 40 00       	mov    $0x409028,%esi
  406595:	48 89 c7             	mov    %rax,%rdi
  406598:	48 89 c3             	mov    %rax,%rbx
  40659b:	e8 50 b0 ff ff       	callq  4015f0 <_ZNSt16invalid_argumentC1EPKc@plt>
  4065a0:	ba 60 15 40 00       	mov    $0x401560,%edx
  4065a5:	be a0 d3 60 00       	mov    $0x60d3a0,%esi
  4065aa:	48 89 df             	mov    %rbx,%rdi
  4065ad:	e8 be af ff ff       	callq  401570 <__cxa_throw@plt>
  4065b2:	48 89 c5             	mov    %rax,%rbp
  4065b5:	48 89 df             	mov    %rbx,%rdi
  4065b8:	e8 93 ae ff ff       	callq  401450 <__cxa_free_exception@plt>
  4065bd:	48 89 ef             	mov    %rbp,%rdi
  4065c0:	e8 cb af ff ff       	callq  401590 <_Unwind_Resume@plt>
  4065c5:	90                   	nop
  4065c6:	66 2e 0f 1f 84 00 00 	nopw   %cs:0x0(%rax,%rax,1)
  4065cd:	00 00 00 

00000000004065d0 <_ZThn8_NK19StackScalarAccessorIf15CPU_MATHEMATICSE7getDataEv>:
  4065d0:	48 83 ef 08          	sub    $0x8,%rdi
  4065d4:	eb aa                	jmp    406580 <_ZNK19StackScalarAccessorIf15CPU_MATHEMATICSE7getDataEv>
  4065d6:	66 2e 0f 1f 84 00 00 	nopw   %cs:0x0(%rax,%rax,1)
  4065dd:	00 00 00 

00000000004065e0 <_ZN11Tensor_JackIf15CPU_MATHEMATICS19StackScalarAccessorIfS0_EED1Ev>:
  4065e0:	80 7f 20 00          	cmpb   $0x0,0x20(%rdi)
  4065e4:	48 c7 07 30 9f 40 00 	movq   $0x409f30,(%rdi)
  4065eb:	75 02                	jne    4065ef <_ZN11Tensor_JackIf15CPU_MATHEMATICS19StackScalarAccessorIfS0_EED1Ev+0xf>
  4065ed:	f3 c3                	repz retq 
  4065ef:	50                   	push   %rax
  4065f0:	48 83 c7 08          	add    $0x8,%rdi
  4065f4:	e8 87 ff ff ff       	callq  406580 <_ZNK19StackScalarAccessorIf15CPU_MATHEMATICSE7getDataEv>
  4065f9:	0f 1f 80 00 00 00 00 	nopl   0x0(%rax)

0000000000406600 <_ZN6bufferIf15CPU_MATHEMATICS19StackScalarAccessorIfS0_E10continuousIfS0_EN9Operation3subIfEEE24getLeadingDimensionShapeEv>:
  406600:	55                   	push   %rbp
  406601:	53                   	push   %rbx
  406602:	bf 10 00 00 00       	mov    $0x10,%edi
  406607:	48 83 ec 08          	sub    $0x8,%rsp
  40660b:	e8 d0 ad ff ff       	callq  4013e0 <__cxa_allocate_exception@plt>
  406610:	be 58 90 40 00       	mov    $0x409058,%esi
  406615:	48 89 c7             	mov    %rax,%rdi
  406618:	48 89 c3             	mov    %rax,%rbx
  40661b:	e8 d0 af ff ff       	callq  4015f0 <_ZNSt16invalid_argumentC1EPKc@plt>
  406620:	ba 60 15 40 00       	mov    $0x401560,%edx
  406625:	be a0 d3 60 00       	mov    $0x60d3a0,%esi
  40662a:	48 89 df             	mov    %rbx,%rdi
  40662d:	e8 3e af ff ff       	callq  401570 <__cxa_throw@plt>
  406632:	48 89 c5             	mov    %rax,%rbp
  406635:	48 89 df             	mov    %rbx,%rdi
  406638:	e8 13 ae ff ff       	callq  401450 <__cxa_free_exception@plt>
  40663d:	48 89 ef             	mov    %rbp,%rdi
  406640:	e8 4b af ff ff       	callq  401590 <_Unwind_Resume@plt>
  406645:	66 2e 0f 1f 84 00 00 	nopw   %cs:0x0(%rax,%rax,1)
  40664c:	00 00 00 
  40664f:	90                   	nop

0000000000406650 <_ZN6bufferIf15CPU_MATHEMATICS19StackScalarAccessorIfS0_E10continuousIfS0_EN9Operation3subIfEEE8getShapeEv>:
  406650:	55                   	push   %rbp
  406651:	53                   	push   %rbx
  406652:	bf 10 00 00 00       	mov    $0x10,%edi
  406657:	48 83 ec 08          	sub    $0x8,%rsp
  40665b:	e8 80 ad ff ff       	callq  4013e0 <__cxa_allocate_exception@plt>
  406660:	be 98 90 40 00       	mov    $0x409098,%esi
  406665:	48 89 c7             	mov    %rax,%rdi
  406668:	48 89 c3             	mov    %rax,%rbx
  40666b:	e8 80 af ff ff       	callq  4015f0 <_ZNSt16invalid_argumentC1EPKc@plt>
  406670:	ba 60 15 40 00       	mov    $0x401560,%edx
  406675:	be a0 d3 60 00       	mov    $0x60d3a0,%esi
  40667a:	48 89 df             	mov    %rbx,%rdi
  40667d:	e8 ee ae ff ff       	callq  401570 <__cxa_throw@plt>
  406682:	48 89 c5             	mov    %rax,%rbp
  406685:	48 89 df             	mov    %rbx,%rdi
  406688:	e8 c3 ad ff ff       	callq  401450 <__cxa_free_exception@plt>
  40668d:	48 89 ef             	mov    %rbp,%rdi
  406690:	e8 fb ae ff ff       	callq  401590 <_Unwind_Resume@plt>
  406695:	66 2e 0f 1f 84 00 00 	nopw   %cs:0x0(%rax,%rax,1)
  40669c:	00 00 00 
  40669f:	90                   	nop

00000000004066a0 <_ZN6bufferIf15CPU_MATHEMATICS19StackScalarAccessorIfS0_E10continuousIfS0_EN9Operation3subIfEEE7getDataEv>:
  4066a0:	55                   	push   %rbp
  4066a1:	53                   	push   %rbx
  4066a2:	bf 10 00 00 00       	mov    $0x10,%edi
  4066a7:	48 83 ec 08          	sub    $0x8,%rsp
  4066ab:	e8 30 ad ff ff       	callq  4013e0 <__cxa_allocate_exception@plt>
  4066b0:	be d0 90 40 00       	mov    $0x4090d0,%esi
  4066b5:	48 89 c7             	mov    %rax,%rdi
  4066b8:	48 89 c3             	mov    %rax,%rbx
  4066bb:	e8 30 af ff ff       	callq  4015f0 <_ZNSt16invalid_argumentC1EPKc@plt>
  4066c0:	ba 60 15 40 00       	mov    $0x401560,%edx
  4066c5:	be a0 d3 60 00       	mov    $0x60d3a0,%esi
  4066ca:	48 89 df             	mov    %rbx,%rdi
  4066cd:	e8 9e ae ff ff       	callq  401570 <__cxa_throw@plt>
  4066d2:	48 89 c5             	mov    %rax,%rbp
  4066d5:	48 89 df             	mov    %rbx,%rdi
  4066d8:	e8 73 ad ff ff       	callq  401450 <__cxa_free_exception@plt>
  4066dd:	48 89 ef             	mov    %rbp,%rdi
  4066e0:	e8 ab ae ff ff       	callq  401590 <_Unwind_Resume@plt>
  4066e5:	66 2e 0f 1f 84 00 00 	nopw   %cs:0x0(%rax,%rax,1)
  4066ec:	00 00 00 
  4066ef:	90                   	nop

00000000004066f0 <_ZNK6bufferIf15CPU_MATHEMATICS19StackScalarAccessorIfS0_E10continuousIfS0_EN9Operation3subIfEEE24getLeadingDimensionShapeEv>:
  4066f0:	55                   	push   %rbp
  4066f1:	53                   	push   %rbx
  4066f2:	bf 10 00 00 00       	mov    $0x10,%edi
  4066f7:	48 83 ec 08          	sub    $0x8,%rsp
  4066fb:	e8 e0 ac ff ff       	callq  4013e0 <__cxa_allocate_exception@plt>
  406700:	be 58 90 40 00       	mov    $0x409058,%esi
  406705:	48 89 c7             	mov    %rax,%rdi
  406708:	48 89 c3             	mov    %rax,%rbx
  40670b:	e8 e0 ae ff ff       	callq  4015f0 <_ZNSt16invalid_argumentC1EPKc@plt>
  406710:	ba 60 15 40 00       	mov    $0x401560,%edx
  406715:	be a0 d3 60 00       	mov    $0x60d3a0,%esi
  40671a:	48 89 df             	mov    %rbx,%rdi
  40671d:	e8 4e ae ff ff       	callq  401570 <__cxa_throw@plt>
  406722:	48 89 c5             	mov    %rax,%rbp
  406725:	48 89 df             	mov    %rbx,%rdi
  406728:	e8 23 ad ff ff       	callq  401450 <__cxa_free_exception@plt>
  40672d:	48 89 ef             	mov    %rbp,%rdi
  406730:	e8 5b ae ff ff       	callq  401590 <_Unwind_Resume@plt>
  406735:	66 2e 0f 1f 84 00 00 	nopw   %cs:0x0(%rax,%rax,1)
  40673c:	00 00 00 
  40673f:	90                   	nop

0000000000406740 <_ZNK6bufferIf15CPU_MATHEMATICS19StackScalarAccessorIfS0_E10continuousIfS0_EN9Operation3subIfEEE8getShapeEv>:
  406740:	55                   	push   %rbp
  406741:	53                   	push   %rbx
  406742:	bf 10 00 00 00       	mov    $0x10,%edi
  406747:	48 83 ec 08          	sub    $0x8,%rsp
  40674b:	e8 90 ac ff ff       	callq  4013e0 <__cxa_allocate_exception@plt>
  406750:	be 98 90 40 00       	mov    $0x409098,%esi
  406755:	48 89 c7             	mov    %rax,%rdi
  406758:	48 89 c3             	mov    %rax,%rbx
  40675b:	e8 90 ae ff ff       	callq  4015f0 <_ZNSt16invalid_argumentC1EPKc@plt>
  406760:	ba 60 15 40 00       	mov    $0x401560,%edx
  406765:	be a0 d3 60 00       	mov    $0x60d3a0,%esi
  40676a:	48 89 df             	mov    %rbx,%rdi
  40676d:	e8 fe ad ff ff       	callq  401570 <__cxa_throw@plt>
  406772:	48 89 c5             	mov    %rax,%rbp
  406775:	48 89 df             	mov    %rbx,%rdi
  406778:	e8 d3 ac ff ff       	callq  401450 <__cxa_free_exception@plt>
  40677d:	48 89 ef             	mov    %rbp,%rdi
  406780:	e8 0b ae ff ff       	callq  401590 <_Unwind_Resume@plt>
  406785:	66 2e 0f 1f 84 00 00 	nopw   %cs:0x0(%rax,%rax,1)
  40678c:	00 00 00 
  40678f:	90                   	nop

0000000000406790 <_ZNK6bufferIf15CPU_MATHEMATICS19StackScalarAccessorIfS0_E10continuousIfS0_EN9Operation3subIfEEE7getDataEv>:
  406790:	55                   	push   %rbp
  406791:	53                   	push   %rbx
  406792:	bf 10 00 00 00       	mov    $0x10,%edi
  406797:	48 83 ec 08          	sub    $0x8,%rsp
  40679b:	e8 40 ac ff ff       	callq  4013e0 <__cxa_allocate_exception@plt>
  4067a0:	be d0 90 40 00       	mov    $0x4090d0,%esi
  4067a5:	48 89 c7             	mov    %rax,%rdi
  4067a8:	48 89 c3             	mov    %rax,%rbx
  4067ab:	e8 40 ae ff ff       	callq  4015f0 <_ZNSt16invalid_argumentC1EPKc@plt>
  4067b0:	ba 60 15 40 00       	mov    $0x401560,%edx
  4067b5:	be a0 d3 60 00       	mov    $0x60d3a0,%esi
  4067ba:	48 89 df             	mov    %rbx,%rdi
  4067bd:	e8 ae ad ff ff       	callq  401570 <__cxa_throw@plt>
  4067c2:	48 89 c5             	mov    %rax,%rbp
  4067c5:	48 89 df             	mov    %rbx,%rdi
  4067c8:	e8 83 ac ff ff       	callq  401450 <__cxa_free_exception@plt>
  4067cd:	48 89 ef             	mov    %rbp,%rdi
  4067d0:	e8 bb ad ff ff       	callq  401590 <_Unwind_Resume@plt>
  4067d5:	66 2e 0f 1f 84 00 00 	nopw   %cs:0x0(%rax,%rax,1)
  4067dc:	00 00 00 
  4067df:	90                   	nop

00000000004067e0 <_ZN6bufferId15CPU_MATHEMATICS10continuousIdS0_ES2_N9Operation3addIdEEE24getLeadingDimensionShapeEv>:
  4067e0:	55                   	push   %rbp
  4067e1:	53                   	push   %rbx
  4067e2:	bf 10 00 00 00       	mov    $0x10,%edi
  4067e7:	48 83 ec 08          	sub    $0x8,%rsp
  4067eb:	e8 f0 ab ff ff       	callq  4013e0 <__cxa_allocate_exception@plt>
  4067f0:	be 58 90 40 00       	mov    $0x409058,%esi
  4067f5:	48 89 c7             	mov    %rax,%rdi
  4067f8:	48 89 c3             	mov    %rax,%rbx
  4067fb:	e8 f0 ad ff ff       	callq  4015f0 <_ZNSt16invalid_argumentC1EPKc@plt>
  406800:	ba 60 15 40 00       	mov    $0x401560,%edx
  406805:	be a0 d3 60 00       	mov    $0x60d3a0,%esi
  40680a:	48 89 df             	mov    %rbx,%rdi
  40680d:	e8 5e ad ff ff       	callq  401570 <__cxa_throw@plt>
  406812:	48 89 c5             	mov    %rax,%rbp
  406815:	48 89 df             	mov    %rbx,%rdi
  406818:	e8 33 ac ff ff       	callq  401450 <__cxa_free_exception@plt>
  40681d:	48 89 ef             	mov    %rbp,%rdi
  406820:	e8 6b ad ff ff       	callq  401590 <_Unwind_Resume@plt>
  406825:	66 2e 0f 1f 84 00 00 	nopw   %cs:0x0(%rax,%rax,1)
  40682c:	00 00 00 
  40682f:	90                   	nop

0000000000406830 <_ZN6bufferId15CPU_MATHEMATICS10continuousIdS0_ES2_N9Operation3addIdEEE8getShapeEv>:
  406830:	55                   	push   %rbp
  406831:	53                   	push   %rbx
  406832:	bf 10 00 00 00       	mov    $0x10,%edi
  406837:	48 83 ec 08          	sub    $0x8,%rsp
  40683b:	e8 a0 ab ff ff       	callq  4013e0 <__cxa_allocate_exception@plt>
  406840:	be 98 90 40 00       	mov    $0x409098,%esi
  406845:	48 89 c7             	mov    %rax,%rdi
  406848:	48 89 c3             	mov    %rax,%rbx
  40684b:	e8 a0 ad ff ff       	callq  4015f0 <_ZNSt16invalid_argumentC1EPKc@plt>
  406850:	ba 60 15 40 00       	mov    $0x401560,%edx
  406855:	be a0 d3 60 00       	mov    $0x60d3a0,%esi
  40685a:	48 89 df             	mov    %rbx,%rdi
  40685d:	e8 0e ad ff ff       	callq  401570 <__cxa_throw@plt>
  406862:	48 89 c5             	mov    %rax,%rbp
  406865:	48 89 df             	mov    %rbx,%rdi
  406868:	e8 e3 ab ff ff       	callq  401450 <__cxa_free_exception@plt>
  40686d:	48 89 ef             	mov    %rbp,%rdi
  406870:	e8 1b ad ff ff       	callq  401590 <_Unwind_Resume@plt>
  406875:	66 2e 0f 1f 84 00 00 	nopw   %cs:0x0(%rax,%rax,1)
  40687c:	00 00 00 
  40687f:	90                   	nop

0000000000406880 <_ZN6bufferId15CPU_MATHEMATICS10continuousIdS0_ES2_N9Operation3addIdEEE7getDataEv>:
  406880:	55                   	push   %rbp
  406881:	53                   	push   %rbx
  406882:	bf 10 00 00 00       	mov    $0x10,%edi
  406887:	48 83 ec 08          	sub    $0x8,%rsp
  40688b:	e8 50 ab ff ff       	callq  4013e0 <__cxa_allocate_exception@plt>
  406890:	be d0 90 40 00       	mov    $0x4090d0,%esi
  406895:	48 89 c7             	mov    %rax,%rdi
  406898:	48 89 c3             	mov    %rax,%rbx
  40689b:	e8 50 ad ff ff       	callq  4015f0 <_ZNSt16invalid_argumentC1EPKc@plt>
  4068a0:	ba 60 15 40 00       	mov    $0x401560,%edx
  4068a5:	be a0 d3 60 00       	mov    $0x60d3a0,%esi
  4068aa:	48 89 df             	mov    %rbx,%rdi
  4068ad:	e8 be ac ff ff       	callq  401570 <__cxa_throw@plt>
  4068b2:	48 89 c5             	mov    %rax,%rbp
  4068b5:	48 89 df             	mov    %rbx,%rdi
  4068b8:	e8 93 ab ff ff       	callq  401450 <__cxa_free_exception@plt>
  4068bd:	48 89 ef             	mov    %rbp,%rdi
  4068c0:	e8 cb ac ff ff       	callq  401590 <_Unwind_Resume@plt>
  4068c5:	66 2e 0f 1f 84 00 00 	nopw   %cs:0x0(%rax,%rax,1)
  4068cc:	00 00 00 
  4068cf:	90                   	nop

00000000004068d0 <_ZNK6bufferId15CPU_MATHEMATICS10continuousIdS0_ES2_N9Operation3addIdEEE24getLeadingDimensionShapeEv>:
  4068d0:	55                   	push   %rbp
  4068d1:	53                   	push   %rbx
  4068d2:	bf 10 00 00 00       	mov    $0x10,%edi
  4068d7:	48 83 ec 08          	sub    $0x8,%rsp
  4068db:	e8 00 ab ff ff       	callq  4013e0 <__cxa_allocate_exception@plt>
  4068e0:	be 58 90 40 00       	mov    $0x409058,%esi
  4068e5:	48 89 c7             	mov    %rax,%rdi
  4068e8:	48 89 c3             	mov    %rax,%rbx
  4068eb:	e8 00 ad ff ff       	callq  4015f0 <_ZNSt16invalid_argumentC1EPKc@plt>
  4068f0:	ba 60 15 40 00       	mov    $0x401560,%edx
  4068f5:	be a0 d3 60 00       	mov    $0x60d3a0,%esi
  4068fa:	48 89 df             	mov    %rbx,%rdi
  4068fd:	e8 6e ac ff ff       	callq  401570 <__cxa_throw@plt>
  406902:	48 89 c5             	mov    %rax,%rbp
  406905:	48 89 df             	mov    %rbx,%rdi
  406908:	e8 43 ab ff ff       	callq  401450 <__cxa_free_exception@plt>
  40690d:	48 89 ef             	mov    %rbp,%rdi
  406910:	e8 7b ac ff ff       	callq  401590 <_Unwind_Resume@plt>
  406915:	66 2e 0f 1f 84 00 00 	nopw   %cs:0x0(%rax,%rax,1)
  40691c:	00 00 00 
  40691f:	90                   	nop

0000000000406920 <_ZNK6bufferId15CPU_MATHEMATICS10continuousIdS0_ES2_N9Operation3addIdEEE8getShapeEv>:
  406920:	55                   	push   %rbp
  406921:	53                   	push   %rbx
  406922:	bf 10 00 00 00       	mov    $0x10,%edi
  406927:	48 83 ec 08          	sub    $0x8,%rsp
  40692b:	e8 b0 aa ff ff       	callq  4013e0 <__cxa_allocate_exception@plt>
  406930:	be 98 90 40 00       	mov    $0x409098,%esi
  406935:	48 89 c7             	mov    %rax,%rdi
  406938:	48 89 c3             	mov    %rax,%rbx
  40693b:	e8 b0 ac ff ff       	callq  4015f0 <_ZNSt16invalid_argumentC1EPKc@plt>
  406940:	ba 60 15 40 00       	mov    $0x401560,%edx
  406945:	be a0 d3 60 00       	mov    $0x60d3a0,%esi
  40694a:	48 89 df             	mov    %rbx,%rdi
  40694d:	e8 1e ac ff ff       	callq  401570 <__cxa_throw@plt>
  406952:	48 89 c5             	mov    %rax,%rbp
  406955:	48 89 df             	mov    %rbx,%rdi
  406958:	e8 f3 aa ff ff       	callq  401450 <__cxa_free_exception@plt>
  40695d:	48 89 ef             	mov    %rbp,%rdi
  406960:	e8 2b ac ff ff       	callq  401590 <_Unwind_Resume@plt>
  406965:	66 2e 0f 1f 84 00 00 	nopw   %cs:0x0(%rax,%rax,1)
  40696c:	00 00 00 
  40696f:	90                   	nop

0000000000406970 <_ZNK6bufferId15CPU_MATHEMATICS10continuousIdS0_ES2_N9Operation3addIdEEE7getDataEv>:
  406970:	55                   	push   %rbp
  406971:	53                   	push   %rbx
  406972:	bf 10 00 00 00       	mov    $0x10,%edi
  406977:	48 83 ec 08          	sub    $0x8,%rsp
  40697b:	e8 60 aa ff ff       	callq  4013e0 <__cxa_allocate_exception@plt>
  406980:	be d0 90 40 00       	mov    $0x4090d0,%esi
  406985:	48 89 c7             	mov    %rax,%rdi
  406988:	48 89 c3             	mov    %rax,%rbx
  40698b:	e8 60 ac ff ff       	callq  4015f0 <_ZNSt16invalid_argumentC1EPKc@plt>
  406990:	ba 60 15 40 00       	mov    $0x401560,%edx
  406995:	be a0 d3 60 00       	mov    $0x60d3a0,%esi
  40699a:	48 89 df             	mov    %rbx,%rdi
  40699d:	e8 ce ab ff ff       	callq  401570 <__cxa_throw@plt>
  4069a2:	48 89 c5             	mov    %rax,%rbp
  4069a5:	48 89 df             	mov    %rbx,%rdi
  4069a8:	e8 a3 aa ff ff       	callq  401450 <__cxa_free_exception@plt>
  4069ad:	48 89 ef             	mov    %rbp,%rdi
  4069b0:	e8 db ab ff ff       	callq  401590 <_Unwind_Resume@plt>
  4069b5:	66 2e 0f 1f 84 00 00 	nopw   %cs:0x0(%rax,%rax,1)
  4069bc:	00 00 00 
  4069bf:	90                   	nop

00000000004069c0 <_ZN6bufferId15CPU_MATHEMATICSS_IdS0_10continuousIdS0_ES2_N9Operation3addIdEEES2_S5_E24getLeadingDimensionShapeEv>:
  4069c0:	55                   	push   %rbp
  4069c1:	53                   	push   %rbx
  4069c2:	bf 10 00 00 00       	mov    $0x10,%edi
  4069c7:	48 83 ec 08          	sub    $0x8,%rsp
  4069cb:	e8 10 aa ff ff       	callq  4013e0 <__cxa_allocate_exception@plt>
  4069d0:	be 58 90 40 00       	mov    $0x409058,%esi
  4069d5:	48 89 c7             	mov    %rax,%rdi
  4069d8:	48 89 c3             	mov    %rax,%rbx
  4069db:	e8 10 ac ff ff       	callq  4015f0 <_ZNSt16invalid_argumentC1EPKc@plt>
  4069e0:	ba 60 15 40 00       	mov    $0x401560,%edx
  4069e5:	be a0 d3 60 00       	mov    $0x60d3a0,%esi
  4069ea:	48 89 df             	mov    %rbx,%rdi
  4069ed:	e8 7e ab ff ff       	callq  401570 <__cxa_throw@plt>
  4069f2:	48 89 c5             	mov    %rax,%rbp
  4069f5:	48 89 df             	mov    %rbx,%rdi
  4069f8:	e8 53 aa ff ff       	callq  401450 <__cxa_free_exception@plt>
  4069fd:	48 89 ef             	mov    %rbp,%rdi
  406a00:	e8 8b ab ff ff       	callq  401590 <_Unwind_Resume@plt>
  406a05:	66 2e 0f 1f 84 00 00 	nopw   %cs:0x0(%rax,%rax,1)
  406a0c:	00 00 00 
  406a0f:	90                   	nop

0000000000406a10 <_ZN6bufferId15CPU_MATHEMATICSS_IdS0_10continuousIdS0_ES2_N9Operation3addIdEEES2_S5_E8getShapeEv>:
  406a10:	55                   	push   %rbp
  406a11:	53                   	push   %rbx
  406a12:	bf 10 00 00 00       	mov    $0x10,%edi
  406a17:	48 83 ec 08          	sub    $0x8,%rsp
  406a1b:	e8 c0 a9 ff ff       	callq  4013e0 <__cxa_allocate_exception@plt>
  406a20:	be 98 90 40 00       	mov    $0x409098,%esi
  406a25:	48 89 c7             	mov    %rax,%rdi
  406a28:	48 89 c3             	mov    %rax,%rbx
  406a2b:	e8 c0 ab ff ff       	callq  4015f0 <_ZNSt16invalid_argumentC1EPKc@plt>
  406a30:	ba 60 15 40 00       	mov    $0x401560,%edx
  406a35:	be a0 d3 60 00       	mov    $0x60d3a0,%esi
  406a3a:	48 89 df             	mov    %rbx,%rdi
  406a3d:	e8 2e ab ff ff       	callq  401570 <__cxa_throw@plt>
  406a42:	48 89 c5             	mov    %rax,%rbp
  406a45:	48 89 df             	mov    %rbx,%rdi
  406a48:	e8 03 aa ff ff       	callq  401450 <__cxa_free_exception@plt>
  406a4d:	48 89 ef             	mov    %rbp,%rdi
  406a50:	e8 3b ab ff ff       	callq  401590 <_Unwind_Resume@plt>
  406a55:	66 2e 0f 1f 84 00 00 	nopw   %cs:0x0(%rax,%rax,1)
  406a5c:	00 00 00 
  406a5f:	90                   	nop

0000000000406a60 <_ZN6bufferId15CPU_MATHEMATICSS_IdS0_10continuousIdS0_ES2_N9Operation3addIdEEES2_S5_E7getDataEv>:
  406a60:	55                   	push   %rbp
  406a61:	53                   	push   %rbx
  406a62:	bf 10 00 00 00       	mov    $0x10,%edi
  406a67:	48 83 ec 08          	sub    $0x8,%rsp
  406a6b:	e8 70 a9 ff ff       	callq  4013e0 <__cxa_allocate_exception@plt>
  406a70:	be d0 90 40 00       	mov    $0x4090d0,%esi
  406a75:	48 89 c7             	mov    %rax,%rdi
  406a78:	48 89 c3             	mov    %rax,%rbx
  406a7b:	e8 70 ab ff ff       	callq  4015f0 <_ZNSt16invalid_argumentC1EPKc@plt>
  406a80:	ba 60 15 40 00       	mov    $0x401560,%edx
  406a85:	be a0 d3 60 00       	mov    $0x60d3a0,%esi
  406a8a:	48 89 df             	mov    %rbx,%rdi
  406a8d:	e8 de aa ff ff       	callq  401570 <__cxa_throw@plt>
  406a92:	48 89 c5             	mov    %rax,%rbp
  406a95:	48 89 df             	mov    %rbx,%rdi
  406a98:	e8 b3 a9 ff ff       	callq  401450 <__cxa_free_exception@plt>
  406a9d:	48 89 ef             	mov    %rbp,%rdi
  406aa0:	e8 eb aa ff ff       	callq  401590 <_Unwind_Resume@plt>
  406aa5:	66 2e 0f 1f 84 00 00 	nopw   %cs:0x0(%rax,%rax,1)
  406aac:	00 00 00 
  406aaf:	90                   	nop

0000000000406ab0 <_ZNK6bufferId15CPU_MATHEMATICSS_IdS0_10continuousIdS0_ES2_N9Operation3addIdEEES2_S5_E24getLeadingDimensionShapeEv>:
  406ab0:	55                   	push   %rbp
  406ab1:	53                   	push   %rbx
  406ab2:	bf 10 00 00 00       	mov    $0x10,%edi
  406ab7:	48 83 ec 08          	sub    $0x8,%rsp
  406abb:	e8 20 a9 ff ff       	callq  4013e0 <__cxa_allocate_exception@plt>
  406ac0:	be 58 90 40 00       	mov    $0x409058,%esi
  406ac5:	48 89 c7             	mov    %rax,%rdi
  406ac8:	48 89 c3             	mov    %rax,%rbx
  406acb:	e8 20 ab ff ff       	callq  4015f0 <_ZNSt16invalid_argumentC1EPKc@plt>
  406ad0:	ba 60 15 40 00       	mov    $0x401560,%edx
  406ad5:	be a0 d3 60 00       	mov    $0x60d3a0,%esi
  406ada:	48 89 df             	mov    %rbx,%rdi
  406add:	e8 8e aa ff ff       	callq  401570 <__cxa_throw@plt>
  406ae2:	48 89 c5             	mov    %rax,%rbp
  406ae5:	48 89 df             	mov    %rbx,%rdi
  406ae8:	e8 63 a9 ff ff       	callq  401450 <__cxa_free_exception@plt>
  406aed:	48 89 ef             	mov    %rbp,%rdi
  406af0:	e8 9b aa ff ff       	callq  401590 <_Unwind_Resume@plt>
  406af5:	66 2e 0f 1f 84 00 00 	nopw   %cs:0x0(%rax,%rax,1)
  406afc:	00 00 00 
  406aff:	90                   	nop

0000000000406b00 <_ZNK6bufferId15CPU_MATHEMATICSS_IdS0_10continuousIdS0_ES2_N9Operation3addIdEEES2_S5_E8getShapeEv>:
  406b00:	55                   	push   %rbp
  406b01:	53                   	push   %rbx
  406b02:	bf 10 00 00 00       	mov    $0x10,%edi
  406b07:	48 83 ec 08          	sub    $0x8,%rsp
  406b0b:	e8 d0 a8 ff ff       	callq  4013e0 <__cxa_allocate_exception@plt>
  406b10:	be 98 90 40 00       	mov    $0x409098,%esi
  406b15:	48 89 c7             	mov    %rax,%rdi
  406b18:	48 89 c3             	mov    %rax,%rbx
  406b1b:	e8 d0 aa ff ff       	callq  4015f0 <_ZNSt16invalid_argumentC1EPKc@plt>
  406b20:	ba 60 15 40 00       	mov    $0x401560,%edx
  406b25:	be a0 d3 60 00       	mov    $0x60d3a0,%esi
  406b2a:	48 89 df             	mov    %rbx,%rdi
  406b2d:	e8 3e aa ff ff       	callq  401570 <__cxa_throw@plt>
  406b32:	48 89 c5             	mov    %rax,%rbp
  406b35:	48 89 df             	mov    %rbx,%rdi
  406b38:	e8 13 a9 ff ff       	callq  401450 <__cxa_free_exception@plt>
  406b3d:	48 89 ef             	mov    %rbp,%rdi
  406b40:	e8 4b aa ff ff       	callq  401590 <_Unwind_Resume@plt>
  406b45:	66 2e 0f 1f 84 00 00 	nopw   %cs:0x0(%rax,%rax,1)
  406b4c:	00 00 00 
  406b4f:	90                   	nop

0000000000406b50 <_ZNK6bufferId15CPU_MATHEMATICSS_IdS0_10continuousIdS0_ES2_N9Operation3addIdEEES2_S5_E7getDataEv>:
  406b50:	55                   	push   %rbp
  406b51:	53                   	push   %rbx
  406b52:	bf 10 00 00 00       	mov    $0x10,%edi
  406b57:	48 83 ec 08          	sub    $0x8,%rsp
  406b5b:	e8 80 a8 ff ff       	callq  4013e0 <__cxa_allocate_exception@plt>
  406b60:	be d0 90 40 00       	mov    $0x4090d0,%esi
  406b65:	48 89 c7             	mov    %rax,%rdi
  406b68:	48 89 c3             	mov    %rax,%rbx
  406b6b:	e8 80 aa ff ff       	callq  4015f0 <_ZNSt16invalid_argumentC1EPKc@plt>
  406b70:	ba 60 15 40 00       	mov    $0x401560,%edx
  406b75:	be a0 d3 60 00       	mov    $0x60d3a0,%esi
  406b7a:	48 89 df             	mov    %rbx,%rdi
  406b7d:	e8 ee a9 ff ff       	callq  401570 <__cxa_throw@plt>
  406b82:	48 89 c5             	mov    %rax,%rbp
  406b85:	48 89 df             	mov    %rbx,%rdi
  406b88:	e8 c3 a8 ff ff       	callq  401450 <__cxa_free_exception@plt>
  406b8d:	48 89 ef             	mov    %rbp,%rdi
  406b90:	e8 fb a9 ff ff       	callq  401590 <_Unwind_Resume@plt>
  406b95:	66 2e 0f 1f 84 00 00 	nopw   %cs:0x0(%rax,%rax,1)
  406b9c:	00 00 00 
  406b9f:	90                   	nop

0000000000406ba0 <_ZN11Tensor_KingIf15CPU_MATHEMATICS10continuousIfS0_EED0Ev>:
  406ba0:	be 28 00 00 00       	mov    $0x28,%esi
  406ba5:	e9 06 a9 ff ff       	jmpq   4014b0 <_ZdlPvm@plt>
  406baa:	66 0f 1f 44 00 00    	nopw   0x0(%rax,%rax,1)

0000000000406bb0 <_ZN12Tensor_QueenIf15CPU_MATHEMATICS10continuousIfS0_EED0Ev>:
  406bb0:	be 28 00 00 00       	mov    $0x28,%esi
  406bb5:	e9 f6 a8 ff ff       	jmpq   4014b0 <_ZdlPvm@plt>
  406bba:	66 0f 1f 44 00 00    	nopw   0x0(%rax,%rax,1)

0000000000406bc0 <_ZN10continuousIf15CPU_MATHEMATICSED0Ev>:
  406bc0:	be 20 00 00 00       	mov    $0x20,%esi
  406bc5:	e9 e6 a8 ff ff       	jmpq   4014b0 <_ZdlPvm@plt>
  406bca:	66 0f 1f 44 00 00    	nopw   0x0(%rax,%rax,1)

0000000000406bd0 <_ZN11Tensor_KingIf15CPU_MATHEMATICS19StackScalarAccessorIfS0_EED0Ev>:
  406bd0:	be 20 00 00 00       	mov    $0x20,%esi
  406bd5:	e9 d6 a8 ff ff       	jmpq   4014b0 <_ZdlPvm@plt>
  406bda:	66 0f 1f 44 00 00    	nopw   0x0(%rax,%rax,1)

0000000000406be0 <_ZN12Tensor_QueenIf15CPU_MATHEMATICS19StackScalarAccessorIfS0_EED0Ev>:
  406be0:	be 20 00 00 00       	mov    $0x20,%esi
  406be5:	e9 c6 a8 ff ff       	jmpq   4014b0 <_ZdlPvm@plt>
  406bea:	66 0f 1f 44 00 00    	nopw   0x0(%rax,%rax,1)

0000000000406bf0 <_ZN19StackScalarAccessorIf15CPU_MATHEMATICSED0Ev>:
  406bf0:	be 18 00 00 00       	mov    $0x18,%esi
  406bf5:	e9 b6 a8 ff ff       	jmpq   4014b0 <_ZdlPvm@plt>
  406bfa:	66 0f 1f 44 00 00    	nopw   0x0(%rax,%rax,1)

0000000000406c00 <_ZThn8_N19StackScalarAccessorIf15CPU_MATHEMATICSED0Ev>:
  406c00:	48 83 ef 08          	sub    $0x8,%rdi
  406c04:	eb ea                	jmp    406bf0 <_ZN19StackScalarAccessorIf15CPU_MATHEMATICSED0Ev>
  406c06:	66 2e 0f 1f 84 00 00 	nopw   %cs:0x0(%rax,%rax,1)
  406c0d:	00 00 00 

0000000000406c10 <_ZN11Tensor_KingIf15CPU_MATHEMATICS6bufferIfS0_19StackScalarAccessorIfS0_E10continuousIfS0_EN9Operation3subIfEEEED0Ev>:
  406c10:	be 48 00 00 00       	mov    $0x48,%esi
  406c15:	e9 96 a8 ff ff       	jmpq   4014b0 <_ZdlPvm@plt>
  406c1a:	66 0f 1f 44 00 00    	nopw   0x0(%rax,%rax,1)

0000000000406c20 <_ZN12Tensor_QueenIf15CPU_MATHEMATICS6bufferIfS0_19StackScalarAccessorIfS0_E10continuousIfS0_EN9Operation3subIfEEEED0Ev>:
  406c20:	be 48 00 00 00       	mov    $0x48,%esi
  406c25:	e9 86 a8 ff ff       	jmpq   4014b0 <_ZdlPvm@plt>
  406c2a:	66 0f 1f 44 00 00    	nopw   0x0(%rax,%rax,1)

0000000000406c30 <_ZN6bufferIf15CPU_MATHEMATICS19StackScalarAccessorIfS0_E10continuousIfS0_EN9Operation3subIfEEED0Ev>:
  406c30:	be 40 00 00 00       	mov    $0x40,%esi
  406c35:	e9 76 a8 ff ff       	jmpq   4014b0 <_ZdlPvm@plt>
  406c3a:	66 0f 1f 44 00 00    	nopw   0x0(%rax,%rax,1)

0000000000406c40 <_ZN11Tensor_KingIf15CPU_MATHEMATICS23ReferenceScalarAccessorIfS0_EED0Ev>:
  406c40:	be 20 00 00 00       	mov    $0x20,%esi
  406c45:	e9 66 a8 ff ff       	jmpq   4014b0 <_ZdlPvm@plt>
  406c4a:	66 0f 1f 44 00 00    	nopw   0x0(%rax,%rax,1)

0000000000406c50 <_ZN12Tensor_QueenIf15CPU_MATHEMATICS23ReferenceScalarAccessorIfS0_EED0Ev>:
  406c50:	be 20 00 00 00       	mov    $0x20,%esi
  406c55:	e9 56 a8 ff ff       	jmpq   4014b0 <_ZdlPvm@plt>
  406c5a:	66 0f 1f 44 00 00    	nopw   0x0(%rax,%rax,1)

0000000000406c60 <_ZN23ReferenceScalarAccessorIf15CPU_MATHEMATICSED0Ev>:
  406c60:	be 18 00 00 00       	mov    $0x18,%esi
  406c65:	e9 46 a8 ff ff       	jmpq   4014b0 <_ZdlPvm@plt>
  406c6a:	66 0f 1f 44 00 00    	nopw   0x0(%rax,%rax,1)

0000000000406c70 <_ZThn8_N23ReferenceScalarAccessorIf15CPU_MATHEMATICSED0Ev>:
  406c70:	48 83 ef 08          	sub    $0x8,%rdi
  406c74:	eb ea                	jmp    406c60 <_ZN23ReferenceScalarAccessorIf15CPU_MATHEMATICSED0Ev>
  406c76:	66 2e 0f 1f 84 00 00 	nopw   %cs:0x0(%rax,%rax,1)
  406c7d:	00 00 00 

0000000000406c80 <_ZN11Tensor_KingId15CPU_MATHEMATICS10continuousIdS0_EED0Ev>:
  406c80:	be 28 00 00 00       	mov    $0x28,%esi
  406c85:	e9 26 a8 ff ff       	jmpq   4014b0 <_ZdlPvm@plt>
  406c8a:	66 0f 1f 44 00 00    	nopw   0x0(%rax,%rax,1)

0000000000406c90 <_ZN12Tensor_QueenId15CPU_MATHEMATICS10continuousIdS0_EED0Ev>:
  406c90:	be 28 00 00 00       	mov    $0x28,%esi
  406c95:	e9 16 a8 ff ff       	jmpq   4014b0 <_ZdlPvm@plt>
  406c9a:	66 0f 1f 44 00 00    	nopw   0x0(%rax,%rax,1)

0000000000406ca0 <_ZN10continuousId15CPU_MATHEMATICSED0Ev>:
  406ca0:	be 20 00 00 00       	mov    $0x20,%esi
  406ca5:	e9 06 a8 ff ff       	jmpq   4014b0 <_ZdlPvm@plt>
  406caa:	66 0f 1f 44 00 00    	nopw   0x0(%rax,%rax,1)

0000000000406cb0 <_ZN11Tensor_KingId15CPU_MATHEMATICS6bufferIdS0_10continuousIdS0_ES3_N9Operation3addIdEEEED0Ev>:
  406cb0:	be 50 00 00 00       	mov    $0x50,%esi
  406cb5:	e9 f6 a7 ff ff       	jmpq   4014b0 <_ZdlPvm@plt>
  406cba:	66 0f 1f 44 00 00    	nopw   0x0(%rax,%rax,1)

0000000000406cc0 <_ZN12Tensor_QueenId15CPU_MATHEMATICS6bufferIdS0_10continuousIdS0_ES3_N9Operation3addIdEEEED0Ev>:
  406cc0:	be 50 00 00 00       	mov    $0x50,%esi
  406cc5:	e9 e6 a7 ff ff       	jmpq   4014b0 <_ZdlPvm@plt>
  406cca:	66 0f 1f 44 00 00    	nopw   0x0(%rax,%rax,1)

0000000000406cd0 <_ZN6bufferId15CPU_MATHEMATICS10continuousIdS0_ES2_N9Operation3addIdEEED0Ev>:
  406cd0:	be 48 00 00 00       	mov    $0x48,%esi
  406cd5:	e9 d6 a7 ff ff       	jmpq   4014b0 <_ZdlPvm@plt>
  406cda:	66 0f 1f 44 00 00    	nopw   0x0(%rax,%rax,1)

0000000000406ce0 <_ZN11Tensor_KingId15CPU_MATHEMATICS6bufferIdS0_S1_IdS0_10continuousIdS0_ES3_N9Operation3addIdEEES3_S6_EED0Ev>:
  406ce0:	be 78 00 00 00       	mov    $0x78,%esi
  406ce5:	e9 c6 a7 ff ff       	jmpq   4014b0 <_ZdlPvm@plt>
  406cea:	66 0f 1f 44 00 00    	nopw   0x0(%rax,%rax,1)

0000000000406cf0 <_ZN12Tensor_QueenId15CPU_MATHEMATICS6bufferIdS0_S1_IdS0_10continuousIdS0_ES3_N9Operation3addIdEEES3_S6_EED0Ev>:
  406cf0:	be 78 00 00 00       	mov    $0x78,%esi
  406cf5:	e9 b6 a7 ff ff       	jmpq   4014b0 <_ZdlPvm@plt>
  406cfa:	66 0f 1f 44 00 00    	nopw   0x0(%rax,%rax,1)

0000000000406d00 <_ZN6bufferId15CPU_MATHEMATICSS_IdS0_10continuousIdS0_ES2_N9Operation3addIdEEES2_S5_ED0Ev>:
  406d00:	be 70 00 00 00       	mov    $0x70,%esi
  406d05:	e9 a6 a7 ff ff       	jmpq   4014b0 <_ZdlPvm@plt>
  406d0a:	66 0f 1f 44 00 00    	nopw   0x0(%rax,%rax,1)

0000000000406d10 <_ZN11Tensor_JackIf15CPU_MATHEMATICS10continuousIfS0_EED1Ev>:
  406d10:	53                   	push   %rbx
  406d11:	80 7f 28 00          	cmpb   $0x0,0x28(%rdi)
  406d15:	48 89 fb             	mov    %rdi,%rbx
  406d18:	48 c7 07 f0 9d 40 00 	movq   $0x409df0,(%rdi)
  406d1f:	74 0e                	je     406d2f <_ZN11Tensor_JackIf15CPU_MATHEMATICS10continuousIfS0_EED1Ev+0x1f>
  406d21:	48 8b 7f 10          	mov    0x10(%rdi),%rdi
  406d25:	48 85 ff             	test   %rdi,%rdi
  406d28:	74 05                	je     406d2f <_ZN11Tensor_JackIf15CPU_MATHEMATICS10continuousIfS0_EED1Ev+0x1f>
  406d2a:	e8 d1 a7 ff ff       	callq  401500 <_ZdaPv@plt>
  406d2f:	80 7b 29 00          	cmpb   $0x0,0x29(%rbx)
  406d33:	74 13                	je     406d48 <_ZN11Tensor_JackIf15CPU_MATHEMATICS10continuousIfS0_EED1Ev+0x38>
  406d35:	48 8b 7b 18          	mov    0x18(%rbx),%rdi
  406d39:	48 85 ff             	test   %rdi,%rdi
  406d3c:	74 0a                	je     406d48 <_ZN11Tensor_JackIf15CPU_MATHEMATICS10continuousIfS0_EED1Ev+0x38>
  406d3e:	5b                   	pop    %rbx
  406d3f:	e9 bc a7 ff ff       	jmpq   401500 <_ZdaPv@plt>
  406d44:	0f 1f 40 00          	nopl   0x0(%rax)
  406d48:	5b                   	pop    %rbx
  406d49:	c3                   	retq   
  406d4a:	66 0f 1f 44 00 00    	nopw   0x0(%rax,%rax,1)

0000000000406d50 <_ZN11Tensor_JackIf15CPU_MATHEMATICS23ReferenceScalarAccessorIfS0_EED1Ev>:
  406d50:	80 7f 20 00          	cmpb   $0x0,0x20(%rdi)
  406d54:	48 c7 07 60 a1 40 00 	movq   $0x40a160,(%rdi)
  406d5b:	74 13                	je     406d70 <_ZN11Tensor_JackIf15CPU_MATHEMATICS23ReferenceScalarAccessorIfS0_EED1Ev+0x20>
  406d5d:	48 8b 7f 18          	mov    0x18(%rdi),%rdi
  406d61:	48 85 ff             	test   %rdi,%rdi
  406d64:	74 0a                	je     406d70 <_ZN11Tensor_JackIf15CPU_MATHEMATICS23ReferenceScalarAccessorIfS0_EED1Ev+0x20>
  406d66:	e9 95 a7 ff ff       	jmpq   401500 <_ZdaPv@plt>
  406d6b:	0f 1f 44 00 00       	nopl   0x0(%rax,%rax,1)
  406d70:	f3 c3                	repz retq 
  406d72:	66 2e 0f 1f 84 00 00 	nopw   %cs:0x0(%rax,%rax,1)
  406d79:	00 00 00 
  406d7c:	0f 1f 40 00          	nopl   0x0(%rax)

0000000000406d80 <_ZN11Tensor_JackId15CPU_MATHEMATICS10continuousIdS0_EED1Ev>:
  406d80:	53                   	push   %rbx
  406d81:	80 7f 28 00          	cmpb   $0x0,0x28(%rdi)
  406d85:	48 89 fb             	mov    %rdi,%rbx
  406d88:	48 c7 07 d0 a2 40 00 	movq   $0x40a2d0,(%rdi)
  406d8f:	74 0e                	je     406d9f <_ZN11Tensor_JackId15CPU_MATHEMATICS10continuousIdS0_EED1Ev+0x1f>
  406d91:	48 8b 7f 10          	mov    0x10(%rdi),%rdi
  406d95:	48 85 ff             	test   %rdi,%rdi
  406d98:	74 05                	je     406d9f <_ZN11Tensor_JackId15CPU_MATHEMATICS10continuousIdS0_EED1Ev+0x1f>
  406d9a:	e8 61 a7 ff ff       	callq  401500 <_ZdaPv@plt>
  406d9f:	80 7b 29 00          	cmpb   $0x0,0x29(%rbx)
  406da3:	74 13                	je     406db8 <_ZN11Tensor_JackId15CPU_MATHEMATICS10continuousIdS0_EED1Ev+0x38>
  406da5:	48 8b 7b 18          	mov    0x18(%rbx),%rdi
  406da9:	48 85 ff             	test   %rdi,%rdi
  406dac:	74 0a                	je     406db8 <_ZN11Tensor_JackId15CPU_MATHEMATICS10continuousIdS0_EED1Ev+0x38>
  406dae:	5b                   	pop    %rbx
  406daf:	e9 4c a7 ff ff       	jmpq   401500 <_ZdaPv@plt>
  406db4:	0f 1f 40 00          	nopl   0x0(%rax)
  406db8:	5b                   	pop    %rbx
  406db9:	c3                   	retq   
  406dba:	66 0f 1f 44 00 00    	nopw   0x0(%rax,%rax,1)

0000000000406dc0 <_ZNK11Tensor_KingIf15CPU_MATHEMATICS6bufferIfS0_19StackScalarAccessorIfS0_E10continuousIfS0_EN9Operation3subIfEEEE9dimensionEi>:
  406dc0:	3b 77 40             	cmp    0x40(%rdi),%esi
  406dc3:	b8 01 00 00 00       	mov    $0x1,%eax
  406dc8:	7d 14                	jge    406dde <_ZNK11Tensor_KingIf15CPU_MATHEMATICS6bufferIfS0_19StackScalarAccessorIfS0_E10continuousIfS0_EN9Operation3subIfEEEE9dimensionEi+0x1e>
  406dca:	48 8b 47 38          	mov    0x38(%rdi),%rax
  406dce:	48 63 f6             	movslq %esi,%rsi
  406dd1:	ba 01 00 00 00       	mov    $0x1,%edx
  406dd6:	8b 04 b0             	mov    (%rax,%rsi,4),%eax
  406dd9:	85 c0                	test   %eax,%eax
  406ddb:	0f 4e c2             	cmovle %edx,%eax
  406dde:	f3 c3                	repz retq 

0000000000406de0 <_ZNK11Tensor_KingIf15CPU_MATHEMATICS6bufferIfS0_19StackScalarAccessorIfS0_E10continuousIfS0_EN9Operation3subIfEEEE17leading_dimensionEi>:
  406de0:	3b 77 40             	cmp    0x40(%rdi),%esi
  406de3:	7d 23                	jge    406e08 <_ZNK11Tensor_KingIf15CPU_MATHEMATICS6bufferIfS0_19StackScalarAccessorIfS0_E10continuousIfS0_EN9Operation3subIfEEEE17leading_dimensionEi+0x28>
  406de5:	85 f6                	test   %esi,%esi
  406de7:	7e 1f                	jle    406e08 <_ZNK11Tensor_KingIf15CPU_MATHEMATICS6bufferIfS0_19StackScalarAccessorIfS0_E10continuousIfS0_EN9Operation3subIfEEEE17leading_dimensionEi+0x28>
  406de9:	48 8b 57 38          	mov    0x38(%rdi),%rdx
  406ded:	48 63 f6             	movslq %esi,%rsi
  406df0:	8b 44 b2 fc          	mov    -0x4(%rdx,%rsi,4),%eax
  406df4:	85 c0                	test   %eax,%eax
  406df6:	b8 00 00 00 00       	mov    $0x0,%eax
  406dfb:	0f 49 44 b2 fc       	cmovns -0x4(%rdx,%rsi,4),%eax
  406e00:	c3                   	retq   
  406e01:	0f 1f 80 00 00 00 00 	nopl   0x0(%rax)
  406e08:	31 c0                	xor    %eax,%eax
  406e0a:	c3                   	retq   
  406e0b:	0f 1f 44 00 00       	nopl   0x0(%rax,%rax,1)

0000000000406e10 <_ZNK11Tensor_KingIf15CPU_MATHEMATICS10continuousIfS0_EE4sizeEv>:
  406e10:	48 63 57 20          	movslq 0x20(%rdi),%rdx
  406e14:	48 8b 47 18          	mov    0x18(%rdi),%rax
  406e18:	8b 04 90             	mov    (%rax,%rdx,4),%eax
  406e1b:	c3                   	retq   
  406e1c:	0f 1f 40 00          	nopl   0x0(%rax)

0000000000406e20 <_ZNK10continuousId15CPU_MATHEMATICSE4sizeEv>:
  406e20:	48 8b 07             	mov    (%rdi),%rax
  406e23:	53                   	push   %rbx
  406e24:	48 8b 5f 10          	mov    0x10(%rdi),%rbx
  406e28:	48 8b 40 18          	mov    0x18(%rax),%rax
  406e2c:	48 3d e0 5e 40 00    	cmp    $0x405ee0,%rax
  406e32:	75 0c                	jne    406e40 <_ZNK10continuousId15CPU_MATHEMATICSE4sizeEv+0x20>
  406e34:	8b 47 18             	mov    0x18(%rdi),%eax
  406e37:	48 98                	cltq   
  406e39:	8b 04 83             	mov    (%rbx,%rax,4),%eax
  406e3c:	5b                   	pop    %rbx
  406e3d:	c3                   	retq   
  406e3e:	66 90                	xchg   %ax,%ax
  406e40:	ff d0                	callq  *%rax
  406e42:	48 98                	cltq   
  406e44:	8b 04 83             	mov    (%rbx,%rax,4),%eax
  406e47:	5b                   	pop    %rbx
  406e48:	c3                   	retq   
  406e49:	0f 1f 80 00 00 00 00 	nopl   0x0(%rax)

0000000000406e50 <_ZNK10continuousIf15CPU_MATHEMATICSE4sizeEv>:
  406e50:	48 8b 07             	mov    (%rdi),%rax
  406e53:	53                   	push   %rbx
  406e54:	48 8b 5f 10          	mov    0x10(%rdi),%rbx
  406e58:	48 8b 40 18          	mov    0x18(%rax),%rax
  406e5c:	48 3d 00 5e 40 00    	cmp    $0x405e00,%rax
  406e62:	75 0c                	jne    406e70 <_ZNK10continuousIf15CPU_MATHEMATICSE4sizeEv+0x20>
  406e64:	8b 47 18             	mov    0x18(%rdi),%eax
  406e67:	48 98                	cltq   
  406e69:	8b 04 83             	mov    (%rbx,%rax,4),%eax
  406e6c:	5b                   	pop    %rbx
  406e6d:	c3                   	retq   
  406e6e:	66 90                	xchg   %ax,%ax
  406e70:	ff d0                	callq  *%rax
  406e72:	48 98                	cltq   
  406e74:	8b 04 83             	mov    (%rbx,%rax,4),%eax
  406e77:	5b                   	pop    %rbx
  406e78:	c3                   	retq   
  406e79:	0f 1f 80 00 00 00 00 	nopl   0x0(%rax)

0000000000406e80 <_ZNK11Tensor_KingId15CPU_MATHEMATICS10continuousIdS0_EE4sizeEv>:
  406e80:	48 63 57 20          	movslq 0x20(%rdi),%rdx
  406e84:	48 8b 47 18          	mov    0x18(%rdi),%rax
  406e88:	8b 04 90             	mov    (%rax,%rdx,4),%eax
  406e8b:	c3                   	retq   
  406e8c:	0f 1f 40 00          	nopl   0x0(%rax)

0000000000406e90 <_ZNK11Tensor_KingId15CPU_MATHEMATICS6bufferIdS0_10continuousIdS0_ES3_N9Operation3addIdEEEE9dimensionEi>:
  406e90:	3b 77 48             	cmp    0x48(%rdi),%esi
  406e93:	7d 2b                	jge    406ec0 <_ZNK11Tensor_KingId15CPU_MATHEMATICS6bufferIdS0_10continuousIdS0_ES3_N9Operation3addIdEEEE9dimensionEi+0x30>
  406e95:	3b 77 28             	cmp    0x28(%rdi),%esi
  406e98:	48 8b 57 40          	mov    0x40(%rdi),%rdx
  406e9c:	48 63 c6             	movslq %esi,%rax
  406e9f:	48 8d 0c 85 00 00 00 	lea    0x0(,%rax,4),%rcx
  406ea6:	00 
  406ea7:	8b 14 82             	mov    (%rdx,%rax,4),%edx
  406eaa:	b8 01 00 00 00       	mov    $0x1,%eax
  406eaf:	7d 07                	jge    406eb8 <_ZNK11Tensor_KingId15CPU_MATHEMATICS6bufferIdS0_10continuousIdS0_ES3_N9Operation3addIdEEEE9dimensionEi+0x28>
  406eb1:	48 8b 47 20          	mov    0x20(%rdi),%rax
  406eb5:	8b 04 08             	mov    (%rax,%rcx,1),%eax
  406eb8:	39 d0                	cmp    %edx,%eax
  406eba:	0f 4c c2             	cmovl  %edx,%eax
  406ebd:	c3                   	retq   
  406ebe:	66 90                	xchg   %ax,%ax
  406ec0:	3b 77 28             	cmp    0x28(%rdi),%esi
  406ec3:	b8 01 00 00 00       	mov    $0x1,%eax
  406ec8:	7d 1e                	jge    406ee8 <_ZNK11Tensor_KingId15CPU_MATHEMATICS6bufferIdS0_10continuousIdS0_ES3_N9Operation3addIdEEEE9dimensionEi+0x58>
  406eca:	48 63 f6             	movslq %esi,%rsi
  406ecd:	48 8b 47 20          	mov    0x20(%rdi),%rax
  406ed1:	ba 01 00 00 00       	mov    $0x1,%edx
  406ed6:	48 8d 0c b5 00 00 00 	lea    0x0(,%rsi,4),%rcx
  406edd:	00 
  406ede:	8b 04 08             	mov    (%rax,%rcx,1),%eax
  406ee1:	eb d5                	jmp    406eb8 <_ZNK11Tensor_KingId15CPU_MATHEMATICS6bufferIdS0_10continuousIdS0_ES3_N9Operation3addIdEEEE9dimensionEi+0x28>
  406ee3:	0f 1f 44 00 00       	nopl   0x0(%rax,%rax,1)
  406ee8:	f3 c3                	repz retq 
  406eea:	66 0f 1f 44 00 00    	nopw   0x0(%rax,%rax,1)

0000000000406ef0 <_ZNK11Tensor_KingId15CPU_MATHEMATICS6bufferIdS0_10continuousIdS0_ES3_N9Operation3addIdEEEE4sizeEv>:
  406ef0:	48 63 4f 28          	movslq 0x28(%rdi),%rcx
  406ef4:	48 63 77 48          	movslq 0x48(%rdi),%rsi
  406ef8:	48 8b 57 20          	mov    0x20(%rdi),%rdx
  406efc:	48 8b 47 40          	mov    0x40(%rdi),%rax
  406f00:	8b 04 b0             	mov    (%rax,%rsi,4),%eax
  406f03:	39 04 8a             	cmp    %eax,(%rdx,%rcx,4)
  406f06:	0f 4d 04 8a          	cmovge (%rdx,%rcx,4),%eax
  406f0a:	c3                   	retq   
  406f0b:	0f 1f 44 00 00       	nopl   0x0(%rax,%rax,1)

0000000000406f10 <_ZNK11Tensor_KingId15CPU_MATHEMATICS6bufferIdS0_S1_IdS0_10continuousIdS0_ES3_N9Operation3addIdEEES3_S6_EE4sizeEv>:
  406f10:	48 63 4f 50          	movslq 0x50(%rdi),%rcx
  406f14:	48 63 77 70          	movslq 0x70(%rdi),%rsi
  406f18:	48 8b 57 48          	mov    0x48(%rdi),%rdx
  406f1c:	48 8b 47 68          	mov    0x68(%rdi),%rax
  406f20:	8b 04 b0             	mov    (%rax,%rsi,4),%eax
  406f23:	39 04 8a             	cmp    %eax,(%rdx,%rcx,4)
  406f26:	0f 4d 04 8a          	cmovge (%rdx,%rcx,4),%eax
  406f2a:	48 63 4f 30          	movslq 0x30(%rdi),%rcx
  406f2e:	48 8b 57 28          	mov    0x28(%rdi),%rdx
  406f32:	8b 14 8a             	mov    (%rdx,%rcx,4),%edx
  406f35:	39 d0                	cmp    %edx,%eax
  406f37:	0f 4c c2             	cmovl  %edx,%eax
  406f3a:	c3                   	retq   
  406f3b:	0f 1f 44 00 00       	nopl   0x0(%rax,%rax,1)

0000000000406f40 <_ZNK11Tensor_KingId15CPU_MATHEMATICS6bufferIdS0_S1_IdS0_10continuousIdS0_ES3_N9Operation3addIdEEES3_S6_EE9dimensionEi>:
  406f40:	3b 77 70             	cmp    0x70(%rdi),%esi
  406f43:	b9 01 00 00 00       	mov    $0x1,%ecx
  406f48:	7d 0a                	jge    406f54 <_ZNK11Tensor_KingId15CPU_MATHEMATICS6bufferIdS0_S1_IdS0_10continuousIdS0_ES3_N9Operation3addIdEEES3_S6_EE9dimensionEi+0x14>
  406f4a:	48 8b 57 68          	mov    0x68(%rdi),%rdx
  406f4e:	48 63 c6             	movslq %esi,%rax
  406f51:	8b 0c 82             	mov    (%rdx,%rax,4),%ecx
  406f54:	3b 77 50             	cmp    0x50(%rdi),%esi
  406f57:	7d 27                	jge    406f80 <_ZNK11Tensor_KingId15CPU_MATHEMATICS6bufferIdS0_S1_IdS0_10continuousIdS0_ES3_N9Operation3addIdEEES3_S6_EE9dimensionEi+0x40>
  406f59:	3b 77 30             	cmp    0x30(%rdi),%esi
  406f5c:	48 8b 57 48          	mov    0x48(%rdi),%rdx
  406f60:	48 63 c6             	movslq %esi,%rax
  406f63:	4c 8d 04 85 00 00 00 	lea    0x0(,%rax,4),%r8
  406f6a:	00 
  406f6b:	8b 04 82             	mov    (%rdx,%rax,4),%eax
  406f6e:	ba 01 00 00 00       	mov    $0x1,%edx
  406f73:	7c 20                	jl     406f95 <_ZNK11Tensor_KingId15CPU_MATHEMATICS6bufferIdS0_S1_IdS0_10continuousIdS0_ES3_N9Operation3addIdEEES3_S6_EE9dimensionEi+0x55>
  406f75:	39 c2                	cmp    %eax,%edx
  406f77:	0f 4d c2             	cmovge %edx,%eax
  406f7a:	39 c8                	cmp    %ecx,%eax
  406f7c:	0f 4c c1             	cmovl  %ecx,%eax
  406f7f:	c3                   	retq   
  406f80:	3b 77 30             	cmp    0x30(%rdi),%esi
  406f83:	b8 01 00 00 00       	mov    $0x1,%eax
  406f88:	7d f0                	jge    406f7a <_ZNK11Tensor_KingId15CPU_MATHEMATICS6bufferIdS0_S1_IdS0_10continuousIdS0_ES3_N9Operation3addIdEEES3_S6_EE9dimensionEi+0x3a>
  406f8a:	48 63 f6             	movslq %esi,%rsi
  406f8d:	4c 8d 04 b5 00 00 00 	lea    0x0(,%rsi,4),%r8
  406f94:	00 
  406f95:	48 8b 57 28          	mov    0x28(%rdi),%rdx
  406f99:	42 8b 14 02          	mov    (%rdx,%r8,1),%edx
  406f9d:	eb d6                	jmp    406f75 <_ZNK11Tensor_KingId15CPU_MATHEMATICS6bufferIdS0_S1_IdS0_10continuousIdS0_ES3_N9Operation3addIdEEES3_S6_EE9dimensionEi+0x35>
  406f9f:	90                   	nop

0000000000406fa0 <_ZNK11Tensor_KingId15CPU_MATHEMATICS6bufferIdS0_S1_IdS0_10continuousIdS0_ES3_N9Operation3addIdEEES3_S6_EE17leading_dimensionEi>:
  406fa0:	85 f6                	test   %esi,%esi
  406fa2:	0f 9f c2             	setg   %dl
  406fa5:	3b 77 70             	cmp    0x70(%rdi),%esi
  406fa8:	7d 5e                	jge    407008 <_ZNK11Tensor_KingId15CPU_MATHEMATICS6bufferIdS0_S1_IdS0_10continuousIdS0_ES3_N9Operation3addIdEEES3_S6_EE17leading_dimensionEi+0x68>
  406faa:	84 d2                	test   %dl,%dl
  406fac:	74 5a                	je     407008 <_ZNK11Tensor_KingId15CPU_MATHEMATICS6bufferIdS0_S1_IdS0_10continuousIdS0_ES3_N9Operation3addIdEEES3_S6_EE17leading_dimensionEi+0x68>
  406fae:	48 8b 47 68          	mov    0x68(%rdi),%rax
  406fb2:	4c 63 c6             	movslq %esi,%r8
  406fb5:	42 8b 4c 80 fc       	mov    -0x4(%rax,%r8,4),%ecx
  406fba:	3b 77 50             	cmp    0x50(%rdi),%esi
  406fbd:	7d 31                	jge    406ff0 <_ZNK11Tensor_KingId15CPU_MATHEMATICS6bufferIdS0_S1_IdS0_10continuousIdS0_ES3_N9Operation3addIdEEES3_S6_EE17leading_dimensionEi+0x50>
  406fbf:	84 d2                	test   %dl,%dl
  406fc1:	74 2d                	je     406ff0 <_ZNK11Tensor_KingId15CPU_MATHEMATICS6bufferIdS0_S1_IdS0_10continuousIdS0_ES3_N9Operation3addIdEEES3_S6_EE17leading_dimensionEi+0x50>
  406fc3:	3b 77 30             	cmp    0x30(%rdi),%esi
  406fc6:	48 8b 47 48          	mov    0x48(%rdi),%rax
  406fca:	4c 63 c6             	movslq %esi,%r8
  406fcd:	42 8b 44 80 fc       	mov    -0x4(%rax,%r8,4),%eax
  406fd2:	7d 2c                	jge    407000 <_ZNK11Tensor_KingId15CPU_MATHEMATICS6bufferIdS0_S1_IdS0_10continuousIdS0_ES3_N9Operation3addIdEEES3_S6_EE17leading_dimensionEi+0x60>
  406fd4:	48 8b 57 28          	mov    0x28(%rdi),%rdx
  406fd8:	42 8b 54 82 fc       	mov    -0x4(%rdx,%r8,4),%edx
  406fdd:	39 c2                	cmp    %eax,%edx
  406fdf:	0f 4d c2             	cmovge %edx,%eax
  406fe2:	39 c8                	cmp    %ecx,%eax
  406fe4:	0f 4c c1             	cmovl  %ecx,%eax
  406fe7:	c3                   	retq   
  406fe8:	0f 1f 84 00 00 00 00 	nopl   0x0(%rax,%rax,1)
  406fef:	00 
  406ff0:	31 c0                	xor    %eax,%eax
  406ff2:	3b 77 30             	cmp    0x30(%rdi),%esi
  406ff5:	7d eb                	jge    406fe2 <_ZNK11Tensor_KingId15CPU_MATHEMATICS6bufferIdS0_S1_IdS0_10continuousIdS0_ES3_N9Operation3addIdEEES3_S6_EE17leading_dimensionEi+0x42>
  406ff7:	85 f6                	test   %esi,%esi
  406ff9:	7e 05                	jle    407000 <_ZNK11Tensor_KingId15CPU_MATHEMATICS6bufferIdS0_S1_IdS0_10continuousIdS0_ES3_N9Operation3addIdEEES3_S6_EE17leading_dimensionEi+0x60>
  406ffb:	4c 63 c6             	movslq %esi,%r8
  406ffe:	eb d4                	jmp    406fd4 <_ZNK11Tensor_KingId15CPU_MATHEMATICS6bufferIdS0_S1_IdS0_10continuousIdS0_ES3_N9Operation3addIdEEES3_S6_EE17leading_dimensionEi+0x34>
  407000:	31 d2                	xor    %edx,%edx
  407002:	eb d9                	jmp    406fdd <_ZNK11Tensor_KingId15CPU_MATHEMATICS6bufferIdS0_S1_IdS0_10continuousIdS0_ES3_N9Operation3addIdEEES3_S6_EE17leading_dimensionEi+0x3d>
  407004:	0f 1f 40 00          	nopl   0x0(%rax)
  407008:	31 c9                	xor    %ecx,%ecx
  40700a:	eb ae                	jmp    406fba <_ZNK11Tensor_KingId15CPU_MATHEMATICS6bufferIdS0_S1_IdS0_10continuousIdS0_ES3_N9Operation3addIdEEES3_S6_EE17leading_dimensionEi+0x1a>
  40700c:	0f 1f 40 00          	nopl   0x0(%rax)

0000000000407010 <_ZNK11Tensor_KingId15CPU_MATHEMATICS6bufferIdS0_10continuousIdS0_ES3_N9Operation3addIdEEEE17leading_dimensionEi>:
  407010:	3b 77 48             	cmp    0x48(%rdi),%esi
  407013:	7d 2b                	jge    407040 <_ZNK11Tensor_KingId15CPU_MATHEMATICS6bufferIdS0_10continuousIdS0_ES3_N9Operation3addIdEEEE17leading_dimensionEi+0x30>
  407015:	85 f6                	test   %esi,%esi
  407017:	7e 27                	jle    407040 <_ZNK11Tensor_KingId15CPU_MATHEMATICS6bufferIdS0_10continuousIdS0_ES3_N9Operation3addIdEEEE17leading_dimensionEi+0x30>
  407019:	3b 77 28             	cmp    0x28(%rdi),%esi
  40701c:	48 8b 57 40          	mov    0x40(%rdi),%rdx
  407020:	48 63 c6             	movslq %esi,%rax
  407023:	8b 54 82 fc          	mov    -0x4(%rdx,%rax,4),%edx
  407027:	7d 2f                	jge    407058 <_ZNK11Tensor_KingId15CPU_MATHEMATICS6bufferIdS0_10continuousIdS0_ES3_N9Operation3addIdEEEE17leading_dimensionEi+0x48>
  407029:	48 8b 4f 20          	mov    0x20(%rdi),%rcx
  40702d:	8b 44 81 fc          	mov    -0x4(%rcx,%rax,4),%eax
  407031:	39 d0                	cmp    %edx,%eax
  407033:	0f 4c c2             	cmovl  %edx,%eax
  407036:	c3                   	retq   
  407037:	66 0f 1f 84 00 00 00 	nopw   0x0(%rax,%rax,1)
  40703e:	00 00 
  407040:	3b 77 28             	cmp    0x28(%rdi),%esi
  407043:	7d 0b                	jge    407050 <_ZNK11Tensor_KingId15CPU_MATHEMATICS6bufferIdS0_10continuousIdS0_ES3_N9Operation3addIdEEEE17leading_dimensionEi+0x40>
  407045:	31 d2                	xor    %edx,%edx
  407047:	85 f6                	test   %esi,%esi
  407049:	7e 0d                	jle    407058 <_ZNK11Tensor_KingId15CPU_MATHEMATICS6bufferIdS0_10continuousIdS0_ES3_N9Operation3addIdEEEE17leading_dimensionEi+0x48>
  40704b:	48 63 c6             	movslq %esi,%rax
  40704e:	eb d9                	jmp    407029 <_ZNK11Tensor_KingId15CPU_MATHEMATICS6bufferIdS0_10continuousIdS0_ES3_N9Operation3addIdEEEE17leading_dimensionEi+0x19>
  407050:	31 c0                	xor    %eax,%eax
  407052:	c3                   	retq   
  407053:	0f 1f 44 00 00       	nopl   0x0(%rax,%rax,1)
  407058:	31 c0                	xor    %eax,%eax
  40705a:	39 d0                	cmp    %edx,%eax
  40705c:	0f 4c c2             	cmovl  %edx,%eax
  40705f:	c3                   	retq   

0000000000407060 <_ZNK11Tensor_KingId15CPU_MATHEMATICS10continuousIdS0_EE9dimensionEi>:
  407060:	3b 77 20             	cmp    0x20(%rdi),%esi
  407063:	b8 01 00 00 00       	mov    $0x1,%eax
  407068:	7d 0a                	jge    407074 <_ZNK11Tensor_KingId15CPU_MATHEMATICS10continuousIdS0_EE9dimensionEi+0x14>
  40706a:	48 8b 47 18          	mov    0x18(%rdi),%rax
  40706e:	48 63 f6             	movslq %esi,%rsi
  407071:	8b 04 b0             	mov    (%rax,%rsi,4),%eax
  407074:	f3 c3                	repz retq 
  407076:	66 2e 0f 1f 84 00 00 	nopw   %cs:0x0(%rax,%rax,1)
  40707d:	00 00 00 

0000000000407080 <_ZNK11Tensor_KingId15CPU_MATHEMATICS10continuousIdS0_EE17leading_dimensionEi>:
  407080:	3b 77 20             	cmp    0x20(%rdi),%esi
  407083:	7d 13                	jge    407098 <_ZNK11Tensor_KingId15CPU_MATHEMATICS10continuousIdS0_EE17leading_dimensionEi+0x18>
  407085:	85 f6                	test   %esi,%esi
  407087:	7e 0f                	jle    407098 <_ZNK11Tensor_KingId15CPU_MATHEMATICS10continuousIdS0_EE17leading_dimensionEi+0x18>
  407089:	48 8b 47 18          	mov    0x18(%rdi),%rax
  40708d:	48 63 f6             	movslq %esi,%rsi
  407090:	8b 44 b0 fc          	mov    -0x4(%rax,%rsi,4),%eax
  407094:	c3                   	retq   
  407095:	0f 1f 00             	nopl   (%rax)
  407098:	31 c0                	xor    %eax,%eax
  40709a:	c3                   	retq   
  40709b:	0f 1f 44 00 00       	nopl   0x0(%rax,%rax,1)

00000000004070a0 <_ZNK10continuousId15CPU_MATHEMATICSE9dimensionEi>:
  4070a0:	53                   	push   %rbx
  4070a1:	48 89 fb             	mov    %rdi,%rbx
  4070a4:	48 83 ec 10          	sub    $0x10,%rsp
  4070a8:	48 8b 07             	mov    (%rdi),%rax
  4070ab:	48 8b 40 18          	mov    0x18(%rax),%rax
  4070af:	48 3d e0 5e 40 00    	cmp    $0x405ee0,%rax
  4070b5:	75 21                	jne    4070d8 <_ZNK10continuousId15CPU_MATHEMATICSE9dimensionEi+0x38>
  4070b7:	8b 57 18             	mov    0x18(%rdi),%edx
  4070ba:	39 f2                	cmp    %esi,%edx
  4070bc:	b8 01 00 00 00       	mov    $0x1,%eax
  4070c1:	7e 0a                	jle    4070cd <_ZNK10continuousId15CPU_MATHEMATICSE9dimensionEi+0x2d>
  4070c3:	48 8b 43 10          	mov    0x10(%rbx),%rax
  4070c7:	48 63 f6             	movslq %esi,%rsi
  4070ca:	8b 04 b0             	mov    (%rax,%rsi,4),%eax
  4070cd:	48 83 c4 10          	add    $0x10,%rsp
  4070d1:	5b                   	pop    %rbx
  4070d2:	c3                   	retq   
  4070d3:	0f 1f 44 00 00       	nopl   0x0(%rax,%rax,1)
  4070d8:	89 74 24 0c          	mov    %esi,0xc(%rsp)
  4070dc:	ff d0                	callq  *%rax
  4070de:	8b 74 24 0c          	mov    0xc(%rsp),%esi
  4070e2:	89 c2                	mov    %eax,%edx
  4070e4:	eb d4                	jmp    4070ba <_ZNK10continuousId15CPU_MATHEMATICSE9dimensionEi+0x1a>
  4070e6:	66 2e 0f 1f 84 00 00 	nopw   %cs:0x0(%rax,%rax,1)
  4070ed:	00 00 00 

00000000004070f0 <_ZNK10continuousId15CPU_MATHEMATICSE17leading_dimensionEi>:
  4070f0:	53                   	push   %rbx
  4070f1:	48 89 fb             	mov    %rdi,%rbx
  4070f4:	48 83 ec 10          	sub    $0x10,%rsp
  4070f8:	48 8b 07             	mov    (%rdi),%rax
  4070fb:	48 8b 40 18          	mov    0x18(%rax),%rax
  4070ff:	48 3d e0 5e 40 00    	cmp    $0x405ee0,%rax
  407105:	75 21                	jne    407128 <_ZNK10continuousId15CPU_MATHEMATICSE17leading_dimensionEi+0x38>
  407107:	8b 47 18             	mov    0x18(%rdi),%eax
  40710a:	39 f0                	cmp    %esi,%eax
  40710c:	7e 2a                	jle    407138 <_ZNK10continuousId15CPU_MATHEMATICSE17leading_dimensionEi+0x48>
  40710e:	85 f6                	test   %esi,%esi
  407110:	7e 26                	jle    407138 <_ZNK10continuousId15CPU_MATHEMATICSE17leading_dimensionEi+0x48>
  407112:	48 8b 43 10          	mov    0x10(%rbx),%rax
  407116:	48 63 f6             	movslq %esi,%rsi
  407119:	8b 44 b0 fc          	mov    -0x4(%rax,%rsi,4),%eax
  40711d:	48 83 c4 10          	add    $0x10,%rsp
  407121:	5b                   	pop    %rbx
  407122:	c3                   	retq   
  407123:	0f 1f 44 00 00       	nopl   0x0(%rax,%rax,1)
  407128:	89 74 24 0c          	mov    %esi,0xc(%rsp)
  40712c:	ff d0                	callq  *%rax
  40712e:	8b 74 24 0c          	mov    0xc(%rsp),%esi
  407132:	eb d6                	jmp    40710a <_ZNK10continuousId15CPU_MATHEMATICSE17leading_dimensionEi+0x1a>
  407134:	0f 1f 40 00          	nopl   0x0(%rax)
  407138:	48 83 c4 10          	add    $0x10,%rsp
  40713c:	31 c0                	xor    %eax,%eax
  40713e:	5b                   	pop    %rbx
  40713f:	c3                   	retq   

0000000000407140 <_ZNK11Tensor_KingIf15CPU_MATHEMATICS10continuousIfS0_EE9dimensionEi>:
  407140:	3b 77 20             	cmp    0x20(%rdi),%esi
  407143:	b8 01 00 00 00       	mov    $0x1,%eax
  407148:	7d 0a                	jge    407154 <_ZNK11Tensor_KingIf15CPU_MATHEMATICS10continuousIfS0_EE9dimensionEi+0x14>
  40714a:	48 8b 47 18          	mov    0x18(%rdi),%rax
  40714e:	48 63 f6             	movslq %esi,%rsi
  407151:	8b 04 b0             	mov    (%rax,%rsi,4),%eax
  407154:	f3 c3                	repz retq 
  407156:	66 2e 0f 1f 84 00 00 	nopw   %cs:0x0(%rax,%rax,1)
  40715d:	00 00 00 

0000000000407160 <_ZNK11Tensor_KingIf15CPU_MATHEMATICS10continuousIfS0_EE17leading_dimensionEi>:
  407160:	3b 77 20             	cmp    0x20(%rdi),%esi
  407163:	7d 13                	jge    407178 <_ZNK11Tensor_KingIf15CPU_MATHEMATICS10continuousIfS0_EE17leading_dimensionEi+0x18>
  407165:	85 f6                	test   %esi,%esi
  407167:	7e 0f                	jle    407178 <_ZNK11Tensor_KingIf15CPU_MATHEMATICS10continuousIfS0_EE17leading_dimensionEi+0x18>
  407169:	48 8b 47 18          	mov    0x18(%rdi),%rax
  40716d:	48 63 f6             	movslq %esi,%rsi
  407170:	8b 44 b0 fc          	mov    -0x4(%rax,%rsi,4),%eax
  407174:	c3                   	retq   
  407175:	0f 1f 00             	nopl   (%rax)
  407178:	31 c0                	xor    %eax,%eax
  40717a:	c3                   	retq   
  40717b:	0f 1f 44 00 00       	nopl   0x0(%rax,%rax,1)

0000000000407180 <_ZNK11Tensor_KingIf15CPU_MATHEMATICS6bufferIfS0_19StackScalarAccessorIfS0_E10continuousIfS0_EN9Operation3subIfEEEE4sizeEv>:
  407180:	48 63 57 40          	movslq 0x40(%rdi),%rdx
  407184:	48 8b 47 38          	mov    0x38(%rdi),%rax
  407188:	8b 04 90             	mov    (%rax,%rdx,4),%eax
  40718b:	ba 01 00 00 00       	mov    $0x1,%edx
  407190:	85 c0                	test   %eax,%eax
  407192:	0f 4e c2             	cmovle %edx,%eax
  407195:	c3                   	retq   
  407196:	66 2e 0f 1f 84 00 00 	nopw   %cs:0x0(%rax,%rax,1)
  40719d:	00 00 00 

00000000004071a0 <_ZNK10continuousIf15CPU_MATHEMATICSE9dimensionEi>:
  4071a0:	53                   	push   %rbx
  4071a1:	48 89 fb             	mov    %rdi,%rbx
  4071a4:	48 83 ec 10          	sub    $0x10,%rsp
  4071a8:	48 8b 07             	mov    (%rdi),%rax
  4071ab:	48 8b 40 18          	mov    0x18(%rax),%rax
  4071af:	48 3d 00 5e 40 00    	cmp    $0x405e00,%rax
  4071b5:	75 21                	jne    4071d8 <_ZNK10continuousIf15CPU_MATHEMATICSE9dimensionEi+0x38>
  4071b7:	8b 57 18             	mov    0x18(%rdi),%edx
  4071ba:	39 f2                	cmp    %esi,%edx
  4071bc:	b8 01 00 00 00       	mov    $0x1,%eax
  4071c1:	7e 0a                	jle    4071cd <_ZNK10continuousIf15CPU_MATHEMATICSE9dimensionEi+0x2d>
  4071c3:	48 8b 43 10          	mov    0x10(%rbx),%rax
  4071c7:	48 63 f6             	movslq %esi,%rsi
  4071ca:	8b 04 b0             	mov    (%rax,%rsi,4),%eax
  4071cd:	48 83 c4 10          	add    $0x10,%rsp
  4071d1:	5b                   	pop    %rbx
  4071d2:	c3                   	retq   
  4071d3:	0f 1f 44 00 00       	nopl   0x0(%rax,%rax,1)
  4071d8:	89 74 24 0c          	mov    %esi,0xc(%rsp)
  4071dc:	ff d0                	callq  *%rax
  4071de:	8b 74 24 0c          	mov    0xc(%rsp),%esi
  4071e2:	89 c2                	mov    %eax,%edx
  4071e4:	eb d4                	jmp    4071ba <_ZNK10continuousIf15CPU_MATHEMATICSE9dimensionEi+0x1a>
  4071e6:	66 2e 0f 1f 84 00 00 	nopw   %cs:0x0(%rax,%rax,1)
  4071ed:	00 00 00 

00000000004071f0 <_ZNK10continuousIf15CPU_MATHEMATICSE17leading_dimensionEi>:
  4071f0:	53                   	push   %rbx
  4071f1:	48 89 fb             	mov    %rdi,%rbx
  4071f4:	48 83 ec 10          	sub    $0x10,%rsp
  4071f8:	48 8b 07             	mov    (%rdi),%rax
  4071fb:	48 8b 40 18          	mov    0x18(%rax),%rax
  4071ff:	48 3d 00 5e 40 00    	cmp    $0x405e00,%rax
  407205:	75 21                	jne    407228 <_ZNK10continuousIf15CPU_MATHEMATICSE17leading_dimensionEi+0x38>
  407207:	8b 47 18             	mov    0x18(%rdi),%eax
  40720a:	39 f0                	cmp    %esi,%eax
  40720c:	7e 2a                	jle    407238 <_ZNK10continuousIf15CPU_MATHEMATICSE17leading_dimensionEi+0x48>
  40720e:	85 f6                	test   %esi,%esi
  407210:	7e 26                	jle    407238 <_ZNK10continuousIf15CPU_MATHEMATICSE17leading_dimensionEi+0x48>
  407212:	48 8b 43 10          	mov    0x10(%rbx),%rax
  407216:	48 63 f6             	movslq %esi,%rsi
  407219:	8b 44 b0 fc          	mov    -0x4(%rax,%rsi,4),%eax
  40721d:	48 83 c4 10          	add    $0x10,%rsp
  407221:	5b                   	pop    %rbx
  407222:	c3                   	retq   
  407223:	0f 1f 44 00 00       	nopl   0x0(%rax,%rax,1)
  407228:	89 74 24 0c          	mov    %esi,0xc(%rsp)
  40722c:	ff d0                	callq  *%rax
  40722e:	8b 74 24 0c          	mov    0xc(%rsp),%esi
  407232:	eb d6                	jmp    40720a <_ZNK10continuousIf15CPU_MATHEMATICSE17leading_dimensionEi+0x1a>
  407234:	0f 1f 40 00          	nopl   0x0(%rax)
  407238:	48 83 c4 10          	add    $0x10,%rsp
  40723c:	31 c0                	xor    %eax,%eax
  40723e:	5b                   	pop    %rbx
  40723f:	c3                   	retq   

0000000000407240 <_ZN6ScalarIf15CPU_MATHEMATICSED1Ev>:
  407240:	80 7f 20 00          	cmpb   $0x0,0x20(%rdi)
  407244:	48 c7 07 30 9f 40 00 	movq   $0x409f30,(%rdi)
  40724b:	75 02                	jne    40724f <_ZN6ScalarIf15CPU_MATHEMATICSED1Ev+0xf>
  40724d:	f3 c3                	repz retq 
  40724f:	50                   	push   %rax
  407250:	48 83 c7 08          	add    $0x8,%rdi
  407254:	e8 27 f3 ff ff       	callq  406580 <_ZNK19StackScalarAccessorIf15CPU_MATHEMATICSE7getDataEv>
  407259:	0f 1f 80 00 00 00 00 	nopl   0x0(%rax)

0000000000407260 <_ZN11Tensor_JackIf15CPU_MATHEMATICS19StackScalarAccessorIfS0_EED0Ev>:
  407260:	80 7f 20 00          	cmpb   $0x0,0x20(%rdi)
  407264:	48 c7 07 30 9f 40 00 	movq   $0x409f30,(%rdi)
  40726b:	75 0a                	jne    407277 <_ZN11Tensor_JackIf15CPU_MATHEMATICS19StackScalarAccessorIfS0_EED0Ev+0x17>
  40726d:	be 28 00 00 00       	mov    $0x28,%esi
  407272:	e9 39 a2 ff ff       	jmpq   4014b0 <_ZdlPvm@plt>
  407277:	50                   	push   %rax
  407278:	48 83 c7 08          	add    $0x8,%rdi
  40727c:	e8 ff f2 ff ff       	callq  406580 <_ZNK19StackScalarAccessorIf15CPU_MATHEMATICSE7getDataEv>
  407281:	66 2e 0f 1f 84 00 00 	nopw   %cs:0x0(%rax,%rax,1)
  407288:	00 00 00 
  40728b:	0f 1f 44 00 00       	nopl   0x0(%rax,%rax,1)

0000000000407290 <_ZN6ScalarIf15CPU_MATHEMATICSED0Ev>:
  407290:	80 7f 20 00          	cmpb   $0x0,0x20(%rdi)
  407294:	48 c7 07 30 9f 40 00 	movq   $0x409f30,(%rdi)
  40729b:	75 0a                	jne    4072a7 <_ZN6ScalarIf15CPU_MATHEMATICSED0Ev+0x17>
  40729d:	be 28 00 00 00       	mov    $0x28,%esi
  4072a2:	e9 09 a2 ff ff       	jmpq   4014b0 <_ZdlPvm@plt>
  4072a7:	50                   	push   %rax
  4072a8:	48 83 c7 08          	add    $0x8,%rdi
  4072ac:	e8 cf f2 ff ff       	callq  406580 <_ZNK19StackScalarAccessorIf15CPU_MATHEMATICSE7getDataEv>
  4072b1:	66 2e 0f 1f 84 00 00 	nopw   %cs:0x0(%rax,%rax,1)
  4072b8:	00 00 00 
  4072bb:	0f 1f 44 00 00       	nopl   0x0(%rax,%rax,1)

00000000004072c0 <_ZN9Id_ScalarIf15CPU_MATHEMATICSED1Ev>:
  4072c0:	80 7f 20 00          	cmpb   $0x0,0x20(%rdi)
  4072c4:	48 c7 07 60 a1 40 00 	movq   $0x40a160,(%rdi)
  4072cb:	74 13                	je     4072e0 <_ZN9Id_ScalarIf15CPU_MATHEMATICSED1Ev+0x20>
  4072cd:	48 8b 7f 18          	mov    0x18(%rdi),%rdi
  4072d1:	48 85 ff             	test   %rdi,%rdi
  4072d4:	74 0a                	je     4072e0 <_ZN9Id_ScalarIf15CPU_MATHEMATICSED1Ev+0x20>
  4072d6:	e9 25 a2 ff ff       	jmpq   401500 <_ZdaPv@plt>
  4072db:	0f 1f 44 00 00       	nopl   0x0(%rax,%rax,1)
  4072e0:	f3 c3                	repz retq 
  4072e2:	66 2e 0f 1f 84 00 00 	nopw   %cs:0x0(%rax,%rax,1)
  4072e9:	00 00 00 
  4072ec:	0f 1f 40 00          	nopl   0x0(%rax)

00000000004072f0 <_ZN11Tensor_JackIf15CPU_MATHEMATICS23ReferenceScalarAccessorIfS0_EED0Ev>:
  4072f0:	53                   	push   %rbx
  4072f1:	80 7f 20 00          	cmpb   $0x0,0x20(%rdi)
  4072f5:	48 89 fb             	mov    %rdi,%rbx
  4072f8:	48 c7 07 60 a1 40 00 	movq   $0x40a160,(%rdi)
  4072ff:	74 0e                	je     40730f <_ZN11Tensor_JackIf15CPU_MATHEMATICS23ReferenceScalarAccessorIfS0_EED0Ev+0x1f>
  407301:	48 8b 7f 18          	mov    0x18(%rdi),%rdi
  407305:	48 85 ff             	test   %rdi,%rdi
  407308:	74 05                	je     40730f <_ZN11Tensor_JackIf15CPU_MATHEMATICS23ReferenceScalarAccessorIfS0_EED0Ev+0x1f>
  40730a:	e8 f1 a1 ff ff       	callq  401500 <_ZdaPv@plt>
  40730f:	48 89 df             	mov    %rbx,%rdi
  407312:	be 28 00 00 00       	mov    $0x28,%esi
  407317:	5b                   	pop    %rbx
  407318:	e9 93 a1 ff ff       	jmpq   4014b0 <_ZdlPvm@plt>
  40731d:	0f 1f 00             	nopl   (%rax)

0000000000407320 <_ZN9Id_ScalarIf15CPU_MATHEMATICSED0Ev>:
  407320:	53                   	push   %rbx
  407321:	80 7f 20 00          	cmpb   $0x0,0x20(%rdi)
  407325:	48 89 fb             	mov    %rdi,%rbx
  407328:	48 c7 07 60 a1 40 00 	movq   $0x40a160,(%rdi)
  40732f:	74 0e                	je     40733f <_ZN9Id_ScalarIf15CPU_MATHEMATICSED0Ev+0x1f>
  407331:	48 8b 7f 18          	mov    0x18(%rdi),%rdi
  407335:	48 85 ff             	test   %rdi,%rdi
  407338:	74 05                	je     40733f <_ZN9Id_ScalarIf15CPU_MATHEMATICSED0Ev+0x1f>
  40733a:	e8 c1 a1 ff ff       	callq  401500 <_ZdaPv@plt>
  40733f:	48 89 df             	mov    %rbx,%rdi
  407342:	be 28 00 00 00       	mov    $0x28,%esi
  407347:	5b                   	pop    %rbx
  407348:	e9 63 a1 ff ff       	jmpq   4014b0 <_ZdlPvm@plt>
  40734d:	0f 1f 00             	nopl   (%rax)

0000000000407350 <_ZN6MatrixId15CPU_MATHEMATICS10continuousIdS0_EED1Ev>:
  407350:	53                   	push   %rbx
  407351:	80 7f 28 00          	cmpb   $0x0,0x28(%rdi)
  407355:	48 89 fb             	mov    %rdi,%rbx
  407358:	48 c7 07 d0 a2 40 00 	movq   $0x40a2d0,(%rdi)
  40735f:	74 0e                	je     40736f <_ZN6MatrixId15CPU_MATHEMATICS10continuousIdS0_EED1Ev+0x1f>
  407361:	48 8b 7f 10          	mov    0x10(%rdi),%rdi
  407365:	48 85 ff             	test   %rdi,%rdi
  407368:	74 05                	je     40736f <_ZN6MatrixId15CPU_MATHEMATICS10continuousIdS0_EED1Ev+0x1f>
  40736a:	e8 91 a1 ff ff       	callq  401500 <_ZdaPv@plt>
  40736f:	80 7b 29 00          	cmpb   $0x0,0x29(%rbx)
  407373:	74 13                	je     407388 <_ZN6MatrixId15CPU_MATHEMATICS10continuousIdS0_EED1Ev+0x38>
  407375:	48 8b 7b 18          	mov    0x18(%rbx),%rdi
  407379:	48 85 ff             	test   %rdi,%rdi
  40737c:	74 0a                	je     407388 <_ZN6MatrixId15CPU_MATHEMATICS10continuousIdS0_EED1Ev+0x38>
  40737e:	5b                   	pop    %rbx
  40737f:	e9 7c a1 ff ff       	jmpq   401500 <_ZdaPv@plt>
  407384:	0f 1f 40 00          	nopl   0x0(%rax)
  407388:	5b                   	pop    %rbx
  407389:	c3                   	retq   
  40738a:	66 0f 1f 44 00 00    	nopw   0x0(%rax,%rax,1)

0000000000407390 <_ZN11Tensor_JackId15CPU_MATHEMATICS10continuousIdS0_EED0Ev>:
  407390:	53                   	push   %rbx
  407391:	80 7f 28 00          	cmpb   $0x0,0x28(%rdi)
  407395:	48 89 fb             	mov    %rdi,%rbx
  407398:	48 c7 07 d0 a2 40 00 	movq   $0x40a2d0,(%rdi)
  40739f:	74 0e                	je     4073af <_ZN11Tensor_JackId15CPU_MATHEMATICS10continuousIdS0_EED0Ev+0x1f>
  4073a1:	48 8b 7f 10          	mov    0x10(%rdi),%rdi
  4073a5:	48 85 ff             	test   %rdi,%rdi
  4073a8:	74 05                	je     4073af <_ZN11Tensor_JackId15CPU_MATHEMATICS10continuousIdS0_EED0Ev+0x1f>
  4073aa:	e8 51 a1 ff ff       	callq  401500 <_ZdaPv@plt>
  4073af:	80 7b 29 00          	cmpb   $0x0,0x29(%rbx)
  4073b3:	74 0e                	je     4073c3 <_ZN11Tensor_JackId15CPU_MATHEMATICS10continuousIdS0_EED0Ev+0x33>
  4073b5:	48 8b 7b 18          	mov    0x18(%rbx),%rdi
  4073b9:	48 85 ff             	test   %rdi,%rdi
  4073bc:	74 05                	je     4073c3 <_ZN11Tensor_JackId15CPU_MATHEMATICS10continuousIdS0_EED0Ev+0x33>
  4073be:	e8 3d a1 ff ff       	callq  401500 <_ZdaPv@plt>
  4073c3:	48 89 df             	mov    %rbx,%rdi
  4073c6:	be 30 00 00 00       	mov    $0x30,%esi
  4073cb:	5b                   	pop    %rbx
  4073cc:	e9 df a0 ff ff       	jmpq   4014b0 <_ZdlPvm@plt>
  4073d1:	66 2e 0f 1f 84 00 00 	nopw   %cs:0x0(%rax,%rax,1)
  4073d8:	00 00 00 
  4073db:	0f 1f 44 00 00       	nopl   0x0(%rax,%rax,1)

00000000004073e0 <_ZN6MatrixId15CPU_MATHEMATICS10continuousIdS0_EED0Ev>:
  4073e0:	53                   	push   %rbx
  4073e1:	80 7f 28 00          	cmpb   $0x0,0x28(%rdi)
  4073e5:	48 89 fb             	mov    %rdi,%rbx
  4073e8:	48 c7 07 d0 a2 40 00 	movq   $0x40a2d0,(%rdi)
  4073ef:	74 0e                	je     4073ff <_ZN6MatrixId15CPU_MATHEMATICS10continuousIdS0_EED0Ev+0x1f>
  4073f1:	48 8b 7f 10          	mov    0x10(%rdi),%rdi
  4073f5:	48 85 ff             	test   %rdi,%rdi
  4073f8:	74 05                	je     4073ff <_ZN6MatrixId15CPU_MATHEMATICS10continuousIdS0_EED0Ev+0x1f>
  4073fa:	e8 01 a1 ff ff       	callq  401500 <_ZdaPv@plt>
  4073ff:	80 7b 29 00          	cmpb   $0x0,0x29(%rbx)
  407403:	74 0e                	je     407413 <_ZN6MatrixId15CPU_MATHEMATICS10continuousIdS0_EED0Ev+0x33>
  407405:	48 8b 7b 18          	mov    0x18(%rbx),%rdi
  407409:	48 85 ff             	test   %rdi,%rdi
  40740c:	74 05                	je     407413 <_ZN6MatrixId15CPU_MATHEMATICS10continuousIdS0_EED0Ev+0x33>
  40740e:	e8 ed a0 ff ff       	callq  401500 <_ZdaPv@plt>
  407413:	48 89 df             	mov    %rbx,%rdi
  407416:	be 30 00 00 00       	mov    $0x30,%esi
  40741b:	5b                   	pop    %rbx
  40741c:	e9 8f a0 ff ff       	jmpq   4014b0 <_ZdlPvm@plt>
  407421:	66 2e 0f 1f 84 00 00 	nopw   %cs:0x0(%rax,%rax,1)
  407428:	00 00 00 
  40742b:	0f 1f 44 00 00       	nopl   0x0(%rax,%rax,1)

0000000000407430 <_ZN6VectorIf15CPU_MATHEMATICS10continuousIfS0_EED1Ev>:
  407430:	53                   	push   %rbx
  407431:	80 7f 28 00          	cmpb   $0x0,0x28(%rdi)
  407435:	48 89 fb             	mov    %rdi,%rbx
  407438:	48 c7 07 f0 9d 40 00 	movq   $0x409df0,(%rdi)
  40743f:	74 0e                	je     40744f <_ZN6VectorIf15CPU_MATHEMATICS10continuousIfS0_EED1Ev+0x1f>
  407441:	48 8b 7f 10          	mov    0x10(%rdi),%rdi
  407445:	48 85 ff             	test   %rdi,%rdi
  407448:	74 05                	je     40744f <_ZN6VectorIf15CPU_MATHEMATICS10continuousIfS0_EED1Ev+0x1f>
  40744a:	e8 b1 a0 ff ff       	callq  401500 <_ZdaPv@plt>
  40744f:	80 7b 29 00          	cmpb   $0x0,0x29(%rbx)
  407453:	74 13                	je     407468 <_ZN6VectorIf15CPU_MATHEMATICS10continuousIfS0_EED1Ev+0x38>
  407455:	48 8b 7b 18          	mov    0x18(%rbx),%rdi
  407459:	48 85 ff             	test   %rdi,%rdi
  40745c:	74 0a                	je     407468 <_ZN6VectorIf15CPU_MATHEMATICS10continuousIfS0_EED1Ev+0x38>
  40745e:	5b                   	pop    %rbx
  40745f:	e9 9c a0 ff ff       	jmpq   401500 <_ZdaPv@plt>
  407464:	0f 1f 40 00          	nopl   0x0(%rax)
  407468:	5b                   	pop    %rbx
  407469:	c3                   	retq   
  40746a:	66 0f 1f 44 00 00    	nopw   0x0(%rax,%rax,1)

0000000000407470 <_ZN6MatrixIf15CPU_MATHEMATICS10continuousIfS0_EED1Ev>:
  407470:	53                   	push   %rbx
  407471:	80 7f 28 00          	cmpb   $0x0,0x28(%rdi)
  407475:	48 89 fb             	mov    %rdi,%rbx
  407478:	48 c7 07 f0 9d 40 00 	movq   $0x409df0,(%rdi)
  40747f:	74 0e                	je     40748f <_ZN6MatrixIf15CPU_MATHEMATICS10continuousIfS0_EED1Ev+0x1f>
  407481:	48 8b 7f 10          	mov    0x10(%rdi),%rdi
  407485:	48 85 ff             	test   %rdi,%rdi
  407488:	74 05                	je     40748f <_ZN6MatrixIf15CPU_MATHEMATICS10continuousIfS0_EED1Ev+0x1f>
  40748a:	e8 71 a0 ff ff       	callq  401500 <_ZdaPv@plt>
  40748f:	80 7b 29 00          	cmpb   $0x0,0x29(%rbx)
  407493:	74 13                	je     4074a8 <_ZN6MatrixIf15CPU_MATHEMATICS10continuousIfS0_EED1Ev+0x38>
  407495:	48 8b 7b 18          	mov    0x18(%rbx),%rdi
  407499:	48 85 ff             	test   %rdi,%rdi
  40749c:	74 0a                	je     4074a8 <_ZN6MatrixIf15CPU_MATHEMATICS10continuousIfS0_EED1Ev+0x38>
  40749e:	5b                   	pop    %rbx
  40749f:	e9 5c a0 ff ff       	jmpq   401500 <_ZdaPv@plt>
  4074a4:	0f 1f 40 00          	nopl   0x0(%rax)
  4074a8:	5b                   	pop    %rbx
  4074a9:	c3                   	retq   
  4074aa:	66 0f 1f 44 00 00    	nopw   0x0(%rax,%rax,1)

00000000004074b0 <_ZN11Tensor_JackIf15CPU_MATHEMATICS10continuousIfS0_EED0Ev>:
  4074b0:	53                   	push   %rbx
  4074b1:	80 7f 28 00          	cmpb   $0x0,0x28(%rdi)
  4074b5:	48 89 fb             	mov    %rdi,%rbx
  4074b8:	48 c7 07 f0 9d 40 00 	movq   $0x409df0,(%rdi)
  4074bf:	74 0e                	je     4074cf <_ZN11Tensor_JackIf15CPU_MATHEMATICS10continuousIfS0_EED0Ev+0x1f>
  4074c1:	48 8b 7f 10          	mov    0x10(%rdi),%rdi
  4074c5:	48 85 ff             	test   %rdi,%rdi
  4074c8:	74 05                	je     4074cf <_ZN11Tensor_JackIf15CPU_MATHEMATICS10continuousIfS0_EED0Ev+0x1f>
  4074ca:	e8 31 a0 ff ff       	callq  401500 <_ZdaPv@plt>
  4074cf:	80 7b 29 00          	cmpb   $0x0,0x29(%rbx)
  4074d3:	74 0e                	je     4074e3 <_ZN11Tensor_JackIf15CPU_MATHEMATICS10continuousIfS0_EED0Ev+0x33>
  4074d5:	48 8b 7b 18          	mov    0x18(%rbx),%rdi
  4074d9:	48 85 ff             	test   %rdi,%rdi
  4074dc:	74 05                	je     4074e3 <_ZN11Tensor_JackIf15CPU_MATHEMATICS10continuousIfS0_EED0Ev+0x33>
  4074de:	e8 1d a0 ff ff       	callq  401500 <_ZdaPv@plt>
  4074e3:	48 89 df             	mov    %rbx,%rdi
  4074e6:	be 30 00 00 00       	mov    $0x30,%esi
  4074eb:	5b                   	pop    %rbx
  4074ec:	e9 bf 9f ff ff       	jmpq   4014b0 <_ZdlPvm@plt>
  4074f1:	66 2e 0f 1f 84 00 00 	nopw   %cs:0x0(%rax,%rax,1)
  4074f8:	00 00 00 
  4074fb:	0f 1f 44 00 00       	nopl   0x0(%rax,%rax,1)

0000000000407500 <_ZN6VectorIf15CPU_MATHEMATICS10continuousIfS0_EED0Ev>:
  407500:	53                   	push   %rbx
  407501:	80 7f 28 00          	cmpb   $0x0,0x28(%rdi)
  407505:	48 89 fb             	mov    %rdi,%rbx
  407508:	48 c7 07 f0 9d 40 00 	movq   $0x409df0,(%rdi)
  40750f:	74 0e                	je     40751f <_ZN6VectorIf15CPU_MATHEMATICS10continuousIfS0_EED0Ev+0x1f>
  407511:	48 8b 7f 10          	mov    0x10(%rdi),%rdi
  407515:	48 85 ff             	test   %rdi,%rdi
  407518:	74 05                	je     40751f <_ZN6VectorIf15CPU_MATHEMATICS10continuousIfS0_EED0Ev+0x1f>
  40751a:	e8 e1 9f ff ff       	callq  401500 <_ZdaPv@plt>
  40751f:	80 7b 29 00          	cmpb   $0x0,0x29(%rbx)
  407523:	74 0e                	je     407533 <_ZN6VectorIf15CPU_MATHEMATICS10continuousIfS0_EED0Ev+0x33>
  407525:	48 8b 7b 18          	mov    0x18(%rbx),%rdi
  407529:	48 85 ff             	test   %rdi,%rdi
  40752c:	74 05                	je     407533 <_ZN6VectorIf15CPU_MATHEMATICS10continuousIfS0_EED0Ev+0x33>
  40752e:	e8 cd 9f ff ff       	callq  401500 <_ZdaPv@plt>
  407533:	48 89 df             	mov    %rbx,%rdi
  407536:	be 30 00 00 00       	mov    $0x30,%esi
  40753b:	5b                   	pop    %rbx
  40753c:	e9 6f 9f ff ff       	jmpq   4014b0 <_ZdlPvm@plt>
  407541:	66 2e 0f 1f 84 00 00 	nopw   %cs:0x0(%rax,%rax,1)
  407548:	00 00 00 
  40754b:	0f 1f 44 00 00       	nopl   0x0(%rax,%rax,1)

0000000000407550 <_ZN6MatrixIf15CPU_MATHEMATICS10continuousIfS0_EED0Ev>:
  407550:	53                   	push   %rbx
  407551:	80 7f 28 00          	cmpb   $0x0,0x28(%rdi)
  407555:	48 89 fb             	mov    %rdi,%rbx
  407558:	48 c7 07 f0 9d 40 00 	movq   $0x409df0,(%rdi)
  40755f:	74 0e                	je     40756f <_ZN6MatrixIf15CPU_MATHEMATICS10continuousIfS0_EED0Ev+0x1f>
  407561:	48 8b 7f 10          	mov    0x10(%rdi),%rdi
  407565:	48 85 ff             	test   %rdi,%rdi
  407568:	74 05                	je     40756f <_ZN6MatrixIf15CPU_MATHEMATICS10continuousIfS0_EED0Ev+0x1f>
  40756a:	e8 91 9f ff ff       	callq  401500 <_ZdaPv@plt>
  40756f:	80 7b 29 00          	cmpb   $0x0,0x29(%rbx)
  407573:	74 0e                	je     407583 <_ZN6MatrixIf15CPU_MATHEMATICS10continuousIfS0_EED0Ev+0x33>
  407575:	48 8b 7b 18          	mov    0x18(%rbx),%rdi
  407579:	48 85 ff             	test   %rdi,%rdi
  40757c:	74 05                	je     407583 <_ZN6MatrixIf15CPU_MATHEMATICS10continuousIfS0_EED0Ev+0x33>
  40757e:	e8 7d 9f ff ff       	callq  401500 <_ZdaPv@plt>
  407583:	48 89 df             	mov    %rbx,%rdi
  407586:	be 30 00 00 00       	mov    $0x30,%esi
  40758b:	5b                   	pop    %rbx
  40758c:	e9 1f 9f ff ff       	jmpq   4014b0 <_ZdlPvm@plt>
  407591:	66 2e 0f 1f 84 00 00 	nopw   %cs:0x0(%rax,%rax,1)
  407598:	00 00 00 
  40759b:	0f 1f 44 00 00       	nopl   0x0(%rax,%rax,1)

00000000004075a0 <_ZNK11Tensor_JackIf15CPU_MATHEMATICS23ReferenceScalarAccessorIfS0_EE5printEv>:
  4075a0:	53                   	push   %rbx
  4075a1:	ba 02 00 00 00       	mov    $0x2,%edx
  4075a6:	be 39 92 40 00       	mov    $0x409239,%esi
  4075ab:	48 83 ec 60          	sub    $0x60,%rsp
  4075af:	48 8b 5f 18          	mov    0x18(%rdi),%rbx
  4075b3:	bf e0 d1 60 00       	mov    $0x60d1e0,%edi
  4075b8:	64 48 8b 04 25 28 00 	mov    %fs:0x28,%rax
  4075bf:	00 00 
  4075c1:	48 89 44 24 58       	mov    %rax,0x58(%rsp)
  4075c6:	31 c0                	xor    %eax,%eax
  4075c8:	e8 03 9f ff ff       	callq  4014d0 <_ZSt16__ostream_insertIcSt11char_traitsIcEERSt13basic_ostreamIT_T0_ES6_PKS3_l@plt>
  4075cd:	66 0f ef c0          	pxor   %xmm0,%xmm0
  4075d1:	48 8d 7c 24 10       	lea    0x10(%rsp),%rdi
  4075d6:	b8 01 00 00 00       	mov    $0x1,%eax
  4075db:	b9 3c 92 40 00       	mov    $0x40923c,%ecx
  4075e0:	ba 3a 00 00 00       	mov    $0x3a,%edx
  4075e5:	be 00 14 40 00       	mov    $0x401400,%esi
  4075ea:	f3 0f 5a 03          	cvtss2sd (%rbx),%xmm0
  4075ee:	48 8d 5c 24 30       	lea    0x30(%rsp),%rbx
  4075f3:	e8 78 ab ff ff       	callq  402170 <_ZN9__gnu_cxx12__to_xstringINSt7__cxx1112basic_stringIcSt11char_traitsIcESaIcEEEcEET_PFiPT0_mPKS8_P13__va_list_tagEmSB_z.constprop.62>
  4075f8:	48 8b 44 24 18       	mov    0x18(%rsp),%rax
  4075fd:	48 83 f8 04          	cmp    $0x4,%rax
  407601:	0f 86 09 01 00 00    	jbe    407710 <_ZNK11Tensor_JackIf15CPU_MATHEMATICS23ReferenceScalarAccessorIfS0_EE5printEv+0x170>
  407607:	48 8d 43 10          	lea    0x10(%rbx),%rax
  40760b:	48 8b 54 24 10       	mov    0x10(%rsp),%rdx
  407610:	48 89 44 24 30       	mov    %rax,0x30(%rsp)
  407615:	b8 05 00 00 00       	mov    $0x5,%eax
  40761a:	48 89 d1             	mov    %rdx,%rcx
  40761d:	48 01 c1             	add    %rax,%rcx
  407620:	74 16                	je     407638 <_ZNK11Tensor_JackIf15CPU_MATHEMATICS23ReferenceScalarAccessorIfS0_EE5printEv+0x98>
  407622:	48 85 d2             	test   %rdx,%rdx
  407625:	75 11                	jne    407638 <_ZNK11Tensor_JackIf15CPU_MATHEMATICS23ReferenceScalarAccessorIfS0_EE5printEv+0x98>
  407627:	bf b8 91 40 00       	mov    $0x4091b8,%edi
  40762c:	e8 ff 9d ff ff       	callq  401430 <_ZSt19__throw_logic_errorPKc@plt>
  407631:	0f 1f 80 00 00 00 00 	nopl   0x0(%rax)
  407638:	48 83 f8 01          	cmp    $0x1,%rax
  40763c:	48 89 44 24 08       	mov    %rax,0x8(%rsp)
  407641:	0f 84 41 01 00 00    	je     407788 <_ZNK11Tensor_JackIf15CPU_MATHEMATICS23ReferenceScalarAccessorIfS0_EE5printEv+0x1e8>
  407647:	48 85 c0             	test   %rax,%rax
  40764a:	48 8d 4b 10          	lea    0x10(%rbx),%rcx
  40764e:	0f 85 d4 00 00 00    	jne    407728 <_ZNK11Tensor_JackIf15CPU_MATHEMATICS23ReferenceScalarAccessorIfS0_EE5printEv+0x188>
  407654:	48 8d 7c 24 10       	lea    0x10(%rsp),%rdi
  407659:	48 89 44 24 38       	mov    %rax,0x38(%rsp)
  40765e:	48 89 de             	mov    %rbx,%rsi
  407661:	c6 04 01 00          	movb   $0x0,(%rcx,%rax,1)
  407665:	48 83 c3 10          	add    $0x10,%rbx
  407669:	e8 d2 9d ff ff       	callq  401440 <_ZNSt7__cxx1112basic_stringIcSt11char_traitsIcESaIcEE4swapERS4_@plt>
  40766e:	48 8b 7c 24 30       	mov    0x30(%rsp),%rdi
  407673:	48 39 df             	cmp    %rbx,%rdi
  407676:	74 05                	je     40767d <_ZNK11Tensor_JackIf15CPU_MATHEMATICS23ReferenceScalarAccessorIfS0_EE5printEv+0xdd>
  407678:	e8 23 9e ff ff       	callq  4014a0 <_ZdlPv@plt>
  40767d:	48 8b 54 24 18       	mov    0x18(%rsp),%rdx
  407682:	48 8b 74 24 10       	mov    0x10(%rsp),%rsi
  407687:	bf e0 d1 60 00       	mov    $0x60d1e0,%edi
  40768c:	e8 3f 9e ff ff       	callq  4014d0 <_ZSt16__ostream_insertIcSt11char_traitsIcEERSt13basic_ostreamIT_T0_ES6_PKS3_l@plt>
  407691:	48 8b 7c 24 10       	mov    0x10(%rsp),%rdi
  407696:	48 8d 44 24 20       	lea    0x20(%rsp),%rax
  40769b:	48 39 c7             	cmp    %rax,%rdi
  40769e:	74 05                	je     4076a5 <_ZNK11Tensor_JackIf15CPU_MATHEMATICS23ReferenceScalarAccessorIfS0_EE5printEv+0x105>
  4076a0:	e8 fb 9d ff ff       	callq  4014a0 <_ZdlPv@plt>
  4076a5:	ba 02 00 00 00       	mov    $0x2,%edx
  4076aa:	be 3f 92 40 00       	mov    $0x40923f,%esi
  4076af:	bf e0 d1 60 00       	mov    $0x60d1e0,%edi
  4076b4:	e8 17 9e ff ff       	callq  4014d0 <_ZSt16__ostream_insertIcSt11char_traitsIcEERSt13basic_ostreamIT_T0_ES6_PKS3_l@plt>
  4076b9:	48 8b 05 20 5b 20 00 	mov    0x205b20(%rip),%rax        # 60d1e0 <_ZSt4cout@@GLIBCXX_3.4>
  4076c0:	48 8b 40 e8          	mov    -0x18(%rax),%rax
  4076c4:	48 8b 98 d0 d2 60 00 	mov    0x60d2d0(%rax),%rbx
  4076cb:	48 85 db             	test   %rbx,%rbx
  4076ce:	0f 84 d6 00 00 00    	je     4077aa <_ZNK11Tensor_JackIf15CPU_MATHEMATICS23ReferenceScalarAccessorIfS0_EE5printEv+0x20a>
  4076d4:	80 7b 38 00          	cmpb   $0x0,0x38(%rbx)
  4076d8:	74 7e                	je     407758 <_ZNK11Tensor_JackIf15CPU_MATHEMATICS23ReferenceScalarAccessorIfS0_EE5printEv+0x1b8>
  4076da:	0f be 73 43          	movsbl 0x43(%rbx),%esi
  4076de:	bf e0 d1 60 00       	mov    $0x60d1e0,%edi
  4076e3:	e8 c8 9c ff ff       	callq  4013b0 <_ZNSo3putEc@plt>
  4076e8:	48 89 c7             	mov    %rax,%rdi
  4076eb:	e8 30 9d ff ff       	callq  401420 <_ZNSo5flushEv@plt>
  4076f0:	48 8b 44 24 58       	mov    0x58(%rsp),%rax
  4076f5:	64 48 33 04 25 28 00 	xor    %fs:0x28,%rax
  4076fc:	00 00 
  4076fe:	0f 85 a1 00 00 00    	jne    4077a5 <_ZNK11Tensor_JackIf15CPU_MATHEMATICS23ReferenceScalarAccessorIfS0_EE5printEv+0x205>
  407704:	48 83 c4 60          	add    $0x60,%rsp
  407708:	5b                   	pop    %rbx
  407709:	c3                   	retq   
  40770a:	66 0f 1f 44 00 00    	nopw   0x0(%rax,%rax,1)
  407710:	48 8d 53 10          	lea    0x10(%rbx),%rdx
  407714:	48 89 54 24 30       	mov    %rdx,0x30(%rsp)
  407719:	48 8b 54 24 10       	mov    0x10(%rsp),%rdx
  40771e:	e9 f7 fe ff ff       	jmpq   40761a <_ZNK11Tensor_JackIf15CPU_MATHEMATICS23ReferenceScalarAccessorIfS0_EE5printEv+0x7a>
  407723:	0f 1f 44 00 00       	nopl   0x0(%rax,%rax,1)
  407728:	85 c0                	test   %eax,%eax
  40772a:	89 c7                	mov    %eax,%edi
  40772c:	74 14                	je     407742 <_ZNK11Tensor_JackIf15CPU_MATHEMATICS23ReferenceScalarAccessorIfS0_EE5printEv+0x1a2>
  40772e:	31 c0                	xor    %eax,%eax
  407730:	89 c6                	mov    %eax,%esi
  407732:	83 c0 01             	add    $0x1,%eax
  407735:	44 0f b6 04 32       	movzbl (%rdx,%rsi,1),%r8d
  40773a:	39 f8                	cmp    %edi,%eax
  40773c:	44 88 04 31          	mov    %r8b,(%rcx,%rsi,1)
  407740:	72 ee                	jb     407730 <_ZNK11Tensor_JackIf15CPU_MATHEMATICS23ReferenceScalarAccessorIfS0_EE5printEv+0x190>
  407742:	48 8b 44 24 08       	mov    0x8(%rsp),%rax
  407747:	48 8b 4c 24 30       	mov    0x30(%rsp),%rcx
  40774c:	e9 03 ff ff ff       	jmpq   407654 <_ZNK11Tensor_JackIf15CPU_MATHEMATICS23ReferenceScalarAccessorIfS0_EE5printEv+0xb4>
  407751:	0f 1f 80 00 00 00 00 	nopl   0x0(%rax)
  407758:	48 89 df             	mov    %rbx,%rdi
  40775b:	e8 80 9d ff ff       	callq  4014e0 <_ZNKSt5ctypeIcE13_M_widen_initEv@plt>
  407760:	48 8b 03             	mov    (%rbx),%rax
  407763:	be 0a 00 00 00       	mov    $0xa,%esi
  407768:	48 8b 40 30          	mov    0x30(%rax),%rax
  40776c:	48 3d 20 5c 40 00    	cmp    $0x405c20,%rax
  407772:	0f 84 66 ff ff ff    	je     4076de <_ZNK11Tensor_JackIf15CPU_MATHEMATICS23ReferenceScalarAccessorIfS0_EE5printEv+0x13e>
  407778:	48 89 df             	mov    %rbx,%rdi
  40777b:	ff d0                	callq  *%rax
  40777d:	0f be f0             	movsbl %al,%esi
  407780:	e9 59 ff ff ff       	jmpq   4076de <_ZNK11Tensor_JackIf15CPU_MATHEMATICS23ReferenceScalarAccessorIfS0_EE5printEv+0x13e>
  407785:	0f 1f 00             	nopl   (%rax)
  407788:	0f b6 12             	movzbl (%rdx),%edx
  40778b:	48 8d 4b 10          	lea    0x10(%rbx),%rcx
  40778f:	88 54 24 40          	mov    %dl,0x40(%rsp)
  407793:	e9 bc fe ff ff       	jmpq   407654 <_ZNK11Tensor_JackIf15CPU_MATHEMATICS23ReferenceScalarAccessorIfS0_EE5printEv+0xb4>
  407798:	0f 1f 84 00 00 00 00 	nopl   0x0(%rax,%rax,1)
  40779f:	00 
  4077a0:	48 89 c3             	mov    %rax,%rbx
  4077a3:	eb 0a                	jmp    4077af <_ZNK11Tensor_JackIf15CPU_MATHEMATICS23ReferenceScalarAccessorIfS0_EE5printEv+0x20f>
  4077a5:	e8 16 9d ff ff       	callq  4014c0 <__stack_chk_fail@plt>
  4077aa:	e8 41 9d ff ff       	callq  4014f0 <_ZSt16__throw_bad_castv@plt>
  4077af:	48 8b 7c 24 10       	mov    0x10(%rsp),%rdi
  4077b4:	48 8d 44 24 20       	lea    0x20(%rsp),%rax
  4077b9:	48 39 c7             	cmp    %rax,%rdi
  4077bc:	74 05                	je     4077c3 <_ZNK11Tensor_JackIf15CPU_MATHEMATICS23ReferenceScalarAccessorIfS0_EE5printEv+0x223>
  4077be:	e8 dd 9c ff ff       	callq  4014a0 <_ZdlPv@plt>
  4077c3:	48 89 df             	mov    %rbx,%rdi
  4077c6:	e8 c5 9d ff ff       	callq  401590 <_Unwind_Resume@plt>
  4077cb:	0f 1f 44 00 00       	nopl   0x0(%rax,%rax,1)

00000000004077d0 <_ZN15CPU_MATHEMATICS11printHelperIPKfEEvT_PKiiNSt7__cxx1112basic_stringIcSt11char_traitsIcESaIcEEEi>:
  4077d0:	41 57                	push   %r15
  4077d2:	41 56                	push   %r14
  4077d4:	49 89 f6             	mov    %rsi,%r14
  4077d7:	41 55                	push   %r13
  4077d9:	41 54                	push   %r12
  4077db:	55                   	push   %rbp
  4077dc:	53                   	push   %rbx
  4077dd:	48 81 ec b8 00 00 00 	sub    $0xb8,%rsp
  4077e4:	64 48 8b 04 25 28 00 	mov    %fs:0x28,%rax
  4077eb:	00 00 
  4077ed:	48 89 84 24 a8 00 00 	mov    %rax,0xa8(%rsp)
  4077f4:	00 
  4077f5:	31 c0                	xor    %eax,%eax
  4077f7:	8d 42 ff             	lea    -0x1(%rdx),%eax
  4077fa:	48 89 7c 24 20       	mov    %rdi,0x20(%rsp)
  4077ff:	44 89 44 24 2c       	mov    %r8d,0x2c(%rsp)
  407804:	83 f8 01             	cmp    $0x1,%eax
  407807:	89 44 24 08          	mov    %eax,0x8(%rsp)
  40780b:	0f 8e 09 01 00 00    	jle    40791a <_ZN15CPU_MATHEMATICS11printHelperIPKfEEvT_PKiiNSt7__cxx1112basic_stringIcSt11char_traitsIcESaIcEEEi+0x14a>
  407811:	48 8b 51 08          	mov    0x8(%rcx),%rdx
  407815:	48 8b 31             	mov    (%rcx),%rsi
  407818:	bf e0 d1 60 00       	mov    $0x60d1e0,%edi
  40781d:	49 89 cc             	mov    %rcx,%r12
  407820:	41 89 c7             	mov    %eax,%r15d
  407823:	e8 a8 9c ff ff       	callq  4014d0 <_ZSt16__ostream_insertIcSt11char_traitsIcEERSt13basic_ostreamIT_T0_ES6_PKS3_l@plt>
  407828:	ba 14 00 00 00       	mov    $0x14,%edx
  40782d:	48 89 c3             	mov    %rax,%rbx
  407830:	be 42 92 40 00       	mov    $0x409242,%esi
  407835:	48 89 c7             	mov    %rax,%rdi
  407838:	e8 93 9c ff ff       	callq  4014d0 <_ZSt16__ostream_insertIcSt11char_traitsIcEERSt13basic_ostreamIT_T0_ES6_PKS3_l@plt>
  40783d:	48 89 df             	mov    %rbx,%rdi
  407840:	44 89 fe             	mov    %r15d,%esi
  407843:	e8 38 9d ff ff       	callq  401580 <_ZNSolsEi@plt>
  407848:	ba 14 00 00 00       	mov    $0x14,%edx
  40784d:	48 89 c3             	mov    %rax,%rbx
  407850:	be 57 92 40 00       	mov    $0x409257,%esi
  407855:	48 89 c7             	mov    %rax,%rdi
  407858:	e8 73 9c ff ff       	callq  4014d0 <_ZSt16__ostream_insertIcSt11char_traitsIcEERSt13basic_ostreamIT_T0_ES6_PKS3_l@plt>
  40785d:	48 8b 03             	mov    (%rbx),%rax
  407860:	48 8b 40 e8          	mov    -0x18(%rax),%rax
  407864:	48 8b ac 03 f0 00 00 	mov    0xf0(%rbx,%rax,1),%rbp
  40786b:	00 
  40786c:	48 85 ed             	test   %rbp,%rbp
  40786f:	0f 84 49 0a 00 00    	je     4082be <_ZN15CPU_MATHEMATICS11printHelperIPKfEEvT_PKiiNSt7__cxx1112basic_stringIcSt11char_traitsIcESaIcEEEi+0xaee>
  407875:	80 7d 38 00          	cmpb   $0x0,0x38(%rbp)
  407879:	0f 84 33 02 00 00    	je     407ab2 <_ZN15CPU_MATHEMATICS11printHelperIPKfEEvT_PKiiNSt7__cxx1112basic_stringIcSt11char_traitsIcESaIcEEEi+0x2e2>
  40787f:	0f be 75 43          	movsbl 0x43(%rbp),%esi
  407883:	48 89 df             	mov    %rbx,%rdi
  407886:	e8 25 9b ff ff       	callq  4013b0 <_ZNSo3putEc@plt>
  40788b:	48 89 c7             	mov    %rax,%rdi
  40788e:	e8 8d 9b ff ff       	callq  401420 <_ZNSo5flushEv@plt>
  407893:	48 b8 ff ff ff ff ff 	movabs $0x7fffffffffffffff,%rax
  40789a:	ff ff 7f 
  40789d:	49 2b 44 24 08       	sub    0x8(%r12),%rax
  4078a2:	48 83 f8 03          	cmp    $0x3,%rax
  4078a6:	0f 86 17 0a 00 00    	jbe    4082c3 <_ZN15CPU_MATHEMATICS11printHelperIPKfEEvT_PKiiNSt7__cxx1112basic_stringIcSt11char_traitsIcESaIcEEEi+0xaf3>
  4078ac:	be 81 92 40 00       	mov    $0x409281,%esi
  4078b1:	ba 04 00 00 00       	mov    $0x4,%edx
  4078b6:	4c 89 e7             	mov    %r12,%rdi
  4078b9:	e8 12 9b ff ff       	callq  4013d0 <_ZNSt7__cxx1112basic_stringIcSt11char_traitsIcESaIcEE9_M_appendEPKcm@plt>
  4078be:	48 63 44 24 08       	movslq 0x8(%rsp),%rax
  4078c3:	48 8d 9c 24 80 00 00 	lea    0x80(%rsp),%rbx
  4078ca:	00 
  4078cb:	48 c1 e0 02          	shl    $0x2,%rax
  4078cf:	4d 8d 2c 06          	lea    (%r14,%rax,1),%r13
  4078d3:	41 8b 75 00          	mov    0x0(%r13),%esi
  4078d7:	85 f6                	test   %esi,%esi
  4078d9:	0f 8e 85 06 00 00    	jle    407f64 <_ZN15CPU_MATHEMATICS11printHelperIPKfEEvT_PKiiNSt7__cxx1112basic_stringIcSt11char_traitsIcESaIcEEEi+0x794>
  4078df:	4d 8b 04 24          	mov    (%r12),%r8
  4078e3:	49 8b 4c 24 08       	mov    0x8(%r12),%rcx
  4078e8:	48 8d 53 10          	lea    0x10(%rbx),%rdx
  4078ec:	48 89 94 24 80 00 00 	mov    %rdx,0x80(%rsp)
  4078f3:	00 
  4078f4:	4c 89 c6             	mov    %r8,%rsi
  4078f7:	48 01 ce             	add    %rcx,%rsi
  4078fa:	0f 84 0d 08 00 00    	je     40810d <_ZN15CPU_MATHEMATICS11printHelperIPKfEEvT_PKiiNSt7__cxx1112basic_stringIcSt11char_traitsIcESaIcEEEi+0x93d>
  407900:	4d 85 c0             	test   %r8,%r8
  407903:	0f 85 04 08 00 00    	jne    40810d <_ZN15CPU_MATHEMATICS11printHelperIPKfEEvT_PKiiNSt7__cxx1112basic_stringIcSt11char_traitsIcESaIcEEEi+0x93d>
  407909:	0f 1f 80 00 00 00 00 	nopl   0x0(%rax)
  407910:	bf b8 91 40 00       	mov    $0x4091b8,%edi
  407915:	e8 16 9b ff ff       	callq  401430 <_ZSt19__throw_logic_errorPKc@plt>
  40791a:	0f 84 cc 00 00 00    	je     4079ec <_ZN15CPU_MATHEMATICS11printHelperIPKfEEvT_PKiiNSt7__cxx1112basic_stringIcSt11char_traitsIcESaIcEEEi+0x21c>
  407920:	ba 02 00 00 00       	mov    $0x2,%edx
  407925:	be 39 92 40 00       	mov    $0x409239,%esi
  40792a:	bf e0 d1 60 00       	mov    $0x60d1e0,%edi
  40792f:	e8 9c 9b ff ff       	callq  4014d0 <_ZSt16__ostream_insertIcSt11char_traitsIcEERSt13basic_ostreamIT_T0_ES6_PKS3_l@plt>
  407934:	48 63 44 24 08       	movslq 0x8(%rsp),%rax
  407939:	4d 8d 34 86          	lea    (%r14,%rax,4),%r14
  40793d:	41 8b 06             	mov    (%r14),%eax
  407940:	85 c0                	test   %eax,%eax
  407942:	0f 8e 09 05 00 00    	jle    407e51 <_ZN15CPU_MATHEMATICS11printHelperIPKfEEvT_PKiiNSt7__cxx1112basic_stringIcSt11char_traitsIcESaIcEEEi+0x681>
  407948:	48 63 44 24 2c       	movslq 0x2c(%rsp),%rax
  40794d:	48 8d 6c 24 60       	lea    0x60(%rsp),%rbp
  407952:	4c 8d 64 24 40       	lea    0x40(%rsp),%r12
  407957:	45 31 ed             	xor    %r13d,%r13d
  40795a:	48 89 44 24 08       	mov    %rax,0x8(%rsp)
  40795f:	48 8b 44 24 20       	mov    0x20(%rsp),%rax
  407964:	48 89 44 24 10       	mov    %rax,0x10(%rsp)
  407969:	48 8d 84 24 90 00 00 	lea    0x90(%rsp),%rax
  407970:	00 
  407971:	48 89 44 24 18       	mov    %rax,0x18(%rsp)
  407976:	66 2e 0f 1f 84 00 00 	nopw   %cs:0x0(%rax,%rax,1)
  40797d:	00 00 00 
  407980:	48 8b 44 24 10       	mov    0x10(%rsp),%rax
  407985:	66 0f ef c0          	pxor   %xmm0,%xmm0
  407989:	b9 3c 92 40 00       	mov    $0x40923c,%ecx
  40798e:	ba 3a 00 00 00       	mov    $0x3a,%edx
  407993:	be 00 14 40 00       	mov    $0x401400,%esi
  407998:	4c 89 e7             	mov    %r12,%rdi
  40799b:	f3 0f 5a 00          	cvtss2sd (%rax),%xmm0
  40799f:	b8 01 00 00 00       	mov    $0x1,%eax
  4079a4:	e8 c7 a7 ff ff       	callq  402170 <_ZN9__gnu_cxx12__to_xstringINSt7__cxx1112basic_stringIcSt11char_traitsIcESaIcEEEcEET_PFiPT0_mPKS8_P13__va_list_tagEmSB_z.constprop.62>
  4079a9:	48 8b 5c 24 48       	mov    0x48(%rsp),%rbx
  4079ae:	48 8b 4c 24 08       	mov    0x8(%rsp),%rcx
  4079b3:	48 8d 45 10          	lea    0x10(%rbp),%rax
  4079b7:	4c 8b 7c 24 40       	mov    0x40(%rsp),%r15
  4079bc:	48 89 44 24 60       	mov    %rax,0x60(%rsp)
  4079c1:	48 39 cb             	cmp    %rcx,%rbx
  4079c4:	72 07                	jb     4079cd <_ZN15CPU_MATHEMATICS11printHelperIPKfEEvT_PKiiNSt7__cxx1112basic_stringIcSt11char_traitsIcESaIcEEEi+0x1fd>
  4079c6:	48 39 cb             	cmp    %rcx,%rbx
  4079c9:	48 0f 47 d9          	cmova  %rcx,%rbx
  4079cd:	4c 89 f8             	mov    %r15,%rax
  4079d0:	48 01 d8             	add    %rbx,%rax
  4079d3:	0f 84 6a 03 00 00    	je     407d43 <_ZN15CPU_MATHEMATICS11printHelperIPKfEEvT_PKiiNSt7__cxx1112basic_stringIcSt11char_traitsIcESaIcEEEi+0x573>
  4079d9:	4d 85 ff             	test   %r15,%r15
  4079dc:	0f 85 61 03 00 00    	jne    407d43 <_ZN15CPU_MATHEMATICS11printHelperIPKfEEvT_PKiiNSt7__cxx1112basic_stringIcSt11char_traitsIcESaIcEEEi+0x573>
  4079e2:	bf b8 91 40 00       	mov    $0x4091b8,%edi
  4079e7:	e8 44 9a ff ff       	callq  401430 <_ZSt19__throw_logic_errorPKc@plt>
  4079ec:	8b 0e                	mov    (%rsi),%ecx
  4079ee:	85 c9                	test   %ecx,%ecx
  4079f0:	0f 8e 57 02 00 00    	jle    407c4d <_ZN15CPU_MATHEMATICS11printHelperIPKfEEvT_PKiiNSt7__cxx1112basic_stringIcSt11char_traitsIcESaIcEEEi+0x47d>
  4079f6:	48 8d 84 24 90 00 00 	lea    0x90(%rsp),%rax
  4079fd:	00 
  4079fe:	4c 8d 7c 24 70       	lea    0x70(%rsp),%r15
  407a03:	c7 44 24 18 00 00 00 	movl   $0x0,0x18(%rsp)
  407a0a:	00 
  407a0b:	48 89 44 24 10       	mov    %rax,0x10(%rsp)
  407a10:	ba 02 00 00 00       	mov    $0x2,%edx
  407a15:	be 39 92 40 00       	mov    $0x409239,%esi
  407a1a:	bf e0 d1 60 00       	mov    $0x60d1e0,%edi
  407a1f:	e8 ac 9a ff ff       	callq  4014d0 <_ZSt16__ostream_insertIcSt11char_traitsIcEERSt13basic_ostreamIT_T0_ES6_PKS3_l@plt>
  407a24:	41 8b 56 04          	mov    0x4(%r14),%edx
  407a28:	85 d2                	test   %edx,%edx
  407a2a:	0f 8e bc 01 00 00    	jle    407bec <_ZN15CPU_MATHEMATICS11printHelperIPKfEEvT_PKiiNSt7__cxx1112basic_stringIcSt11char_traitsIcESaIcEEEi+0x41c>
  407a30:	48 63 44 24 2c       	movslq 0x2c(%rsp),%rax
  407a35:	4c 8d 64 24 40       	lea    0x40(%rsp),%r12
  407a3a:	31 ed                	xor    %ebp,%ebp
  407a3c:	48 89 44 24 08       	mov    %rax,0x8(%rsp)
  407a41:	0f 1f 80 00 00 00 00 	nopl   0x0(%rax)
  407a48:	41 8b 06             	mov    (%r14),%eax
  407a4b:	48 8b 4c 24 20       	mov    0x20(%rsp),%rcx
  407a50:	ba 3a 00 00 00       	mov    $0x3a,%edx
  407a55:	66 0f ef c0          	pxor   %xmm0,%xmm0
  407a59:	be 00 14 40 00       	mov    $0x401400,%esi
  407a5e:	4c 89 e7             	mov    %r12,%rdi
  407a61:	0f af c5             	imul   %ebp,%eax
  407a64:	03 44 24 18          	add    0x18(%rsp),%eax
  407a68:	48 98                	cltq   
  407a6a:	f3 0f 5a 04 81       	cvtss2sd (%rcx,%rax,4),%xmm0
  407a6f:	b8 01 00 00 00       	mov    $0x1,%eax
  407a74:	b9 3c 92 40 00       	mov    $0x40923c,%ecx
  407a79:	e8 f2 a6 ff ff       	callq  402170 <_ZN9__gnu_cxx12__to_xstringINSt7__cxx1112basic_stringIcSt11char_traitsIcESaIcEEEcEET_PFiPT0_mPKS8_P13__va_list_tagEmSB_z.constprop.62>
  407a7e:	48 8b 5c 24 48       	mov    0x48(%rsp),%rbx
  407a83:	48 8b 44 24 08       	mov    0x8(%rsp),%rax
  407a88:	4c 89 7c 24 60       	mov    %r15,0x60(%rsp)
  407a8d:	4c 8b 6c 24 40       	mov    0x40(%rsp),%r13
  407a92:	48 39 c3             	cmp    %rax,%rbx
  407a95:	72 04                	jb     407a9b <_ZN15CPU_MATHEMATICS11printHelperIPKfEEvT_PKiiNSt7__cxx1112basic_stringIcSt11char_traitsIcESaIcEEEi+0x2cb>
  407a97:	48 0f 47 d8          	cmova  %rax,%rbx
  407a9b:	4c 89 e8             	mov    %r13,%rax
  407a9e:	48 01 d8             	add    %rbx,%rax
  407aa1:	74 3d                	je     407ae0 <_ZN15CPU_MATHEMATICS11printHelperIPKfEEvT_PKiiNSt7__cxx1112basic_stringIcSt11char_traitsIcESaIcEEEi+0x310>
  407aa3:	4d 85 ed             	test   %r13,%r13
  407aa6:	75 38                	jne    407ae0 <_ZN15CPU_MATHEMATICS11printHelperIPKfEEvT_PKiiNSt7__cxx1112basic_stringIcSt11char_traitsIcESaIcEEEi+0x310>
  407aa8:	bf b8 91 40 00       	mov    $0x4091b8,%edi
  407aad:	e8 7e 99 ff ff       	callq  401430 <_ZSt19__throw_logic_errorPKc@plt>
  407ab2:	48 89 ef             	mov    %rbp,%rdi
  407ab5:	e8 26 9a ff ff       	callq  4014e0 <_ZNKSt5ctypeIcE13_M_widen_initEv@plt>
  407aba:	48 8b 45 00          	mov    0x0(%rbp),%rax
  407abe:	be 0a 00 00 00       	mov    $0xa,%esi
  407ac3:	48 8b 40 30          	mov    0x30(%rax),%rax
  407ac7:	48 3d 20 5c 40 00    	cmp    $0x405c20,%rax
  407acd:	0f 84 b0 fd ff ff    	je     407883 <_ZN15CPU_MATHEMATICS11printHelperIPKfEEvT_PKiiNSt7__cxx1112basic_stringIcSt11char_traitsIcESaIcEEEi+0xb3>
  407ad3:	48 89 ef             	mov    %rbp,%rdi
  407ad6:	ff d0                	callq  *%rax
  407ad8:	0f be f0             	movsbl %al,%esi
  407adb:	e9 a3 fd ff ff       	jmpq   407883 <_ZN15CPU_MATHEMATICS11printHelperIPKfEEvT_PKiiNSt7__cxx1112basic_stringIcSt11char_traitsIcESaIcEEEi+0xb3>
  407ae0:	48 83 fb 0f          	cmp    $0xf,%rbx
  407ae4:	48 89 5c 24 30       	mov    %rbx,0x30(%rsp)
  407ae9:	0f 87 91 01 00 00    	ja     407c80 <_ZN15CPU_MATHEMATICS11printHelperIPKfEEvT_PKiiNSt7__cxx1112basic_stringIcSt11char_traitsIcESaIcEEEi+0x4b0>
  407aef:	48 83 fb 01          	cmp    $0x1,%rbx
  407af3:	0f 84 e7 01 00 00    	je     407ce0 <_ZN15CPU_MATHEMATICS11printHelperIPKfEEvT_PKiiNSt7__cxx1112basic_stringIcSt11char_traitsIcESaIcEEEi+0x510>
  407af9:	48 85 db             	test   %rbx,%rbx
  407afc:	4c 89 f8             	mov    %r15,%rax
  407aff:	0f 85 6b 03 00 00    	jne    407e70 <_ZN15CPU_MATHEMATICS11printHelperIPKfEEvT_PKiiNSt7__cxx1112basic_stringIcSt11char_traitsIcESaIcEEEi+0x6a0>
  407b05:	48 8d 74 24 60       	lea    0x60(%rsp),%rsi
  407b0a:	48 89 5c 24 68       	mov    %rbx,0x68(%rsp)
  407b0f:	4c 89 e7             	mov    %r12,%rdi
  407b12:	c6 04 18 00          	movb   $0x0,(%rax,%rbx,1)
  407b16:	e8 25 99 ff ff       	callq  401440 <_ZNSt7__cxx1112basic_stringIcSt11char_traitsIcESaIcEE4swapERS4_@plt>
  407b1b:	48 8b 7c 24 60       	mov    0x60(%rsp),%rdi
  407b20:	4c 39 ff             	cmp    %r15,%rdi
  407b23:	74 05                	je     407b2a <_ZN15CPU_MATHEMATICS11printHelperIPKfEEvT_PKiiNSt7__cxx1112basic_stringIcSt11char_traitsIcESaIcEEEi+0x35a>
  407b25:	e8 76 99 ff ff       	callq  4014a0 <_ZdlPv@plt>
  407b2a:	48 8b 54 24 48       	mov    0x48(%rsp),%rdx
  407b2f:	48 8b 44 24 08       	mov    0x8(%rsp),%rax
  407b34:	48 39 c2             	cmp    %rax,%rdx
  407b37:	73 74                	jae    407bad <_ZN15CPU_MATHEMATICS11printHelperIPKfEEvT_PKiiNSt7__cxx1112basic_stringIcSt11char_traitsIcESaIcEEEi+0x3dd>
  407b39:	48 89 c3             	mov    %rax,%rbx
  407b3c:	48 8b 44 24 10       	mov    0x10(%rsp),%rax
  407b41:	48 29 d3             	sub    %rdx,%rbx
  407b44:	48 83 fb 0f          	cmp    $0xf,%rbx
  407b48:	48 89 5c 24 38       	mov    %rbx,0x38(%rsp)
  407b4d:	48 89 84 24 80 00 00 	mov    %rax,0x80(%rsp)
  407b54:	00 
  407b55:	0f 87 9d 01 00 00    	ja     407cf8 <_ZN15CPU_MATHEMATICS11printHelperIPKfEEvT_PKiiNSt7__cxx1112basic_stringIcSt11char_traitsIcESaIcEEEi+0x528>
  407b5b:	48 83 fb 01          	cmp    $0x1,%rbx
  407b5f:	48 89 c7             	mov    %rax,%rdi
  407b62:	0f 85 bc 01 00 00    	jne    407d24 <_ZN15CPU_MATHEMATICS11printHelperIPKfEEvT_PKiiNSt7__cxx1112basic_stringIcSt11char_traitsIcESaIcEEEi+0x554>
  407b68:	c6 84 24 90 00 00 00 	movb   $0x20,0x90(%rsp)
  407b6f:	20 
  407b70:	48 89 9c 24 88 00 00 	mov    %rbx,0x88(%rsp)
  407b77:	00 
  407b78:	c6 04 18 00          	movb   $0x0,(%rax,%rbx,1)
  407b7c:	4c 89 e7             	mov    %r12,%rdi
  407b7f:	48 8b 94 24 88 00 00 	mov    0x88(%rsp),%rdx
  407b86:	00 
  407b87:	48 8b b4 24 80 00 00 	mov    0x80(%rsp),%rsi
  407b8e:	00 
  407b8f:	e8 3c 98 ff ff       	callq  4013d0 <_ZNSt7__cxx1112basic_stringIcSt11char_traitsIcESaIcEE9_M_appendEPKcm@plt>
  407b94:	48 8b bc 24 80 00 00 	mov    0x80(%rsp),%rdi
  407b9b:	00 
  407b9c:	48 3b 7c 24 10       	cmp    0x10(%rsp),%rdi
  407ba1:	74 05                	je     407ba8 <_ZN15CPU_MATHEMATICS11printHelperIPKfEEvT_PKiiNSt7__cxx1112basic_stringIcSt11char_traitsIcESaIcEEEi+0x3d8>
  407ba3:	e8 f8 98 ff ff       	callq  4014a0 <_ZdlPv@plt>
  407ba8:	48 8b 54 24 48       	mov    0x48(%rsp),%rdx
  407bad:	48 8b 74 24 40       	mov    0x40(%rsp),%rsi
  407bb2:	bf e0 d1 60 00       	mov    $0x60d1e0,%edi
  407bb7:	e8 14 99 ff ff       	callq  4014d0 <_ZSt16__ostream_insertIcSt11char_traitsIcEERSt13basic_ostreamIT_T0_ES6_PKS3_l@plt>
  407bbc:	41 8b 46 04          	mov    0x4(%r14),%eax
  407bc0:	83 e8 01             	sub    $0x1,%eax
  407bc3:	39 e8                	cmp    %ebp,%eax
  407bc5:	0f 8f f5 00 00 00    	jg     407cc0 <_ZN15CPU_MATHEMATICS11printHelperIPKfEEvT_PKiiNSt7__cxx1112basic_stringIcSt11char_traitsIcESaIcEEEi+0x4f0>
  407bcb:	48 8b 7c 24 40       	mov    0x40(%rsp),%rdi
  407bd0:	49 8d 44 24 10       	lea    0x10(%r12),%rax
  407bd5:	48 39 c7             	cmp    %rax,%rdi
  407bd8:	74 05                	je     407bdf <_ZN15CPU_MATHEMATICS11printHelperIPKfEEvT_PKiiNSt7__cxx1112basic_stringIcSt11char_traitsIcESaIcEEEi+0x40f>
  407bda:	e8 c1 98 ff ff       	callq  4014a0 <_ZdlPv@plt>
  407bdf:	83 c5 01             	add    $0x1,%ebp
  407be2:	41 39 6e 04          	cmp    %ebp,0x4(%r14)
  407be6:	0f 8f 5c fe ff ff    	jg     407a48 <_ZN15CPU_MATHEMATICS11printHelperIPKfEEvT_PKiiNSt7__cxx1112basic_stringIcSt11char_traitsIcESaIcEEEi+0x278>
  407bec:	ba 02 00 00 00       	mov    $0x2,%edx
  407bf1:	be 3f 92 40 00       	mov    $0x40923f,%esi
  407bf6:	bf e0 d1 60 00       	mov    $0x60d1e0,%edi
  407bfb:	e8 d0 98 ff ff       	callq  4014d0 <_ZSt16__ostream_insertIcSt11char_traitsIcEERSt13basic_ostreamIT_T0_ES6_PKS3_l@plt>
  407c00:	48 8b 05 d9 55 20 00 	mov    0x2055d9(%rip),%rax        # 60d1e0 <_ZSt4cout@@GLIBCXX_3.4>
  407c07:	48 8b 40 e8          	mov    -0x18(%rax),%rax
  407c0b:	48 8b 98 d0 d2 60 00 	mov    0x60d2d0(%rax),%rbx
  407c12:	48 85 db             	test   %rbx,%rbx
  407c15:	0f 84 a3 06 00 00    	je     4082be <_ZN15CPU_MATHEMATICS11printHelperIPKfEEvT_PKiiNSt7__cxx1112basic_stringIcSt11char_traitsIcESaIcEEEi+0xaee>
  407c1b:	80 7b 38 00          	cmpb   $0x0,0x38(%rbx)
  407c1f:	0f 84 c7 02 00 00    	je     407eec <_ZN15CPU_MATHEMATICS11printHelperIPKfEEvT_PKiiNSt7__cxx1112basic_stringIcSt11char_traitsIcESaIcEEEi+0x71c>
  407c25:	0f be 73 43          	movsbl 0x43(%rbx),%esi
  407c29:	bf e0 d1 60 00       	mov    $0x60d1e0,%edi
  407c2e:	e8 7d 97 ff ff       	callq  4013b0 <_ZNSo3putEc@plt>
  407c33:	48 89 c7             	mov    %rax,%rdi
  407c36:	e8 e5 97 ff ff       	callq  401420 <_ZNSo5flushEv@plt>
  407c3b:	83 44 24 18 01       	addl   $0x1,0x18(%rsp)
  407c40:	8b 44 24 18          	mov    0x18(%rsp),%eax
  407c44:	41 39 06             	cmp    %eax,(%r14)
  407c47:	0f 8f c3 fd ff ff    	jg     407a10 <_ZN15CPU_MATHEMATICS11printHelperIPKfEEvT_PKiiNSt7__cxx1112basic_stringIcSt11char_traitsIcESaIcEEEi+0x240>
  407c4d:	48 8b 84 24 a8 00 00 	mov    0xa8(%rsp),%rax
  407c54:	00 
  407c55:	64 48 33 04 25 28 00 	xor    %fs:0x28,%rax
  407c5c:	00 00 
  407c5e:	0f 85 53 06 00 00    	jne    4082b7 <_ZN15CPU_MATHEMATICS11printHelperIPKfEEvT_PKiiNSt7__cxx1112basic_stringIcSt11char_traitsIcESaIcEEEi+0xae7>
  407c64:	48 81 c4 b8 00 00 00 	add    $0xb8,%rsp
  407c6b:	5b                   	pop    %rbx
  407c6c:	5d                   	pop    %rbp
  407c6d:	41 5c                	pop    %r12
  407c6f:	41 5d                	pop    %r13
  407c71:	41 5e                	pop    %r14
  407c73:	41 5f                	pop    %r15
  407c75:	c3                   	retq   
  407c76:	66 2e 0f 1f 84 00 00 	nopw   %cs:0x0(%rax,%rax,1)
  407c7d:	00 00 00 
  407c80:	48 8d 74 24 30       	lea    0x30(%rsp),%rsi
  407c85:	48 8d 7c 24 60       	lea    0x60(%rsp),%rdi
  407c8a:	31 d2                	xor    %edx,%edx
  407c8c:	e8 1f 99 ff ff       	callq  4015b0 <_ZNSt7__cxx1112basic_stringIcSt11char_traitsIcESaIcEE9_M_createERmm@plt>
  407c91:	48 89 c7             	mov    %rax,%rdi
  407c94:	48 89 44 24 60       	mov    %rax,0x60(%rsp)
  407c99:	48 8b 44 24 30       	mov    0x30(%rsp),%rax
  407c9e:	48 89 44 24 70       	mov    %rax,0x70(%rsp)
  407ca3:	48 89 da             	mov    %rbx,%rdx
  407ca6:	4c 89 ee             	mov    %r13,%rsi
  407ca9:	e8 c2 97 ff ff       	callq  401470 <memcpy@plt>
  407cae:	48 8b 5c 24 30       	mov    0x30(%rsp),%rbx
  407cb3:	48 8b 44 24 60       	mov    0x60(%rsp),%rax
  407cb8:	e9 48 fe ff ff       	jmpq   407b05 <_ZN15CPU_MATHEMATICS11printHelperIPKfEEvT_PKiiNSt7__cxx1112basic_stringIcSt11char_traitsIcESaIcEEEi+0x335>
  407cbd:	0f 1f 00             	nopl   (%rax)
  407cc0:	ba 03 00 00 00       	mov    $0x3,%edx
  407cc5:	be 89 92 40 00       	mov    $0x409289,%esi
  407cca:	bf e0 d1 60 00       	mov    $0x60d1e0,%edi
  407ccf:	e8 fc 97 ff ff       	callq  4014d0 <_ZSt16__ostream_insertIcSt11char_traitsIcEERSt13basic_ostreamIT_T0_ES6_PKS3_l@plt>
  407cd4:	e9 f2 fe ff ff       	jmpq   407bcb <_ZN15CPU_MATHEMATICS11printHelperIPKfEEvT_PKiiNSt7__cxx1112basic_stringIcSt11char_traitsIcESaIcEEEi+0x3fb>
  407cd9:	0f 1f 80 00 00 00 00 	nopl   0x0(%rax)
  407ce0:	41 0f b6 45 00       	movzbl 0x0(%r13),%eax
  407ce5:	88 44 24 70          	mov    %al,0x70(%rsp)
  407ce9:	4c 89 f8             	mov    %r15,%rax
  407cec:	e9 14 fe ff ff       	jmpq   407b05 <_ZN15CPU_MATHEMATICS11printHelperIPKfEEvT_PKiiNSt7__cxx1112basic_stringIcSt11char_traitsIcESaIcEEEi+0x335>
  407cf1:	0f 1f 80 00 00 00 00 	nopl   0x0(%rax)
  407cf8:	48 8d 74 24 38       	lea    0x38(%rsp),%rsi
  407cfd:	48 8d bc 24 80 00 00 	lea    0x80(%rsp),%rdi
  407d04:	00 
  407d05:	31 d2                	xor    %edx,%edx
  407d07:	e8 a4 98 ff ff       	callq  4015b0 <_ZNSt7__cxx1112basic_stringIcSt11char_traitsIcESaIcEE9_M_createERmm@plt>
  407d0c:	48 89 c7             	mov    %rax,%rdi
  407d0f:	48 89 84 24 80 00 00 	mov    %rax,0x80(%rsp)
  407d16:	00 
  407d17:	48 8b 44 24 38       	mov    0x38(%rsp),%rax
  407d1c:	48 89 84 24 90 00 00 	mov    %rax,0x90(%rsp)
  407d23:	00 
  407d24:	48 89 da             	mov    %rbx,%rdx
  407d27:	be 84 92 40 00       	mov    $0x409284,%esi
  407d2c:	e8 3f 97 ff ff       	callq  401470 <memcpy@plt>
  407d31:	48 8b 5c 24 38       	mov    0x38(%rsp),%rbx
  407d36:	48 8b 84 24 80 00 00 	mov    0x80(%rsp),%rax
  407d3d:	00 
  407d3e:	e9 2d fe ff ff       	jmpq   407b70 <_ZN15CPU_MATHEMATICS11printHelperIPKfEEvT_PKiiNSt7__cxx1112basic_stringIcSt11char_traitsIcESaIcEEEi+0x3a0>
  407d43:	48 83 fb 0f          	cmp    $0xf,%rbx
  407d47:	48 89 5c 24 30       	mov    %rbx,0x30(%rsp)
  407d4c:	0f 87 4e 01 00 00    	ja     407ea0 <_ZN15CPU_MATHEMATICS11printHelperIPKfEEvT_PKiiNSt7__cxx1112basic_stringIcSt11char_traitsIcESaIcEEEi+0x6d0>
  407d52:	48 83 fb 01          	cmp    $0x1,%rbx
  407d56:	0f 84 7f 01 00 00    	je     407edb <_ZN15CPU_MATHEMATICS11printHelperIPKfEEvT_PKiiNSt7__cxx1112basic_stringIcSt11char_traitsIcESaIcEEEi+0x70b>
  407d5c:	48 85 db             	test   %rbx,%rbx
  407d5f:	48 8d 45 10          	lea    0x10(%rbp),%rax
  407d63:	0f 85 1f 03 00 00    	jne    408088 <_ZN15CPU_MATHEMATICS11printHelperIPKfEEvT_PKiiNSt7__cxx1112basic_stringIcSt11char_traitsIcESaIcEEEi+0x8b8>
  407d69:	48 89 5c 24 68       	mov    %rbx,0x68(%rsp)
  407d6e:	4c 89 e7             	mov    %r12,%rdi
  407d71:	c6 04 18 00          	movb   $0x0,(%rax,%rbx,1)
  407d75:	48 89 ee             	mov    %rbp,%rsi
  407d78:	e8 c3 96 ff ff       	callq  401440 <_ZNSt7__cxx1112basic_stringIcSt11char_traitsIcESaIcEE4swapERS4_@plt>
  407d7d:	48 8b 7c 24 60       	mov    0x60(%rsp),%rdi
  407d82:	48 8d 45 10          	lea    0x10(%rbp),%rax
  407d86:	48 39 c7             	cmp    %rax,%rdi
  407d89:	74 05                	je     407d90 <_ZN15CPU_MATHEMATICS11printHelperIPKfEEvT_PKiiNSt7__cxx1112basic_stringIcSt11char_traitsIcESaIcEEEi+0x5c0>
  407d8b:	e8 10 97 ff ff       	callq  4014a0 <_ZdlPv@plt>
  407d90:	48 8b 54 24 48       	mov    0x48(%rsp),%rdx
  407d95:	48 8b 44 24 08       	mov    0x8(%rsp),%rax
  407d9a:	48 39 c2             	cmp    %rax,%rdx
  407d9d:	73 71                	jae    407e10 <_ZN15CPU_MATHEMATICS11printHelperIPKfEEvT_PKiiNSt7__cxx1112basic_stringIcSt11char_traitsIcESaIcEEEi+0x640>
  407d9f:	48 89 c3             	mov    %rax,%rbx
  407da2:	48 8b 44 24 18       	mov    0x18(%rsp),%rax
  407da7:	48 29 d3             	sub    %rdx,%rbx
  407daa:	48 83 fb 0f          	cmp    $0xf,%rbx
  407dae:	48 89 5c 24 38       	mov    %rbx,0x38(%rsp)
  407db3:	48 89 84 24 80 00 00 	mov    %rax,0x80(%rsp)
  407dba:	00 
  407dbb:	0f 87 58 01 00 00    	ja     407f19 <_ZN15CPU_MATHEMATICS11printHelperIPKfEEvT_PKiiNSt7__cxx1112basic_stringIcSt11char_traitsIcESaIcEEEi+0x749>
  407dc1:	48 83 fb 01          	cmp    $0x1,%rbx
  407dc5:	0f 85 77 01 00 00    	jne    407f42 <_ZN15CPU_MATHEMATICS11printHelperIPKfEEvT_PKiiNSt7__cxx1112basic_stringIcSt11char_traitsIcESaIcEEEi+0x772>
  407dcb:	c6 84 24 90 00 00 00 	movb   $0x20,0x90(%rsp)
  407dd2:	20 
  407dd3:	48 89 9c 24 88 00 00 	mov    %rbx,0x88(%rsp)
  407dda:	00 
  407ddb:	c6 04 18 00          	movb   $0x0,(%rax,%rbx,1)
  407ddf:	4c 89 e7             	mov    %r12,%rdi
  407de2:	48 8b 94 24 88 00 00 	mov    0x88(%rsp),%rdx
  407de9:	00 
  407dea:	48 8b b4 24 80 00 00 	mov    0x80(%rsp),%rsi
  407df1:	00 
  407df2:	e8 d9 95 ff ff       	callq  4013d0 <_ZNSt7__cxx1112basic_stringIcSt11char_traitsIcESaIcEE9_M_appendEPKcm@plt>
  407df7:	48 8b bc 24 80 00 00 	mov    0x80(%rsp),%rdi
  407dfe:	00 
  407dff:	48 3b 7c 24 18       	cmp    0x18(%rsp),%rdi
  407e04:	74 05                	je     407e0b <_ZN15CPU_MATHEMATICS11printHelperIPKfEEvT_PKiiNSt7__cxx1112basic_stringIcSt11char_traitsIcESaIcEEEi+0x63b>
  407e06:	e8 95 96 ff ff       	callq  4014a0 <_ZdlPv@plt>
  407e0b:	48 8b 54 24 48       	mov    0x48(%rsp),%rdx
  407e10:	48 8b 74 24 40       	mov    0x40(%rsp),%rsi
  407e15:	bf e0 d1 60 00       	mov    $0x60d1e0,%edi
  407e1a:	e8 b1 96 ff ff       	callq  4014d0 <_ZSt16__ostream_insertIcSt11char_traitsIcEERSt13basic_ostreamIT_T0_ES6_PKS3_l@plt>
  407e1f:	41 8b 06             	mov    (%r14),%eax
  407e22:	83 e8 01             	sub    $0x1,%eax
  407e25:	44 39 e8             	cmp    %r13d,%eax
  407e28:	7f 56                	jg     407e80 <_ZN15CPU_MATHEMATICS11printHelperIPKfEEvT_PKiiNSt7__cxx1112basic_stringIcSt11char_traitsIcESaIcEEEi+0x6b0>
  407e2a:	48 8b 7c 24 40       	mov    0x40(%rsp),%rdi
  407e2f:	49 8d 44 24 10       	lea    0x10(%r12),%rax
  407e34:	48 39 c7             	cmp    %rax,%rdi
  407e37:	74 05                	je     407e3e <_ZN15CPU_MATHEMATICS11printHelperIPKfEEvT_PKiiNSt7__cxx1112basic_stringIcSt11char_traitsIcESaIcEEEi+0x66e>
  407e39:	e8 62 96 ff ff       	callq  4014a0 <_ZdlPv@plt>
  407e3e:	41 83 c5 01          	add    $0x1,%r13d
  407e42:	48 83 44 24 10 04    	addq   $0x4,0x10(%rsp)
  407e48:	45 39 2e             	cmp    %r13d,(%r14)
  407e4b:	0f 8f 2f fb ff ff    	jg     407980 <_ZN15CPU_MATHEMATICS11printHelperIPKfEEvT_PKiiNSt7__cxx1112basic_stringIcSt11char_traitsIcESaIcEEEi+0x1b0>
  407e51:	ba 02 00 00 00       	mov    $0x2,%edx
  407e56:	be 3f 92 40 00       	mov    $0x40923f,%esi
  407e5b:	bf e0 d1 60 00       	mov    $0x60d1e0,%edi
  407e60:	e8 6b 96 ff ff       	callq  4014d0 <_ZSt16__ostream_insertIcSt11char_traitsIcEERSt13basic_ostreamIT_T0_ES6_PKS3_l@plt>
  407e65:	e9 e3 fd ff ff       	jmpq   407c4d <_ZN15CPU_MATHEMATICS11printHelperIPKfEEvT_PKiiNSt7__cxx1112basic_stringIcSt11char_traitsIcESaIcEEEi+0x47d>
  407e6a:	66 0f 1f 44 00 00    	nopw   0x0(%rax,%rax,1)
  407e70:	4c 89 ff             	mov    %r15,%rdi
  407e73:	e9 2b fe ff ff       	jmpq   407ca3 <_ZN15CPU_MATHEMATICS11printHelperIPKfEEvT_PKiiNSt7__cxx1112basic_stringIcSt11char_traitsIcESaIcEEEi+0x4d3>
  407e78:	0f 1f 84 00 00 00 00 	nopl   0x0(%rax,%rax,1)
  407e7f:	00 
  407e80:	ba 03 00 00 00       	mov    $0x3,%edx
  407e85:	be 89 92 40 00       	mov    $0x409289,%esi
  407e8a:	bf e0 d1 60 00       	mov    $0x60d1e0,%edi
  407e8f:	e8 3c 96 ff ff       	callq  4014d0 <_ZSt16__ostream_insertIcSt11char_traitsIcEERSt13basic_ostreamIT_T0_ES6_PKS3_l@plt>
  407e94:	eb 94                	jmp    407e2a <_ZN15CPU_MATHEMATICS11printHelperIPKfEEvT_PKiiNSt7__cxx1112basic_stringIcSt11char_traitsIcESaIcEEEi+0x65a>
  407e96:	66 2e 0f 1f 84 00 00 	nopw   %cs:0x0(%rax,%rax,1)
  407e9d:	00 00 00 
  407ea0:	48 8d 74 24 30       	lea    0x30(%rsp),%rsi
  407ea5:	31 d2                	xor    %edx,%edx
  407ea7:	48 89 ef             	mov    %rbp,%rdi
  407eaa:	e8 01 97 ff ff       	callq  4015b0 <_ZNSt7__cxx1112basic_stringIcSt11char_traitsIcESaIcEE9_M_createERmm@plt>
  407eaf:	48 89 c7             	mov    %rax,%rdi
  407eb2:	48 89 44 24 60       	mov    %rax,0x60(%rsp)
  407eb7:	48 8b 44 24 30       	mov    0x30(%rsp),%rax
  407ebc:	48 89 44 24 70       	mov    %rax,0x70(%rsp)
  407ec1:	48 89 da             	mov    %rbx,%rdx
  407ec4:	4c 89 fe             	mov    %r15,%rsi
  407ec7:	e8 a4 95 ff ff       	callq  401470 <memcpy@plt>
  407ecc:	48 8b 5c 24 30       	mov    0x30(%rsp),%rbx
  407ed1:	48 8b 44 24 60       	mov    0x60(%rsp),%rax
  407ed6:	e9 8e fe ff ff       	jmpq   407d69 <_ZN15CPU_MATHEMATICS11printHelperIPKfEEvT_PKiiNSt7__cxx1112basic_stringIcSt11char_traitsIcESaIcEEEi+0x599>
  407edb:	41 0f b6 07          	movzbl (%r15),%eax
  407edf:	88 44 24 70          	mov    %al,0x70(%rsp)
  407ee3:	48 8d 45 10          	lea    0x10(%rbp),%rax
  407ee7:	e9 7d fe ff ff       	jmpq   407d69 <_ZN15CPU_MATHEMATICS11printHelperIPKfEEvT_PKiiNSt7__cxx1112basic_stringIcSt11char_traitsIcESaIcEEEi+0x599>
  407eec:	48 89 df             	mov    %rbx,%rdi
  407eef:	e8 ec 95 ff ff       	callq  4014e0 <_ZNKSt5ctypeIcE13_M_widen_initEv@plt>
  407ef4:	48 8b 03             	mov    (%rbx),%rax
  407ef7:	be 0a 00 00 00       	mov    $0xa,%esi
  407efc:	48 8b 40 30          	mov    0x30(%rax),%rax
  407f00:	48 3d 20 5c 40 00    	cmp    $0x405c20,%rax
  407f06:	0f 84 1d fd ff ff    	je     407c29 <_ZN15CPU_MATHEMATICS11printHelperIPKfEEvT_PKiiNSt7__cxx1112basic_stringIcSt11char_traitsIcESaIcEEEi+0x459>
  407f0c:	48 89 df             	mov    %rbx,%rdi
  407f0f:	ff d0                	callq  *%rax
  407f11:	0f be f0             	movsbl %al,%esi
  407f14:	e9 10 fd ff ff       	jmpq   407c29 <_ZN15CPU_MATHEMATICS11printHelperIPKfEEvT_PKiiNSt7__cxx1112basic_stringIcSt11char_traitsIcESaIcEEEi+0x459>
  407f19:	48 8d 74 24 38       	lea    0x38(%rsp),%rsi
  407f1e:	48 8d bc 24 80 00 00 	lea    0x80(%rsp),%rdi
  407f25:	00 
  407f26:	31 d2                	xor    %edx,%edx
  407f28:	e8 83 96 ff ff       	callq  4015b0 <_ZNSt7__cxx1112basic_stringIcSt11char_traitsIcESaIcEE9_M_createERmm@plt>
  407f2d:	48 8b 54 24 38       	mov    0x38(%rsp),%rdx
  407f32:	48 89 84 24 80 00 00 	mov    %rax,0x80(%rsp)
  407f39:	00 
  407f3a:	48 89 94 24 90 00 00 	mov    %rdx,0x90(%rsp)
  407f41:	00 
  407f42:	48 89 da             	mov    %rbx,%rdx
  407f45:	be 84 92 40 00       	mov    $0x409284,%esi
  407f4a:	48 89 c7             	mov    %rax,%rdi
  407f4d:	e8 1e 95 ff ff       	callq  401470 <memcpy@plt>
  407f52:	48 8b 5c 24 38       	mov    0x38(%rsp),%rbx
  407f57:	48 8b 84 24 80 00 00 	mov    0x80(%rsp),%rax
  407f5e:	00 
  407f5f:	e9 6f fe ff ff       	jmpq   407dd3 <_ZN15CPU_MATHEMATICS11printHelperIPKfEEvT_PKiiNSt7__cxx1112basic_stringIcSt11char_traitsIcESaIcEEEi+0x603>
  407f64:	48 8d 6c 24 60       	lea    0x60(%rsp),%rbp
  407f69:	44 8b 44 24 08       	mov    0x8(%rsp),%r8d
  407f6e:	31 c0                	xor    %eax,%eax
  407f70:	b9 86 92 40 00       	mov    $0x409286,%ecx
  407f75:	ba 10 00 00 00       	mov    $0x10,%edx
  407f7a:	be 00 14 40 00       	mov    $0x401400,%esi
  407f7f:	48 89 ef             	mov    %rbp,%rdi
  407f82:	e8 e9 a1 ff ff       	callq  402170 <_ZN9__gnu_cxx12__to_xstringINSt7__cxx1112basic_stringIcSt11char_traitsIcESaIcEEEcEET_PFiPT0_mPKS8_P13__va_list_tagEmSB_z.constprop.62>
  407f87:	4c 8b 6c 24 68       	mov    0x68(%rsp),%r13
  407f8c:	48 8d 43 10          	lea    0x10(%rbx),%rax
  407f90:	48 89 84 24 80 00 00 	mov    %rax,0x80(%rsp)
  407f97:	00 
  407f98:	49 83 fd 0f          	cmp    $0xf,%r13
  407f9c:	4c 89 6c 24 38       	mov    %r13,0x38(%rsp)
  407fa1:	0f 87 10 01 00 00    	ja     4080b7 <_ZN15CPU_MATHEMATICS11printHelperIPKfEEvT_PKiiNSt7__cxx1112basic_stringIcSt11char_traitsIcESaIcEEEi+0x8e7>
  407fa7:	49 83 fd 01          	cmp    $0x1,%r13
  407fab:	0f 84 4c 01 00 00    	je     4080fd <_ZN15CPU_MATHEMATICS11printHelperIPKfEEvT_PKiiNSt7__cxx1112basic_stringIcSt11char_traitsIcESaIcEEEi+0x92d>
  407fb1:	4d 85 ed             	test   %r13,%r13
  407fb4:	48 89 c2             	mov    %rax,%rdx
  407fb7:	0f 85 1e 01 00 00    	jne    4080db <_ZN15CPU_MATHEMATICS11printHelperIPKfEEvT_PKiiNSt7__cxx1112basic_stringIcSt11char_traitsIcESaIcEEEi+0x90b>
  407fbd:	4c 89 ac 24 88 00 00 	mov    %r13,0x88(%rsp)
  407fc4:	00 
  407fc5:	42 c6 04 2a 00       	movb   $0x0,(%rdx,%r13,1)
  407fca:	bf e0 d1 60 00       	mov    $0x60d1e0,%edi
  407fcf:	49 8b 54 24 08       	mov    0x8(%r12),%rdx
  407fd4:	49 8b 34 24          	mov    (%r12),%rsi
  407fd8:	e8 f3 94 ff ff       	callq  4014d0 <_ZSt16__ostream_insertIcSt11char_traitsIcEERSt13basic_ostreamIT_T0_ES6_PKS3_l@plt>
  407fdd:	ba 14 00 00 00       	mov    $0x14,%edx
  407fe2:	be 42 92 40 00       	mov    $0x409242,%esi
  407fe7:	48 89 c7             	mov    %rax,%rdi
  407fea:	49 89 c4             	mov    %rax,%r12
  407fed:	e8 de 94 ff ff       	callq  4014d0 <_ZSt16__ostream_insertIcSt11char_traitsIcEERSt13basic_ostreamIT_T0_ES6_PKS3_l@plt>
  407ff2:	48 8b 94 24 88 00 00 	mov    0x88(%rsp),%rdx
  407ff9:	00 
  407ffa:	48 8b b4 24 80 00 00 	mov    0x80(%rsp),%rsi
  408001:	00 
  408002:	4c 89 e7             	mov    %r12,%rdi
  408005:	e8 c6 94 ff ff       	callq  4014d0 <_ZSt16__ostream_insertIcSt11char_traitsIcEERSt13basic_ostreamIT_T0_ES6_PKS3_l@plt>
  40800a:	ba 14 00 00 00       	mov    $0x14,%edx
  40800f:	be 57 92 40 00       	mov    $0x409257,%esi
  408014:	48 89 c7             	mov    %rax,%rdi
  408017:	49 89 c5             	mov    %rax,%r13
  40801a:	e8 b1 94 ff ff       	callq  4014d0 <_ZSt16__ostream_insertIcSt11char_traitsIcEERSt13basic_ostreamIT_T0_ES6_PKS3_l@plt>
  40801f:	49 8b 45 00          	mov    0x0(%r13),%rax
  408023:	48 8b 40 e8          	mov    -0x18(%rax),%rax
  408027:	4d 8b a4 05 f0 00 00 	mov    0xf0(%r13,%rax,1),%r12
  40802e:	00 
  40802f:	4d 85 e4             	test   %r12,%r12
  408032:	0f 84 95 02 00 00    	je     4082cd <_ZN15CPU_MATHEMATICS11printHelperIPKfEEvT_PKiiNSt7__cxx1112basic_stringIcSt11char_traitsIcESaIcEEEi+0xafd>
  408038:	41 80 7c 24 38 00    	cmpb   $0x0,0x38(%r12)
  40803e:	74 50                	je     408090 <_ZN15CPU_MATHEMATICS11printHelperIPKfEEvT_PKiiNSt7__cxx1112basic_stringIcSt11char_traitsIcESaIcEEEi+0x8c0>
  408040:	41 0f be 74 24 43    	movsbl 0x43(%r12),%esi
  408046:	4c 89 ef             	mov    %r13,%rdi
  408049:	e8 62 93 ff ff       	callq  4013b0 <_ZNSo3putEc@plt>
  40804e:	48 89 c7             	mov    %rax,%rdi
  408051:	e8 ca 93 ff ff       	callq  401420 <_ZNSo5flushEv@plt>
  408056:	48 8b bc 24 80 00 00 	mov    0x80(%rsp),%rdi
  40805d:	00 
  40805e:	48 83 c3 10          	add    $0x10,%rbx
  408062:	48 39 df             	cmp    %rbx,%rdi
  408065:	74 05                	je     40806c <_ZN15CPU_MATHEMATICS11printHelperIPKfEEvT_PKiiNSt7__cxx1112basic_stringIcSt11char_traitsIcESaIcEEEi+0x89c>
  408067:	e8 34 94 ff ff       	callq  4014a0 <_ZdlPv@plt>
  40806c:	48 8b 7c 24 60       	mov    0x60(%rsp),%rdi
  408071:	48 83 c5 10          	add    $0x10,%rbp
  408075:	48 39 ef             	cmp    %rbp,%rdi
  408078:	0f 84 cf fb ff ff    	je     407c4d <_ZN15CPU_MATHEMATICS11printHelperIPKfEEvT_PKiiNSt7__cxx1112basic_stringIcSt11char_traitsIcESaIcEEEi+0x47d>
  40807e:	e8 1d 94 ff ff       	callq  4014a0 <_ZdlPv@plt>
  408083:	e9 c5 fb ff ff       	jmpq   407c4d <_ZN15CPU_MATHEMATICS11printHelperIPKfEEvT_PKiiNSt7__cxx1112basic_stringIcSt11char_traitsIcESaIcEEEi+0x47d>
  408088:	48 89 c7             	mov    %rax,%rdi
  40808b:	e9 31 fe ff ff       	jmpq   407ec1 <_ZN15CPU_MATHEMATICS11printHelperIPKfEEvT_PKiiNSt7__cxx1112basic_stringIcSt11char_traitsIcESaIcEEEi+0x6f1>
  408090:	4c 89 e7             	mov    %r12,%rdi
  408093:	e8 48 94 ff ff       	callq  4014e0 <_ZNKSt5ctypeIcE13_M_widen_initEv@plt>
  408098:	49 8b 04 24          	mov    (%r12),%rax
  40809c:	be 0a 00 00 00       	mov    $0xa,%esi
  4080a1:	48 8b 40 30          	mov    0x30(%rax),%rax
  4080a5:	48 3d 20 5c 40 00    	cmp    $0x405c20,%rax
  4080ab:	74 99                	je     408046 <_ZN15CPU_MATHEMATICS11printHelperIPKfEEvT_PKiiNSt7__cxx1112basic_stringIcSt11char_traitsIcESaIcEEEi+0x876>
  4080ad:	4c 89 e7             	mov    %r12,%rdi
  4080b0:	ff d0                	callq  *%rax
  4080b2:	0f be f0             	movsbl %al,%esi
  4080b5:	eb 8f                	jmp    408046 <_ZN15CPU_MATHEMATICS11printHelperIPKfEEvT_PKiiNSt7__cxx1112basic_stringIcSt11char_traitsIcESaIcEEEi+0x876>
  4080b7:	48 8d 74 24 38       	lea    0x38(%rsp),%rsi
  4080bc:	31 d2                	xor    %edx,%edx
  4080be:	48 89 df             	mov    %rbx,%rdi
  4080c1:	e8 ea 94 ff ff       	callq  4015b0 <_ZNSt7__cxx1112basic_stringIcSt11char_traitsIcESaIcEE9_M_createERmm@plt>
  4080c6:	48 8b 54 24 38       	mov    0x38(%rsp),%rdx
  4080cb:	48 89 84 24 80 00 00 	mov    %rax,0x80(%rsp)
  4080d2:	00 
  4080d3:	48 89 94 24 90 00 00 	mov    %rdx,0x90(%rsp)
  4080da:	00 
  4080db:	4c 89 ea             	mov    %r13,%rdx
  4080de:	be 84 92 40 00       	mov    $0x409284,%esi
  4080e3:	48 89 c7             	mov    %rax,%rdi
  4080e6:	e8 85 93 ff ff       	callq  401470 <memcpy@plt>
  4080eb:	4c 8b 6c 24 38       	mov    0x38(%rsp),%r13
  4080f0:	48 8b 94 24 80 00 00 	mov    0x80(%rsp),%rdx
  4080f7:	00 
  4080f8:	e9 c0 fe ff ff       	jmpq   407fbd <_ZN15CPU_MATHEMATICS11printHelperIPKfEEvT_PKiiNSt7__cxx1112basic_stringIcSt11char_traitsIcESaIcEEEi+0x7ed>
  4080fd:	c6 84 24 90 00 00 00 	movb   $0x20,0x90(%rsp)
  408104:	20 
  408105:	48 89 c2             	mov    %rax,%rdx
  408108:	e9 b0 fe ff ff       	jmpq   407fbd <_ZN15CPU_MATHEMATICS11printHelperIPKfEEvT_PKiiNSt7__cxx1112basic_stringIcSt11char_traitsIcESaIcEEEi+0x7ed>
  40810d:	4d 8d 7c 06 fc       	lea    -0x4(%r14,%rax,1),%r15
  408112:	31 ed                	xor    %ebp,%ebp
  408114:	48 83 f9 0f          	cmp    $0xf,%rcx
  408118:	48 89 4c 24 38       	mov    %rcx,0x38(%rsp)
  40811d:	0f 87 ad 00 00 00    	ja     4081d0 <_ZN15CPU_MATHEMATICS11printHelperIPKfEEvT_PKiiNSt7__cxx1112basic_stringIcSt11char_traitsIcESaIcEEEi+0xa00>
  408123:	48 83 f9 01          	cmp    $0x1,%rcx
  408127:	0f 84 fb 00 00 00    	je     408228 <_ZN15CPU_MATHEMATICS11printHelperIPKfEEvT_PKiiNSt7__cxx1112basic_stringIcSt11char_traitsIcESaIcEEEi+0xa58>
  40812d:	48 85 c9             	test   %rcx,%rcx
  408130:	48 8d 43 10          	lea    0x10(%rbx),%rax
  408134:	0f 85 06 01 00 00    	jne    408240 <_ZN15CPU_MATHEMATICS11printHelperIPKfEEvT_PKiiNSt7__cxx1112basic_stringIcSt11char_traitsIcESaIcEEEi+0xa70>
  40813a:	48 89 8c 24 88 00 00 	mov    %rcx,0x88(%rsp)
  408141:	00 
  408142:	c6 04 08 00          	movb   $0x0,(%rax,%rcx,1)
  408146:	4c 89 f6             	mov    %r14,%rsi
  408149:	41 8b 07             	mov    (%r15),%eax
  40814c:	48 8b 4c 24 20       	mov    0x20(%rsp),%rcx
  408151:	44 8b 44 24 2c       	mov    0x2c(%rsp),%r8d
  408156:	8b 54 24 08          	mov    0x8(%rsp),%edx
  40815a:	0f af c5             	imul   %ebp,%eax
  40815d:	48 98                	cltq   
  40815f:	48 8d 3c 81          	lea    (%rcx,%rax,4),%rdi
  408163:	48 89 d9             	mov    %rbx,%rcx
  408166:	e8 65 f6 ff ff       	callq  4077d0 <_ZN15CPU_MATHEMATICS11printHelperIPKfEEvT_PKiiNSt7__cxx1112basic_stringIcSt11char_traitsIcESaIcEEEi>
  40816b:	48 8b bc 24 80 00 00 	mov    0x80(%rsp),%rdi
  408172:	00 
  408173:	48 8d 43 10          	lea    0x10(%rbx),%rax
  408177:	48 39 c7             	cmp    %rax,%rdi
  40817a:	74 05                	je     408181 <_ZN15CPU_MATHEMATICS11printHelperIPKfEEvT_PKiiNSt7__cxx1112basic_stringIcSt11char_traitsIcESaIcEEEi+0x9b1>
  40817c:	e8 1f 93 ff ff       	callq  4014a0 <_ZdlPv@plt>
  408181:	83 c5 01             	add    $0x1,%ebp
  408184:	41 39 6d 00          	cmp    %ebp,0x0(%r13)
  408188:	0f 8e d6 fd ff ff    	jle    407f64 <_ZN15CPU_MATHEMATICS11printHelperIPKfEEvT_PKiiNSt7__cxx1112basic_stringIcSt11char_traitsIcESaIcEEEi+0x794>
  40818e:	4d 8b 04 24          	mov    (%r12),%r8
  408192:	48 8d 43 10          	lea    0x10(%rbx),%rax
  408196:	49 8b 4c 24 08       	mov    0x8(%r12),%rcx
  40819b:	48 89 84 24 80 00 00 	mov    %rax,0x80(%rsp)
  4081a2:	00 
  4081a3:	4c 89 c0             	mov    %r8,%rax
  4081a6:	48 01 c8             	add    %rcx,%rax
  4081a9:	0f 84 65 ff ff ff    	je     408114 <_ZN15CPU_MATHEMATICS11printHelperIPKfEEvT_PKiiNSt7__cxx1112basic_stringIcSt11char_traitsIcESaIcEEEi+0x944>
  4081af:	4d 85 c0             	test   %r8,%r8
  4081b2:	0f 84 58 f7 ff ff    	je     407910 <_ZN15CPU_MATHEMATICS11printHelperIPKfEEvT_PKiiNSt7__cxx1112basic_stringIcSt11char_traitsIcESaIcEEEi+0x140>
  4081b8:	48 83 f9 0f          	cmp    $0xf,%rcx
  4081bc:	48 89 4c 24 38       	mov    %rcx,0x38(%rsp)
  4081c1:	0f 86 5c ff ff ff    	jbe    408123 <_ZN15CPU_MATHEMATICS11printHelperIPKfEEvT_PKiiNSt7__cxx1112basic_stringIcSt11char_traitsIcESaIcEEEi+0x953>
  4081c7:	66 0f 1f 84 00 00 00 	nopw   0x0(%rax,%rax,1)
  4081ce:	00 00 
  4081d0:	48 8d 74 24 38       	lea    0x38(%rsp),%rsi
  4081d5:	48 89 df             	mov    %rbx,%rdi
  4081d8:	31 d2                	xor    %edx,%edx
  4081da:	48 89 4c 24 18       	mov    %rcx,0x18(%rsp)
  4081df:	4c 89 44 24 10       	mov    %r8,0x10(%rsp)
  4081e4:	e8 c7 93 ff ff       	callq  4015b0 <_ZNSt7__cxx1112basic_stringIcSt11char_traitsIcESaIcEE9_M_createERmm@plt>
  4081e9:	48 89 c7             	mov    %rax,%rdi
  4081ec:	48 89 84 24 80 00 00 	mov    %rax,0x80(%rsp)
  4081f3:	00 
  4081f4:	48 8b 44 24 38       	mov    0x38(%rsp),%rax
  4081f9:	4c 8b 44 24 10       	mov    0x10(%rsp),%r8
  4081fe:	48 8b 4c 24 18       	mov    0x18(%rsp),%rcx
  408203:	48 89 84 24 90 00 00 	mov    %rax,0x90(%rsp)
  40820a:	00 
  40820b:	48 89 ca             	mov    %rcx,%rdx
  40820e:	4c 89 c6             	mov    %r8,%rsi
  408211:	e8 5a 92 ff ff       	callq  401470 <memcpy@plt>
  408216:	48 8b 4c 24 38       	mov    0x38(%rsp),%rcx
  40821b:	48 8b 84 24 80 00 00 	mov    0x80(%rsp),%rax
  408222:	00 
  408223:	e9 12 ff ff ff       	jmpq   40813a <_ZN15CPU_MATHEMATICS11printHelperIPKfEEvT_PKiiNSt7__cxx1112basic_stringIcSt11char_traitsIcESaIcEEEi+0x96a>
  408228:	41 0f b6 00          	movzbl (%r8),%eax
  40822c:	88 84 24 90 00 00 00 	mov    %al,0x90(%rsp)
  408233:	48 8b 84 24 80 00 00 	mov    0x80(%rsp),%rax
  40823a:	00 
  40823b:	e9 fa fe ff ff       	jmpq   40813a <_ZN15CPU_MATHEMATICS11printHelperIPKfEEvT_PKiiNSt7__cxx1112basic_stringIcSt11char_traitsIcESaIcEEEi+0x96a>
  408240:	48 89 c7             	mov    %rax,%rdi
  408243:	eb c6                	jmp    40820b <_ZN15CPU_MATHEMATICS11printHelperIPKfEEvT_PKiiNSt7__cxx1112basic_stringIcSt11char_traitsIcESaIcEEEi+0xa3b>
  408245:	0f 1f 00             	nopl   (%rax)
  408248:	48 89 c3             	mov    %rax,%rbx
  40824b:	eb 5a                	jmp    4082a7 <_ZN15CPU_MATHEMATICS11printHelperIPKfEEvT_PKiiNSt7__cxx1112basic_stringIcSt11char_traitsIcESaIcEEEi+0xad7>
  40824d:	eb f9                	jmp    408248 <_ZN15CPU_MATHEMATICS11printHelperIPKfEEvT_PKiiNSt7__cxx1112basic_stringIcSt11char_traitsIcESaIcEEEi+0xa78>
  40824f:	49 89 c4             	mov    %rax,%r12
  408252:	eb 05                	jmp    408259 <_ZN15CPU_MATHEMATICS11printHelperIPKfEEvT_PKiiNSt7__cxx1112basic_stringIcSt11char_traitsIcESaIcEEEi+0xa89>
  408254:	48 89 c3             	mov    %rax,%rbx
  408257:	eb 34                	jmp    40828d <_ZN15CPU_MATHEMATICS11printHelperIPKfEEvT_PKiiNSt7__cxx1112basic_stringIcSt11char_traitsIcESaIcEEEi+0xabd>
  408259:	48 8b bc 24 80 00 00 	mov    0x80(%rsp),%rdi
  408260:	00 
  408261:	48 83 c3 10          	add    $0x10,%rbx
  408265:	48 39 df             	cmp    %rbx,%rdi
  408268:	74 05                	je     40826f <_ZN15CPU_MATHEMATICS11printHelperIPKfEEvT_PKiiNSt7__cxx1112basic_stringIcSt11char_traitsIcESaIcEEEi+0xa9f>
  40826a:	e8 31 92 ff ff       	callq  4014a0 <_ZdlPv@plt>
  40826f:	4c 89 e3             	mov    %r12,%rbx
  408272:	48 8b 7c 24 60       	mov    0x60(%rsp),%rdi
  408277:	48 83 c5 10          	add    $0x10,%rbp
  40827b:	48 39 ef             	cmp    %rbp,%rdi
  40827e:	74 05                	je     408285 <_ZN15CPU_MATHEMATICS11printHelperIPKfEEvT_PKiiNSt7__cxx1112basic_stringIcSt11char_traitsIcESaIcEEEi+0xab5>
  408280:	e8 1b 92 ff ff       	callq  4014a0 <_ZdlPv@plt>
  408285:	48 89 df             	mov    %rbx,%rdi
  408288:	e8 03 93 ff ff       	callq  401590 <_Unwind_Resume@plt>
  40828d:	48 8b bc 24 80 00 00 	mov    0x80(%rsp),%rdi
  408294:	00 
  408295:	48 8d 84 24 90 00 00 	lea    0x90(%rsp),%rax
  40829c:	00 
  40829d:	48 39 c7             	cmp    %rax,%rdi
  4082a0:	74 05                	je     4082a7 <_ZN15CPU_MATHEMATICS11printHelperIPKfEEvT_PKiiNSt7__cxx1112basic_stringIcSt11char_traitsIcESaIcEEEi+0xad7>
  4082a2:	e8 f9 91 ff ff       	callq  4014a0 <_ZdlPv@plt>
  4082a7:	48 8b 7c 24 40       	mov    0x40(%rsp),%rdi
  4082ac:	49 83 c4 10          	add    $0x10,%r12
  4082b0:	4c 39 e7             	cmp    %r12,%rdi
  4082b3:	75 cb                	jne    408280 <_ZN15CPU_MATHEMATICS11printHelperIPKfEEvT_PKiiNSt7__cxx1112basic_stringIcSt11char_traitsIcESaIcEEEi+0xab0>
  4082b5:	eb ce                	jmp    408285 <_ZN15CPU_MATHEMATICS11printHelperIPKfEEvT_PKiiNSt7__cxx1112basic_stringIcSt11char_traitsIcESaIcEEEi+0xab5>
  4082b7:	e8 04 92 ff ff       	callq  4014c0 <__stack_chk_fail@plt>
  4082bc:	eb 96                	jmp    408254 <_ZN15CPU_MATHEMATICS11printHelperIPKfEEvT_PKiiNSt7__cxx1112basic_stringIcSt11char_traitsIcESaIcEEEi+0xa84>
  4082be:	e8 2d 92 ff ff       	callq  4014f0 <_ZSt16__throw_bad_castv@plt>
  4082c3:	bf 6c 92 40 00       	mov    $0x40926c,%edi
  4082c8:	e8 23 91 ff ff       	callq  4013f0 <_ZSt20__throw_length_errorPKc@plt>
  4082cd:	e8 1e 92 ff ff       	callq  4014f0 <_ZSt16__throw_bad_castv@plt>
  4082d2:	48 89 c3             	mov    %rax,%rbx
  4082d5:	eb 9b                	jmp    408272 <_ZN15CPU_MATHEMATICS11printHelperIPKfEEvT_PKiiNSt7__cxx1112basic_stringIcSt11char_traitsIcESaIcEEEi+0xaa2>
  4082d7:	48 89 c5             	mov    %rax,%rbp
  4082da:	48 8b bc 24 80 00 00 	mov    0x80(%rsp),%rdi
  4082e1:	00 
  4082e2:	48 83 c3 10          	add    $0x10,%rbx
  4082e6:	48 39 df             	cmp    %rbx,%rdi
  4082e9:	74 05                	je     4082f0 <_ZN15CPU_MATHEMATICS11printHelperIPKfEEvT_PKiiNSt7__cxx1112basic_stringIcSt11char_traitsIcESaIcEEEi+0xb20>
  4082eb:	e8 b0 91 ff ff       	callq  4014a0 <_ZdlPv@plt>
  4082f0:	48 89 ef             	mov    %rbp,%rdi
  4082f3:	e8 98 92 ff ff       	callq  401590 <_Unwind_Resume@plt>
  4082f8:	0f 1f 84 00 00 00 00 	nopl   0x0(%rax,%rax,1)
  4082ff:	00 

0000000000408300 <_ZN15CPU_MATHEMATICS11printHelperI10continuousIfS_EEEvT_PKiiNSt7__cxx1112basic_stringIcSt11char_traitsIcESaIcEEEi>:
  408300:	41 57                	push   %r15
  408302:	41 56                	push   %r14
  408304:	49 89 f6             	mov    %rsi,%r14
  408307:	41 55                	push   %r13
  408309:	41 54                	push   %r12
  40830b:	55                   	push   %rbp
  40830c:	53                   	push   %rbx
  40830d:	48 81 ec b8 00 00 00 	sub    $0xb8,%rsp
  408314:	64 48 8b 04 25 28 00 	mov    %fs:0x28,%rax
  40831b:	00 00 
  40831d:	48 89 84 24 a8 00 00 	mov    %rax,0xa8(%rsp)
  408324:	00 
  408325:	31 c0                	xor    %eax,%eax
  408327:	8d 42 ff             	lea    -0x1(%rdx),%eax
  40832a:	48 89 7c 24 18       	mov    %rdi,0x18(%rsp)
  40832f:	44 89 44 24 2c       	mov    %r8d,0x2c(%rsp)
  408334:	83 f8 01             	cmp    $0x1,%eax
  408337:	89 44 24 08          	mov    %eax,0x8(%rsp)
  40833b:	0f 8e 09 01 00 00    	jle    40844a <_ZN15CPU_MATHEMATICS11printHelperI10continuousIfS_EEEvT_PKiiNSt7__cxx1112basic_stringIcSt11char_traitsIcESaIcEEEi+0x14a>
  408341:	48 8b 51 08          	mov    0x8(%rcx),%rdx
  408345:	48 8b 31             	mov    (%rcx),%rsi
  408348:	bf e0 d1 60 00       	mov    $0x60d1e0,%edi
  40834d:	49 89 cc             	mov    %rcx,%r12
  408350:	41 89 c7             	mov    %eax,%r15d
  408353:	e8 78 91 ff ff       	callq  4014d0 <_ZSt16__ostream_insertIcSt11char_traitsIcEERSt13basic_ostreamIT_T0_ES6_PKS3_l@plt>
  408358:	ba 14 00 00 00       	mov    $0x14,%edx
  40835d:	48 89 c3             	mov    %rax,%rbx
  408360:	be 42 92 40 00       	mov    $0x409242,%esi
  408365:	48 89 c7             	mov    %rax,%rdi
  408368:	e8 63 91 ff ff       	callq  4014d0 <_ZSt16__ostream_insertIcSt11char_traitsIcEERSt13basic_ostreamIT_T0_ES6_PKS3_l@plt>
  40836d:	48 89 df             	mov    %rbx,%rdi
  408370:	44 89 fe             	mov    %r15d,%esi
  408373:	e8 08 92 ff ff       	callq  401580 <_ZNSolsEi@plt>
  408378:	ba 14 00 00 00       	mov    $0x14,%edx
  40837d:	48 89 c3             	mov    %rax,%rbx
  408380:	be 57 92 40 00       	mov    $0x409257,%esi
  408385:	48 89 c7             	mov    %rax,%rdi
  408388:	e8 43 91 ff ff       	callq  4014d0 <_ZSt16__ostream_insertIcSt11char_traitsIcEERSt13basic_ostreamIT_T0_ES6_PKS3_l@plt>
  40838d:	48 8b 03             	mov    (%rbx),%rax
  408390:	48 8b 40 e8          	mov    -0x18(%rax),%rax
  408394:	48 8b ac 03 f0 00 00 	mov    0xf0(%rbx,%rax,1),%rbp
  40839b:	00 
  40839c:	48 85 ed             	test   %rbp,%rbp
  40839f:	0f 84 59 0a 00 00    	je     408dfe <_ZN15CPU_MATHEMATICS11printHelperI10continuousIfS_EEEvT_PKiiNSt7__cxx1112basic_stringIcSt11char_traitsIcESaIcEEEi+0xafe>
  4083a5:	80 7d 38 00          	cmpb   $0x0,0x38(%rbp)
  4083a9:	0f 84 3f 02 00 00    	je     4085ee <_ZN15CPU_MATHEMATICS11printHelperI10continuousIfS_EEEvT_PKiiNSt7__cxx1112basic_stringIcSt11char_traitsIcESaIcEEEi+0x2ee>
  4083af:	0f be 75 43          	movsbl 0x43(%rbp),%esi
  4083b3:	48 89 df             	mov    %rbx,%rdi
  4083b6:	e8 f5 8f ff ff       	callq  4013b0 <_ZNSo3putEc@plt>
  4083bb:	48 89 c7             	mov    %rax,%rdi
  4083be:	e8 5d 90 ff ff       	callq  401420 <_ZNSo5flushEv@plt>
  4083c3:	48 b8 ff ff ff ff ff 	movabs $0x7fffffffffffffff,%rax
  4083ca:	ff ff 7f 
  4083cd:	49 2b 44 24 08       	sub    0x8(%r12),%rax
  4083d2:	48 83 f8 03          	cmp    $0x3,%rax
  4083d6:	0f 86 27 0a 00 00    	jbe    408e03 <_ZN15CPU_MATHEMATICS11printHelperI10continuousIfS_EEEvT_PKiiNSt7__cxx1112basic_stringIcSt11char_traitsIcESaIcEEEi+0xb03>
  4083dc:	be 81 92 40 00       	mov    $0x409281,%esi
  4083e1:	ba 04 00 00 00       	mov    $0x4,%edx
  4083e6:	4c 89 e7             	mov    %r12,%rdi
  4083e9:	e8 e2 8f ff ff       	callq  4013d0 <_ZNSt7__cxx1112basic_stringIcSt11char_traitsIcESaIcEE9_M_appendEPKcm@plt>
  4083ee:	48 63 44 24 08       	movslq 0x8(%rsp),%rax
  4083f3:	48 8d 9c 24 80 00 00 	lea    0x80(%rsp),%rbx
  4083fa:	00 
  4083fb:	48 c1 e0 02          	shl    $0x2,%rax
  4083ff:	4d 8d 2c 06          	lea    (%r14,%rax,1),%r13
  408403:	41 8b 75 00          	mov    0x0(%r13),%esi
  408407:	85 f6                	test   %esi,%esi
  408409:	0f 8e 95 06 00 00    	jle    408aa4 <_ZN15CPU_MATHEMATICS11printHelperI10continuousIfS_EEEvT_PKiiNSt7__cxx1112basic_stringIcSt11char_traitsIcESaIcEEEi+0x7a4>
  40840f:	4d 8b 04 24          	mov    (%r12),%r8
  408413:	49 8b 4c 24 08       	mov    0x8(%r12),%rcx
  408418:	48 8d 53 10          	lea    0x10(%rbx),%rdx
  40841c:	48 89 94 24 80 00 00 	mov    %rdx,0x80(%rsp)
  408423:	00 
  408424:	4c 89 c6             	mov    %r8,%rsi
  408427:	48 01 ce             	add    %rcx,%rsi
  40842a:	0f 84 1d 08 00 00    	je     408c4d <_ZN15CPU_MATHEMATICS11printHelperI10continuousIfS_EEEvT_PKiiNSt7__cxx1112basic_stringIcSt11char_traitsIcESaIcEEEi+0x94d>
  408430:	4d 85 c0             	test   %r8,%r8
  408433:	0f 85 14 08 00 00    	jne    408c4d <_ZN15CPU_MATHEMATICS11printHelperI10continuousIfS_EEEvT_PKiiNSt7__cxx1112basic_stringIcSt11char_traitsIcESaIcEEEi+0x94d>
  408439:	0f 1f 80 00 00 00 00 	nopl   0x0(%rax)
  408440:	bf b8 91 40 00       	mov    $0x4091b8,%edi
  408445:	e8 e6 8f ff ff       	callq  401430 <_ZSt19__throw_logic_errorPKc@plt>
  40844a:	0f 84 ce 00 00 00    	je     40851e <_ZN15CPU_MATHEMATICS11printHelperI10continuousIfS_EEEvT_PKiiNSt7__cxx1112basic_stringIcSt11char_traitsIcESaIcEEEi+0x21e>
  408450:	ba 02 00 00 00       	mov    $0x2,%edx
  408455:	be 39 92 40 00       	mov    $0x409239,%esi
  40845a:	bf e0 d1 60 00       	mov    $0x60d1e0,%edi
  40845f:	e8 6c 90 ff ff       	callq  4014d0 <_ZSt16__ostream_insertIcSt11char_traitsIcEERSt13basic_ostreamIT_T0_ES6_PKS3_l@plt>
  408464:	48 63 44 24 08       	movslq 0x8(%rsp),%rax
  408469:	4d 8d 3c 86          	lea    (%r14,%rax,4),%r15
  40846d:	41 8b 07             	mov    (%r15),%eax
  408470:	85 c0                	test   %eax,%eax
  408472:	0f 8e 19 05 00 00    	jle    408991 <_ZN15CPU_MATHEMATICS11printHelperI10continuousIfS_EEEvT_PKiiNSt7__cxx1112basic_stringIcSt11char_traitsIcESaIcEEEi+0x691>
  408478:	48 63 44 24 2c       	movslq 0x2c(%rsp),%rax
  40847d:	48 8d 6c 24 60       	lea    0x60(%rsp),%rbp
  408482:	4c 8d 64 24 40       	lea    0x40(%rsp),%r12
  408487:	48 c7 44 24 08 00 00 	movq   $0x0,0x8(%rsp)
  40848e:	00 00 
  408490:	45 31 ed             	xor    %r13d,%r13d
  408493:	48 89 44 24 10       	mov    %rax,0x10(%rsp)
  408498:	48 8d 84 24 90 00 00 	lea    0x90(%rsp),%rax
  40849f:	00 
  4084a0:	48 89 44 24 20       	mov    %rax,0x20(%rsp)
  4084a5:	0f 1f 00             	nopl   (%rax)
  4084a8:	48 8b 44 24 18       	mov    0x18(%rsp),%rax
  4084ad:	48 8b 4c 24 08       	mov    0x8(%rsp),%rcx
  4084b2:	ba 3a 00 00 00       	mov    $0x3a,%edx
  4084b7:	66 0f ef c0          	pxor   %xmm0,%xmm0
  4084bb:	be 00 14 40 00       	mov    $0x401400,%esi
  4084c0:	4c 89 e7             	mov    %r12,%rdi
  4084c3:	48 8b 40 08          	mov    0x8(%rax),%rax
  4084c7:	f3 0f 5a 04 08       	cvtss2sd (%rax,%rcx,1),%xmm0
  4084cc:	b9 3c 92 40 00       	mov    $0x40923c,%ecx
  4084d1:	b8 01 00 00 00       	mov    $0x1,%eax
  4084d6:	e8 95 9c ff ff       	callq  402170 <_ZN9__gnu_cxx12__to_xstringINSt7__cxx1112basic_stringIcSt11char_traitsIcESaIcEEEcEET_PFiPT0_mPKS8_P13__va_list_tagEmSB_z.constprop.62>
  4084db:	48 8b 5c 24 48       	mov    0x48(%rsp),%rbx
  4084e0:	48 8b 4c 24 10       	mov    0x10(%rsp),%rcx
  4084e5:	48 8d 45 10          	lea    0x10(%rbp),%rax
  4084e9:	4c 8b 74 24 40       	mov    0x40(%rsp),%r14
  4084ee:	48 89 44 24 60       	mov    %rax,0x60(%rsp)
  4084f3:	48 39 d9             	cmp    %rbx,%rcx
  4084f6:	77 07                	ja     4084ff <_ZN15CPU_MATHEMATICS11printHelperI10continuousIfS_EEEvT_PKiiNSt7__cxx1112basic_stringIcSt11char_traitsIcESaIcEEEi+0x1ff>
  4084f8:	48 39 cb             	cmp    %rcx,%rbx
  4084fb:	48 0f 47 d9          	cmova  %rcx,%rbx
  4084ff:	4c 89 f0             	mov    %r14,%rax
  408502:	48 01 d8             	add    %rbx,%rax
  408505:	0f 84 78 03 00 00    	je     408883 <_ZN15CPU_MATHEMATICS11printHelperI10continuousIfS_EEEvT_PKiiNSt7__cxx1112basic_stringIcSt11char_traitsIcESaIcEEEi+0x583>
  40850b:	4d 85 f6             	test   %r14,%r14
  40850e:	0f 85 6f 03 00 00    	jne    408883 <_ZN15CPU_MATHEMATICS11printHelperI10continuousIfS_EEEvT_PKiiNSt7__cxx1112basic_stringIcSt11char_traitsIcESaIcEEEi+0x583>
  408514:	bf b8 91 40 00       	mov    $0x4091b8,%edi
  408519:	e8 12 8f ff ff       	callq  401430 <_ZSt19__throw_logic_errorPKc@plt>
  40851e:	8b 0e                	mov    (%rsi),%ecx
  408520:	85 c9                	test   %ecx,%ecx
  408522:	0f 8e 65 02 00 00    	jle    40878d <_ZN15CPU_MATHEMATICS11printHelperI10continuousIfS_EEEvT_PKiiNSt7__cxx1112basic_stringIcSt11char_traitsIcESaIcEEEi+0x48d>
  408528:	48 8d 84 24 90 00 00 	lea    0x90(%rsp),%rax
  40852f:	00 
  408530:	4c 8d 7c 24 70       	lea    0x70(%rsp),%r15
  408535:	c7 44 24 20 00 00 00 	movl   $0x0,0x20(%rsp)
  40853c:	00 
  40853d:	48 89 44 24 10       	mov    %rax,0x10(%rsp)
  408542:	66 0f 1f 44 00 00    	nopw   0x0(%rax,%rax,1)
  408548:	ba 02 00 00 00       	mov    $0x2,%edx
  40854d:	be 39 92 40 00       	mov    $0x409239,%esi
  408552:	bf e0 d1 60 00       	mov    $0x60d1e0,%edi
  408557:	e8 74 8f ff ff       	callq  4014d0 <_ZSt16__ostream_insertIcSt11char_traitsIcEERSt13basic_ostreamIT_T0_ES6_PKS3_l@plt>
  40855c:	41 8b 56 04          	mov    0x4(%r14),%edx
  408560:	85 d2                	test   %edx,%edx
  408562:	0f 8e c4 01 00 00    	jle    40872c <_ZN15CPU_MATHEMATICS11printHelperI10continuousIfS_EEEvT_PKiiNSt7__cxx1112basic_stringIcSt11char_traitsIcESaIcEEEi+0x42c>
  408568:	48 63 44 24 2c       	movslq 0x2c(%rsp),%rax
  40856d:	4c 8d 64 24 40       	lea    0x40(%rsp),%r12
  408572:	31 ed                	xor    %ebp,%ebp
  408574:	48 89 44 24 08       	mov    %rax,0x8(%rsp)
  408579:	0f 1f 80 00 00 00 00 	nopl   0x0(%rax)
  408580:	41 8b 06             	mov    (%r14),%eax
  408583:	48 8b 4c 24 18       	mov    0x18(%rsp),%rcx
  408588:	be 00 14 40 00       	mov    $0x401400,%esi
  40858d:	66 0f ef c0          	pxor   %xmm0,%xmm0
  408591:	4c 89 e7             	mov    %r12,%rdi
  408594:	0f af c5             	imul   %ebp,%eax
  408597:	03 44 24 20          	add    0x20(%rsp),%eax
  40859b:	48 8b 51 08          	mov    0x8(%rcx),%rdx
  40859f:	b9 3c 92 40 00       	mov    $0x40923c,%ecx
  4085a4:	48 98                	cltq   
  4085a6:	f3 0f 5a 04 82       	cvtss2sd (%rdx,%rax,4),%xmm0
  4085ab:	b8 01 00 00 00       	mov    $0x1,%eax
  4085b0:	ba 3a 00 00 00       	mov    $0x3a,%edx
  4085b5:	e8 b6 9b ff ff       	callq  402170 <_ZN9__gnu_cxx12__to_xstringINSt7__cxx1112basic_stringIcSt11char_traitsIcESaIcEEEcEET_PFiPT0_mPKS8_P13__va_list_tagEmSB_z.constprop.62>
  4085ba:	48 8b 5c 24 48       	mov    0x48(%rsp),%rbx
  4085bf:	48 8b 44 24 08       	mov    0x8(%rsp),%rax
  4085c4:	4c 89 7c 24 60       	mov    %r15,0x60(%rsp)
  4085c9:	4c 8b 6c 24 40       	mov    0x40(%rsp),%r13
  4085ce:	48 39 c3             	cmp    %rax,%rbx
  4085d1:	72 04                	jb     4085d7 <_ZN15CPU_MATHEMATICS11printHelperI10continuousIfS_EEEvT_PKiiNSt7__cxx1112basic_stringIcSt11char_traitsIcESaIcEEEi+0x2d7>
  4085d3:	48 0f 47 d8          	cmova  %rax,%rbx
  4085d7:	4c 89 e8             	mov    %r13,%rax
  4085da:	48 01 d8             	add    %rbx,%rax
  4085dd:	74 41                	je     408620 <_ZN15CPU_MATHEMATICS11printHelperI10continuousIfS_EEEvT_PKiiNSt7__cxx1112basic_stringIcSt11char_traitsIcESaIcEEEi+0x320>
  4085df:	4d 85 ed             	test   %r13,%r13
  4085e2:	75 3c                	jne    408620 <_ZN15CPU_MATHEMATICS11printHelperI10continuousIfS_EEEvT_PKiiNSt7__cxx1112basic_stringIcSt11char_traitsIcESaIcEEEi+0x320>
  4085e4:	bf b8 91 40 00       	mov    $0x4091b8,%edi
  4085e9:	e8 42 8e ff ff       	callq  401430 <_ZSt19__throw_logic_errorPKc@plt>
  4085ee:	48 89 ef             	mov    %rbp,%rdi
  4085f1:	e8 ea 8e ff ff       	callq  4014e0 <_ZNKSt5ctypeIcE13_M_widen_initEv@plt>
  4085f6:	48 8b 45 00          	mov    0x0(%rbp),%rax
  4085fa:	be 0a 00 00 00       	mov    $0xa,%esi
  4085ff:	48 8b 40 30          	mov    0x30(%rax),%rax
  408603:	48 3d 20 5c 40 00    	cmp    $0x405c20,%rax
  408609:	0f 84 a4 fd ff ff    	je     4083b3 <_ZN15CPU_MATHEMATICS11printHelperI10continuousIfS_EEEvT_PKiiNSt7__cxx1112basic_stringIcSt11char_traitsIcESaIcEEEi+0xb3>
  40860f:	48 89 ef             	mov    %rbp,%rdi
  408612:	ff d0                	callq  *%rax
  408614:	0f be f0             	movsbl %al,%esi
  408617:	e9 97 fd ff ff       	jmpq   4083b3 <_ZN15CPU_MATHEMATICS11printHelperI10continuousIfS_EEEvT_PKiiNSt7__cxx1112basic_stringIcSt11char_traitsIcESaIcEEEi+0xb3>
  40861c:	0f 1f 40 00          	nopl   0x0(%rax)
  408620:	48 83 fb 0f          	cmp    $0xf,%rbx
  408624:	48 89 5c 24 30       	mov    %rbx,0x30(%rsp)
  408629:	0f 87 91 01 00 00    	ja     4087c0 <_ZN15CPU_MATHEMATICS11printHelperI10continuousIfS_EEEvT_PKiiNSt7__cxx1112basic_stringIcSt11char_traitsIcESaIcEEEi+0x4c0>
  40862f:	48 83 fb 01          	cmp    $0x1,%rbx
  408633:	0f 84 e7 01 00 00    	je     408820 <_ZN15CPU_MATHEMATICS11printHelperI10continuousIfS_EEEvT_PKiiNSt7__cxx1112basic_stringIcSt11char_traitsIcESaIcEEEi+0x520>
  408639:	48 85 db             	test   %rbx,%rbx
  40863c:	4c 89 f8             	mov    %r15,%rax
  40863f:	0f 85 6b 03 00 00    	jne    4089b0 <_ZN15CPU_MATHEMATICS11printHelperI10continuousIfS_EEEvT_PKiiNSt7__cxx1112basic_stringIcSt11char_traitsIcESaIcEEEi+0x6b0>
  408645:	48 8d 74 24 60       	lea    0x60(%rsp),%rsi
  40864a:	48 89 5c 24 68       	mov    %rbx,0x68(%rsp)
  40864f:	4c 89 e7             	mov    %r12,%rdi
  408652:	c6 04 18 00          	movb   $0x0,(%rax,%rbx,1)
  408656:	e8 e5 8d ff ff       	callq  401440 <_ZNSt7__cxx1112basic_stringIcSt11char_traitsIcESaIcEE4swapERS4_@plt>
  40865b:	48 8b 7c 24 60       	mov    0x60(%rsp),%rdi
  408660:	4c 39 ff             	cmp    %r15,%rdi
  408663:	74 05                	je     40866a <_ZN15CPU_MATHEMATICS11printHelperI10continuousIfS_EEEvT_PKiiNSt7__cxx1112basic_stringIcSt11char_traitsIcESaIcEEEi+0x36a>
  408665:	e8 36 8e ff ff       	callq  4014a0 <_ZdlPv@plt>
  40866a:	48 8b 54 24 48       	mov    0x48(%rsp),%rdx
  40866f:	48 8b 44 24 08       	mov    0x8(%rsp),%rax
  408674:	48 39 c2             	cmp    %rax,%rdx
  408677:	73 74                	jae    4086ed <_ZN15CPU_MATHEMATICS11printHelperI10continuousIfS_EEEvT_PKiiNSt7__cxx1112basic_stringIcSt11char_traitsIcESaIcEEEi+0x3ed>
  408679:	48 89 c3             	mov    %rax,%rbx
  40867c:	48 8b 44 24 10       	mov    0x10(%rsp),%rax
  408681:	48 29 d3             	sub    %rdx,%rbx
  408684:	48 83 fb 0f          	cmp    $0xf,%rbx
  408688:	48 89 5c 24 38       	mov    %rbx,0x38(%rsp)
  40868d:	48 89 84 24 80 00 00 	mov    %rax,0x80(%rsp)
  408694:	00 
  408695:	0f 87 9d 01 00 00    	ja     408838 <_ZN15CPU_MATHEMATICS11printHelperI10continuousIfS_EEEvT_PKiiNSt7__cxx1112basic_stringIcSt11char_traitsIcESaIcEEEi+0x538>
  40869b:	48 83 fb 01          	cmp    $0x1,%rbx
  40869f:	48 89 c7             	mov    %rax,%rdi
  4086a2:	0f 85 bc 01 00 00    	jne    408864 <_ZN15CPU_MATHEMATICS11printHelperI10continuousIfS_EEEvT_PKiiNSt7__cxx1112basic_stringIcSt11char_traitsIcESaIcEEEi+0x564>
  4086a8:	c6 84 24 90 00 00 00 	movb   $0x20,0x90(%rsp)
  4086af:	20 
  4086b0:	48 89 9c 24 88 00 00 	mov    %rbx,0x88(%rsp)
  4086b7:	00 
  4086b8:	c6 04 18 00          	movb   $0x0,(%rax,%rbx,1)
  4086bc:	4c 89 e7             	mov    %r12,%rdi
  4086bf:	48 8b 94 24 88 00 00 	mov    0x88(%rsp),%rdx
  4086c6:	00 
  4086c7:	48 8b b4 24 80 00 00 	mov    0x80(%rsp),%rsi
  4086ce:	00 
  4086cf:	e8 fc 8c ff ff       	callq  4013d0 <_ZNSt7__cxx1112basic_stringIcSt11char_traitsIcESaIcEE9_M_appendEPKcm@plt>
  4086d4:	48 8b bc 24 80 00 00 	mov    0x80(%rsp),%rdi
  4086db:	00 
  4086dc:	48 3b 7c 24 10       	cmp    0x10(%rsp),%rdi
  4086e1:	74 05                	je     4086e8 <_ZN15CPU_MATHEMATICS11printHelperI10continuousIfS_EEEvT_PKiiNSt7__cxx1112basic_stringIcSt11char_traitsIcESaIcEEEi+0x3e8>
  4086e3:	e8 b8 8d ff ff       	callq  4014a0 <_ZdlPv@plt>
  4086e8:	48 8b 54 24 48       	mov    0x48(%rsp),%rdx
  4086ed:	48 8b 74 24 40       	mov    0x40(%rsp),%rsi
  4086f2:	bf e0 d1 60 00       	mov    $0x60d1e0,%edi
  4086f7:	e8 d4 8d ff ff       	callq  4014d0 <_ZSt16__ostream_insertIcSt11char_traitsIcEERSt13basic_ostreamIT_T0_ES6_PKS3_l@plt>
  4086fc:	41 8b 46 04          	mov    0x4(%r14),%eax
  408700:	83 e8 01             	sub    $0x1,%eax
  408703:	39 e8                	cmp    %ebp,%eax
  408705:	0f 8f f5 00 00 00    	jg     408800 <_ZN15CPU_MATHEMATICS11printHelperI10continuousIfS_EEEvT_PKiiNSt7__cxx1112basic_stringIcSt11char_traitsIcESaIcEEEi+0x500>
  40870b:	48 8b 7c 24 40       	mov    0x40(%rsp),%rdi
  408710:	49 8d 44 24 10       	lea    0x10(%r12),%rax
  408715:	48 39 c7             	cmp    %rax,%rdi
  408718:	74 05                	je     40871f <_ZN15CPU_MATHEMATICS11printHelperI10continuousIfS_EEEvT_PKiiNSt7__cxx1112basic_stringIcSt11char_traitsIcESaIcEEEi+0x41f>
  40871a:	e8 81 8d ff ff       	callq  4014a0 <_ZdlPv@plt>
  40871f:	83 c5 01             	add    $0x1,%ebp
  408722:	41 39 6e 04          	cmp    %ebp,0x4(%r14)
  408726:	0f 8f 54 fe ff ff    	jg     408580 <_ZN15CPU_MATHEMATICS11printHelperI10continuousIfS_EEEvT_PKiiNSt7__cxx1112basic_stringIcSt11char_traitsIcESaIcEEEi+0x280>
  40872c:	ba 02 00 00 00       	mov    $0x2,%edx
  408731:	be 3f 92 40 00       	mov    $0x40923f,%esi
  408736:	bf e0 d1 60 00       	mov    $0x60d1e0,%edi
  40873b:	e8 90 8d ff ff       	callq  4014d0 <_ZSt16__ostream_insertIcSt11char_traitsIcEERSt13basic_ostreamIT_T0_ES6_PKS3_l@plt>
  408740:	48 8b 05 99 4a 20 00 	mov    0x204a99(%rip),%rax        # 60d1e0 <_ZSt4cout@@GLIBCXX_3.4>
  408747:	48 8b 40 e8          	mov    -0x18(%rax),%rax
  40874b:	48 8b 98 d0 d2 60 00 	mov    0x60d2d0(%rax),%rbx
  408752:	48 85 db             	test   %rbx,%rbx
  408755:	0f 84 a3 06 00 00    	je     408dfe <_ZN15CPU_MATHEMATICS11printHelperI10continuousIfS_EEEvT_PKiiNSt7__cxx1112basic_stringIcSt11char_traitsIcESaIcEEEi+0xafe>
  40875b:	80 7b 38 00          	cmpb   $0x0,0x38(%rbx)
  40875f:	0f 84 c7 02 00 00    	je     408a2c <_ZN15CPU_MATHEMATICS11printHelperI10continuousIfS_EEEvT_PKiiNSt7__cxx1112basic_stringIcSt11char_traitsIcESaIcEEEi+0x72c>
  408765:	0f be 73 43          	movsbl 0x43(%rbx),%esi
  408769:	bf e0 d1 60 00       	mov    $0x60d1e0,%edi
  40876e:	e8 3d 8c ff ff       	callq  4013b0 <_ZNSo3putEc@plt>
  408773:	48 89 c7             	mov    %rax,%rdi
  408776:	e8 a5 8c ff ff       	callq  401420 <_ZNSo5flushEv@plt>
  40877b:	83 44 24 20 01       	addl   $0x1,0x20(%rsp)
  408780:	8b 44 24 20          	mov    0x20(%rsp),%eax
  408784:	41 39 06             	cmp    %eax,(%r14)
  408787:	0f 8f bb fd ff ff    	jg     408548 <_ZN15CPU_MATHEMATICS11printHelperI10continuousIfS_EEEvT_PKiiNSt7__cxx1112basic_stringIcSt11char_traitsIcESaIcEEEi+0x248>
  40878d:	48 8b 84 24 a8 00 00 	mov    0xa8(%rsp),%rax
  408794:	00 
  408795:	64 48 33 04 25 28 00 	xor    %fs:0x28,%rax
  40879c:	00 00 
  40879e:	0f 85 53 06 00 00    	jne    408df7 <_ZN15CPU_MATHEMATICS11printHelperI10continuousIfS_EEEvT_PKiiNSt7__cxx1112basic_stringIcSt11char_traitsIcESaIcEEEi+0xaf7>
  4087a4:	48 81 c4 b8 00 00 00 	add    $0xb8,%rsp
  4087ab:	5b                   	pop    %rbx
  4087ac:	5d                   	pop    %rbp
  4087ad:	41 5c                	pop    %r12
  4087af:	41 5d                	pop    %r13
  4087b1:	41 5e                	pop    %r14
  4087b3:	41 5f                	pop    %r15
  4087b5:	c3                   	retq   
  4087b6:	66 2e 0f 1f 84 00 00 	nopw   %cs:0x0(%rax,%rax,1)
  4087bd:	00 00 00 
  4087c0:	48 8d 74 24 30       	lea    0x30(%rsp),%rsi
  4087c5:	48 8d 7c 24 60       	lea    0x60(%rsp),%rdi
  4087ca:	31 d2                	xor    %edx,%edx
  4087cc:	e8 df 8d ff ff       	callq  4015b0 <_ZNSt7__cxx1112basic_stringIcSt11char_traitsIcESaIcEE9_M_createERmm@plt>
  4087d1:	48 89 c7             	mov    %rax,%rdi
  4087d4:	48 89 44 24 60       	mov    %rax,0x60(%rsp)
  4087d9:	48 8b 44 24 30       	mov    0x30(%rsp),%rax
  4087de:	48 89 44 24 70       	mov    %rax,0x70(%rsp)
  4087e3:	48 89 da             	mov    %rbx,%rdx
  4087e6:	4c 89 ee             	mov    %r13,%rsi
  4087e9:	e8 82 8c ff ff       	callq  401470 <memcpy@plt>
  4087ee:	48 8b 5c 24 30       	mov    0x30(%rsp),%rbx
  4087f3:	48 8b 44 24 60       	mov    0x60(%rsp),%rax
  4087f8:	e9 48 fe ff ff       	jmpq   408645 <_ZN15CPU_MATHEMATICS11printHelperI10continuousIfS_EEEvT_PKiiNSt7__cxx1112basic_stringIcSt11char_traitsIcESaIcEEEi+0x345>
  4087fd:	0f 1f 00             	nopl   (%rax)
  408800:	ba 03 00 00 00       	mov    $0x3,%edx
  408805:	be 89 92 40 00       	mov    $0x409289,%esi
  40880a:	bf e0 d1 60 00       	mov    $0x60d1e0,%edi
  40880f:	e8 bc 8c ff ff       	callq  4014d0 <_ZSt16__ostream_insertIcSt11char_traitsIcEERSt13basic_ostreamIT_T0_ES6_PKS3_l@plt>
  408814:	e9 f2 fe ff ff       	jmpq   40870b <_ZN15CPU_MATHEMATICS11printHelperI10continuousIfS_EEEvT_PKiiNSt7__cxx1112basic_stringIcSt11char_traitsIcESaIcEEEi+0x40b>
  408819:	0f 1f 80 00 00 00 00 	nopl   0x0(%rax)
  408820:	41 0f b6 45 00       	movzbl 0x0(%r13),%eax
  408825:	88 44 24 70          	mov    %al,0x70(%rsp)
  408829:	4c 89 f8             	mov    %r15,%rax
  40882c:	e9 14 fe ff ff       	jmpq   408645 <_ZN15CPU_MATHEMATICS11printHelperI10continuousIfS_EEEvT_PKiiNSt7__cxx1112basic_stringIcSt11char_traitsIcESaIcEEEi+0x345>
  408831:	0f 1f 80 00 00 00 00 	nopl   0x0(%rax)
  408838:	48 8d 74 24 38       	lea    0x38(%rsp),%rsi
  40883d:	48 8d bc 24 80 00 00 	lea    0x80(%rsp),%rdi
  408844:	00 
  408845:	31 d2                	xor    %edx,%edx
  408847:	e8 64 8d ff ff       	callq  4015b0 <_ZNSt7__cxx1112basic_stringIcSt11char_traitsIcESaIcEE9_M_createERmm@plt>
  40884c:	48 89 c7             	mov    %rax,%rdi
  40884f:	48 89 84 24 80 00 00 	mov    %rax,0x80(%rsp)
  408856:	00 
  408857:	48 8b 44 24 38       	mov    0x38(%rsp),%rax
  40885c:	48 89 84 24 90 00 00 	mov    %rax,0x90(%rsp)
  408863:	00 
  408864:	48 89 da             	mov    %rbx,%rdx
  408867:	be 84 92 40 00       	mov    $0x409284,%esi
  40886c:	e8 ff 8b ff ff       	callq  401470 <memcpy@plt>
  408871:	48 8b 5c 24 38       	mov    0x38(%rsp),%rbx
  408876:	48 8b 84 24 80 00 00 	mov    0x80(%rsp),%rax
  40887d:	00 
  40887e:	e9 2d fe ff ff       	jmpq   4086b0 <_ZN15CPU_MATHEMATICS11printHelperI10continuousIfS_EEEvT_PKiiNSt7__cxx1112basic_stringIcSt11char_traitsIcESaIcEEEi+0x3b0>
  408883:	48 83 fb 0f          	cmp    $0xf,%rbx
  408887:	48 89 5c 24 30       	mov    %rbx,0x30(%rsp)
  40888c:	0f 87 4e 01 00 00    	ja     4089e0 <_ZN15CPU_MATHEMATICS11printHelperI10continuousIfS_EEEvT_PKiiNSt7__cxx1112basic_stringIcSt11char_traitsIcESaIcEEEi+0x6e0>
  408892:	48 83 fb 01          	cmp    $0x1,%rbx
  408896:	0f 84 7f 01 00 00    	je     408a1b <_ZN15CPU_MATHEMATICS11printHelperI10continuousIfS_EEEvT_PKiiNSt7__cxx1112basic_stringIcSt11char_traitsIcESaIcEEEi+0x71b>
  40889c:	48 85 db             	test   %rbx,%rbx
  40889f:	48 8d 45 10          	lea    0x10(%rbp),%rax
  4088a3:	0f 85 1f 03 00 00    	jne    408bc8 <_ZN15CPU_MATHEMATICS11printHelperI10continuousIfS_EEEvT_PKiiNSt7__cxx1112basic_stringIcSt11char_traitsIcESaIcEEEi+0x8c8>
  4088a9:	48 89 5c 24 68       	mov    %rbx,0x68(%rsp)
  4088ae:	4c 89 e7             	mov    %r12,%rdi
  4088b1:	c6 04 18 00          	movb   $0x0,(%rax,%rbx,1)
  4088b5:	48 89 ee             	mov    %rbp,%rsi
  4088b8:	e8 83 8b ff ff       	callq  401440 <_ZNSt7__cxx1112basic_stringIcSt11char_traitsIcESaIcEE4swapERS4_@plt>
  4088bd:	48 8b 7c 24 60       	mov    0x60(%rsp),%rdi
  4088c2:	48 8d 45 10          	lea    0x10(%rbp),%rax
  4088c6:	48 39 c7             	cmp    %rax,%rdi
  4088c9:	74 05                	je     4088d0 <_ZN15CPU_MATHEMATICS11printHelperI10continuousIfS_EEEvT_PKiiNSt7__cxx1112basic_stringIcSt11char_traitsIcESaIcEEEi+0x5d0>
  4088cb:	e8 d0 8b ff ff       	callq  4014a0 <_ZdlPv@plt>
  4088d0:	48 8b 54 24 48       	mov    0x48(%rsp),%rdx
  4088d5:	48 8b 44 24 10       	mov    0x10(%rsp),%rax
  4088da:	48 39 d0             	cmp    %rdx,%rax
  4088dd:	76 71                	jbe    408950 <_ZN15CPU_MATHEMATICS11printHelperI10continuousIfS_EEEvT_PKiiNSt7__cxx1112basic_stringIcSt11char_traitsIcESaIcEEEi+0x650>
  4088df:	48 89 c3             	mov    %rax,%rbx
  4088e2:	48 8b 44 24 20       	mov    0x20(%rsp),%rax
  4088e7:	48 29 d3             	sub    %rdx,%rbx
  4088ea:	48 83 fb 0f          	cmp    $0xf,%rbx
  4088ee:	48 89 5c 24 38       	mov    %rbx,0x38(%rsp)
  4088f3:	48 89 84 24 80 00 00 	mov    %rax,0x80(%rsp)
  4088fa:	00 
  4088fb:	0f 87 58 01 00 00    	ja     408a59 <_ZN15CPU_MATHEMATICS11printHelperI10continuousIfS_EEEvT_PKiiNSt7__cxx1112basic_stringIcSt11char_traitsIcESaIcEEEi+0x759>
  408901:	48 83 fb 01          	cmp    $0x1,%rbx
  408905:	0f 85 77 01 00 00    	jne    408a82 <_ZN15CPU_MATHEMATICS11printHelperI10continuousIfS_EEEvT_PKiiNSt7__cxx1112basic_stringIcSt11char_traitsIcESaIcEEEi+0x782>
  40890b:	c6 84 24 90 00 00 00 	movb   $0x20,0x90(%rsp)
  408912:	20 
  408913:	48 89 9c 24 88 00 00 	mov    %rbx,0x88(%rsp)
  40891a:	00 
  40891b:	c6 04 18 00          	movb   $0x0,(%rax,%rbx,1)
  40891f:	4c 89 e7             	mov    %r12,%rdi
  408922:	48 8b 94 24 88 00 00 	mov    0x88(%rsp),%rdx
  408929:	00 
  40892a:	48 8b b4 24 80 00 00 	mov    0x80(%rsp),%rsi
  408931:	00 
  408932:	e8 99 8a ff ff       	callq  4013d0 <_ZNSt7__cxx1112basic_stringIcSt11char_traitsIcESaIcEE9_M_appendEPKcm@plt>
  408937:	48 8b bc 24 80 00 00 	mov    0x80(%rsp),%rdi
  40893e:	00 
  40893f:	48 3b 7c 24 20       	cmp    0x20(%rsp),%rdi
  408944:	74 05                	je     40894b <_ZN15CPU_MATHEMATICS11printHelperI10continuousIfS_EEEvT_PKiiNSt7__cxx1112basic_stringIcSt11char_traitsIcESaIcEEEi+0x64b>
  408946:	e8 55 8b ff ff       	callq  4014a0 <_ZdlPv@plt>
  40894b:	48 8b 54 24 48       	mov    0x48(%rsp),%rdx
  408950:	48 8b 74 24 40       	mov    0x40(%rsp),%rsi
  408955:	bf e0 d1 60 00       	mov    $0x60d1e0,%edi
  40895a:	e8 71 8b ff ff       	callq  4014d0 <_ZSt16__ostream_insertIcSt11char_traitsIcEERSt13basic_ostreamIT_T0_ES6_PKS3_l@plt>
  40895f:	41 8b 07             	mov    (%r15),%eax
  408962:	83 e8 01             	sub    $0x1,%eax
  408965:	44 39 e8             	cmp    %r13d,%eax
  408968:	7f 56                	jg     4089c0 <_ZN15CPU_MATHEMATICS11printHelperI10continuousIfS_EEEvT_PKiiNSt7__cxx1112basic_stringIcSt11char_traitsIcESaIcEEEi+0x6c0>
  40896a:	48 8b 7c 24 40       	mov    0x40(%rsp),%rdi
  40896f:	49 8d 44 24 10       	lea    0x10(%r12),%rax
  408974:	48 39 c7             	cmp    %rax,%rdi
  408977:	74 05                	je     40897e <_ZN15CPU_MATHEMATICS11printHelperI10continuousIfS_EEEvT_PKiiNSt7__cxx1112basic_stringIcSt11char_traitsIcESaIcEEEi+0x67e>
  408979:	e8 22 8b ff ff       	callq  4014a0 <_ZdlPv@plt>
  40897e:	41 83 c5 01          	add    $0x1,%r13d
  408982:	48 83 44 24 08 04    	addq   $0x4,0x8(%rsp)
  408988:	45 39 2f             	cmp    %r13d,(%r15)
  40898b:	0f 8f 17 fb ff ff    	jg     4084a8 <_ZN15CPU_MATHEMATICS11printHelperI10continuousIfS_EEEvT_PKiiNSt7__cxx1112basic_stringIcSt11char_traitsIcESaIcEEEi+0x1a8>
  408991:	ba 02 00 00 00       	mov    $0x2,%edx
  408996:	be 3f 92 40 00       	mov    $0x40923f,%esi
  40899b:	bf e0 d1 60 00       	mov    $0x60d1e0,%edi
  4089a0:	e8 2b 8b ff ff       	callq  4014d0 <_ZSt16__ostream_insertIcSt11char_traitsIcEERSt13basic_ostreamIT_T0_ES6_PKS3_l@plt>
  4089a5:	e9 e3 fd ff ff       	jmpq   40878d <_ZN15CPU_MATHEMATICS11printHelperI10continuousIfS_EEEvT_PKiiNSt7__cxx1112basic_stringIcSt11char_traitsIcESaIcEEEi+0x48d>
  4089aa:	66 0f 1f 44 00 00    	nopw   0x0(%rax,%rax,1)
  4089b0:	4c 89 ff             	mov    %r15,%rdi
  4089b3:	e9 2b fe ff ff       	jmpq   4087e3 <_ZN15CPU_MATHEMATICS11printHelperI10continuousIfS_EEEvT_PKiiNSt7__cxx1112basic_stringIcSt11char_traitsIcESaIcEEEi+0x4e3>
  4089b8:	0f 1f 84 00 00 00 00 	nopl   0x0(%rax,%rax,1)
  4089bf:	00 
  4089c0:	ba 03 00 00 00       	mov    $0x3,%edx
  4089c5:	be 89 92 40 00       	mov    $0x409289,%esi
  4089ca:	bf e0 d1 60 00       	mov    $0x60d1e0,%edi
  4089cf:	e8 fc 8a ff ff       	callq  4014d0 <_ZSt16__ostream_insertIcSt11char_traitsIcEERSt13basic_ostreamIT_T0_ES6_PKS3_l@plt>
  4089d4:	eb 94                	jmp    40896a <_ZN15CPU_MATHEMATICS11printHelperI10continuousIfS_EEEvT_PKiiNSt7__cxx1112basic_stringIcSt11char_traitsIcESaIcEEEi+0x66a>
  4089d6:	66 2e 0f 1f 84 00 00 	nopw   %cs:0x0(%rax,%rax,1)
  4089dd:	00 00 00 
  4089e0:	48 8d 74 24 30       	lea    0x30(%rsp),%rsi
  4089e5:	31 d2                	xor    %edx,%edx
  4089e7:	48 89 ef             	mov    %rbp,%rdi
  4089ea:	e8 c1 8b ff ff       	callq  4015b0 <_ZNSt7__cxx1112basic_stringIcSt11char_traitsIcESaIcEE9_M_createERmm@plt>
  4089ef:	48 89 c7             	mov    %rax,%rdi
  4089f2:	48 89 44 24 60       	mov    %rax,0x60(%rsp)
  4089f7:	48 8b 44 24 30       	mov    0x30(%rsp),%rax
  4089fc:	48 89 44 24 70       	mov    %rax,0x70(%rsp)
  408a01:	48 89 da             	mov    %rbx,%rdx
  408a04:	4c 89 f6             	mov    %r14,%rsi
  408a07:	e8 64 8a ff ff       	callq  401470 <memcpy@plt>
  408a0c:	48 8b 5c 24 30       	mov    0x30(%rsp),%rbx
  408a11:	48 8b 44 24 60       	mov    0x60(%rsp),%rax
  408a16:	e9 8e fe ff ff       	jmpq   4088a9 <_ZN15CPU_MATHEMATICS11printHelperI10continuousIfS_EEEvT_PKiiNSt7__cxx1112basic_stringIcSt11char_traitsIcESaIcEEEi+0x5a9>
  408a1b:	41 0f b6 06          	movzbl (%r14),%eax
  408a1f:	88 44 24 70          	mov    %al,0x70(%rsp)
  408a23:	48 8d 45 10          	lea    0x10(%rbp),%rax
  408a27:	e9 7d fe ff ff       	jmpq   4088a9 <_ZN15CPU_MATHEMATICS11printHelperI10continuousIfS_EEEvT_PKiiNSt7__cxx1112basic_stringIcSt11char_traitsIcESaIcEEEi+0x5a9>
  408a2c:	48 89 df             	mov    %rbx,%rdi
  408a2f:	e8 ac 8a ff ff       	callq  4014e0 <_ZNKSt5ctypeIcE13_M_widen_initEv@plt>
  408a34:	48 8b 03             	mov    (%rbx),%rax
  408a37:	be 0a 00 00 00       	mov    $0xa,%esi
  408a3c:	48 8b 40 30          	mov    0x30(%rax),%rax
  408a40:	48 3d 20 5c 40 00    	cmp    $0x405c20,%rax
  408a46:	0f 84 1d fd ff ff    	je     408769 <_ZN15CPU_MATHEMATICS11printHelperI10continuousIfS_EEEvT_PKiiNSt7__cxx1112basic_stringIcSt11char_traitsIcESaIcEEEi+0x469>
  408a4c:	48 89 df             	mov    %rbx,%rdi
  408a4f:	ff d0                	callq  *%rax
  408a51:	0f be f0             	movsbl %al,%esi
  408a54:	e9 10 fd ff ff       	jmpq   408769 <_ZN15CPU_MATHEMATICS11printHelperI10continuousIfS_EEEvT_PKiiNSt7__cxx1112basic_stringIcSt11char_traitsIcESaIcEEEi+0x469>
  408a59:	48 8d 74 24 38       	lea    0x38(%rsp),%rsi
  408a5e:	48 8d bc 24 80 00 00 	lea    0x80(%rsp),%rdi
  408a65:	00 
  408a66:	31 d2                	xor    %edx,%edx
  408a68:	e8 43 8b ff ff       	callq  4015b0 <_ZNSt7__cxx1112basic_stringIcSt11char_traitsIcESaIcEE9_M_createERmm@plt>
  408a6d:	48 8b 54 24 38       	mov    0x38(%rsp),%rdx
  408a72:	48 89 84 24 80 00 00 	mov    %rax,0x80(%rsp)
  408a79:	00 
  408a7a:	48 89 94 24 90 00 00 	mov    %rdx,0x90(%rsp)
  408a81:	00 
  408a82:	48 89 da             	mov    %rbx,%rdx
  408a85:	be 84 92 40 00       	mov    $0x409284,%esi
  408a8a:	48 89 c7             	mov    %rax,%rdi
  408a8d:	e8 de 89 ff ff       	callq  401470 <memcpy@plt>
  408a92:	48 8b 5c 24 38       	mov    0x38(%rsp),%rbx
  408a97:	48 8b 84 24 80 00 00 	mov    0x80(%rsp),%rax
  408a9e:	00 
  408a9f:	e9 6f fe ff ff       	jmpq   408913 <_ZN15CPU_MATHEMATICS11printHelperI10continuousIfS_EEEvT_PKiiNSt7__cxx1112basic_stringIcSt11char_traitsIcESaIcEEEi+0x613>
  408aa4:	48 8d 6c 24 60       	lea    0x60(%rsp),%rbp
  408aa9:	44 8b 44 24 08       	mov    0x8(%rsp),%r8d
  408aae:	31 c0                	xor    %eax,%eax
  408ab0:	b9 86 92 40 00       	mov    $0x409286,%ecx
  408ab5:	ba 10 00 00 00       	mov    $0x10,%edx
  408aba:	be 00 14 40 00       	mov    $0x401400,%esi
  408abf:	48 89 ef             	mov    %rbp,%rdi
  408ac2:	e8 a9 96 ff ff       	callq  402170 <_ZN9__gnu_cxx12__to_xstringINSt7__cxx1112basic_stringIcSt11char_traitsIcESaIcEEEcEET_PFiPT0_mPKS8_P13__va_list_tagEmSB_z.constprop.62>
  408ac7:	4c 8b 6c 24 68       	mov    0x68(%rsp),%r13
  408acc:	48 8d 43 10          	lea    0x10(%rbx),%rax
  408ad0:	48 89 84 24 80 00 00 	mov    %rax,0x80(%rsp)
  408ad7:	00 
  408ad8:	49 83 fd 0f          	cmp    $0xf,%r13
  408adc:	4c 89 6c 24 38       	mov    %r13,0x38(%rsp)
  408ae1:	0f 87 10 01 00 00    	ja     408bf7 <_ZN15CPU_MATHEMATICS11printHelperI10continuousIfS_EEEvT_PKiiNSt7__cxx1112basic_stringIcSt11char_traitsIcESaIcEEEi+0x8f7>
  408ae7:	49 83 fd 01          	cmp    $0x1,%r13
  408aeb:	0f 84 4c 01 00 00    	je     408c3d <_ZN15CPU_MATHEMATICS11printHelperI10continuousIfS_EEEvT_PKiiNSt7__cxx1112basic_stringIcSt11char_traitsIcESaIcEEEi+0x93d>
  408af1:	4d 85 ed             	test   %r13,%r13
  408af4:	48 89 c2             	mov    %rax,%rdx
  408af7:	0f 85 1e 01 00 00    	jne    408c1b <_ZN15CPU_MATHEMATICS11printHelperI10continuousIfS_EEEvT_PKiiNSt7__cxx1112basic_stringIcSt11char_traitsIcESaIcEEEi+0x91b>
  408afd:	4c 89 ac 24 88 00 00 	mov    %r13,0x88(%rsp)
  408b04:	00 
  408b05:	42 c6 04 2a 00       	movb   $0x0,(%rdx,%r13,1)
  408b0a:	bf e0 d1 60 00       	mov    $0x60d1e0,%edi
  408b0f:	49 8b 54 24 08       	mov    0x8(%r12),%rdx
  408b14:	49 8b 34 24          	mov    (%r12),%rsi
  408b18:	e8 b3 89 ff ff       	callq  4014d0 <_ZSt16__ostream_insertIcSt11char_traitsIcEERSt13basic_ostreamIT_T0_ES6_PKS3_l@plt>
  408b1d:	ba 14 00 00 00       	mov    $0x14,%edx
  408b22:	be 42 92 40 00       	mov    $0x409242,%esi
  408b27:	48 89 c7             	mov    %rax,%rdi
  408b2a:	49 89 c4             	mov    %rax,%r12
  408b2d:	e8 9e 89 ff ff       	callq  4014d0 <_ZSt16__ostream_insertIcSt11char_traitsIcEERSt13basic_ostreamIT_T0_ES6_PKS3_l@plt>
  408b32:	48 8b 94 24 88 00 00 	mov    0x88(%rsp),%rdx
  408b39:	00 
  408b3a:	48 8b b4 24 80 00 00 	mov    0x80(%rsp),%rsi
  408b41:	00 
  408b42:	4c 89 e7             	mov    %r12,%rdi
  408b45:	e8 86 89 ff ff       	callq  4014d0 <_ZSt16__ostream_insertIcSt11char_traitsIcEERSt13basic_ostreamIT_T0_ES6_PKS3_l@plt>
  408b4a:	ba 14 00 00 00       	mov    $0x14,%edx
  408b4f:	be 57 92 40 00       	mov    $0x409257,%esi
  408b54:	48 89 c7             	mov    %rax,%rdi
  408b57:	49 89 c5             	mov    %rax,%r13
  408b5a:	e8 71 89 ff ff       	callq  4014d0 <_ZSt16__ostream_insertIcSt11char_traitsIcEERSt13basic_ostreamIT_T0_ES6_PKS3_l@plt>
  408b5f:	49 8b 45 00          	mov    0x0(%r13),%rax
  408b63:	48 8b 40 e8          	mov    -0x18(%rax),%rax
  408b67:	4d 8b a4 05 f0 00 00 	mov    0xf0(%r13,%rax,1),%r12
  408b6e:	00 
  408b6f:	4d 85 e4             	test   %r12,%r12
  408b72:	0f 84 95 02 00 00    	je     408e0d <_ZN15CPU_MATHEMATICS11printHelperI10continuousIfS_EEEvT_PKiiNSt7__cxx1112basic_stringIcSt11char_traitsIcESaIcEEEi+0xb0d>
  408b78:	41 80 7c 24 38 00    	cmpb   $0x0,0x38(%r12)
  408b7e:	74 50                	je     408bd0 <_ZN15CPU_MATHEMATICS11printHelperI10continuousIfS_EEEvT_PKiiNSt7__cxx1112basic_stringIcSt11char_traitsIcESaIcEEEi+0x8d0>
  408b80:	41 0f be 74 24 43    	movsbl 0x43(%r12),%esi
  408b86:	4c 89 ef             	mov    %r13,%rdi
  408b89:	e8 22 88 ff ff       	callq  4013b0 <_ZNSo3putEc@plt>
  408b8e:	48 89 c7             	mov    %rax,%rdi
  408b91:	e8 8a 88 ff ff       	callq  401420 <_ZNSo5flushEv@plt>
  408b96:	48 8b bc 24 80 00 00 	mov    0x80(%rsp),%rdi
  408b9d:	00 
  408b9e:	48 83 c3 10          	add    $0x10,%rbx
  408ba2:	48 39 df             	cmp    %rbx,%rdi
  408ba5:	74 05                	je     408bac <_ZN15CPU_MATHEMATICS11printHelperI10continuousIfS_EEEvT_PKiiNSt7__cxx1112basic_stringIcSt11char_traitsIcESaIcEEEi+0x8ac>
  408ba7:	e8 f4 88 ff ff       	callq  4014a0 <_ZdlPv@plt>
  408bac:	48 8b 7c 24 60       	mov    0x60(%rsp),%rdi
  408bb1:	48 83 c5 10          	add    $0x10,%rbp
  408bb5:	48 39 ef             	cmp    %rbp,%rdi
  408bb8:	0f 84 cf fb ff ff    	je     40878d <_ZN15CPU_MATHEMATICS11printHelperI10continuousIfS_EEEvT_PKiiNSt7__cxx1112basic_stringIcSt11char_traitsIcESaIcEEEi+0x48d>
  408bbe:	e8 dd 88 ff ff       	callq  4014a0 <_ZdlPv@plt>
  408bc3:	e9 c5 fb ff ff       	jmpq   40878d <_ZN15CPU_MATHEMATICS11printHelperI10continuousIfS_EEEvT_PKiiNSt7__cxx1112basic_stringIcSt11char_traitsIcESaIcEEEi+0x48d>
  408bc8:	48 89 c7             	mov    %rax,%rdi
  408bcb:	e9 31 fe ff ff       	jmpq   408a01 <_ZN15CPU_MATHEMATICS11printHelperI10continuousIfS_EEEvT_PKiiNSt7__cxx1112basic_stringIcSt11char_traitsIcESaIcEEEi+0x701>
  408bd0:	4c 89 e7             	mov    %r12,%rdi
  408bd3:	e8 08 89 ff ff       	callq  4014e0 <_ZNKSt5ctypeIcE13_M_widen_initEv@plt>
  408bd8:	49 8b 04 24          	mov    (%r12),%rax
  408bdc:	be 0a 00 00 00       	mov    $0xa,%esi
  408be1:	48 8b 40 30          	mov    0x30(%rax),%rax
  408be5:	48 3d 20 5c 40 00    	cmp    $0x405c20,%rax
  408beb:	74 99                	je     408b86 <_ZN15CPU_MATHEMATICS11printHelperI10continuousIfS_EEEvT_PKiiNSt7__cxx1112basic_stringIcSt11char_traitsIcESaIcEEEi+0x886>
  408bed:	4c 89 e7             	mov    %r12,%rdi
  408bf0:	ff d0                	callq  *%rax
  408bf2:	0f be f0             	movsbl %al,%esi
  408bf5:	eb 8f                	jmp    408b86 <_ZN15CPU_MATHEMATICS11printHelperI10continuousIfS_EEEvT_PKiiNSt7__cxx1112basic_stringIcSt11char_traitsIcESaIcEEEi+0x886>
  408bf7:	48 8d 74 24 38       	lea    0x38(%rsp),%rsi
  408bfc:	31 d2                	xor    %edx,%edx
  408bfe:	48 89 df             	mov    %rbx,%rdi
  408c01:	e8 aa 89 ff ff       	callq  4015b0 <_ZNSt7__cxx1112basic_stringIcSt11char_traitsIcESaIcEE9_M_createERmm@plt>
  408c06:	48 8b 54 24 38       	mov    0x38(%rsp),%rdx
  408c0b:	48 89 84 24 80 00 00 	mov    %rax,0x80(%rsp)
  408c12:	00 
  408c13:	48 89 94 24 90 00 00 	mov    %rdx,0x90(%rsp)
  408c1a:	00 
  408c1b:	4c 89 ea             	mov    %r13,%rdx
  408c1e:	be 84 92 40 00       	mov    $0x409284,%esi
  408c23:	48 89 c7             	mov    %rax,%rdi
  408c26:	e8 45 88 ff ff       	callq  401470 <memcpy@plt>
  408c2b:	4c 8b 6c 24 38       	mov    0x38(%rsp),%r13
  408c30:	48 8b 94 24 80 00 00 	mov    0x80(%rsp),%rdx
  408c37:	00 
  408c38:	e9 c0 fe ff ff       	jmpq   408afd <_ZN15CPU_MATHEMATICS11printHelperI10continuousIfS_EEEvT_PKiiNSt7__cxx1112basic_stringIcSt11char_traitsIcESaIcEEEi+0x7fd>
  408c3d:	c6 84 24 90 00 00 00 	movb   $0x20,0x90(%rsp)
  408c44:	20 
  408c45:	48 89 c2             	mov    %rax,%rdx
  408c48:	e9 b0 fe ff ff       	jmpq   408afd <_ZN15CPU_MATHEMATICS11printHelperI10continuousIfS_EEEvT_PKiiNSt7__cxx1112basic_stringIcSt11char_traitsIcESaIcEEEi+0x7fd>
  408c4d:	4d 8d 7c 06 fc       	lea    -0x4(%r14,%rax,1),%r15
  408c52:	31 ed                	xor    %ebp,%ebp
  408c54:	48 83 f9 0f          	cmp    $0xf,%rcx
  408c58:	48 89 4c 24 38       	mov    %rcx,0x38(%rsp)
  408c5d:	0f 87 ad 00 00 00    	ja     408d10 <_ZN15CPU_MATHEMATICS11printHelperI10continuousIfS_EEEvT_PKiiNSt7__cxx1112basic_stringIcSt11char_traitsIcESaIcEEEi+0xa10>
  408c63:	48 83 f9 01          	cmp    $0x1,%rcx
  408c67:	0f 84 fb 00 00 00    	je     408d68 <_ZN15CPU_MATHEMATICS11printHelperI10continuousIfS_EEEvT_PKiiNSt7__cxx1112basic_stringIcSt11char_traitsIcESaIcEEEi+0xa68>
  408c6d:	48 85 c9             	test   %rcx,%rcx
  408c70:	48 8d 43 10          	lea    0x10(%rbx),%rax
  408c74:	0f 85 06 01 00 00    	jne    408d80 <_ZN15CPU_MATHEMATICS11printHelperI10continuousIfS_EEEvT_PKiiNSt7__cxx1112basic_stringIcSt11char_traitsIcESaIcEEEi+0xa80>
  408c7a:	48 89 8c 24 88 00 00 	mov    %rcx,0x88(%rsp)
  408c81:	00 
  408c82:	c6 04 08 00          	movb   $0x0,(%rax,%rcx,1)
  408c86:	4c 89 f6             	mov    %r14,%rsi
  408c89:	41 8b 07             	mov    (%r15),%eax
  408c8c:	48 8b 4c 24 18       	mov    0x18(%rsp),%rcx
  408c91:	44 8b 44 24 2c       	mov    0x2c(%rsp),%r8d
  408c96:	0f af c5             	imul   %ebp,%eax
  408c99:	48 8b 51 08          	mov    0x8(%rcx),%rdx
  408c9d:	48 89 d9             	mov    %rbx,%rcx
  408ca0:	48 98                	cltq   
  408ca2:	48 8d 3c 82          	lea    (%rdx,%rax,4),%rdi
  408ca6:	8b 54 24 08          	mov    0x8(%rsp),%edx
  408caa:	e8 21 eb ff ff       	callq  4077d0 <_ZN15CPU_MATHEMATICS11printHelperIPKfEEvT_PKiiNSt7__cxx1112basic_stringIcSt11char_traitsIcESaIcEEEi>
  408caf:	48 8b bc 24 80 00 00 	mov    0x80(%rsp),%rdi
  408cb6:	00 
  408cb7:	48 8d 43 10          	lea    0x10(%rbx),%rax
  408cbb:	48 39 c7             	cmp    %rax,%rdi
  408cbe:	74 05                	je     408cc5 <_ZN15CPU_MATHEMATICS11printHelperI10continuousIfS_EEEvT_PKiiNSt7__cxx1112basic_stringIcSt11char_traitsIcESaIcEEEi+0x9c5>
  408cc0:	e8 db 87 ff ff       	callq  4014a0 <_ZdlPv@plt>
  408cc5:	83 c5 01             	add    $0x1,%ebp
  408cc8:	41 39 6d 00          	cmp    %ebp,0x0(%r13)
  408ccc:	0f 8e d2 fd ff ff    	jle    408aa4 <_ZN15CPU_MATHEMATICS11printHelperI10continuousIfS_EEEvT_PKiiNSt7__cxx1112basic_stringIcSt11char_traitsIcESaIcEEEi+0x7a4>
  408cd2:	4d 8b 04 24          	mov    (%r12),%r8
  408cd6:	48 8d 43 10          	lea    0x10(%rbx),%rax
  408cda:	49 8b 4c 24 08       	mov    0x8(%r12),%rcx
  408cdf:	48 89 84 24 80 00 00 	mov    %rax,0x80(%rsp)
  408ce6:	00 
  408ce7:	4c 89 c0             	mov    %r8,%rax
  408cea:	48 01 c8             	add    %rcx,%rax
  408ced:	0f 84 61 ff ff ff    	je     408c54 <_ZN15CPU_MATHEMATICS11printHelperI10continuousIfS_EEEvT_PKiiNSt7__cxx1112basic_stringIcSt11char_traitsIcESaIcEEEi+0x954>
  408cf3:	4d 85 c0             	test   %r8,%r8
  408cf6:	0f 84 44 f7 ff ff    	je     408440 <_ZN15CPU_MATHEMATICS11printHelperI10continuousIfS_EEEvT_PKiiNSt7__cxx1112basic_stringIcSt11char_traitsIcESaIcEEEi+0x140>
  408cfc:	48 83 f9 0f          	cmp    $0xf,%rcx
  408d00:	48 89 4c 24 38       	mov    %rcx,0x38(%rsp)
  408d05:	0f 86 58 ff ff ff    	jbe    408c63 <_ZN15CPU_MATHEMATICS11printHelperI10continuousIfS_EEEvT_PKiiNSt7__cxx1112basic_stringIcSt11char_traitsIcESaIcEEEi+0x963>
  408d0b:	0f 1f 44 00 00       	nopl   0x0(%rax,%rax,1)
  408d10:	48 8d 74 24 38       	lea    0x38(%rsp),%rsi
  408d15:	48 89 df             	mov    %rbx,%rdi
  408d18:	31 d2                	xor    %edx,%edx
  408d1a:	4c 89 44 24 20       	mov    %r8,0x20(%rsp)
  408d1f:	48 89 4c 24 10       	mov    %rcx,0x10(%rsp)
  408d24:	e8 87 88 ff ff       	callq  4015b0 <_ZNSt7__cxx1112basic_stringIcSt11char_traitsIcESaIcEE9_M_createERmm@plt>
  408d29:	48 89 c7             	mov    %rax,%rdi
  408d2c:	48 89 84 24 80 00 00 	mov    %rax,0x80(%rsp)
  408d33:	00 
  408d34:	48 8b 44 24 38       	mov    0x38(%rsp),%rax
  408d39:	48 8b 4c 24 10       	mov    0x10(%rsp),%rcx
  408d3e:	4c 8b 44 24 20       	mov    0x20(%rsp),%r8
  408d43:	48 89 84 24 90 00 00 	mov    %rax,0x90(%rsp)
  408d4a:	00 
  408d4b:	48 89 ca             	mov    %rcx,%rdx
  408d4e:	4c 89 c6             	mov    %r8,%rsi
  408d51:	e8 1a 87 ff ff       	callq  401470 <memcpy@plt>
  408d56:	48 8b 4c 24 38       	mov    0x38(%rsp),%rcx
  408d5b:	48 8b 84 24 80 00 00 	mov    0x80(%rsp),%rax
  408d62:	00 
  408d63:	e9 12 ff ff ff       	jmpq   408c7a <_ZN15CPU_MATHEMATICS11printHelperI10continuousIfS_EEEvT_PKiiNSt7__cxx1112basic_stringIcSt11char_traitsIcESaIcEEEi+0x97a>
  408d68:	41 0f b6 00          	movzbl (%r8),%eax
  408d6c:	88 84 24 90 00 00 00 	mov    %al,0x90(%rsp)
  408d73:	48 8b 84 24 80 00 00 	mov    0x80(%rsp),%rax
  408d7a:	00 
  408d7b:	e9 fa fe ff ff       	jmpq   408c7a <_ZN15CPU_MATHEMATICS11printHelperI10continuousIfS_EEEvT_PKiiNSt7__cxx1112basic_stringIcSt11char_traitsIcESaIcEEEi+0x97a>
  408d80:	48 89 c7             	mov    %rax,%rdi
  408d83:	eb c6                	jmp    408d4b <_ZN15CPU_MATHEMATICS11printHelperI10continuousIfS_EEEvT_PKiiNSt7__cxx1112basic_stringIcSt11char_traitsIcESaIcEEEi+0xa4b>
  408d85:	0f 1f 00             	nopl   (%rax)
  408d88:	48 89 c3             	mov    %rax,%rbx
  408d8b:	eb 5a                	jmp    408de7 <_ZN15CPU_MATHEMATICS11printHelperI10continuousIfS_EEEvT_PKiiNSt7__cxx1112basic_stringIcSt11char_traitsIcESaIcEEEi+0xae7>
  408d8d:	eb f9                	jmp    408d88 <_ZN15CPU_MATHEMATICS11printHelperI10continuousIfS_EEEvT_PKiiNSt7__cxx1112basic_stringIcSt11char_traitsIcESaIcEEEi+0xa88>
  408d8f:	49 89 c4             	mov    %rax,%r12
  408d92:	eb 05                	jmp    408d99 <_ZN15CPU_MATHEMATICS11printHelperI10continuousIfS_EEEvT_PKiiNSt7__cxx1112basic_stringIcSt11char_traitsIcESaIcEEEi+0xa99>
  408d94:	48 89 c3             	mov    %rax,%rbx
  408d97:	eb 34                	jmp    408dcd <_ZN15CPU_MATHEMATICS11printHelperI10continuousIfS_EEEvT_PKiiNSt7__cxx1112basic_stringIcSt11char_traitsIcESaIcEEEi+0xacd>
  408d99:	48 8b bc 24 80 00 00 	mov    0x80(%rsp),%rdi
  408da0:	00 
  408da1:	48 83 c3 10          	add    $0x10,%rbx
  408da5:	48 39 df             	cmp    %rbx,%rdi
  408da8:	74 05                	je     408daf <_ZN15CPU_MATHEMATICS11printHelperI10continuousIfS_EEEvT_PKiiNSt7__cxx1112basic_stringIcSt11char_traitsIcESaIcEEEi+0xaaf>
  408daa:	e8 f1 86 ff ff       	callq  4014a0 <_ZdlPv@plt>
  408daf:	4c 89 e3             	mov    %r12,%rbx
  408db2:	48 8b 7c 24 60       	mov    0x60(%rsp),%rdi
  408db7:	48 83 c5 10          	add    $0x10,%rbp
  408dbb:	48 39 ef             	cmp    %rbp,%rdi
  408dbe:	74 05                	je     408dc5 <_ZN15CPU_MATHEMATICS11printHelperI10continuousIfS_EEEvT_PKiiNSt7__cxx1112basic_stringIcSt11char_traitsIcESaIcEEEi+0xac5>
  408dc0:	e8 db 86 ff ff       	callq  4014a0 <_ZdlPv@plt>
  408dc5:	48 89 df             	mov    %rbx,%rdi
  408dc8:	e8 c3 87 ff ff       	callq  401590 <_Unwind_Resume@plt>
  408dcd:	48 8b bc 24 80 00 00 	mov    0x80(%rsp),%rdi
  408dd4:	00 
  408dd5:	48 8d 84 24 90 00 00 	lea    0x90(%rsp),%rax
  408ddc:	00 
  408ddd:	48 39 c7             	cmp    %rax,%rdi
  408de0:	74 05                	je     408de7 <_ZN15CPU_MATHEMATICS11printHelperI10continuousIfS_EEEvT_PKiiNSt7__cxx1112basic_stringIcSt11char_traitsIcESaIcEEEi+0xae7>
  408de2:	e8 b9 86 ff ff       	callq  4014a0 <_ZdlPv@plt>
  408de7:	48 8b 7c 24 40       	mov    0x40(%rsp),%rdi
  408dec:	49 83 c4 10          	add    $0x10,%r12
  408df0:	4c 39 e7             	cmp    %r12,%rdi
  408df3:	75 cb                	jne    408dc0 <_ZN15CPU_MATHEMATICS11printHelperI10continuousIfS_EEEvT_PKiiNSt7__cxx1112basic_stringIcSt11char_traitsIcESaIcEEEi+0xac0>
  408df5:	eb ce                	jmp    408dc5 <_ZN15CPU_MATHEMATICS11printHelperI10continuousIfS_EEEvT_PKiiNSt7__cxx1112basic_stringIcSt11char_traitsIcESaIcEEEi+0xac5>
  408df7:	e8 c4 86 ff ff       	callq  4014c0 <__stack_chk_fail@plt>
  408dfc:	eb 96                	jmp    408d94 <_ZN15CPU_MATHEMATICS11printHelperI10continuousIfS_EEEvT_PKiiNSt7__cxx1112basic_stringIcSt11char_traitsIcESaIcEEEi+0xa94>
  408dfe:	e8 ed 86 ff ff       	callq  4014f0 <_ZSt16__throw_bad_castv@plt>
  408e03:	bf 6c 92 40 00       	mov    $0x40926c,%edi
  408e08:	e8 e3 85 ff ff       	callq  4013f0 <_ZSt20__throw_length_errorPKc@plt>
  408e0d:	e8 de 86 ff ff       	callq  4014f0 <_ZSt16__throw_bad_castv@plt>
  408e12:	48 89 c3             	mov    %rax,%rbx
  408e15:	eb 9b                	jmp    408db2 <_ZN15CPU_MATHEMATICS11printHelperI10continuousIfS_EEEvT_PKiiNSt7__cxx1112basic_stringIcSt11char_traitsIcESaIcEEEi+0xab2>
  408e17:	48 89 c5             	mov    %rax,%rbp
  408e1a:	48 8b bc 24 80 00 00 	mov    0x80(%rsp),%rdi
  408e21:	00 
  408e22:	48 83 c3 10          	add    $0x10,%rbx
  408e26:	48 39 df             	cmp    %rbx,%rdi
  408e29:	74 05                	je     408e30 <_ZN15CPU_MATHEMATICS11printHelperI10continuousIfS_EEEvT_PKiiNSt7__cxx1112basic_stringIcSt11char_traitsIcESaIcEEEi+0xb30>
  408e2b:	e8 70 86 ff ff       	callq  4014a0 <_ZdlPv@plt>
  408e30:	48 89 ef             	mov    %rbp,%rdi
  408e33:	e8 58 87 ff ff       	callq  401590 <_Unwind_Resume@plt>
  408e38:	0f 1f 84 00 00 00 00 	nopl   0x0(%rax,%rax,1)
  408e3f:	00 

0000000000408e40 <_ZNK11Tensor_JackIf15CPU_MATHEMATICS10continuousIfS0_EE5printEv>:
  408e40:	53                   	push   %rbx
  408e41:	41 b8 05 00 00 00    	mov    $0x5,%r8d
  408e47:	48 83 ec 70          	sub    $0x70,%rsp
  408e4b:	8b 57 20             	mov    0x20(%rdi),%edx
  408e4e:	48 8b 77 18          	mov    0x18(%rdi),%rsi
  408e52:	48 8d 5c 24 20       	lea    0x20(%rsp),%rbx
  408e57:	48 c7 44 24 28 00 00 	movq   $0x0,0x28(%rsp)
  408e5e:	00 00 
  408e60:	c6 44 24 30 00       	movb   $0x0,0x30(%rsp)
  408e65:	64 48 8b 04 25 28 00 	mov    %fs:0x28,%rax
  408e6c:	00 00 
  408e6e:	48 89 44 24 68       	mov    %rax,0x68(%rsp)
  408e73:	31 c0                	xor    %eax,%eax
  408e75:	48 8d 4b 10          	lea    0x10(%rbx),%rcx
  408e79:	48 8b 47 10          	mov    0x10(%rdi),%rax
  408e7d:	48 89 e7             	mov    %rsp,%rdi
  408e80:	48 c7 44 24 48 00 00 	movq   $0x0,0x48(%rsp)
  408e87:	00 00 
  408e89:	c6 44 24 50 00       	movb   $0x0,0x50(%rsp)
  408e8e:	48 89 4c 24 20       	mov    %rcx,0x20(%rsp)
  408e93:	48 8d 4c 24 50       	lea    0x50(%rsp),%rcx
  408e98:	48 c7 04 24 40 9d 40 	movq   $0x409d40,(%rsp)
  408e9f:	00 
  408ea0:	48 89 44 24 08       	mov    %rax,0x8(%rsp)
  408ea5:	48 89 74 24 10       	mov    %rsi,0x10(%rsp)
  408eaa:	48 89 4c 24 40       	mov    %rcx,0x40(%rsp)
  408eaf:	48 8d 4c 24 40       	lea    0x40(%rsp),%rcx
  408eb4:	89 54 24 18          	mov    %edx,0x18(%rsp)
  408eb8:	e8 43 f4 ff ff       	callq  408300 <_ZN15CPU_MATHEMATICS11printHelperI10continuousIfS_EEEvT_PKiiNSt7__cxx1112basic_stringIcSt11char_traitsIcESaIcEEEi>
  408ebd:	48 8b 7c 24 40       	mov    0x40(%rsp),%rdi
  408ec2:	48 8d 44 24 50       	lea    0x50(%rsp),%rax
  408ec7:	48 39 c7             	cmp    %rax,%rdi
  408eca:	74 05                	je     408ed1 <_ZNK11Tensor_JackIf15CPU_MATHEMATICS10continuousIfS0_EE5printEv+0x91>
  408ecc:	e8 cf 85 ff ff       	callq  4014a0 <_ZdlPv@plt>
  408ed1:	48 8b 05 08 43 20 00 	mov    0x204308(%rip),%rax        # 60d1e0 <_ZSt4cout@@GLIBCXX_3.4>
  408ed8:	48 8b 40 e8          	mov    -0x18(%rax),%rax
  408edc:	48 8b 98 d0 d2 60 00 	mov    0x60d2d0(%rax),%rbx
  408ee3:	48 85 db             	test   %rbx,%rbx
  408ee6:	74 73                	je     408f5b <_ZNK11Tensor_JackIf15CPU_MATHEMATICS10continuousIfS0_EE5printEv+0x11b>
  408ee8:	80 7b 38 00          	cmpb   $0x0,0x38(%rbx)
  408eec:	74 42                	je     408f30 <_ZNK11Tensor_JackIf15CPU_MATHEMATICS10continuousIfS0_EE5printEv+0xf0>
  408eee:	0f be 73 43          	movsbl 0x43(%rbx),%esi
  408ef2:	bf e0 d1 60 00       	mov    $0x60d1e0,%edi
  408ef7:	e8 b4 84 ff ff       	callq  4013b0 <_ZNSo3putEc@plt>
  408efc:	48 89 c7             	mov    %rax,%rdi
  408eff:	e8 1c 85 ff ff       	callq  401420 <_ZNSo5flushEv@plt>
  408f04:	48 8b 7c 24 20       	mov    0x20(%rsp),%rdi
  408f09:	48 8d 44 24 30       	lea    0x30(%rsp),%rax
  408f0e:	48 39 c7             	cmp    %rax,%rdi
  408f11:	74 05                	je     408f18 <_ZNK11Tensor_JackIf15CPU_MATHEMATICS10continuousIfS0_EE5printEv+0xd8>
  408f13:	e8 88 85 ff ff       	callq  4014a0 <_ZdlPv@plt>
  408f18:	48 8b 44 24 68       	mov    0x68(%rsp),%rax
  408f1d:	64 48 33 04 25 28 00 	xor    %fs:0x28,%rax
  408f24:	00 00 
  408f26:	75 2e                	jne    408f56 <_ZNK11Tensor_JackIf15CPU_MATHEMATICS10continuousIfS0_EE5printEv+0x116>
  408f28:	48 83 c4 70          	add    $0x70,%rsp
  408f2c:	5b                   	pop    %rbx
  408f2d:	c3                   	retq   
  408f2e:	66 90                	xchg   %ax,%ax
  408f30:	48 89 df             	mov    %rbx,%rdi
  408f33:	e8 a8 85 ff ff       	callq  4014e0 <_ZNKSt5ctypeIcE13_M_widen_initEv@plt>
  408f38:	48 8b 03             	mov    (%rbx),%rax
  408f3b:	be 0a 00 00 00       	mov    $0xa,%esi
  408f40:	48 8b 40 30          	mov    0x30(%rax),%rax
  408f44:	48 3d 20 5c 40 00    	cmp    $0x405c20,%rax
  408f4a:	74 a6                	je     408ef2 <_ZNK11Tensor_JackIf15CPU_MATHEMATICS10continuousIfS0_EE5printEv+0xb2>
  408f4c:	48 89 df             	mov    %rbx,%rdi
  408f4f:	ff d0                	callq  *%rax
  408f51:	0f be f0             	movsbl %al,%esi
  408f54:	eb 9c                	jmp    408ef2 <_ZNK11Tensor_JackIf15CPU_MATHEMATICS10continuousIfS0_EE5printEv+0xb2>
  408f56:	e8 65 85 ff ff       	callq  4014c0 <__stack_chk_fail@plt>
  408f5b:	e8 90 85 ff ff       	callq  4014f0 <_ZSt16__throw_bad_castv@plt>
  408f60:	48 89 c3             	mov    %rax,%rbx
  408f63:	eb 17                	jmp    408f7c <_ZNK11Tensor_JackIf15CPU_MATHEMATICS10continuousIfS0_EE5printEv+0x13c>
  408f65:	48 89 c3             	mov    %rax,%rbx
  408f68:	48 8b 7c 24 40       	mov    0x40(%rsp),%rdi
  408f6d:	48 8d 54 24 50       	lea    0x50(%rsp),%rdx
  408f72:	48 39 d7             	cmp    %rdx,%rdi
  408f75:	74 05                	je     408f7c <_ZNK11Tensor_JackIf15CPU_MATHEMATICS10continuousIfS0_EE5printEv+0x13c>
  408f77:	e8 24 85 ff ff       	callq  4014a0 <_ZdlPv@plt>
  408f7c:	48 8b 7c 24 20       	mov    0x20(%rsp),%rdi
  408f81:	48 8d 54 24 30       	lea    0x30(%rsp),%rdx
  408f86:	48 39 d7             	cmp    %rdx,%rdi
  408f89:	74 05                	je     408f90 <_ZNK11Tensor_JackIf15CPU_MATHEMATICS10continuousIfS0_EE5printEv+0x150>
  408f8b:	e8 10 85 ff ff       	callq  4014a0 <_ZdlPv@plt>
  408f90:	48 89 df             	mov    %rbx,%rdi
  408f93:	e8 f8 85 ff ff       	callq  401590 <_Unwind_Resume@plt>
  408f98:	0f 1f 84 00 00 00 00 	nopl   0x0(%rax,%rax,1)
  408f9f:	00 

0000000000408fa0 <__libc_csu_init>:
  408fa0:	41 57                	push   %r15
  408fa2:	41 56                	push   %r14
  408fa4:	41 89 ff             	mov    %edi,%r15d
  408fa7:	41 55                	push   %r13
  408fa9:	41 54                	push   %r12
  408fab:	4c 8d 25 16 3e 20 00 	lea    0x203e16(%rip),%r12        # 60cdc8 <__frame_dummy_init_array_entry>
  408fb2:	55                   	push   %rbp
  408fb3:	48 8d 2d 1e 3e 20 00 	lea    0x203e1e(%rip),%rbp        # 60cdd8 <__init_array_end>
  408fba:	53                   	push   %rbx
  408fbb:	49 89 f6             	mov    %rsi,%r14
  408fbe:	49 89 d5             	mov    %rdx,%r13
  408fc1:	4c 29 e5             	sub    %r12,%rbp
  408fc4:	48 83 ec 08          	sub    $0x8,%rsp
  408fc8:	48 c1 fd 03          	sar    $0x3,%rbp
  408fcc:	e8 87 83 ff ff       	callq  401358 <_init>
  408fd1:	48 85 ed             	test   %rbp,%rbp
  408fd4:	74 20                	je     408ff6 <__libc_csu_init+0x56>
  408fd6:	31 db                	xor    %ebx,%ebx
  408fd8:	0f 1f 84 00 00 00 00 	nopl   0x0(%rax,%rax,1)
  408fdf:	00 
  408fe0:	4c 89 ea             	mov    %r13,%rdx
  408fe3:	4c 89 f6             	mov    %r14,%rsi
  408fe6:	44 89 ff             	mov    %r15d,%edi
  408fe9:	41 ff 14 dc          	callq  *(%r12,%rbx,8)
  408fed:	48 83 c3 01          	add    $0x1,%rbx
  408ff1:	48 39 eb             	cmp    %rbp,%rbx
  408ff4:	75 ea                	jne    408fe0 <__libc_csu_init+0x40>
  408ff6:	48 83 c4 08          	add    $0x8,%rsp
  408ffa:	5b                   	pop    %rbx
  408ffb:	5d                   	pop    %rbp
  408ffc:	41 5c                	pop    %r12
  408ffe:	41 5d                	pop    %r13
  409000:	41 5e                	pop    %r14
  409002:	41 5f                	pop    %r15
  409004:	c3                   	retq   
  409005:	90                   	nop
  409006:	66 2e 0f 1f 84 00 00 	nopw   %cs:0x0(%rax,%rax,1)
  40900d:	00 00 00 

0000000000409010 <__libc_csu_fini>:
  409010:	f3 c3                	repz retq 

Disassembly of section .fini:

0000000000409014 <_fini>:
  409014:	48 83 ec 08          	sub    $0x8,%rsp
  409018:	48 83 c4 08          	add    $0x8,%rsp
  40901c:	c3                   	retq   
