
test:     file format elf64-x86-64


Disassembly of section .init:

00000000004013c8 <_init>:
  4013c8:	48 83 ec 08          	sub    $0x8,%rsp
  4013cc:	48 8b 05 25 ac 24 00 	mov    0x24ac25(%rip),%rax        # 64bff8 <_DYNAMIC+0x210>
  4013d3:	48 85 c0             	test   %rax,%rax
  4013d6:	74 05                	je     4013dd <_init+0x15>
  4013d8:	e8 b3 02 00 00       	callq  401690 <_ZNSt8ios_base4InitD1Ev@plt+0x10>
  4013dd:	48 83 c4 08          	add    $0x8,%rsp
  4013e1:	c3                   	retq   

Disassembly of section .plt:

00000000004013f0 <__printf_chk@plt-0x10>:
  4013f0:	ff 35 12 ac 24 00    	pushq  0x24ac12(%rip)        # 64c008 <_GLOBAL_OFFSET_TABLE_+0x8>
  4013f6:	ff 25 14 ac 24 00    	jmpq   *0x24ac14(%rip)        # 64c010 <_GLOBAL_OFFSET_TABLE_+0x10>
  4013fc:	0f 1f 40 00          	nopl   0x0(%rax)

0000000000401400 <__printf_chk@plt>:
  401400:	ff 25 12 ac 24 00    	jmpq   *0x24ac12(%rip)        # 64c018 <_GLOBAL_OFFSET_TABLE_+0x18>
  401406:	68 00 00 00 00       	pushq  $0x0
  40140b:	e9 e0 ff ff ff       	jmpq   4013f0 <_init+0x28>

0000000000401410 <_Znam@plt>:
  401410:	ff 25 0a ac 24 00    	jmpq   *0x24ac0a(%rip)        # 64c020 <_GLOBAL_OFFSET_TABLE_+0x20>
  401416:	68 01 00 00 00       	pushq  $0x1
  40141b:	e9 d0 ff ff ff       	jmpq   4013f0 <_init+0x28>

0000000000401420 <_ZNSo3putEc@plt>:
  401420:	ff 25 02 ac 24 00    	jmpq   *0x24ac02(%rip)        # 64c028 <_GLOBAL_OFFSET_TABLE_+0x28>
  401426:	68 02 00 00 00       	pushq  $0x2
  40142b:	e9 c0 ff ff ff       	jmpq   4013f0 <_init+0x28>

0000000000401430 <rand@plt>:
  401430:	ff 25 fa ab 24 00    	jmpq   *0x24abfa(%rip)        # 64c030 <_GLOBAL_OFFSET_TABLE_+0x30>
  401436:	68 03 00 00 00       	pushq  $0x3
  40143b:	e9 b0 ff ff ff       	jmpq   4013f0 <_init+0x28>

0000000000401440 <_ZNSt7__cxx1112basic_stringIcSt11char_traitsIcESaIcEE9_M_appendEPKcm@plt>:
  401440:	ff 25 f2 ab 24 00    	jmpq   *0x24abf2(%rip)        # 64c038 <_GLOBAL_OFFSET_TABLE_+0x38>
  401446:	68 04 00 00 00       	pushq  $0x4
  40144b:	e9 a0 ff ff ff       	jmpq   4013f0 <_init+0x28>

0000000000401450 <_ZSt4endlIcSt11char_traitsIcEERSt13basic_ostreamIT_T0_ES6_@plt>:
  401450:	ff 25 ea ab 24 00    	jmpq   *0x24abea(%rip)        # 64c040 <_GLOBAL_OFFSET_TABLE_+0x40>
  401456:	68 05 00 00 00       	pushq  $0x5
  40145b:	e9 90 ff ff ff       	jmpq   4013f0 <_init+0x28>

0000000000401460 <__cxa_allocate_exception@plt>:
  401460:	ff 25 e2 ab 24 00    	jmpq   *0x24abe2(%rip)        # 64c048 <_GLOBAL_OFFSET_TABLE_+0x48>
  401466:	68 06 00 00 00       	pushq  $0x6
  40146b:	e9 80 ff ff ff       	jmpq   4013f0 <_init+0x28>

0000000000401470 <_ZSt20__throw_length_errorPKc@plt>:
  401470:	ff 25 da ab 24 00    	jmpq   *0x24abda(%rip)        # 64c050 <_GLOBAL_OFFSET_TABLE_+0x50>
  401476:	68 07 00 00 00       	pushq  $0x7
  40147b:	e9 70 ff ff ff       	jmpq   4013f0 <_init+0x28>

0000000000401480 <vsnprintf@plt>:
  401480:	ff 25 d2 ab 24 00    	jmpq   *0x24abd2(%rip)        # 64c058 <_GLOBAL_OFFSET_TABLE_+0x58>
  401486:	68 08 00 00 00       	pushq  $0x8
  40148b:	e9 60 ff ff ff       	jmpq   4013f0 <_init+0x28>

0000000000401490 <_ZNSo9_M_insertImEERSoT_@plt>:
  401490:	ff 25 ca ab 24 00    	jmpq   *0x24abca(%rip)        # 64c060 <_GLOBAL_OFFSET_TABLE_+0x60>
  401496:	68 09 00 00 00       	pushq  $0x9
  40149b:	e9 50 ff ff ff       	jmpq   4013f0 <_init+0x28>

00000000004014a0 <_ZNSo5flushEv@plt>:
  4014a0:	ff 25 c2 ab 24 00    	jmpq   *0x24abc2(%rip)        # 64c068 <_GLOBAL_OFFSET_TABLE_+0x68>
  4014a6:	68 0a 00 00 00       	pushq  $0xa
  4014ab:	e9 40 ff ff ff       	jmpq   4013f0 <_init+0x28>

00000000004014b0 <_ZSt19__throw_logic_errorPKc@plt>:
  4014b0:	ff 25 ba ab 24 00    	jmpq   *0x24abba(%rip)        # 64c070 <_GLOBAL_OFFSET_TABLE_+0x70>
  4014b6:	68 0b 00 00 00       	pushq  $0xb
  4014bb:	e9 30 ff ff ff       	jmpq   4013f0 <_init+0x28>

00000000004014c0 <_ZNSt7__cxx1112basic_stringIcSt11char_traitsIcESaIcEE4swapERS4_@plt>:
  4014c0:	ff 25 b2 ab 24 00    	jmpq   *0x24abb2(%rip)        # 64c078 <_GLOBAL_OFFSET_TABLE_+0x78>
  4014c6:	68 0c 00 00 00       	pushq  $0xc
  4014cb:	e9 20 ff ff ff       	jmpq   4013f0 <_init+0x28>

00000000004014d0 <__cxa_free_exception@plt>:
  4014d0:	ff 25 aa ab 24 00    	jmpq   *0x24abaa(%rip)        # 64c080 <_GLOBAL_OFFSET_TABLE_+0x80>
  4014d6:	68 0d 00 00 00       	pushq  $0xd
  4014db:	e9 10 ff ff ff       	jmpq   4013f0 <_init+0x28>

00000000004014e0 <__vsnprintf_chk@plt>:
  4014e0:	ff 25 a2 ab 24 00    	jmpq   *0x24aba2(%rip)        # 64c088 <_GLOBAL_OFFSET_TABLE_+0x88>
  4014e6:	68 0e 00 00 00       	pushq  $0xe
  4014eb:	e9 00 ff ff ff       	jmpq   4013f0 <_init+0x28>

00000000004014f0 <memcpy@plt>:
  4014f0:	ff 25 9a ab 24 00    	jmpq   *0x24ab9a(%rip)        # 64c090 <_GLOBAL_OFFSET_TABLE_+0x90>
  4014f6:	68 0f 00 00 00       	pushq  $0xf
  4014fb:	e9 f0 fe ff ff       	jmpq   4013f0 <_init+0x28>

0000000000401500 <__cxa_atexit@plt>:
  401500:	ff 25 92 ab 24 00    	jmpq   *0x24ab92(%rip)        # 64c098 <_GLOBAL_OFFSET_TABLE_+0x98>
  401506:	68 10 00 00 00       	pushq  $0x10
  40150b:	e9 e0 fe ff ff       	jmpq   4013f0 <_init+0x28>

0000000000401510 <pthread_self@plt>:
  401510:	ff 25 8a ab 24 00    	jmpq   *0x24ab8a(%rip)        # 64c0a0 <_GLOBAL_OFFSET_TABLE_+0xa0>
  401516:	68 11 00 00 00       	pushq  $0x11
  40151b:	e9 d0 fe ff ff       	jmpq   4013f0 <_init+0x28>

0000000000401520 <_ZdlPv@plt>:
  401520:	ff 25 82 ab 24 00    	jmpq   *0x24ab82(%rip)        # 64c0a8 <_GLOBAL_OFFSET_TABLE_+0xa8>
  401526:	68 12 00 00 00       	pushq  $0x12
  40152b:	e9 c0 fe ff ff       	jmpq   4013f0 <_init+0x28>

0000000000401530 <_ZdlPvm@plt>:
  401530:	ff 25 7a ab 24 00    	jmpq   *0x24ab7a(%rip)        # 64c0b0 <_GLOBAL_OFFSET_TABLE_+0xb0>
  401536:	68 13 00 00 00       	pushq  $0x13
  40153b:	e9 b0 fe ff ff       	jmpq   4013f0 <_init+0x28>

0000000000401540 <__stack_chk_fail@plt>:
  401540:	ff 25 72 ab 24 00    	jmpq   *0x24ab72(%rip)        # 64c0b8 <_GLOBAL_OFFSET_TABLE_+0xb8>
  401546:	68 14 00 00 00       	pushq  $0x14
  40154b:	e9 a0 fe ff ff       	jmpq   4013f0 <_init+0x28>

0000000000401550 <_ZSt16__ostream_insertIcSt11char_traitsIcEERSt13basic_ostreamIT_T0_ES6_PKS3_l@plt>:
  401550:	ff 25 6a ab 24 00    	jmpq   *0x24ab6a(%rip)        # 64c0c0 <_GLOBAL_OFFSET_TABLE_+0xc0>
  401556:	68 15 00 00 00       	pushq  $0x15
  40155b:	e9 90 fe ff ff       	jmpq   4013f0 <_init+0x28>

0000000000401560 <_ZNKSt5ctypeIcE13_M_widen_initEv@plt>:
  401560:	ff 25 62 ab 24 00    	jmpq   *0x24ab62(%rip)        # 64c0c8 <_GLOBAL_OFFSET_TABLE_+0xc8>
  401566:	68 16 00 00 00       	pushq  $0x16
  40156b:	e9 80 fe ff ff       	jmpq   4013f0 <_init+0x28>

0000000000401570 <_ZSt16__throw_bad_castv@plt>:
  401570:	ff 25 5a ab 24 00    	jmpq   *0x24ab5a(%rip)        # 64c0d0 <_GLOBAL_OFFSET_TABLE_+0xd0>
  401576:	68 17 00 00 00       	pushq  $0x17
  40157b:	e9 70 fe ff ff       	jmpq   4013f0 <_init+0x28>

0000000000401580 <_ZdaPv@plt>:
  401580:	ff 25 52 ab 24 00    	jmpq   *0x24ab52(%rip)        # 64c0d8 <_GLOBAL_OFFSET_TABLE_+0xd8>
  401586:	68 18 00 00 00       	pushq  $0x18
  40158b:	e9 60 fe ff ff       	jmpq   4013f0 <_init+0x28>

0000000000401590 <__cxa_throw_bad_array_new_length@plt>:
  401590:	ff 25 4a ab 24 00    	jmpq   *0x24ab4a(%rip)        # 64c0e0 <_GLOBAL_OFFSET_TABLE_+0xe0>
  401596:	68 19 00 00 00       	pushq  $0x19
  40159b:	e9 50 fe ff ff       	jmpq   4013f0 <_init+0x28>

00000000004015a0 <GOMP_parallel@plt>:
  4015a0:	ff 25 42 ab 24 00    	jmpq   *0x24ab42(%rip)        # 64c0e8 <_GLOBAL_OFFSET_TABLE_+0xe8>
  4015a6:	68 1a 00 00 00       	pushq  $0x1a
  4015ab:	e9 40 fe ff ff       	jmpq   4013f0 <_init+0x28>

00000000004015b0 <_ZNSt8ios_base4InitC1Ev@plt>:
  4015b0:	ff 25 3a ab 24 00    	jmpq   *0x24ab3a(%rip)        # 64c0f0 <_GLOBAL_OFFSET_TABLE_+0xf0>
  4015b6:	68 1b 00 00 00       	pushq  $0x1b
  4015bb:	e9 30 fe ff ff       	jmpq   4013f0 <_init+0x28>

00000000004015c0 <omp_get_thread_num@plt>:
  4015c0:	ff 25 32 ab 24 00    	jmpq   *0x24ab32(%rip)        # 64c0f8 <_GLOBAL_OFFSET_TABLE_+0xf8>
  4015c6:	68 1c 00 00 00       	pushq  $0x1c
  4015cb:	e9 20 fe ff ff       	jmpq   4013f0 <_init+0x28>

00000000004015d0 <__gxx_personality_v0@plt>:
  4015d0:	ff 25 2a ab 24 00    	jmpq   *0x24ab2a(%rip)        # 64c100 <_GLOBAL_OFFSET_TABLE_+0x100>
  4015d6:	68 1d 00 00 00       	pushq  $0x1d
  4015db:	e9 10 fe ff ff       	jmpq   4013f0 <_init+0x28>

00000000004015e0 <_ZNSt16invalid_argumentD1Ev@plt>:
  4015e0:	ff 25 22 ab 24 00    	jmpq   *0x24ab22(%rip)        # 64c108 <_GLOBAL_OFFSET_TABLE_+0x108>
  4015e6:	68 1e 00 00 00       	pushq  $0x1e
  4015eb:	e9 00 fe ff ff       	jmpq   4013f0 <_init+0x28>

00000000004015f0 <__cxa_throw@plt>:
  4015f0:	ff 25 1a ab 24 00    	jmpq   *0x24ab1a(%rip)        # 64c110 <_GLOBAL_OFFSET_TABLE_+0x110>
  4015f6:	68 1f 00 00 00       	pushq  $0x1f
  4015fb:	e9 f0 fd ff ff       	jmpq   4013f0 <_init+0x28>

0000000000401600 <_ZNSolsEi@plt>:
  401600:	ff 25 12 ab 24 00    	jmpq   *0x24ab12(%rip)        # 64c118 <_GLOBAL_OFFSET_TABLE_+0x118>
  401606:	68 20 00 00 00       	pushq  $0x20
  40160b:	e9 e0 fd ff ff       	jmpq   4013f0 <_init+0x28>

0000000000401610 <_Unwind_Resume@plt>:
  401610:	ff 25 0a ab 24 00    	jmpq   *0x24ab0a(%rip)        # 64c120 <_GLOBAL_OFFSET_TABLE_+0x120>
  401616:	68 21 00 00 00       	pushq  $0x21
  40161b:	e9 d0 fd ff ff       	jmpq   4013f0 <_init+0x28>

0000000000401620 <omp_get_wtime@plt>:
  401620:	ff 25 02 ab 24 00    	jmpq   *0x24ab02(%rip)        # 64c128 <_GLOBAL_OFFSET_TABLE_+0x128>
  401626:	68 22 00 00 00       	pushq  $0x22
  40162b:	e9 c0 fd ff ff       	jmpq   4013f0 <_init+0x28>

0000000000401630 <_ZNSt7__cxx1112basic_stringIcSt11char_traitsIcESaIcEE9_M_createERmm@plt>:
  401630:	ff 25 fa aa 24 00    	jmpq   *0x24aafa(%rip)        # 64c130 <_GLOBAL_OFFSET_TABLE_+0x130>
  401636:	68 23 00 00 00       	pushq  $0x23
  40163b:	e9 b0 fd ff ff       	jmpq   4013f0 <_init+0x28>

0000000000401640 <GOMP_barrier@plt>:
  401640:	ff 25 f2 aa 24 00    	jmpq   *0x24aaf2(%rip)        # 64c138 <_GLOBAL_OFFSET_TABLE_+0x138>
  401646:	68 24 00 00 00       	pushq  $0x24
  40164b:	e9 a0 fd ff ff       	jmpq   4013f0 <_init+0x28>

0000000000401650 <__libc_start_main@plt>:
  401650:	ff 25 ea aa 24 00    	jmpq   *0x24aaea(%rip)        # 64c140 <_GLOBAL_OFFSET_TABLE_+0x140>
  401656:	68 25 00 00 00       	pushq  $0x25
  40165b:	e9 90 fd ff ff       	jmpq   4013f0 <_init+0x28>

0000000000401660 <omp_get_num_threads@plt>:
  401660:	ff 25 e2 aa 24 00    	jmpq   *0x24aae2(%rip)        # 64c148 <_GLOBAL_OFFSET_TABLE_+0x148>
  401666:	68 26 00 00 00       	pushq  $0x26
  40166b:	e9 80 fd ff ff       	jmpq   4013f0 <_init+0x28>

0000000000401670 <_ZNSt16invalid_argumentC1EPKc@plt>:
  401670:	ff 25 da aa 24 00    	jmpq   *0x24aada(%rip)        # 64c150 <_GLOBAL_OFFSET_TABLE_+0x150>
  401676:	68 27 00 00 00       	pushq  $0x27
  40167b:	e9 70 fd ff ff       	jmpq   4013f0 <_init+0x28>

0000000000401680 <_ZNSt8ios_base4InitD1Ev@plt>:
  401680:	ff 25 d2 aa 24 00    	jmpq   *0x24aad2(%rip)        # 64c158 <_GLOBAL_OFFSET_TABLE_+0x158>
  401686:	68 28 00 00 00       	pushq  $0x28
  40168b:	e9 60 fd ff ff       	jmpq   4013f0 <_init+0x28>

Disassembly of section .plt.got:

0000000000401690 <.plt.got>:
  401690:	ff 25 62 a9 24 00    	jmpq   *0x24a962(%rip)        # 64bff8 <_DYNAMIC+0x210>
  401696:	66 90                	xchg   %ax,%ax

Disassembly of section .text:

00000000004016a0 <main>:
  4016a0:	48 81 ec 58 9c 00 00 	sub    $0x9c58,%rsp
  4016a7:	ba 02 00 00 00       	mov    $0x2,%edx
  4016ac:	be fe e2 43 00       	mov    $0x43e2fe,%esi
  4016b1:	bf e0 c1 64 00       	mov    $0x64c1e0,%edi
  4016b6:	64 48 8b 04 25 28 00 	mov    %fs:0x28,%rax
  4016bd:	00 00 
  4016bf:	48 89 84 24 48 9c 00 	mov    %rax,0x9c48(%rsp)
  4016c6:	00 
  4016c7:	31 c0                	xor    %eax,%eax
  4016c9:	e8 82 fe ff ff       	callq  401550 <_ZSt16__ostream_insertIcSt11char_traitsIcEERSt13basic_ostreamIT_T0_ES6_PKS3_l@plt>
  4016ce:	e8 8d 0a 00 00       	callq  402160 <_ZSt4endlIcSt11char_traitsIcEERSt13basic_ostreamIT_T0_ES6_.constprop.65>
  4016d3:	f2 0f 10 05 45 77 04 	movsd  0x47745(%rip),%xmm0        # 448e20 <_ZTV6MatrixId15CPU_MATHEMATICS10continuousIdS0_EE+0x9c78>
  4016da:	00 
  4016db:	be 88 13 00 00       	mov    $0x1388,%esi
  4016e0:	bf e0 c1 64 00       	mov    $0x64c1e0,%edi
  4016e5:	f2 0f 11 84 24 38 9c 	movsd  %xmm0,0x9c38(%rsp)
  4016ec:	00 00 
  4016ee:	e8 0d ff ff ff       	callq  401600 <_ZNSolsEi@plt>
  4016f3:	48 89 c7             	mov    %rax,%rdi
  4016f6:	e8 55 fd ff ff       	callq  401450 <_ZSt4endlIcSt11char_traitsIcEERSt13basic_ostreamIT_T0_ES6_@plt>
  4016fb:	f2 0f 10 0d 25 77 04 	movsd  0x47725(%rip),%xmm1        # 448e28 <_ZTV6MatrixId15CPU_MATHEMATICS10continuousIdS0_EE+0x9c80>
  401702:	00 
  401703:	be 87 13 00 00       	mov    $0x1387,%esi
  401708:	bf e0 c1 64 00       	mov    $0x64c1e0,%edi
  40170d:	f2 0f 11 8c 24 30 9c 	movsd  %xmm1,0x9c30(%rsp)
  401714:	00 00 
  401716:	e8 e5 fe ff ff       	callq  401600 <_ZNSolsEi@plt>
  40171b:	48 89 c7             	mov    %rax,%rdi
  40171e:	e8 2d fd ff ff       	callq  401450 <_ZSt4endlIcSt11char_traitsIcEERSt13basic_ostreamIT_T0_ES6_@plt>
  401723:	48 89 e7             	mov    %rsp,%rdi
  401726:	e8 a5 89 03 00       	callq  43a0d0 <_ZN5beginILi4997EE11init_helperEPd>
  40172b:	ba 02 00 00 00       	mov    $0x2,%edx
  401730:	be fe e2 43 00       	mov    $0x43e2fe,%esi
  401735:	bf e0 c1 64 00       	mov    $0x64c1e0,%edi
  40173a:	e8 11 fe ff ff       	callq  401550 <_ZSt16__ostream_insertIcSt11char_traitsIcEERSt13basic_ostreamIT_T0_ES6_PKS3_l@plt>
  40173f:	e8 1c 0a 00 00       	callq  402160 <_ZSt4endlIcSt11char_traitsIcEERSt13basic_ostreamIT_T0_ES6_.constprop.65>
  401744:	48 8b 8c 24 48 9c 00 	mov    0x9c48(%rsp),%rcx
  40174b:	00 
  40174c:	64 48 33 0c 25 28 00 	xor    %fs:0x28,%rcx
  401753:	00 00 
  401755:	75 0a                	jne    401761 <main+0xc1>
  401757:	31 c0                	xor    %eax,%eax
  401759:	48 81 c4 58 9c 00 00 	add    $0x9c58,%rsp
  401760:	c3                   	retq   
  401761:	e8 da fd ff ff       	callq  401540 <__stack_chk_fail@plt>
  401766:	66 2e 0f 1f 84 00 00 	nopw   %cs:0x0(%rax,%rax,1)
  40176d:	00 00 00 

0000000000401770 <_GLOBAL__sub_I__Z3maxii>:
  401770:	48 83 ec 08          	sub    $0x8,%rsp
  401774:	bf b9 c3 64 00       	mov    $0x64c3b9,%edi
  401779:	e8 32 fe ff ff       	callq  4015b0 <_ZNSt8ios_base4InitC1Ev@plt>
  40177e:	ba 68 c1 64 00       	mov    $0x64c168,%edx
  401783:	be b9 c3 64 00       	mov    $0x64c3b9,%esi
  401788:	bf 80 16 40 00       	mov    $0x401680,%edi
  40178d:	48 83 c4 08          	add    $0x8,%rsp
  401791:	e9 6a fd ff ff       	jmpq   401500 <__cxa_atexit@plt>
  401796:	66 2e 0f 1f 84 00 00 	nopw   %cs:0x0(%rax,%rax,1)
  40179d:	00 00 00 

00000000004017a0 <_start>:
  4017a0:	31 ed                	xor    %ebp,%ebp
  4017a2:	49 89 d1             	mov    %rdx,%r9
  4017a5:	5e                   	pop    %rsi
  4017a6:	48 89 e2             	mov    %rsp,%rdx
  4017a9:	48 83 e4 f0          	and    $0xfffffffffffffff0,%rsp
  4017ad:	50                   	push   %rax
  4017ae:	54                   	push   %rsp
  4017af:	49 c7 c0 60 e0 43 00 	mov    $0x43e060,%r8
  4017b6:	48 c7 c1 f0 df 43 00 	mov    $0x43dff0,%rcx
  4017bd:	48 c7 c7 a0 16 40 00 	mov    $0x4016a0,%rdi
  4017c4:	e8 87 fe ff ff       	callq  401650 <__libc_start_main@plt>
  4017c9:	f4                   	hlt    
  4017ca:	66 0f 1f 44 00 00    	nopw   0x0(%rax,%rax,1)

00000000004017d0 <deregister_tm_clones>:
  4017d0:	b8 77 c1 64 00       	mov    $0x64c177,%eax
  4017d5:	55                   	push   %rbp
  4017d6:	48 2d 70 c1 64 00    	sub    $0x64c170,%rax
  4017dc:	48 83 f8 0e          	cmp    $0xe,%rax
  4017e0:	48 89 e5             	mov    %rsp,%rbp
  4017e3:	76 1b                	jbe    401800 <deregister_tm_clones+0x30>
  4017e5:	b8 00 00 00 00       	mov    $0x0,%eax
  4017ea:	48 85 c0             	test   %rax,%rax
  4017ed:	74 11                	je     401800 <deregister_tm_clones+0x30>
  4017ef:	5d                   	pop    %rbp
  4017f0:	bf 70 c1 64 00       	mov    $0x64c170,%edi
  4017f5:	ff e0                	jmpq   *%rax
  4017f7:	66 0f 1f 84 00 00 00 	nopw   0x0(%rax,%rax,1)
  4017fe:	00 00 
  401800:	5d                   	pop    %rbp
  401801:	c3                   	retq   
  401802:	0f 1f 40 00          	nopl   0x0(%rax)
  401806:	66 2e 0f 1f 84 00 00 	nopw   %cs:0x0(%rax,%rax,1)
  40180d:	00 00 00 

0000000000401810 <register_tm_clones>:
  401810:	be 70 c1 64 00       	mov    $0x64c170,%esi
  401815:	55                   	push   %rbp
  401816:	48 81 ee 70 c1 64 00 	sub    $0x64c170,%rsi
  40181d:	48 c1 fe 03          	sar    $0x3,%rsi
  401821:	48 89 e5             	mov    %rsp,%rbp
  401824:	48 89 f0             	mov    %rsi,%rax
  401827:	48 c1 e8 3f          	shr    $0x3f,%rax
  40182b:	48 01 c6             	add    %rax,%rsi
  40182e:	48 d1 fe             	sar    %rsi
  401831:	74 15                	je     401848 <register_tm_clones+0x38>
  401833:	b8 00 00 00 00       	mov    $0x0,%eax
  401838:	48 85 c0             	test   %rax,%rax
  40183b:	74 0b                	je     401848 <register_tm_clones+0x38>
  40183d:	5d                   	pop    %rbp
  40183e:	bf 70 c1 64 00       	mov    $0x64c170,%edi
  401843:	ff e0                	jmpq   *%rax
  401845:	0f 1f 00             	nopl   (%rax)
  401848:	5d                   	pop    %rbp
  401849:	c3                   	retq   
  40184a:	66 0f 1f 44 00 00    	nopw   0x0(%rax,%rax,1)

0000000000401850 <__do_global_dtors_aux>:
  401850:	80 3d 61 ab 24 00 00 	cmpb   $0x0,0x24ab61(%rip)        # 64c3b8 <completed.7585>
  401857:	75 11                	jne    40186a <__do_global_dtors_aux+0x1a>
  401859:	55                   	push   %rbp
  40185a:	48 89 e5             	mov    %rsp,%rbp
  40185d:	e8 6e ff ff ff       	callq  4017d0 <deregister_tm_clones>
  401862:	5d                   	pop    %rbp
  401863:	c6 05 4e ab 24 00 01 	movb   $0x1,0x24ab4e(%rip)        # 64c3b8 <completed.7585>
  40186a:	f3 c3                	repz retq 
  40186c:	0f 1f 40 00          	nopl   0x0(%rax)

0000000000401870 <frame_dummy>:
  401870:	bf e0 bd 64 00       	mov    $0x64bde0,%edi
  401875:	48 83 3f 00          	cmpq   $0x0,(%rdi)
  401879:	75 05                	jne    401880 <frame_dummy+0x10>
  40187b:	eb 93                	jmp    401810 <register_tm_clones>
  40187d:	0f 1f 00             	nopl   (%rax)
  401880:	b8 00 00 00 00       	mov    $0x0,%eax
  401885:	48 85 c0             	test   %rax,%rax
  401888:	74 f1                	je     40187b <frame_dummy+0xb>
  40188a:	55                   	push   %rbp
  40188b:	48 89 e5             	mov    %rsp,%rbp
  40188e:	ff d0                	callq  *%rax
  401890:	5d                   	pop    %rbp
  401891:	e9 7a ff ff ff       	jmpq   401810 <register_tm_clones>
  401896:	66 2e 0f 1f 84 00 00 	nopw   %cs:0x0(%rax,%rax,1)
  40189d:	00 00 00 

00000000004018a0 <_ZN15CPU_MATHEMATICS10copy_stackIPiPKiEEvRT_T0_i._omp_fn.0>:
  4018a0:	41 54                	push   %r12
  4018a2:	55                   	push   %rbp
  4018a3:	48 89 fd             	mov    %rdi,%rbp
  4018a6:	53                   	push   %rbx
  4018a7:	8b 5f 10             	mov    0x10(%rdi),%ebx
  4018aa:	e8 b1 fd ff ff       	callq  401660 <omp_get_num_threads@plt>
  4018af:	41 89 c4             	mov    %eax,%r12d
  4018b2:	e8 09 fd ff ff       	callq  4015c0 <omp_get_thread_num@plt>
  4018b7:	89 c1                	mov    %eax,%ecx
  4018b9:	89 d8                	mov    %ebx,%eax
  4018bb:	99                   	cltd   
  4018bc:	41 f7 fc             	idiv   %r12d
  4018bf:	39 d1                	cmp    %edx,%ecx
  4018c1:	7d 05                	jge    4018c8 <_ZN15CPU_MATHEMATICS10copy_stackIPiPKiEEvRT_T0_i._omp_fn.0+0x28>
  4018c3:	83 c0 01             	add    $0x1,%eax
  4018c6:	31 d2                	xor    %edx,%edx
  4018c8:	0f af c8             	imul   %eax,%ecx
  4018cb:	01 ca                	add    %ecx,%edx
  4018cd:	01 d0                	add    %edx,%eax
  4018cf:	39 c2                	cmp    %eax,%edx
  4018d1:	0f 8d 13 01 00 00    	jge    4019ea <_ZN15CPU_MATHEMATICS10copy_stackIPiPKiEEvRT_T0_i._omp_fn.0+0x14a>
  4018d7:	48 8b 4d 00          	mov    0x0(%rbp),%rcx
  4018db:	4c 8b 45 08          	mov    0x8(%rbp),%r8
  4018df:	48 63 f2             	movslq %edx,%rsi
  4018e2:	41 89 c3             	mov    %eax,%r11d
  4018e5:	41 29 d3             	sub    %edx,%r11d
  4018e8:	48 8b 39             	mov    (%rcx),%rdi
  4018eb:	48 8d 0c b5 10 00 00 	lea    0x10(,%rsi,4),%rcx
  4018f2:	00 
  4018f3:	48 c1 e6 02          	shl    $0x2,%rsi
  4018f7:	4d 8d 0c 30          	lea    (%r8,%rsi,1),%r9
  4018fb:	48 8d 1c 0f          	lea    (%rdi,%rcx,1),%rbx
  4018ff:	4c 8d 14 37          	lea    (%rdi,%rsi,1),%r10
  401903:	49 39 d9             	cmp    %rbx,%r9
  401906:	0f 93 c3             	setae  %bl
  401909:	4c 01 c1             	add    %r8,%rcx
  40190c:	49 39 ca             	cmp    %rcx,%r10
  40190f:	0f 93 c1             	setae  %cl
  401912:	08 cb                	or     %cl,%bl
  401914:	0f 84 d6 00 00 00    	je     4019f0 <_ZN15CPU_MATHEMATICS10copy_stackIPiPKiEEvRT_T0_i._omp_fn.0+0x150>
  40191a:	41 83 fb 0c          	cmp    $0xc,%r11d
  40191e:	0f 86 cc 00 00 00    	jbe    4019f0 <_ZN15CPU_MATHEMATICS10copy_stackIPiPKiEEvRT_T0_i._omp_fn.0+0x150>
  401924:	4c 89 c9             	mov    %r9,%rcx
  401927:	83 e1 0f             	and    $0xf,%ecx
  40192a:	48 c1 e9 02          	shr    $0x2,%rcx
  40192e:	48 f7 d9             	neg    %rcx
  401931:	83 e1 03             	and    $0x3,%ecx
  401934:	44 39 d9             	cmp    %r11d,%ecx
  401937:	49 0f 47 cb          	cmova  %r11,%rcx
  40193b:	85 c9                	test   %ecx,%ecx
  40193d:	74 39                	je     401978 <_ZN15CPU_MATHEMATICS10copy_stackIPiPKiEEvRT_T0_i._omp_fn.0+0xd8>
  40193f:	45 8b 09             	mov    (%r9),%r9d
  401942:	83 f9 01             	cmp    $0x1,%ecx
  401945:	45 89 0a             	mov    %r9d,(%r10)
  401948:	44 8d 4a 01          	lea    0x1(%rdx),%r9d
  40194c:	0f 84 ce 00 00 00    	je     401a20 <_ZN15CPU_MATHEMATICS10copy_stackIPiPKiEEvRT_T0_i._omp_fn.0+0x180>
  401952:	4d 63 c9             	movslq %r9d,%r9
  401955:	83 f9 03             	cmp    $0x3,%ecx
  401958:	47 8b 14 88          	mov    (%r8,%r9,4),%r10d
  40195c:	46 89 14 8f          	mov    %r10d,(%rdi,%r9,4)
  401960:	44 8d 4a 02          	lea    0x2(%rdx),%r9d
  401964:	0f 85 b6 00 00 00    	jne    401a20 <_ZN15CPU_MATHEMATICS10copy_stackIPiPKiEEvRT_T0_i._omp_fn.0+0x180>
  40196a:	4d 63 c9             	movslq %r9d,%r9
  40196d:	83 c2 03             	add    $0x3,%edx
  401970:	47 8b 14 88          	mov    (%r8,%r9,4),%r10d
  401974:	46 89 14 8f          	mov    %r10d,(%rdi,%r9,4)
  401978:	41 29 cb             	sub    %ecx,%r11d
  40197b:	48 8d 0c 8e          	lea    (%rsi,%rcx,4),%rcx
  40197f:	45 31 d2             	xor    %r10d,%r10d
  401982:	45 8d 4b fc          	lea    -0x4(%r11),%r9d
  401986:	49 8d 2c 08          	lea    (%r8,%rcx,1),%rbp
  40198a:	48 8d 34 0f          	lea    (%rdi,%rcx,1),%rsi
  40198e:	31 c9                	xor    %ecx,%ecx
  401990:	41 c1 e9 02          	shr    $0x2,%r9d
  401994:	41 83 c1 01          	add    $0x1,%r9d
  401998:	42 8d 1c 8d 00 00 00 	lea    0x0(,%r9,4),%ebx
  40199f:	00 
  4019a0:	66 0f 6f 44 0d 00    	movdqa 0x0(%rbp,%rcx,1),%xmm0
  4019a6:	41 83 c2 01          	add    $0x1,%r10d
  4019aa:	0f 11 04 0e          	movups %xmm0,(%rsi,%rcx,1)
  4019ae:	48 83 c1 10          	add    $0x10,%rcx
  4019b2:	45 39 ca             	cmp    %r9d,%r10d
  4019b5:	72 e9                	jb     4019a0 <_ZN15CPU_MATHEMATICS10copy_stackIPiPKiEEvRT_T0_i._omp_fn.0+0x100>
  4019b7:	01 da                	add    %ebx,%edx
  4019b9:	41 39 db             	cmp    %ebx,%r11d
  4019bc:	74 2c                	je     4019ea <_ZN15CPU_MATHEMATICS10copy_stackIPiPKiEEvRT_T0_i._omp_fn.0+0x14a>
  4019be:	48 63 ca             	movslq %edx,%rcx
  4019c1:	41 8b 34 88          	mov    (%r8,%rcx,4),%esi
  4019c5:	89 34 8f             	mov    %esi,(%rdi,%rcx,4)
  4019c8:	8d 4a 01             	lea    0x1(%rdx),%ecx
  4019cb:	39 c8                	cmp    %ecx,%eax
  4019cd:	7e 1b                	jle    4019ea <_ZN15CPU_MATHEMATICS10copy_stackIPiPKiEEvRT_T0_i._omp_fn.0+0x14a>
  4019cf:	48 63 c9             	movslq %ecx,%rcx
  4019d2:	83 c2 02             	add    $0x2,%edx
  4019d5:	41 8b 34 88          	mov    (%r8,%rcx,4),%esi
  4019d9:	39 d0                	cmp    %edx,%eax
  4019db:	89 34 8f             	mov    %esi,(%rdi,%rcx,4)
  4019de:	7e 0a                	jle    4019ea <_ZN15CPU_MATHEMATICS10copy_stackIPiPKiEEvRT_T0_i._omp_fn.0+0x14a>
  4019e0:	48 63 d2             	movslq %edx,%rdx
  4019e3:	41 8b 04 90          	mov    (%r8,%rdx,4),%eax
  4019e7:	89 04 97             	mov    %eax,(%rdi,%rdx,4)
  4019ea:	5b                   	pop    %rbx
  4019eb:	5d                   	pop    %rbp
  4019ec:	41 5c                	pop    %r12
  4019ee:	c3                   	retq   
  4019ef:	90                   	nop
  4019f0:	41 8d 4b ff          	lea    -0x1(%r11),%ecx
  4019f4:	31 c0                	xor    %eax,%eax
  4019f6:	48 83 c1 01          	add    $0x1,%rcx
  4019fa:	66 0f 1f 44 00 00    	nopw   0x0(%rax,%rax,1)
  401a00:	41 8b 14 81          	mov    (%r9,%rax,4),%edx
  401a04:	41 89 14 82          	mov    %edx,(%r10,%rax,4)
  401a08:	48 83 c0 01          	add    $0x1,%rax
  401a0c:	48 39 c8             	cmp    %rcx,%rax
  401a0f:	75 ef                	jne    401a00 <_ZN15CPU_MATHEMATICS10copy_stackIPiPKiEEvRT_T0_i._omp_fn.0+0x160>
  401a11:	5b                   	pop    %rbx
  401a12:	5d                   	pop    %rbp
  401a13:	41 5c                	pop    %r12
  401a15:	c3                   	retq   
  401a16:	66 2e 0f 1f 84 00 00 	nopw   %cs:0x0(%rax,%rax,1)
  401a1d:	00 00 00 
  401a20:	44 89 ca             	mov    %r9d,%edx
  401a23:	e9 50 ff ff ff       	jmpq   401978 <_ZN15CPU_MATHEMATICS10copy_stackIPiPKiEEvRT_T0_i._omp_fn.0+0xd8>
  401a28:	0f 1f 84 00 00 00 00 	nopl   0x0(%rax,%rax,1)
  401a2f:	00 

0000000000401a30 <_ZN15CPU_MATHEMATICS9randomizeI10continuousIfS_EfEEvT_T0_S4_i._omp_fn.1>:
  401a30:	41 55                	push   %r13
  401a32:	41 54                	push   %r12
  401a34:	55                   	push   %rbp
  401a35:	53                   	push   %rbx
  401a36:	48 89 fd             	mov    %rdi,%rbp
  401a39:	48 83 ec 08          	sub    $0x8,%rsp
  401a3d:	8b 5f 10             	mov    0x10(%rdi),%ebx
  401a40:	e8 1b fc ff ff       	callq  401660 <omp_get_num_threads@plt>
  401a45:	41 89 c4             	mov    %eax,%r12d
  401a48:	e8 73 fb ff ff       	callq  4015c0 <omp_get_thread_num@plt>
  401a4d:	89 c1                	mov    %eax,%ecx
  401a4f:	89 d8                	mov    %ebx,%eax
  401a51:	99                   	cltd   
  401a52:	41 f7 fc             	idiv   %r12d
  401a55:	39 d1                	cmp    %edx,%ecx
  401a57:	7d 05                	jge    401a5e <_ZN15CPU_MATHEMATICS9randomizeI10continuousIfS_EfEEvT_T0_S4_i._omp_fn.1+0x2e>
  401a59:	83 c0 01             	add    $0x1,%eax
  401a5c:	31 d2                	xor    %edx,%edx
  401a5e:	0f af c8             	imul   %eax,%ecx
  401a61:	01 ca                	add    %ecx,%edx
  401a63:	01 d0                	add    %edx,%eax
  401a65:	39 c2                	cmp    %eax,%edx
  401a67:	7d 74                	jge    401add <_ZN15CPU_MATHEMATICS9randomizeI10continuousIfS_EfEEvT_T0_S4_i._omp_fn.1+0xad>
  401a69:	29 d0                	sub    %edx,%eax
  401a6b:	48 63 ca             	movslq %edx,%rcx
  401a6e:	83 e8 01             	sub    $0x1,%eax
  401a71:	48 8d 1c 8d 00 00 00 	lea    0x0(,%rcx,4),%rbx
  401a78:	00 
  401a79:	4c 8d 6c 01 01       	lea    0x1(%rcx,%rax,1),%r13
  401a7e:	49 c1 e5 02          	shl    $0x2,%r13
  401a82:	66 0f 1f 44 00 00    	nopw   0x0(%rax,%rax,1)
  401a88:	48 8b 45 00          	mov    0x0(%rbp),%rax
  401a8c:	49 89 dc             	mov    %rbx,%r12
  401a8f:	48 83 c3 04          	add    $0x4,%rbx
  401a93:	4c 03 60 08          	add    0x8(%rax),%r12
  401a97:	e8 94 f9 ff ff       	callq  401430 <rand@plt>
  401a9c:	66 0f ef c0          	pxor   %xmm0,%xmm0
  401aa0:	49 39 dd             	cmp    %rbx,%r13
  401aa3:	f3 0f 10 55 08       	movss  0x8(%rbp),%xmm2
  401aa8:	f3 0f 10 4d 0c       	movss  0xc(%rbp),%xmm1
  401aad:	66 0f ef db          	pxor   %xmm3,%xmm3
  401ab1:	f2 0f 2a c0          	cvtsi2sd %eax,%xmm0
  401ab5:	f3 0f 5c ca          	subss  %xmm2,%xmm1
  401ab9:	f3 0f 5a d2          	cvtss2sd %xmm2,%xmm2
  401abd:	f3 0f 5a c9          	cvtss2sd %xmm1,%xmm1
  401ac1:	f2 0f 59 05 1f d7 03 	mulsd  0x3d71f(%rip),%xmm0        # 43f1e8 <_ZTV6MatrixId15CPU_MATHEMATICS10continuousIdS0_EE+0x40>
  401ac8:	00 
  401ac9:	f2 0f 59 c1          	mulsd  %xmm1,%xmm0
  401acd:	f2 0f 58 c2          	addsd  %xmm2,%xmm0
  401ad1:	f2 0f 5a d8          	cvtsd2ss %xmm0,%xmm3
  401ad5:	f3 41 0f 11 1c 24    	movss  %xmm3,(%r12)
  401adb:	75 ab                	jne    401a88 <_ZN15CPU_MATHEMATICS9randomizeI10continuousIfS_EfEEvT_T0_S4_i._omp_fn.1+0x58>
  401add:	48 83 c4 08          	add    $0x8,%rsp
  401ae1:	5b                   	pop    %rbx
  401ae2:	5d                   	pop    %rbp
  401ae3:	41 5c                	pop    %r12
  401ae5:	41 5d                	pop    %r13
  401ae7:	c3                   	retq   
  401ae8:	0f 1f 84 00 00 00 00 	nopl   0x0(%rax,%rax,1)
  401aef:	00 

0000000000401af0 <_Z3addPdS_S_i._omp_fn.2>:
  401af0:	41 55                	push   %r13
  401af2:	41 54                	push   %r12
  401af4:	55                   	push   %rbp
  401af5:	53                   	push   %rbx
  401af6:	48 89 fd             	mov    %rdi,%rbp
  401af9:	48 83 ec 08          	sub    $0x8,%rsp
  401afd:	8b 5f 18             	mov    0x18(%rdi),%ebx
  401b00:	e8 5b fb ff ff       	callq  401660 <omp_get_num_threads@plt>
  401b05:	41 89 c4             	mov    %eax,%r12d
  401b08:	e8 b3 fa ff ff       	callq  4015c0 <omp_get_thread_num@plt>
  401b0d:	89 c1                	mov    %eax,%ecx
  401b0f:	89 d8                	mov    %ebx,%eax
  401b11:	99                   	cltd   
  401b12:	41 f7 fc             	idiv   %r12d
  401b15:	39 d1                	cmp    %edx,%ecx
  401b17:	7d 05                	jge    401b1e <_Z3addPdS_S_i._omp_fn.2+0x2e>
  401b19:	83 c0 01             	add    $0x1,%eax
  401b1c:	31 d2                	xor    %edx,%edx
  401b1e:	0f af c8             	imul   %eax,%ecx
  401b21:	01 ca                	add    %ecx,%edx
  401b23:	01 d0                	add    %edx,%eax
  401b25:	39 c2                	cmp    %eax,%edx
  401b27:	0f 8d e9 00 00 00    	jge    401c16 <_Z3addPdS_S_i._omp_fn.2+0x126>
  401b2d:	4c 8b 45 00          	mov    0x0(%rbp),%r8
  401b31:	4c 8b 4d 08          	mov    0x8(%rbp),%r9
  401b35:	48 63 f2             	movslq %edx,%rsi
  401b38:	48 8d 0c f5 10 00 00 	lea    0x10(,%rsi,8),%rcx
  401b3f:	00 
  401b40:	48 c1 e6 03          	shl    $0x3,%rsi
  401b44:	48 8b 7d 10          	mov    0x10(%rbp),%rdi
  401b48:	29 d0                	sub    %edx,%eax
  401b4a:	49 8d 2c 09          	lea    (%r9,%rcx,1),%rbp
  401b4e:	4d 8d 14 30          	lea    (%r8,%rsi,1),%r10
  401b52:	4d 8d 24 08          	lea    (%r8,%rcx,1),%r12
  401b56:	4d 8d 1c 31          	lea    (%r9,%rsi,1),%r11
  401b5a:	48 8d 1c 37          	lea    (%rdi,%rsi,1),%rbx
  401b5e:	49 39 ea             	cmp    %rbp,%r10
  401b61:	41 0f 93 c5          	setae  %r13b
  401b65:	4d 39 e3             	cmp    %r12,%r11
  401b68:	40 0f 93 c5          	setae  %bpl
  401b6c:	48 01 f9             	add    %rdi,%rcx
  401b6f:	44 09 ed             	or     %r13d,%ebp
  401b72:	49 39 ca             	cmp    %rcx,%r10
  401b75:	41 0f 93 c5          	setae  %r13b
  401b79:	49 39 dc             	cmp    %rbx,%r12
  401b7c:	0f 96 c1             	setbe  %cl
  401b7f:	44 09 e9             	or     %r13d,%ecx
  401b82:	40 84 cd             	test   %cl,%bpl
  401b85:	0f 84 9d 00 00 00    	je     401c28 <_Z3addPdS_S_i._omp_fn.2+0x138>
  401b8b:	83 f8 0e             	cmp    $0xe,%eax
  401b8e:	0f 86 94 00 00 00    	jbe    401c28 <_Z3addPdS_S_i._omp_fn.2+0x138>
  401b94:	4c 89 d9             	mov    %r11,%rcx
  401b97:	48 c1 e1 3c          	shl    $0x3c,%rcx
  401b9b:	48 c1 e9 3f          	shr    $0x3f,%rcx
  401b9f:	39 c1                	cmp    %eax,%ecx
  401ba1:	0f 47 c8             	cmova  %eax,%ecx
  401ba4:	85 c9                	test   %ecx,%ecx
  401ba6:	74 11                	je     401bb9 <_Z3addPdS_S_i._omp_fn.2+0xc9>
  401ba8:	f2 41 0f 10 03       	movsd  (%r11),%xmm0
  401bad:	83 c2 01             	add    $0x1,%edx
  401bb0:	f2 0f 58 03          	addsd  (%rbx),%xmm0
  401bb4:	f2 41 0f 11 02       	movsd  %xmm0,(%r10)
  401bb9:	29 c8                	sub    %ecx,%eax
  401bbb:	89 c9                	mov    %ecx,%ecx
  401bbd:	44 8d 50 fe          	lea    -0x2(%rax),%r10d
  401bc1:	4c 8d 1c ce          	lea    (%rsi,%rcx,8),%r11
  401bc5:	31 c9                	xor    %ecx,%ecx
  401bc7:	31 f6                	xor    %esi,%esi
  401bc9:	41 d1 ea             	shr    %r10d
  401bcc:	4f 8d 24 19          	lea    (%r9,%r11,1),%r12
  401bd0:	4a 8d 2c 1f          	lea    (%rdi,%r11,1),%rbp
  401bd4:	41 83 c2 01          	add    $0x1,%r10d
  401bd8:	4d 01 c3             	add    %r8,%r11
  401bdb:	43 8d 1c 12          	lea    (%r10,%r10,1),%ebx
  401bdf:	66 0f 10 44 0d 00    	movupd 0x0(%rbp,%rcx,1),%xmm0
  401be5:	83 c6 01             	add    $0x1,%esi
  401be8:	66 41 0f 58 04 0c    	addpd  (%r12,%rcx,1),%xmm0
  401bee:	41 0f 11 04 0b       	movups %xmm0,(%r11,%rcx,1)
  401bf3:	48 83 c1 10          	add    $0x10,%rcx
  401bf7:	44 39 d6             	cmp    %r10d,%esi
  401bfa:	72 e3                	jb     401bdf <_Z3addPdS_S_i._omp_fn.2+0xef>
  401bfc:	01 da                	add    %ebx,%edx
  401bfe:	39 d8                	cmp    %ebx,%eax
  401c00:	74 14                	je     401c16 <_Z3addPdS_S_i._omp_fn.2+0x126>
  401c02:	48 63 d2             	movslq %edx,%rdx
  401c05:	f2 41 0f 10 04 d1    	movsd  (%r9,%rdx,8),%xmm0
  401c0b:	f2 0f 58 04 d7       	addsd  (%rdi,%rdx,8),%xmm0
  401c10:	f2 41 0f 11 04 d0    	movsd  %xmm0,(%r8,%rdx,8)
  401c16:	48 83 c4 08          	add    $0x8,%rsp
  401c1a:	5b                   	pop    %rbx
  401c1b:	5d                   	pop    %rbp
  401c1c:	41 5c                	pop    %r12
  401c1e:	41 5d                	pop    %r13
  401c20:	c3                   	retq   
  401c21:	0f 1f 80 00 00 00 00 	nopl   0x0(%rax)
  401c28:	8d 50 ff             	lea    -0x1(%rax),%edx
  401c2b:	31 c0                	xor    %eax,%eax
  401c2d:	48 83 c2 01          	add    $0x1,%rdx
  401c31:	0f 1f 80 00 00 00 00 	nopl   0x0(%rax)
  401c38:	f2 41 0f 10 04 c3    	movsd  (%r11,%rax,8),%xmm0
  401c3e:	f2 0f 58 04 c3       	addsd  (%rbx,%rax,8),%xmm0
  401c43:	f2 41 0f 11 04 c2    	movsd  %xmm0,(%r10,%rax,8)
  401c49:	48 83 c0 01          	add    $0x1,%rax
  401c4d:	48 39 c2             	cmp    %rax,%rdx
  401c50:	75 e6                	jne    401c38 <_Z3addPdS_S_i._omp_fn.2+0x148>
  401c52:	48 83 c4 08          	add    $0x8,%rsp
  401c56:	5b                   	pop    %rbx
  401c57:	5d                   	pop    %rbp
  401c58:	41 5c                	pop    %r12
  401c5a:	41 5d                	pop    %r13
  401c5c:	c3                   	retq   
  401c5d:	0f 1f 00             	nopl   (%rax)

0000000000401c60 <_Z3addPdS_S_S_i._omp_fn.3>:
  401c60:	41 57                	push   %r15
  401c62:	41 56                	push   %r14
  401c64:	41 55                	push   %r13
  401c66:	41 54                	push   %r12
  401c68:	49 89 fc             	mov    %rdi,%r12
  401c6b:	55                   	push   %rbp
  401c6c:	53                   	push   %rbx
  401c6d:	48 83 ec 18          	sub    $0x18,%rsp
  401c71:	8b 5f 20             	mov    0x20(%rdi),%ebx
  401c74:	e8 e7 f9 ff ff       	callq  401660 <omp_get_num_threads@plt>
  401c79:	89 c5                	mov    %eax,%ebp
  401c7b:	e8 40 f9 ff ff       	callq  4015c0 <omp_get_thread_num@plt>
  401c80:	89 c1                	mov    %eax,%ecx
  401c82:	89 d8                	mov    %ebx,%eax
  401c84:	99                   	cltd   
  401c85:	f7 fd                	idiv   %ebp
  401c87:	39 d1                	cmp    %edx,%ecx
  401c89:	7d 05                	jge    401c90 <_Z3addPdS_S_S_i._omp_fn.3+0x30>
  401c8b:	83 c0 01             	add    $0x1,%eax
  401c8e:	31 d2                	xor    %edx,%edx
  401c90:	0f af c8             	imul   %eax,%ecx
  401c93:	01 ca                	add    %ecx,%edx
  401c95:	01 d0                	add    %edx,%eax
  401c97:	39 c2                	cmp    %eax,%edx
  401c99:	0f 8d 33 01 00 00    	jge    401dd2 <_Z3addPdS_S_S_i._omp_fn.3+0x172>
  401c9f:	4d 8b 1c 24          	mov    (%r12),%r11
  401ca3:	49 8b 6c 24 08       	mov    0x8(%r12),%rbp
  401ca8:	48 63 ca             	movslq %edx,%rcx
  401cab:	48 8d 3c cd 10 00 00 	lea    0x10(,%rcx,8),%rdi
  401cb2:	00 
  401cb3:	48 c1 e1 03          	shl    $0x3,%rcx
  401cb7:	49 8b 5c 24 10       	mov    0x10(%r12),%rbx
  401cbc:	29 d0                	sub    %edx,%eax
  401cbe:	4d 8b 64 24 18       	mov    0x18(%r12),%r12
  401cc3:	49 8d 34 0b          	lea    (%r11,%rcx,1),%rsi
  401cc7:	4c 8d 6c 3d 00       	lea    0x0(%rbp,%rdi,1),%r13
  401ccc:	4d 8d 34 3b          	lea    (%r11,%rdi,1),%r14
  401cd0:	4c 8d 44 0d 00       	lea    0x0(%rbp,%rcx,1),%r8
  401cd5:	4c 8d 0c 0b          	lea    (%rbx,%rcx,1),%r9
  401cd9:	4c 39 ee             	cmp    %r13,%rsi
  401cdc:	4d 8d 14 0c          	lea    (%r12,%rcx,1),%r10
  401ce0:	41 0f 93 c7          	setae  %r15b
  401ce4:	4d 39 f0             	cmp    %r14,%r8
  401ce7:	41 0f 93 c5          	setae  %r13b
  401ceb:	45 09 fd             	or     %r15d,%r13d
  401cee:	4c 8d 3c 3b          	lea    (%rbx,%rdi,1),%r15
  401cf2:	4c 39 fe             	cmp    %r15,%rsi
  401cf5:	41 0f 93 c7          	setae  %r15b
  401cf9:	4d 39 ce             	cmp    %r9,%r14
  401cfc:	0f 96 44 24 0f       	setbe  0xf(%rsp)
  401d01:	44 0a 7c 24 0f       	or     0xf(%rsp),%r15b
  401d06:	45 21 fd             	and    %r15d,%r13d
  401d09:	83 f8 0a             	cmp    $0xa,%eax
  401d0c:	41 0f 97 c7          	seta   %r15b
  401d10:	45 84 fd             	test   %r15b,%r13b
  401d13:	0f 84 cf 00 00 00    	je     401de8 <_Z3addPdS_S_S_i._omp_fn.3+0x188>
  401d19:	4c 01 e7             	add    %r12,%rdi
  401d1c:	48 39 fe             	cmp    %rdi,%rsi
  401d1f:	41 0f 93 c5          	setae  %r13b
  401d23:	4d 39 d6             	cmp    %r10,%r14
  401d26:	40 0f 96 c7          	setbe  %dil
  401d2a:	41 08 fd             	or     %dil,%r13b
  401d2d:	0f 84 b5 00 00 00    	je     401de8 <_Z3addPdS_S_S_i._omp_fn.3+0x188>
  401d33:	4c 89 c7             	mov    %r8,%rdi
  401d36:	48 c1 e7 3c          	shl    $0x3c,%rdi
  401d3a:	48 c1 ef 3f          	shr    $0x3f,%rdi
  401d3e:	39 c7                	cmp    %eax,%edi
  401d40:	0f 47 f8             	cmova  %eax,%edi
  401d43:	85 ff                	test   %edi,%edi
  401d45:	74 16                	je     401d5d <_Z3addPdS_S_S_i._omp_fn.3+0xfd>
  401d47:	f2 41 0f 10 00       	movsd  (%r8),%xmm0
  401d4c:	83 c2 01             	add    $0x1,%edx
  401d4f:	f2 41 0f 58 01       	addsd  (%r9),%xmm0
  401d54:	f2 41 0f 58 02       	addsd  (%r10),%xmm0
  401d59:	f2 0f 11 06          	movsd  %xmm0,(%rsi)
  401d5d:	29 f8                	sub    %edi,%eax
  401d5f:	89 ff                	mov    %edi,%edi
  401d61:	31 f6                	xor    %esi,%esi
  401d63:	44 8d 48 fe          	lea    -0x2(%rax),%r9d
  401d67:	48 8d 0c f9          	lea    (%rcx,%rdi,8),%rcx
  401d6b:	41 d1 e9             	shr    %r9d
  401d6e:	4c 8d 74 0d 00       	lea    0x0(%rbp,%rcx,1),%r14
  401d73:	4c 8d 2c 0b          	lea    (%rbx,%rcx,1),%r13
  401d77:	41 83 c1 01          	add    $0x1,%r9d
  401d7b:	4d 8d 14 0c          	lea    (%r12,%rcx,1),%r10
  401d7f:	49 8d 3c 0b          	lea    (%r11,%rcx,1),%rdi
  401d83:	47 8d 04 09          	lea    (%r9,%r9,1),%r8d
  401d87:	31 c9                	xor    %ecx,%ecx
  401d89:	66 41 0f 10 44 0d 00 	movupd 0x0(%r13,%rcx,1),%xmm0
  401d90:	83 c6 01             	add    $0x1,%esi
  401d93:	66 41 0f 58 04 0e    	addpd  (%r14,%rcx,1),%xmm0
  401d99:	66 41 0f 10 0c 0a    	movupd (%r10,%rcx,1),%xmm1
  401d9f:	66 0f 58 c1          	addpd  %xmm1,%xmm0
  401da3:	0f 11 04 0f          	movups %xmm0,(%rdi,%rcx,1)
  401da7:	48 83 c1 10          	add    $0x10,%rcx
  401dab:	44 39 ce             	cmp    %r9d,%esi
  401dae:	72 d9                	jb     401d89 <_Z3addPdS_S_S_i._omp_fn.3+0x129>
  401db0:	44 01 c2             	add    %r8d,%edx
  401db3:	44 39 c0             	cmp    %r8d,%eax
  401db6:	74 1a                	je     401dd2 <_Z3addPdS_S_S_i._omp_fn.3+0x172>
  401db8:	48 63 d2             	movslq %edx,%rdx
  401dbb:	f2 0f 10 44 d5 00    	movsd  0x0(%rbp,%rdx,8),%xmm0
  401dc1:	f2 0f 58 04 d3       	addsd  (%rbx,%rdx,8),%xmm0
  401dc6:	f2 41 0f 58 04 d4    	addsd  (%r12,%rdx,8),%xmm0
  401dcc:	f2 41 0f 11 04 d3    	movsd  %xmm0,(%r11,%rdx,8)
  401dd2:	48 83 c4 18          	add    $0x18,%rsp
  401dd6:	5b                   	pop    %rbx
  401dd7:	5d                   	pop    %rbp
  401dd8:	41 5c                	pop    %r12
  401dda:	41 5d                	pop    %r13
  401ddc:	41 5e                	pop    %r14
  401dde:	41 5f                	pop    %r15
  401de0:	c3                   	retq   
  401de1:	0f 1f 80 00 00 00 00 	nopl   0x0(%rax)
  401de8:	8d 50 ff             	lea    -0x1(%rax),%edx
  401deb:	31 c0                	xor    %eax,%eax
  401ded:	48 83 c2 01          	add    $0x1,%rdx
  401df1:	0f 1f 80 00 00 00 00 	nopl   0x0(%rax)
  401df8:	f2 41 0f 10 04 c0    	movsd  (%r8,%rax,8),%xmm0
  401dfe:	f2 41 0f 58 04 c1    	addsd  (%r9,%rax,8),%xmm0
  401e04:	f2 41 0f 58 04 c2    	addsd  (%r10,%rax,8),%xmm0
  401e0a:	f2 0f 11 04 c6       	movsd  %xmm0,(%rsi,%rax,8)
  401e0f:	48 83 c0 01          	add    $0x1,%rax
  401e13:	48 39 c2             	cmp    %rax,%rdx
  401e16:	75 e0                	jne    401df8 <_Z3addPdS_S_S_i._omp_fn.3+0x198>
  401e18:	48 83 c4 18          	add    $0x18,%rsp
  401e1c:	5b                   	pop    %rbx
  401e1d:	5d                   	pop    %rbp
  401e1e:	41 5c                	pop    %r12
  401e20:	41 5d                	pop    %r13
  401e22:	41 5e                	pop    %r14
  401e24:	41 5f                	pop    %r15
  401e26:	c3                   	retq   
  401e27:	66 0f 1f 84 00 00 00 	nopw   0x0(%rax,%rax,1)
  401e2e:	00 00 

0000000000401e30 <_ZN15CPU_MATHEMATICS9randomizeI10continuousIdS_EdEEvT_T0_S4_i._omp_fn.4>:
  401e30:	41 55                	push   %r13
  401e32:	41 54                	push   %r12
  401e34:	55                   	push   %rbp
  401e35:	53                   	push   %rbx
  401e36:	48 89 fd             	mov    %rdi,%rbp
  401e39:	48 83 ec 08          	sub    $0x8,%rsp
  401e3d:	8b 5f 18             	mov    0x18(%rdi),%ebx
  401e40:	e8 1b f8 ff ff       	callq  401660 <omp_get_num_threads@plt>
  401e45:	41 89 c4             	mov    %eax,%r12d
  401e48:	e8 73 f7 ff ff       	callq  4015c0 <omp_get_thread_num@plt>
  401e4d:	89 c1                	mov    %eax,%ecx
  401e4f:	89 d8                	mov    %ebx,%eax
  401e51:	99                   	cltd   
  401e52:	41 f7 fc             	idiv   %r12d
  401e55:	39 d1                	cmp    %edx,%ecx
  401e57:	7d 05                	jge    401e5e <_ZN15CPU_MATHEMATICS9randomizeI10continuousIdS_EdEEvT_T0_S4_i._omp_fn.4+0x2e>
  401e59:	83 c0 01             	add    $0x1,%eax
  401e5c:	31 d2                	xor    %edx,%edx
  401e5e:	0f af c8             	imul   %eax,%ecx
  401e61:	01 ca                	add    %ecx,%edx
  401e63:	01 d0                	add    %edx,%eax
  401e65:	39 c2                	cmp    %eax,%edx
  401e67:	7d 64                	jge    401ecd <_ZN15CPU_MATHEMATICS9randomizeI10continuousIdS_EdEEvT_T0_S4_i._omp_fn.4+0x9d>
  401e69:	29 d0                	sub    %edx,%eax
  401e6b:	48 63 ca             	movslq %edx,%rcx
  401e6e:	83 e8 01             	sub    $0x1,%eax
  401e71:	48 8d 1c cd 00 00 00 	lea    0x0(,%rcx,8),%rbx
  401e78:	00 
  401e79:	4c 8d 6c 01 01       	lea    0x1(%rcx,%rax,1),%r13
  401e7e:	49 c1 e5 03          	shl    $0x3,%r13
  401e82:	66 0f 1f 44 00 00    	nopw   0x0(%rax,%rax,1)
  401e88:	48 8b 45 00          	mov    0x0(%rbp),%rax
  401e8c:	49 89 dc             	mov    %rbx,%r12
  401e8f:	48 83 c3 08          	add    $0x8,%rbx
  401e93:	4c 03 60 08          	add    0x8(%rax),%r12
  401e97:	e8 94 f5 ff ff       	callq  401430 <rand@plt>
  401e9c:	66 0f ef c0          	pxor   %xmm0,%xmm0
  401ea0:	49 39 dd             	cmp    %rbx,%r13
  401ea3:	f2 0f 10 55 08       	movsd  0x8(%rbp),%xmm2
  401ea8:	f2 0f 10 4d 10       	movsd  0x10(%rbp),%xmm1
  401ead:	f2 0f 2a c0          	cvtsi2sd %eax,%xmm0
  401eb1:	f2 0f 5c ca          	subsd  %xmm2,%xmm1
  401eb5:	f2 0f 59 05 2b d3 03 	mulsd  0x3d32b(%rip),%xmm0        # 43f1e8 <_ZTV6MatrixId15CPU_MATHEMATICS10continuousIdS0_EE+0x40>
  401ebc:	00 
  401ebd:	f2 0f 59 c1          	mulsd  %xmm1,%xmm0
  401ec1:	f2 0f 58 c2          	addsd  %xmm2,%xmm0
  401ec5:	f2 41 0f 11 04 24    	movsd  %xmm0,(%r12)
  401ecb:	75 bb                	jne    401e88 <_ZN15CPU_MATHEMATICS9randomizeI10continuousIdS_EdEEvT_T0_S4_i._omp_fn.4+0x58>
  401ecd:	48 83 c4 08          	add    $0x8,%rsp
  401ed1:	5b                   	pop    %rbx
  401ed2:	5d                   	pop    %rbp
  401ed3:	41 5c                	pop    %r12
  401ed5:	41 5d                	pop    %r13
  401ed7:	c3                   	retq   
  401ed8:	0f 1f 84 00 00 00 00 	nopl   0x0(%rax,%rax,1)
  401edf:	00 

0000000000401ee0 <_ZNSt7__cxx1112basic_stringIcSt11char_traitsIcESaIcEE12_M_constructIPKcEEvT_S8_St20forward_iterator_tag.isra.28>:
  401ee0:	41 54                	push   %r12
  401ee2:	55                   	push   %rbp
  401ee3:	49 89 f4             	mov    %rsi,%r12
  401ee6:	53                   	push   %rbx
  401ee7:	48 89 fd             	mov    %rdi,%rbp
  401eea:	48 83 ec 10          	sub    $0x10,%rsp
  401eee:	64 48 8b 04 25 28 00 	mov    %fs:0x28,%rax
  401ef5:	00 00 
  401ef7:	48 89 44 24 08       	mov    %rax,0x8(%rsp)
  401efc:	31 c0                	xor    %eax,%eax
  401efe:	48 85 f6             	test   %rsi,%rsi
  401f01:	75 15                	jne    401f18 <_ZNSt7__cxx1112basic_stringIcSt11char_traitsIcESaIcEE12_M_constructIPKcEEvT_S8_St20forward_iterator_tag.isra.28+0x38>
  401f03:	48 85 d2             	test   %rdx,%rdx
  401f06:	74 10                	je     401f18 <_ZNSt7__cxx1112basic_stringIcSt11char_traitsIcESaIcEE12_M_constructIPKcEEvT_S8_St20forward_iterator_tag.isra.28+0x38>
  401f08:	bf 68 e1 43 00       	mov    $0x43e168,%edi
  401f0d:	e8 9e f5 ff ff       	callq  4014b0 <_ZSt19__throw_logic_errorPKc@plt>
  401f12:	66 0f 1f 44 00 00    	nopw   0x0(%rax,%rax,1)
  401f18:	4c 29 e2             	sub    %r12,%rdx
  401f1b:	48 83 fa 0f          	cmp    $0xf,%rdx
  401f1f:	48 89 d3             	mov    %rdx,%rbx
  401f22:	48 89 14 24          	mov    %rdx,(%rsp)
  401f26:	77 38                	ja     401f60 <_ZNSt7__cxx1112basic_stringIcSt11char_traitsIcESaIcEE12_M_constructIPKcEEvT_S8_St20forward_iterator_tag.isra.28+0x80>
  401f28:	48 83 fb 01          	cmp    $0x1,%rbx
  401f2c:	48 8b 7d 00          	mov    0x0(%rbp),%rdi
  401f30:	74 66                	je     401f98 <_ZNSt7__cxx1112basic_stringIcSt11char_traitsIcESaIcEE12_M_constructIPKcEEvT_S8_St20forward_iterator_tag.isra.28+0xb8>
  401f32:	48 85 db             	test   %rbx,%rbx
  401f35:	75 45                	jne    401f7c <_ZNSt7__cxx1112basic_stringIcSt11char_traitsIcESaIcEE12_M_constructIPKcEEvT_S8_St20forward_iterator_tag.isra.28+0x9c>
  401f37:	48 8b 44 24 08       	mov    0x8(%rsp),%rax
  401f3c:	64 48 33 04 25 28 00 	xor    %fs:0x28,%rax
  401f43:	00 00 
  401f45:	48 89 5d 08          	mov    %rbx,0x8(%rbp)
  401f49:	c6 04 1f 00          	movb   $0x0,(%rdi,%rbx,1)
  401f4d:	75 5a                	jne    401fa9 <_ZNSt7__cxx1112basic_stringIcSt11char_traitsIcESaIcEE12_M_constructIPKcEEvT_S8_St20forward_iterator_tag.isra.28+0xc9>
  401f4f:	48 83 c4 10          	add    $0x10,%rsp
  401f53:	5b                   	pop    %rbx
  401f54:	5d                   	pop    %rbp
  401f55:	41 5c                	pop    %r12
  401f57:	c3                   	retq   
  401f58:	0f 1f 84 00 00 00 00 	nopl   0x0(%rax,%rax,1)
  401f5f:	00 
  401f60:	48 89 ef             	mov    %rbp,%rdi
  401f63:	31 d2                	xor    %edx,%edx
  401f65:	48 89 e6             	mov    %rsp,%rsi
  401f68:	e8 c3 f6 ff ff       	callq  401630 <_ZNSt7__cxx1112basic_stringIcSt11char_traitsIcESaIcEE9_M_createERmm@plt>
  401f6d:	48 89 c7             	mov    %rax,%rdi
  401f70:	48 89 45 00          	mov    %rax,0x0(%rbp)
  401f74:	48 8b 04 24          	mov    (%rsp),%rax
  401f78:	48 89 45 10          	mov    %rax,0x10(%rbp)
  401f7c:	48 89 da             	mov    %rbx,%rdx
  401f7f:	4c 89 e6             	mov    %r12,%rsi
  401f82:	e8 69 f5 ff ff       	callq  4014f0 <memcpy@plt>
  401f87:	48 8b 1c 24          	mov    (%rsp),%rbx
  401f8b:	48 8b 7d 00          	mov    0x0(%rbp),%rdi
  401f8f:	eb a6                	jmp    401f37 <_ZNSt7__cxx1112basic_stringIcSt11char_traitsIcESaIcEE12_M_constructIPKcEEvT_S8_St20forward_iterator_tag.isra.28+0x57>
  401f91:	0f 1f 80 00 00 00 00 	nopl   0x0(%rax)
  401f98:	41 0f b6 04 24       	movzbl (%r12),%eax
  401f9d:	88 07                	mov    %al,(%rdi)
  401f9f:	48 8b 1c 24          	mov    (%rsp),%rbx
  401fa3:	48 8b 7d 00          	mov    0x0(%rbp),%rdi
  401fa7:	eb 8e                	jmp    401f37 <_ZNSt7__cxx1112basic_stringIcSt11char_traitsIcESaIcEE12_M_constructIPKcEEvT_S8_St20forward_iterator_tag.isra.28+0x57>
  401fa9:	e8 92 f5 ff ff       	callq  401540 <__stack_chk_fail@plt>
  401fae:	66 90                	xchg   %ax,%ax

0000000000401fb0 <_ZNSt7__cxx1112basic_stringIcSt11char_traitsIcESaIcEE12_M_constructIPcEEvT_S7_St20forward_iterator_tag.isra.37.constprop.63>:
  401fb0:	55                   	push   %rbp
  401fb1:	53                   	push   %rbx
  401fb2:	48 81 ee e4 e2 43 00 	sub    $0x43e2e4,%rsi
  401fb9:	48 89 fd             	mov    %rdi,%rbp
  401fbc:	48 89 f3             	mov    %rsi,%rbx
  401fbf:	48 83 ec 18          	sub    $0x18,%rsp
  401fc3:	64 48 8b 04 25 28 00 	mov    %fs:0x28,%rax
  401fca:	00 00 
  401fcc:	48 89 44 24 08       	mov    %rax,0x8(%rsp)
  401fd1:	31 c0                	xor    %eax,%eax
  401fd3:	48 83 fe 0f          	cmp    $0xf,%rsi
  401fd7:	48 89 34 24          	mov    %rsi,(%rsp)
  401fdb:	77 33                	ja     402010 <_ZNSt7__cxx1112basic_stringIcSt11char_traitsIcESaIcEE12_M_constructIPcEEvT_S7_St20forward_iterator_tag.isra.37.constprop.63+0x60>
  401fdd:	48 83 fe 01          	cmp    $0x1,%rsi
  401fe1:	48 8b 3f             	mov    (%rdi),%rdi
  401fe4:	74 5a                	je     402040 <_ZNSt7__cxx1112basic_stringIcSt11char_traitsIcESaIcEE12_M_constructIPcEEvT_S7_St20forward_iterator_tag.isra.37.constprop.63+0x90>
  401fe6:	48 85 f6             	test   %rsi,%rsi
  401fe9:	75 3e                	jne    402029 <_ZNSt7__cxx1112basic_stringIcSt11char_traitsIcESaIcEE12_M_constructIPcEEvT_S7_St20forward_iterator_tag.isra.37.constprop.63+0x79>
  401feb:	48 8b 44 24 08       	mov    0x8(%rsp),%rax
  401ff0:	64 48 33 04 25 28 00 	xor    %fs:0x28,%rax
  401ff7:	00 00 
  401ff9:	48 89 5d 08          	mov    %rbx,0x8(%rbp)
  401ffd:	c6 04 1f 00          	movb   $0x0,(%rdi,%rbx,1)
  402001:	75 4a                	jne    40204d <_ZNSt7__cxx1112basic_stringIcSt11char_traitsIcESaIcEE12_M_constructIPcEEvT_S7_St20forward_iterator_tag.isra.37.constprop.63+0x9d>
  402003:	48 83 c4 18          	add    $0x18,%rsp
  402007:	5b                   	pop    %rbx
  402008:	5d                   	pop    %rbp
  402009:	c3                   	retq   
  40200a:	66 0f 1f 44 00 00    	nopw   0x0(%rax,%rax,1)
  402010:	31 d2                	xor    %edx,%edx
  402012:	48 89 e6             	mov    %rsp,%rsi
  402015:	e8 16 f6 ff ff       	callq  401630 <_ZNSt7__cxx1112basic_stringIcSt11char_traitsIcESaIcEE9_M_createERmm@plt>
  40201a:	48 89 c7             	mov    %rax,%rdi
  40201d:	48 89 45 00          	mov    %rax,0x0(%rbp)
  402021:	48 8b 04 24          	mov    (%rsp),%rax
  402025:	48 89 45 10          	mov    %rax,0x10(%rbp)
  402029:	48 89 da             	mov    %rbx,%rdx
  40202c:	be e4 e2 43 00       	mov    $0x43e2e4,%esi
  402031:	e8 ba f4 ff ff       	callq  4014f0 <memcpy@plt>
  402036:	48 8b 1c 24          	mov    (%rsp),%rbx
  40203a:	48 8b 7d 00          	mov    0x0(%rbp),%rdi
  40203e:	eb ab                	jmp    401feb <_ZNSt7__cxx1112basic_stringIcSt11char_traitsIcESaIcEE12_M_constructIPcEEvT_S7_St20forward_iterator_tag.isra.37.constprop.63+0x3b>
  402040:	c6 07 20             	movb   $0x20,(%rdi)
  402043:	48 8b 1c 24          	mov    (%rsp),%rbx
  402047:	48 8b 7d 00          	mov    0x0(%rbp),%rdi
  40204b:	eb 9e                	jmp    401feb <_ZNSt7__cxx1112basic_stringIcSt11char_traitsIcESaIcEE12_M_constructIPcEEvT_S7_St20forward_iterator_tag.isra.37.constprop.63+0x3b>
  40204d:	e8 ee f4 ff ff       	callq  401540 <__stack_chk_fail@plt>
  402052:	0f 1f 40 00          	nopl   0x0(%rax)
  402056:	66 2e 0f 1f 84 00 00 	nopw   %cs:0x0(%rax,%rax,1)
  40205d:	00 00 00 

0000000000402060 <_ZN9__gnu_cxx12__to_xstringINSt7__cxx1112basic_stringIcSt11char_traitsIcESaIcEEEcEET_PFiPT0_mPKS8_P13__va_list_tagEmSB_z.constprop.61>:
  402060:	55                   	push   %rbp
  402061:	48 89 d6             	mov    %rdx,%rsi
  402064:	48 89 e5             	mov    %rsp,%rbp
  402067:	41 54                	push   %r12
  402069:	53                   	push   %rbx
  40206a:	49 89 fc             	mov    %rdi,%r12
  40206d:	48 81 ec d0 00 00 00 	sub    $0xd0,%rsp
  402074:	84 c0                	test   %al,%al
  402076:	4c 89 85 60 ff ff ff 	mov    %r8,-0xa0(%rbp)
  40207d:	4c 89 8d 68 ff ff ff 	mov    %r9,-0x98(%rbp)
  402084:	74 23                	je     4020a9 <_ZN9__gnu_cxx12__to_xstringINSt7__cxx1112basic_stringIcSt11char_traitsIcESaIcEEEcEET_PFiPT0_mPKS8_P13__va_list_tagEmSB_z.constprop.61+0x49>
  402086:	0f 29 85 70 ff ff ff 	movaps %xmm0,-0x90(%rbp)
  40208d:	0f 29 4d 80          	movaps %xmm1,-0x80(%rbp)
  402091:	0f 29 55 90          	movaps %xmm2,-0x70(%rbp)
  402095:	0f 29 5d a0          	movaps %xmm3,-0x60(%rbp)
  402099:	0f 29 65 b0          	movaps %xmm4,-0x50(%rbp)
  40209d:	0f 29 6d c0          	movaps %xmm5,-0x40(%rbp)
  4020a1:	0f 29 75 d0          	movaps %xmm6,-0x30(%rbp)
  4020a5:	0f 29 7d e0          	movaps %xmm7,-0x20(%rbp)
  4020a9:	64 48 8b 04 25 28 00 	mov    %fs:0x28,%rax
  4020b0:	00 00 
  4020b2:	48 89 85 38 ff ff ff 	mov    %rax,-0xc8(%rbp)
  4020b9:	31 c0                	xor    %eax,%eax
  4020bb:	48 8d 46 1e          	lea    0x1e(%rsi),%rax
  4020bf:	4c 8d 8d 20 ff ff ff 	lea    -0xe0(%rbp),%r9
  4020c6:	49 89 c8             	mov    %rcx,%r8
  4020c9:	ba 01 00 00 00       	mov    $0x1,%edx
  4020ce:	48 c7 c1 ff ff ff ff 	mov    $0xffffffffffffffff,%rcx
  4020d5:	48 83 e0 f0          	and    $0xfffffffffffffff0,%rax
  4020d9:	c7 85 20 ff ff ff 20 	movl   $0x20,-0xe0(%rbp)
  4020e0:	00 00 00 
  4020e3:	c7 85 24 ff ff ff 30 	movl   $0x30,-0xdc(%rbp)
  4020ea:	00 00 00 
  4020ed:	48 29 c4             	sub    %rax,%rsp
  4020f0:	48 8d 45 10          	lea    0x10(%rbp),%rax
  4020f4:	48 8d 5c 24 0f       	lea    0xf(%rsp),%rbx
  4020f9:	48 89 85 28 ff ff ff 	mov    %rax,-0xd8(%rbp)
  402100:	48 8d 85 40 ff ff ff 	lea    -0xc0(%rbp),%rax
  402107:	48 83 e3 f0          	and    $0xfffffffffffffff0,%rbx
  40210b:	48 89 df             	mov    %rbx,%rdi
  40210e:	48 89 85 30 ff ff ff 	mov    %rax,-0xd0(%rbp)
  402115:	e8 c6 f3 ff ff       	callq  4014e0 <__vsnprintf_chk@plt>
  40211a:	49 8d 54 24 10       	lea    0x10(%r12),%rdx
  40211f:	4c 89 e7             	mov    %r12,%rdi
  402122:	48 89 de             	mov    %rbx,%rsi
  402125:	49 89 14 24          	mov    %rdx,(%r12)
  402129:	48 63 d0             	movslq %eax,%rdx
  40212c:	48 01 da             	add    %rbx,%rdx
  40212f:	e8 ac fd ff ff       	callq  401ee0 <_ZNSt7__cxx1112basic_stringIcSt11char_traitsIcESaIcEE12_M_constructIPKcEEvT_S8_St20forward_iterator_tag.isra.28>
  402134:	48 8b bd 38 ff ff ff 	mov    -0xc8(%rbp),%rdi
  40213b:	64 48 33 3c 25 28 00 	xor    %fs:0x28,%rdi
  402142:	00 00 
  402144:	4c 89 e0             	mov    %r12,%rax
  402147:	75 09                	jne    402152 <_ZN9__gnu_cxx12__to_xstringINSt7__cxx1112basic_stringIcSt11char_traitsIcESaIcEEEcEET_PFiPT0_mPKS8_P13__va_list_tagEmSB_z.constprop.61+0xf2>
  402149:	48 8d 65 f0          	lea    -0x10(%rbp),%rsp
  40214d:	5b                   	pop    %rbx
  40214e:	41 5c                	pop    %r12
  402150:	5d                   	pop    %rbp
  402151:	c3                   	retq   
  402152:	e8 e9 f3 ff ff       	callq  401540 <__stack_chk_fail@plt>
  402157:	66 0f 1f 84 00 00 00 	nopw   0x0(%rax,%rax,1)
  40215e:	00 00 

0000000000402160 <_ZSt4endlIcSt11char_traitsIcEERSt13basic_ostreamIT_T0_ES6_.constprop.65>:
  402160:	48 8b 05 79 a0 24 00 	mov    0x24a079(%rip),%rax        # 64c1e0 <_ZSt4cout@@GLIBCXX_3.4>
  402167:	53                   	push   %rbx
  402168:	48 8b 40 e8          	mov    -0x18(%rax),%rax
  40216c:	48 8b 98 d0 c2 64 00 	mov    0x64c2d0(%rax),%rbx
  402173:	48 85 db             	test   %rbx,%rbx
  402176:	74 46                	je     4021be <_ZSt4endlIcSt11char_traitsIcEERSt13basic_ostreamIT_T0_ES6_.constprop.65+0x5e>
  402178:	80 7b 38 00          	cmpb   $0x0,0x38(%rbx)
  40217c:	74 1a                	je     402198 <_ZSt4endlIcSt11char_traitsIcEERSt13basic_ostreamIT_T0_ES6_.constprop.65+0x38>
  40217e:	0f be 73 43          	movsbl 0x43(%rbx),%esi
  402182:	bf e0 c1 64 00       	mov    $0x64c1e0,%edi
  402187:	e8 94 f2 ff ff       	callq  401420 <_ZNSo3putEc@plt>
  40218c:	5b                   	pop    %rbx
  40218d:	48 89 c7             	mov    %rax,%rdi
  402190:	e9 0b f3 ff ff       	jmpq   4014a0 <_ZNSo5flushEv@plt>
  402195:	0f 1f 00             	nopl   (%rax)
  402198:	48 89 df             	mov    %rbx,%rdi
  40219b:	e8 c0 f3 ff ff       	callq  401560 <_ZNKSt5ctypeIcE13_M_widen_initEv@plt>
  4021a0:	48 8b 03             	mov    (%rbx),%rax
  4021a3:	be 0a 00 00 00       	mov    $0xa,%esi
  4021a8:	48 8b 40 30          	mov    0x30(%rax),%rax
  4021ac:	48 3d d0 54 40 00    	cmp    $0x4054d0,%rax
  4021b2:	74 ce                	je     402182 <_ZSt4endlIcSt11char_traitsIcEERSt13basic_ostreamIT_T0_ES6_.constprop.65+0x22>
  4021b4:	48 89 df             	mov    %rbx,%rdi
  4021b7:	ff d0                	callq  *%rax
  4021b9:	0f be f0             	movsbl %al,%esi
  4021bc:	eb c4                	jmp    402182 <_ZSt4endlIcSt11char_traitsIcEERSt13basic_ostreamIT_T0_ES6_.constprop.65+0x22>
  4021be:	e8 ad f3 ff ff       	callq  401570 <_ZSt16__throw_bad_castv@plt>
  4021c3:	0f 1f 00             	nopl   (%rax)
  4021c6:	66 2e 0f 1f 84 00 00 	nopw   %cs:0x0(%rax,%rax,1)
  4021cd:	00 00 00 

00000000004021d0 <_Z3maxii>:
  4021d0:	39 f7                	cmp    %esi,%edi
  4021d2:	89 f0                	mov    %esi,%eax
  4021d4:	0f 4d c7             	cmovge %edi,%eax
  4021d7:	c3                   	retq   
  4021d8:	0f 1f 84 00 00 00 00 	nopl   0x0(%rax,%rax,1)
  4021df:	00 

00000000004021e0 <_ZNK10Tensor_Ace9same_sizeERKS_>:
  4021e0:	55                   	push   %rbp
  4021e1:	53                   	push   %rbx
  4021e2:	48 89 f3             	mov    %rsi,%rbx
  4021e5:	48 83 ec 08          	sub    $0x8,%rsp
  4021e9:	48 8b 07             	mov    (%rdi),%rax
  4021ec:	ff 10                	callq  *(%rax)
  4021ee:	89 c5                	mov    %eax,%ebp
  4021f0:	48 8b 03             	mov    (%rbx),%rax
  4021f3:	48 89 df             	mov    %rbx,%rdi
  4021f6:	ff 10                	callq  *(%rax)
  4021f8:	39 c5                	cmp    %eax,%ebp
  4021fa:	0f 94 c0             	sete   %al
  4021fd:	48 83 c4 08          	add    $0x8,%rsp
  402201:	5b                   	pop    %rbx
  402202:	5d                   	pop    %rbp
  402203:	c3                   	retq   
  402204:	66 90                	xchg   %ax,%ax
  402206:	66 2e 0f 1f 84 00 00 	nopw   %cs:0x0(%rax,%rax,1)
  40220d:	00 00 00 

0000000000402210 <_ZNK10Tensor_Ace15same_dimensionsERKS_>:
  402210:	41 55                	push   %r13
  402212:	41 54                	push   %r12
  402214:	49 89 fd             	mov    %rdi,%r13
  402217:	55                   	push   %rbp
  402218:	53                   	push   %rbx
  402219:	49 89 f4             	mov    %rsi,%r12
  40221c:	31 ed                	xor    %ebp,%ebp
  40221e:	48 83 ec 08          	sub    $0x8,%rsp
  402222:	eb 25                	jmp    402249 <_ZNK10Tensor_Ace15same_dimensionsERKS_+0x39>
  402224:	0f 1f 40 00          	nopl   0x0(%rax)
  402228:	49 8b 45 00          	mov    0x0(%r13),%rax
  40222c:	89 ee                	mov    %ebp,%esi
  40222e:	4c 89 ef             	mov    %r13,%rdi
  402231:	ff 50 08             	callq  *0x8(%rax)
  402234:	89 c3                	mov    %eax,%ebx
  402236:	49 8b 04 24          	mov    (%r12),%rax
  40223a:	89 ee                	mov    %ebp,%esi
  40223c:	4c 89 e7             	mov    %r12,%rdi
  40223f:	ff 50 08             	callq  *0x8(%rax)
  402242:	39 c3                	cmp    %eax,%ebx
  402244:	75 3a                	jne    402280 <_ZNK10Tensor_Ace15same_dimensionsERKS_+0x70>
  402246:	83 c5 01             	add    $0x1,%ebp
  402249:	49 8b 45 00          	mov    0x0(%r13),%rax
  40224d:	4c 89 ef             	mov    %r13,%rdi
  402250:	ff 50 18             	callq  *0x18(%rax)
  402253:	89 c3                	mov    %eax,%ebx
  402255:	49 8b 04 24          	mov    (%r12),%rax
  402259:	4c 89 e7             	mov    %r12,%rdi
  40225c:	ff 50 18             	callq  *0x18(%rax)
  40225f:	39 c3                	cmp    %eax,%ebx
  402261:	0f 4c d8             	cmovl  %eax,%ebx
  402264:	39 dd                	cmp    %ebx,%ebp
  402266:	7c c0                	jl     402228 <_ZNK10Tensor_Ace15same_dimensionsERKS_+0x18>
  402268:	48 83 c4 08          	add    $0x8,%rsp
  40226c:	b8 01 00 00 00       	mov    $0x1,%eax
  402271:	5b                   	pop    %rbx
  402272:	5d                   	pop    %rbp
  402273:	41 5c                	pop    %r12
  402275:	41 5d                	pop    %r13
  402277:	c3                   	retq   
  402278:	0f 1f 84 00 00 00 00 	nopl   0x0(%rax,%rax,1)
  40227f:	00 
  402280:	48 83 c4 08          	add    $0x8,%rsp
  402284:	31 c0                	xor    %eax,%eax
  402286:	5b                   	pop    %rbx
  402287:	5d                   	pop    %rbp
  402288:	41 5c                	pop    %r12
  40228a:	41 5d                	pop    %r13
  40228c:	c3                   	retq   
  40228d:	90                   	nop
  40228e:	66 90                	xchg   %ax,%ax

0000000000402290 <_ZNK10Tensor_Ace16assert_same_sizeERKS_>:
  402290:	55                   	push   %rbp
  402291:	53                   	push   %rbx
  402292:	48 89 f3             	mov    %rsi,%rbx
  402295:	48 83 ec 08          	sub    $0x8,%rsp
  402299:	48 8b 07             	mov    (%rdi),%rax
  40229c:	ff 10                	callq  *(%rax)
  40229e:	89 c5                	mov    %eax,%ebp
  4022a0:	48 8b 03             	mov    (%rbx),%rax
  4022a3:	48 89 df             	mov    %rbx,%rdi
  4022a6:	ff 10                	callq  *(%rax)
  4022a8:	39 c5                	cmp    %eax,%ebp
  4022aa:	75 07                	jne    4022b3 <_ZNK10Tensor_Ace16assert_same_sizeERKS_+0x23>
  4022ac:	48 83 c4 08          	add    $0x8,%rsp
  4022b0:	5b                   	pop    %rbx
  4022b1:	5d                   	pop    %rbp
  4022b2:	c3                   	retq   
  4022b3:	bf 10 00 00 00       	mov    $0x10,%edi
  4022b8:	e8 a3 f1 ff ff       	callq  401460 <__cxa_allocate_exception@plt>
  4022bd:	be 48 e2 43 00       	mov    $0x43e248,%esi
  4022c2:	48 89 c7             	mov    %rax,%rdi
  4022c5:	48 89 c3             	mov    %rax,%rbx
  4022c8:	e8 a3 f3 ff ff       	callq  401670 <_ZNSt16invalid_argumentC1EPKc@plt>
  4022cd:	ba e0 15 40 00       	mov    $0x4015e0,%edx
  4022d2:	be a0 c3 64 00       	mov    $0x64c3a0,%esi
  4022d7:	48 89 df             	mov    %rbx,%rdi
  4022da:	e8 11 f3 ff ff       	callq  4015f0 <__cxa_throw@plt>
  4022df:	48 89 c5             	mov    %rax,%rbp
  4022e2:	48 89 df             	mov    %rbx,%rdi
  4022e5:	e8 e6 f1 ff ff       	callq  4014d0 <__cxa_free_exception@plt>
  4022ea:	48 89 ef             	mov    %rbp,%rdi
  4022ed:	e8 1e f3 ff ff       	callq  401610 <_Unwind_Resume@plt>
  4022f2:	0f 1f 40 00          	nopl   0x0(%rax)
  4022f6:	66 2e 0f 1f 84 00 00 	nopw   %cs:0x0(%rax,%rax,1)
  4022fd:	00 00 00 

0000000000402300 <_ZNK10Tensor_Ace22assert_same_dimensionsERKS_>:
  402300:	41 55                	push   %r13
  402302:	41 54                	push   %r12
  402304:	49 89 fd             	mov    %rdi,%r13
  402307:	55                   	push   %rbp
  402308:	53                   	push   %rbx
  402309:	49 89 f4             	mov    %rsi,%r12
  40230c:	31 ed                	xor    %ebp,%ebp
  40230e:	48 83 ec 08          	sub    $0x8,%rsp
  402312:	eb 25                	jmp    402339 <_ZNK10Tensor_Ace22assert_same_dimensionsERKS_+0x39>
  402314:	0f 1f 40 00          	nopl   0x0(%rax)
  402318:	49 8b 45 00          	mov    0x0(%r13),%rax
  40231c:	89 ee                	mov    %ebp,%esi
  40231e:	4c 89 ef             	mov    %r13,%rdi
  402321:	ff 50 08             	callq  *0x8(%rax)
  402324:	89 c3                	mov    %eax,%ebx
  402326:	49 8b 04 24          	mov    (%r12),%rax
  40232a:	89 ee                	mov    %ebp,%esi
  40232c:	4c 89 e7             	mov    %r12,%rdi
  40232f:	ff 50 08             	callq  *0x8(%rax)
  402332:	39 c3                	cmp    %eax,%ebx
  402334:	75 32                	jne    402368 <_ZNK10Tensor_Ace22assert_same_dimensionsERKS_+0x68>
  402336:	83 c5 01             	add    $0x1,%ebp
  402339:	49 8b 45 00          	mov    0x0(%r13),%rax
  40233d:	4c 89 ef             	mov    %r13,%rdi
  402340:	ff 50 18             	callq  *0x18(%rax)
  402343:	89 c3                	mov    %eax,%ebx
  402345:	49 8b 04 24          	mov    (%r12),%rax
  402349:	4c 89 e7             	mov    %r12,%rdi
  40234c:	ff 50 18             	callq  *0x18(%rax)
  40234f:	39 c3                	cmp    %eax,%ebx
  402351:	0f 4c d8             	cmovl  %eax,%ebx
  402354:	39 dd                	cmp    %ebx,%ebp
  402356:	7c c0                	jl     402318 <_ZNK10Tensor_Ace22assert_same_dimensionsERKS_+0x18>
  402358:	48 83 c4 08          	add    $0x8,%rsp
  40235c:	5b                   	pop    %rbx
  40235d:	5d                   	pop    %rbp
  40235e:	41 5c                	pop    %r12
  402360:	41 5d                	pop    %r13
  402362:	c3                   	retq   
  402363:	0f 1f 44 00 00       	nopl   0x0(%rax,%rax,1)
  402368:	bf 10 00 00 00       	mov    $0x10,%edi
  40236d:	e8 ee f0 ff ff       	callq  401460 <__cxa_allocate_exception@plt>
  402372:	be 56 e2 43 00       	mov    $0x43e256,%esi
  402377:	48 89 c7             	mov    %rax,%rdi
  40237a:	48 89 c3             	mov    %rax,%rbx
  40237d:	e8 ee f2 ff ff       	callq  401670 <_ZNSt16invalid_argumentC1EPKc@plt>
  402382:	ba e0 15 40 00       	mov    $0x4015e0,%edx
  402387:	be a0 c3 64 00       	mov    $0x64c3a0,%esi
  40238c:	48 89 df             	mov    %rbx,%rdi
  40238f:	e8 5c f2 ff ff       	callq  4015f0 <__cxa_throw@plt>
  402394:	48 89 c5             	mov    %rax,%rbp
  402397:	48 89 df             	mov    %rbx,%rdi
  40239a:	e8 31 f1 ff ff       	callq  4014d0 <__cxa_free_exception@plt>
  40239f:	48 89 ef             	mov    %rbp,%rdi
  4023a2:	e8 69 f2 ff ff       	callq  401610 <_Unwind_Resume@plt>
  4023a7:	66 0f 1f 84 00 00 00 	nopw   0x0(%rax,%rax,1)
  4023ae:	00 00 

00000000004023b0 <_Z3addPdS_S_i>:
  4023b0:	48 83 ec 38          	sub    $0x38,%rsp
  4023b4:	48 89 3c 24          	mov    %rdi,(%rsp)
  4023b8:	48 89 74 24 08       	mov    %rsi,0x8(%rsp)
  4023bd:	bf f0 1a 40 00       	mov    $0x401af0,%edi
  4023c2:	48 89 54 24 10       	mov    %rdx,0x10(%rsp)
  4023c7:	89 4c 24 18          	mov    %ecx,0x18(%rsp)
  4023cb:	31 d2                	xor    %edx,%edx
  4023cd:	31 c9                	xor    %ecx,%ecx
  4023cf:	48 89 e6             	mov    %rsp,%rsi
  4023d2:	64 48 8b 04 25 28 00 	mov    %fs:0x28,%rax
  4023d9:	00 00 
  4023db:	48 89 44 24 28       	mov    %rax,0x28(%rsp)
  4023e0:	31 c0                	xor    %eax,%eax
  4023e2:	e8 b9 f1 ff ff       	callq  4015a0 <GOMP_parallel@plt>
  4023e7:	e8 54 f2 ff ff       	callq  401640 <GOMP_barrier@plt>
  4023ec:	48 8b 44 24 28       	mov    0x28(%rsp),%rax
  4023f1:	64 48 33 04 25 28 00 	xor    %fs:0x28,%rax
  4023f8:	00 00 
  4023fa:	75 05                	jne    402401 <_Z3addPdS_S_i+0x51>
  4023fc:	48 83 c4 38          	add    $0x38,%rsp
  402400:	c3                   	retq   
  402401:	e8 3a f1 ff ff       	callq  401540 <__stack_chk_fail@plt>
  402406:	66 2e 0f 1f 84 00 00 	nopw   %cs:0x0(%rax,%rax,1)
  40240d:	00 00 00 

0000000000402410 <_Z3addPdS_S_S_i>:
  402410:	48 83 ec 58          	sub    $0x58,%rsp
  402414:	48 89 7c 24 18       	mov    %rdi,0x18(%rsp)
  402419:	48 89 74 24 08       	mov    %rsi,0x8(%rsp)
  40241e:	48 8d 74 24 20       	lea    0x20(%rsp),%rsi
  402423:	f3 0f 7e 4c 24 18    	movq   0x18(%rsp),%xmm1
  402429:	48 89 4c 24 10       	mov    %rcx,0x10(%rsp)
  40242e:	0f 16 4c 24 08       	movhps 0x8(%rsp),%xmm1
  402433:	48 89 54 24 08       	mov    %rdx,0x8(%rsp)
  402438:	31 c9                	xor    %ecx,%ecx
  40243a:	f3 0f 7e 44 24 08    	movq   0x8(%rsp),%xmm0
  402440:	31 d2                	xor    %edx,%edx
  402442:	0f 16 44 24 10       	movhps 0x10(%rsp),%xmm0
  402447:	bf 60 1c 40 00       	mov    $0x401c60,%edi
  40244c:	44 89 44 24 40       	mov    %r8d,0x40(%rsp)
  402451:	64 48 8b 04 25 28 00 	mov    %fs:0x28,%rax
  402458:	00 00 
  40245a:	48 89 44 24 48       	mov    %rax,0x48(%rsp)
  40245f:	31 c0                	xor    %eax,%eax
  402461:	0f 29 4c 24 20       	movaps %xmm1,0x20(%rsp)
  402466:	0f 29 44 24 30       	movaps %xmm0,0x30(%rsp)
  40246b:	e8 30 f1 ff ff       	callq  4015a0 <GOMP_parallel@plt>
  402470:	e8 cb f1 ff ff       	callq  401640 <GOMP_barrier@plt>
  402475:	48 8b 44 24 48       	mov    0x48(%rsp),%rax
  40247a:	64 48 33 04 25 28 00 	xor    %fs:0x28,%rax
  402481:	00 00 
  402483:	75 05                	jne    40248a <_Z3addPdS_S_S_i+0x7a>
  402485:	48 83 c4 58          	add    $0x58,%rsp
  402489:	c3                   	retq   
  40248a:	e8 b1 f0 ff ff       	callq  401540 <__stack_chk_fail@plt>
  40248f:	90                   	nop

0000000000402490 <_Z10printCheckv>:
  402490:	55                   	push   %rbp
  402491:	53                   	push   %rbx
  402492:	48 83 ec 08          	sub    $0x8,%rsp
  402496:	e8 75 f0 ff ff       	callq  401510 <pthread_self@plt>
  40249b:	bf e0 c1 64 00       	mov    $0x64c1e0,%edi
  4024a0:	48 89 c6             	mov    %rax,%rsi
  4024a3:	e8 e8 ef ff ff       	callq  401490 <_ZNSo9_M_insertImEERSoT_@plt>
  4024a8:	48 89 c5             	mov    %rax,%rbp
  4024ab:	48 8b 00             	mov    (%rax),%rax
  4024ae:	48 8b 40 e8          	mov    -0x18(%rax),%rax
  4024b2:	48 8b 9c 05 f0 00 00 	mov    0xf0(%rbp,%rax,1),%rbx
  4024b9:	00 
  4024ba:	48 85 db             	test   %rbx,%rbx
  4024bd:	74 47                	je     402506 <_Z10printCheckv+0x76>
  4024bf:	80 7b 38 00          	cmpb   $0x0,0x38(%rbx)
  4024c3:	74 1b                	je     4024e0 <_Z10printCheckv+0x50>
  4024c5:	0f be 73 43          	movsbl 0x43(%rbx),%esi
  4024c9:	48 89 ef             	mov    %rbp,%rdi
  4024cc:	e8 4f ef ff ff       	callq  401420 <_ZNSo3putEc@plt>
  4024d1:	48 83 c4 08          	add    $0x8,%rsp
  4024d5:	48 89 c7             	mov    %rax,%rdi
  4024d8:	5b                   	pop    %rbx
  4024d9:	5d                   	pop    %rbp
  4024da:	e9 c1 ef ff ff       	jmpq   4014a0 <_ZNSo5flushEv@plt>
  4024df:	90                   	nop
  4024e0:	48 89 df             	mov    %rbx,%rdi
  4024e3:	e8 78 f0 ff ff       	callq  401560 <_ZNKSt5ctypeIcE13_M_widen_initEv@plt>
  4024e8:	48 8b 03             	mov    (%rbx),%rax
  4024eb:	be 0a 00 00 00       	mov    $0xa,%esi
  4024f0:	48 8b 40 30          	mov    0x30(%rax),%rax
  4024f4:	48 3d d0 54 40 00    	cmp    $0x4054d0,%rax
  4024fa:	74 cd                	je     4024c9 <_Z10printCheckv+0x39>
  4024fc:	48 89 df             	mov    %rbx,%rdi
  4024ff:	ff d0                	callq  *%rax
  402501:	0f be f0             	movsbl %al,%esi
  402504:	eb c3                	jmp    4024c9 <_Z10printCheckv+0x39>
  402506:	e8 65 f0 ff ff       	callq  401570 <_ZSt16__throw_bad_castv@plt>
  40250b:	0f 1f 44 00 00       	nopl   0x0(%rax,%rax,1)

0000000000402510 <_Z10SpeedTestsv>:
  402510:	41 57                	push   %r15
  402512:	41 56                	push   %r14
  402514:	41 55                	push   %r13
  402516:	41 54                	push   %r12
  402518:	55                   	push   %rbp
  402519:	53                   	push   %rbx
  40251a:	48 81 ec 38 01 00 00 	sub    $0x138,%rsp
  402521:	64 48 8b 04 25 28 00 	mov    %fs:0x28,%rax
  402528:	00 00 
  40252a:	48 89 84 24 28 01 00 	mov    %rax,0x128(%rsp)
  402531:	00 
  402532:	31 c0                	xor    %eax,%eax
  402534:	e8 d7 ef ff ff       	callq  401510 <pthread_self@plt>
  402539:	bf e0 c1 64 00       	mov    $0x64c1e0,%edi
  40253e:	48 89 c6             	mov    %rax,%rsi
  402541:	48 8d 9c 24 20 01 00 	lea    0x120(%rsp),%rbx
  402548:	00 
  402549:	e8 42 ef ff ff       	callq  401490 <_ZNSo9_M_insertImEERSoT_@plt>
  40254e:	48 89 c7             	mov    %rax,%rdi
  402551:	e8 fa ee ff ff       	callq  401450 <_ZSt4endlIcSt11char_traitsIcEERSt13basic_ostreamIT_T0_ES6_@plt>
  402556:	bf 0c 00 00 00       	mov    $0xc,%edi
  40255b:	c7 84 24 20 01 00 00 	movl   $0x3e8,0x120(%rsp)
  402562:	e8 03 00 00 
  402566:	c7 84 24 24 01 00 00 	movl   $0x3e8,0x124(%rsp)
  40256d:	e8 03 00 00 
  402571:	48 c7 84 24 80 00 00 	movq   $0x43f138,0x80(%rsp)
  402578:	00 38 f1 43 00 
  40257d:	48 c7 84 24 88 00 00 	movq   $0x43f0c8,0x88(%rsp)
  402584:	00 c8 f0 43 00 
  402589:	c7 84 24 a0 00 00 00 	movl   $0x2,0xa0(%rsp)
  402590:	02 00 00 00 
  402594:	e8 77 ee ff ff       	callq  401410 <_Znam@plt>
  402599:	48 8d b4 24 e0 00 00 	lea    0xe0(%rsp),%rsi
  4025a0:	00 
  4025a1:	48 89 84 24 98 00 00 	mov    %rax,0x98(%rsp)
  4025a8:	00 
  4025a9:	48 8d 84 24 98 00 00 	lea    0x98(%rsp),%rax
  4025b0:	00 
  4025b1:	31 c9                	xor    %ecx,%ecx
  4025b3:	31 d2                	xor    %edx,%edx
  4025b5:	bf a0 18 40 00       	mov    $0x4018a0,%edi
  4025ba:	48 89 84 24 e0 00 00 	mov    %rax,0xe0(%rsp)
  4025c1:	00 
  4025c2:	48 89 9c 24 e8 00 00 	mov    %rbx,0xe8(%rsp)
  4025c9:	00 
  4025ca:	c7 84 24 f0 00 00 00 	movl   $0x2,0xf0(%rsp)
  4025d1:	02 00 00 00 
  4025d5:	e8 c6 ef ff ff       	callq  4015a0 <GOMP_parallel@plt>
  4025da:	e8 61 f0 ff ff       	callq  401640 <GOMP_barrier@plt>
  4025df:	48 63 84 24 a0 00 00 	movslq 0xa0(%rsp),%rax
  4025e6:	00 
  4025e7:	48 8b b4 24 98 00 00 	mov    0x98(%rsp),%rsi
  4025ee:	00 
  4025ef:	85 c0                	test   %eax,%eax
  4025f1:	4c 8d 0c 86          	lea    (%rsi,%rax,4),%r9
  4025f5:	0f 8e ff 0c 00 00    	jle    4032fa <_Z10SpeedTestsv+0xdea>
  4025fb:	48 89 f2             	mov    %rsi,%rdx
  4025fe:	48 89 c7             	mov    %rax,%rdi
  402601:	83 e2 0f             	and    $0xf,%edx
  402604:	48 c1 ea 02          	shr    $0x2,%rdx
  402608:	48 f7 da             	neg    %rdx
  40260b:	83 e2 03             	and    $0x3,%edx
  40260e:	39 c2                	cmp    %eax,%edx
  402610:	0f 47 d0             	cmova  %eax,%edx
  402613:	83 f8 08             	cmp    $0x8,%eax
  402616:	0f 8f fa 0b 00 00    	jg     403216 <_Z10SpeedTestsv+0xd06>
  40261c:	89 c2                	mov    %eax,%edx
  40261e:	8b 06                	mov    (%rsi),%eax
  402620:	83 fa 01             	cmp    $0x1,%edx
  402623:	0f 84 07 0c 00 00    	je     403230 <_Z10SpeedTestsv+0xd20>
  402629:	0f af 46 04          	imul   0x4(%rsi),%eax
  40262d:	83 fa 02             	cmp    $0x2,%edx
  402630:	0f 84 ba 0c 00 00    	je     4032f0 <_Z10SpeedTestsv+0xde0>
  402636:	0f af 46 08          	imul   0x8(%rsi),%eax
  40263a:	83 fa 03             	cmp    $0x3,%edx
  40263d:	0f 84 a3 0c 00 00    	je     4032e6 <_Z10SpeedTestsv+0xdd6>
  402643:	0f af 46 0c          	imul   0xc(%rsi),%eax
  402647:	83 fa 04             	cmp    $0x4,%edx
  40264a:	0f 84 8c 0c 00 00    	je     4032dc <_Z10SpeedTestsv+0xdcc>
  402650:	0f af 46 10          	imul   0x10(%rsi),%eax
  402654:	83 fa 05             	cmp    $0x5,%edx
  402657:	0f 84 75 0c 00 00    	je     4032d2 <_Z10SpeedTestsv+0xdc2>
  40265d:	0f af 46 14          	imul   0x14(%rsi),%eax
  402661:	83 fa 06             	cmp    $0x6,%edx
  402664:	0f 84 5e 0c 00 00    	je     4032c8 <_Z10SpeedTestsv+0xdb8>
  40266a:	0f af 46 18          	imul   0x18(%rsi),%eax
  40266e:	83 fa 07             	cmp    $0x7,%edx
  402671:	0f 84 47 0c 00 00    	je     4032be <_Z10SpeedTestsv+0xdae>
  402677:	0f af 46 1c          	imul   0x1c(%rsi),%eax
  40267b:	b9 08 00 00 00       	mov    $0x8,%ecx
  402680:	39 fa                	cmp    %edi,%edx
  402682:	0f 84 de 00 00 00    	je     402766 <_Z10SpeedTestsv+0x256>
  402688:	41 89 fb             	mov    %edi,%r11d
  40268b:	44 8d 57 ff          	lea    -0x1(%rdi),%r10d
  40268f:	41 89 d4             	mov    %edx,%r12d
  402692:	41 29 d3             	sub    %edx,%r11d
  402695:	45 8d 43 fc          	lea    -0x4(%r11),%r8d
  402699:	41 29 d2             	sub    %edx,%r10d
  40269c:	41 c1 e8 02          	shr    $0x2,%r8d
  4026a0:	41 83 c0 01          	add    $0x1,%r8d
  4026a4:	41 83 fa 02          	cmp    $0x2,%r10d
  4026a8:	42 8d 2c 85 00 00 00 	lea    0x0(,%r8,4),%ebp
  4026af:	00 
  4026b0:	0f 86 8d 00 00 00    	jbe    402743 <_Z10SpeedTestsv+0x233>
  4026b6:	4a 8d 14 a6          	lea    (%rsi,%r12,4),%rdx
  4026ba:	66 0f 6f 05 6e 67 04 	movdqa 0x4676e(%rip),%xmm0        # 448e30 <_ZTV6MatrixId15CPU_MATHEMATICS10continuousIdS0_EE+0x9c88>
  4026c1:	00 
  4026c2:	45 31 d2             	xor    %r10d,%r10d
  4026c5:	66 0f 6f 0a          	movdqa (%rdx),%xmm1
  4026c9:	66 0f 6f d0          	movdqa %xmm0,%xmm2
  4026cd:	66 0f 73 d0 20       	psrlq  $0x20,%xmm0
  4026d2:	41 83 c2 01          	add    $0x1,%r10d
  4026d6:	48 83 c2 10          	add    $0x10,%rdx
  4026da:	66 0f f4 52 f0       	pmuludq -0x10(%rdx),%xmm2
  4026df:	66 0f 73 d1 20       	psrlq  $0x20,%xmm1
  4026e4:	66 0f f4 c8          	pmuludq %xmm0,%xmm1
  4026e8:	66 0f 70 c2 08       	pshufd $0x8,%xmm2,%xmm0
  4026ed:	45 39 d0             	cmp    %r10d,%r8d
  4026f0:	66 0f 70 c9 08       	pshufd $0x8,%xmm1,%xmm1
  4026f5:	66 0f 62 c1          	punpckldq %xmm1,%xmm0
  4026f9:	77 ca                	ja     4026c5 <_Z10SpeedTestsv+0x1b5>
  4026fb:	66 0f 6f d0          	movdqa %xmm0,%xmm2
  4026ff:	01 e9                	add    %ebp,%ecx
  402701:	66 0f 73 da 08       	psrldq $0x8,%xmm2
  402706:	66 0f 6f ca          	movdqa %xmm2,%xmm1
  40270a:	66 0f 73 d2 20       	psrlq  $0x20,%xmm2
  40270f:	66 0f f4 c8          	pmuludq %xmm0,%xmm1
  402713:	66 0f 73 d0 20       	psrlq  $0x20,%xmm0
  402718:	66 0f 70 c9 08       	pshufd $0x8,%xmm1,%xmm1
  40271d:	66 0f f4 c2          	pmuludq %xmm2,%xmm0
  402721:	66 0f 70 c0 08       	pshufd $0x8,%xmm0,%xmm0
  402726:	66 0f 62 c8          	punpckldq %xmm0,%xmm1
  40272a:	66 0f 6f c1          	movdqa %xmm1,%xmm0
  40272e:	66 0f 73 d9 04       	psrldq $0x4,%xmm1
  402733:	66 0f f4 c1          	pmuludq %xmm1,%xmm0
  402737:	66 0f 7e c2          	movd   %xmm0,%edx
  40273b:	0f af c2             	imul   %edx,%eax
  40273e:	41 39 eb             	cmp    %ebp,%r11d
  402741:	74 23                	je     402766 <_Z10SpeedTestsv+0x256>
  402743:	48 63 d1             	movslq %ecx,%rdx
  402746:	0f af 04 96          	imul   (%rsi,%rdx,4),%eax
  40274a:	8d 51 01             	lea    0x1(%rcx),%edx
  40274d:	39 d7                	cmp    %edx,%edi
  40274f:	7e 15                	jle    402766 <_Z10SpeedTestsv+0x256>
  402751:	48 63 d2             	movslq %edx,%rdx
  402754:	83 c1 02             	add    $0x2,%ecx
  402757:	0f af 04 96          	imul   (%rsi,%rdx,4),%eax
  40275b:	39 cf                	cmp    %ecx,%edi
  40275d:	7e 07                	jle    402766 <_Z10SpeedTestsv+0x256>
  40275f:	48 63 c9             	movslq %ecx,%rcx
  402762:	0f af 04 8e          	imul   (%rsi,%rcx,4),%eax
  402766:	41 89 01             	mov    %eax,(%r9)
  402769:	48 63 84 24 a0 00 00 	movslq 0xa0(%rsp),%rax
  402770:	00 
  402771:	48 ba 00 00 00 00 00 	movabs $0xfe0000000000000,%rdx
  402778:	00 e0 0f 
  40277b:	48 63 04 86          	movslq (%rsi,%rax,4),%rax
  40277f:	48 39 d0             	cmp    %rdx,%rax
  402782:	0f 87 74 0c 00 00    	ja     4033fc <_Z10SpeedTestsv+0xeec>
  402788:	48 8d 3c c5 00 00 00 	lea    0x0(,%rax,8),%rdi
  40278f:	00 
  402790:	e8 7b ec ff ff       	callq  401410 <_Znam@plt>
  402795:	bf 0c 00 00 00       	mov    $0xc,%edi
  40279a:	48 89 84 24 90 00 00 	mov    %rax,0x90(%rsp)
  4027a1:	00 
  4027a2:	c6 84 24 a8 00 00 00 	movb   $0x1,0xa8(%rsp)
  4027a9:	01 
  4027aa:	c6 84 24 a9 00 00 00 	movb   $0x1,0xa9(%rsp)
  4027b1:	01 
  4027b2:	48 c7 84 24 80 00 00 	movq   $0x43f1b8,0x80(%rsp)
  4027b9:	00 b8 f1 43 00 
  4027be:	c7 84 24 10 01 00 00 	movl   $0x3e8,0x110(%rsp)
  4027c5:	e8 03 00 00 
  4027c9:	c7 84 24 14 01 00 00 	movl   $0x3e8,0x114(%rsp)
  4027d0:	e8 03 00 00 
  4027d4:	48 c7 84 24 b0 00 00 	movq   $0x43f138,0xb0(%rsp)
  4027db:	00 38 f1 43 00 
  4027e0:	48 c7 84 24 b8 00 00 	movq   $0x43f0c8,0xb8(%rsp)
  4027e7:	00 c8 f0 43 00 
  4027ec:	c7 84 24 d0 00 00 00 	movl   $0x2,0xd0(%rsp)
  4027f3:	02 00 00 00 
  4027f7:	e8 14 ec ff ff       	callq  401410 <_Znam@plt>
  4027fc:	48 89 84 24 c8 00 00 	mov    %rax,0xc8(%rsp)
  402803:	00 
  402804:	48 8d 84 24 c8 00 00 	lea    0xc8(%rsp),%rax
  40280b:	00 
  40280c:	48 8d b4 24 e0 00 00 	lea    0xe0(%rsp),%rsi
  402813:	00 
  402814:	31 c9                	xor    %ecx,%ecx
  402816:	31 d2                	xor    %edx,%edx
  402818:	bf a0 18 40 00       	mov    $0x4018a0,%edi
  40281d:	48 89 84 24 e0 00 00 	mov    %rax,0xe0(%rsp)
  402824:	00 
  402825:	48 8d 84 24 10 01 00 	lea    0x110(%rsp),%rax
  40282c:	00 
  40282d:	c7 84 24 f0 00 00 00 	movl   $0x2,0xf0(%rsp)
  402834:	02 00 00 00 
  402838:	48 89 84 24 e8 00 00 	mov    %rax,0xe8(%rsp)
  40283f:	00 
  402840:	e8 5b ed ff ff       	callq  4015a0 <GOMP_parallel@plt>
  402845:	e8 f6 ed ff ff       	callq  401640 <GOMP_barrier@plt>
  40284a:	48 63 84 24 d0 00 00 	movslq 0xd0(%rsp),%rax
  402851:	00 
  402852:	48 8b b4 24 c8 00 00 	mov    0xc8(%rsp),%rsi
  402859:	00 
  40285a:	85 c0                	test   %eax,%eax
  40285c:	48 89 c7             	mov    %rax,%rdi
  40285f:	4c 8d 0c 86          	lea    (%rsi,%rax,4),%r9
  402863:	0f 8e 23 0a 00 00    	jle    40328c <_Z10SpeedTestsv+0xd7c>
  402869:	48 89 f2             	mov    %rsi,%rdx
  40286c:	83 e2 0f             	and    $0xf,%edx
  40286f:	48 c1 ea 02          	shr    $0x2,%rdx
  402873:	48 f7 da             	neg    %rdx
  402876:	83 e2 03             	and    $0x3,%edx
  402879:	39 c2                	cmp    %eax,%edx
  40287b:	0f 47 d0             	cmova  %eax,%edx
  40287e:	83 f8 08             	cmp    $0x8,%eax
  402881:	0f 8f d7 09 00 00    	jg     40325e <_Z10SpeedTestsv+0xd4e>
  402887:	89 c2                	mov    %eax,%edx
  402889:	8b 06                	mov    (%rsi),%eax
  40288b:	83 fa 01             	cmp    $0x1,%edx
  40288e:	0f 84 e4 09 00 00    	je     403278 <_Z10SpeedTestsv+0xd68>
  402894:	0f af 46 04          	imul   0x4(%rsi),%eax
  402898:	83 fa 02             	cmp    $0x2,%edx
  40289b:	0f 84 13 0a 00 00    	je     4032b4 <_Z10SpeedTestsv+0xda4>
  4028a1:	0f af 46 08          	imul   0x8(%rsi),%eax
  4028a5:	83 fa 03             	cmp    $0x3,%edx
  4028a8:	0f 84 fc 09 00 00    	je     4032aa <_Z10SpeedTestsv+0xd9a>
  4028ae:	0f af 46 0c          	imul   0xc(%rsi),%eax
  4028b2:	83 fa 04             	cmp    $0x4,%edx
  4028b5:	0f 84 e5 09 00 00    	je     4032a0 <_Z10SpeedTestsv+0xd90>
  4028bb:	0f af 46 10          	imul   0x10(%rsi),%eax
  4028bf:	83 fa 05             	cmp    $0x5,%edx
  4028c2:	0f 84 ce 09 00 00    	je     403296 <_Z10SpeedTestsv+0xd86>
  4028c8:	0f af 46 14          	imul   0x14(%rsi),%eax
  4028cc:	83 fa 06             	cmp    $0x6,%edx
  4028cf:	0f 84 43 0a 00 00    	je     403318 <_Z10SpeedTestsv+0xe08>
  4028d5:	0f af 46 18          	imul   0x18(%rsi),%eax
  4028d9:	83 fa 07             	cmp    $0x7,%edx
  4028dc:	0f 84 2c 0a 00 00    	je     40330e <_Z10SpeedTestsv+0xdfe>
  4028e2:	0f af 46 1c          	imul   0x1c(%rsi),%eax
  4028e6:	b9 08 00 00 00       	mov    $0x8,%ecx
  4028eb:	39 d7                	cmp    %edx,%edi
  4028ed:	0f 84 de 00 00 00    	je     4029d1 <_Z10SpeedTestsv+0x4c1>
  4028f3:	41 89 fb             	mov    %edi,%r11d
  4028f6:	44 8d 57 ff          	lea    -0x1(%rdi),%r10d
  4028fa:	41 89 d4             	mov    %edx,%r12d
  4028fd:	41 29 d3             	sub    %edx,%r11d
  402900:	45 8d 43 fc          	lea    -0x4(%r11),%r8d
  402904:	41 29 d2             	sub    %edx,%r10d
  402907:	41 c1 e8 02          	shr    $0x2,%r8d
  40290b:	41 83 c0 01          	add    $0x1,%r8d
  40290f:	41 83 fa 02          	cmp    $0x2,%r10d
  402913:	42 8d 2c 85 00 00 00 	lea    0x0(,%r8,4),%ebp
  40291a:	00 
  40291b:	0f 86 8d 00 00 00    	jbe    4029ae <_Z10SpeedTestsv+0x49e>
  402921:	4a 8d 14 a6          	lea    (%rsi,%r12,4),%rdx
  402925:	66 0f 6f 05 03 65 04 	movdqa 0x46503(%rip),%xmm0        # 448e30 <_ZTV6MatrixId15CPU_MATHEMATICS10continuousIdS0_EE+0x9c88>
  40292c:	00 
  40292d:	45 31 d2             	xor    %r10d,%r10d
  402930:	66 0f 6f 0a          	movdqa (%rdx),%xmm1
  402934:	66 0f 6f d0          	movdqa %xmm0,%xmm2
  402938:	66 0f 73 d0 20       	psrlq  $0x20,%xmm0
  40293d:	41 83 c2 01          	add    $0x1,%r10d
  402941:	48 83 c2 10          	add    $0x10,%rdx
  402945:	66 0f f4 52 f0       	pmuludq -0x10(%rdx),%xmm2
  40294a:	66 0f 73 d1 20       	psrlq  $0x20,%xmm1
  40294f:	66 0f f4 c8          	pmuludq %xmm0,%xmm1
  402953:	66 0f 70 c2 08       	pshufd $0x8,%xmm2,%xmm0
  402958:	45 39 d0             	cmp    %r10d,%r8d
  40295b:	66 0f 70 c9 08       	pshufd $0x8,%xmm1,%xmm1
  402960:	66 0f 62 c1          	punpckldq %xmm1,%xmm0
  402964:	77 ca                	ja     402930 <_Z10SpeedTestsv+0x420>
  402966:	66 0f 6f d0          	movdqa %xmm0,%xmm2
  40296a:	01 e9                	add    %ebp,%ecx
  40296c:	66 0f 73 da 08       	psrldq $0x8,%xmm2
  402971:	66 0f 6f ca          	movdqa %xmm2,%xmm1
  402975:	66 0f 73 d2 20       	psrlq  $0x20,%xmm2
  40297a:	66 0f f4 c8          	pmuludq %xmm0,%xmm1
  40297e:	66 0f 73 d0 20       	psrlq  $0x20,%xmm0
  402983:	66 0f 70 c9 08       	pshufd $0x8,%xmm1,%xmm1
  402988:	66 0f f4 c2          	pmuludq %xmm2,%xmm0
  40298c:	66 0f 70 c0 08       	pshufd $0x8,%xmm0,%xmm0
  402991:	66 0f 62 c8          	punpckldq %xmm0,%xmm1
  402995:	66 0f 6f c1          	movdqa %xmm1,%xmm0
  402999:	66 0f 73 d9 04       	psrldq $0x4,%xmm1
  40299e:	66 0f f4 c1          	pmuludq %xmm1,%xmm0
  4029a2:	66 0f 7e c2          	movd   %xmm0,%edx
  4029a6:	0f af c2             	imul   %edx,%eax
  4029a9:	41 39 eb             	cmp    %ebp,%r11d
  4029ac:	74 23                	je     4029d1 <_Z10SpeedTestsv+0x4c1>
  4029ae:	48 63 d1             	movslq %ecx,%rdx
  4029b1:	0f af 04 96          	imul   (%rsi,%rdx,4),%eax
  4029b5:	8d 51 01             	lea    0x1(%rcx),%edx
  4029b8:	39 d7                	cmp    %edx,%edi
  4029ba:	7e 15                	jle    4029d1 <_Z10SpeedTestsv+0x4c1>
  4029bc:	48 63 d2             	movslq %edx,%rdx
  4029bf:	83 c1 02             	add    $0x2,%ecx
  4029c2:	0f af 04 96          	imul   (%rsi,%rdx,4),%eax
  4029c6:	39 cf                	cmp    %ecx,%edi
  4029c8:	7e 07                	jle    4029d1 <_Z10SpeedTestsv+0x4c1>
  4029ca:	48 63 c9             	movslq %ecx,%rcx
  4029cd:	0f af 04 8e          	imul   (%rsi,%rcx,4),%eax
  4029d1:	41 89 01             	mov    %eax,(%r9)
  4029d4:	48 63 84 24 d0 00 00 	movslq 0xd0(%rsp),%rax
  4029db:	00 
  4029dc:	48 ba 00 00 00 00 00 	movabs $0xfe0000000000000,%rdx
  4029e3:	00 e0 0f 
  4029e6:	48 63 04 86          	movslq (%rsi,%rax,4),%rax
  4029ea:	48 39 d0             	cmp    %rdx,%rax
  4029ed:	0f 87 ff 09 00 00    	ja     4033f2 <_Z10SpeedTestsv+0xee2>
  4029f3:	48 8d 3c c5 00 00 00 	lea    0x0(,%rax,8),%rdi
  4029fa:	00 
  4029fb:	e8 10 ea ff ff       	callq  401410 <_Znam@plt>
  402a00:	bf 0c 00 00 00       	mov    $0xc,%edi
  402a05:	48 89 84 24 c0 00 00 	mov    %rax,0xc0(%rsp)
  402a0c:	00 
  402a0d:	c6 84 24 d8 00 00 00 	movb   $0x1,0xd8(%rsp)
  402a14:	01 
  402a15:	c6 84 24 d9 00 00 00 	movb   $0x1,0xd9(%rsp)
  402a1c:	01 
  402a1d:	48 c7 84 24 b0 00 00 	movq   $0x43f1b8,0xb0(%rsp)
  402a24:	00 b8 f1 43 00 
  402a29:	c7 84 24 20 01 00 00 	movl   $0x3e8,0x120(%rsp)
  402a30:	e8 03 00 00 
  402a34:	c7 84 24 24 01 00 00 	movl   $0x3e8,0x124(%rsp)
  402a3b:	e8 03 00 00 
  402a3f:	48 c7 84 24 e0 00 00 	movq   $0x43f138,0xe0(%rsp)
  402a46:	00 38 f1 43 00 
  402a4b:	48 c7 84 24 e8 00 00 	movq   $0x43f0c8,0xe8(%rsp)
  402a52:	00 c8 f0 43 00 
  402a57:	c7 84 24 00 01 00 00 	movl   $0x2,0x100(%rsp)
  402a5e:	02 00 00 00 
  402a62:	e8 a9 e9 ff ff       	callq  401410 <_Znam@plt>
  402a67:	48 8d 74 24 50       	lea    0x50(%rsp),%rsi
  402a6c:	48 89 84 24 f8 00 00 	mov    %rax,0xf8(%rsp)
  402a73:	00 
  402a74:	48 8d 84 24 f8 00 00 	lea    0xf8(%rsp),%rax
  402a7b:	00 
  402a7c:	31 c9                	xor    %ecx,%ecx
  402a7e:	31 d2                	xor    %edx,%edx
  402a80:	bf a0 18 40 00       	mov    $0x4018a0,%edi
  402a85:	48 89 44 24 50       	mov    %rax,0x50(%rsp)
  402a8a:	48 89 5c 24 58       	mov    %rbx,0x58(%rsp)
  402a8f:	c7 44 24 60 02 00 00 	movl   $0x2,0x60(%rsp)
  402a96:	00 
  402a97:	e8 04 eb ff ff       	callq  4015a0 <GOMP_parallel@plt>
  402a9c:	e8 9f eb ff ff       	callq  401640 <GOMP_barrier@plt>
  402aa1:	48 63 84 24 00 01 00 	movslq 0x100(%rsp),%rax
  402aa8:	00 
  402aa9:	48 8b b4 24 f8 00 00 	mov    0xf8(%rsp),%rsi
  402ab0:	00 
  402ab1:	85 c0                	test   %eax,%eax
  402ab3:	48 89 c7             	mov    %rax,%rdi
  402ab6:	4c 8d 0c 86          	lea    (%rsi,%rax,4),%r9
  402aba:	0f 8e c2 07 00 00    	jle    403282 <_Z10SpeedTestsv+0xd72>
  402ac0:	48 89 f2             	mov    %rsi,%rdx
  402ac3:	83 e2 0f             	and    $0xf,%edx
  402ac6:	48 c1 ea 02          	shr    $0x2,%rdx
  402aca:	48 f7 da             	neg    %rdx
  402acd:	83 e2 03             	and    $0x3,%edx
  402ad0:	39 c2                	cmp    %eax,%edx
  402ad2:	0f 47 d0             	cmova  %eax,%edx
  402ad5:	83 f8 08             	cmp    $0x8,%eax
  402ad8:	0f 8f 5c 07 00 00    	jg     40323a <_Z10SpeedTestsv+0xd2a>
  402ade:	89 c2                	mov    %eax,%edx
  402ae0:	8b 06                	mov    (%rsi),%eax
  402ae2:	83 fa 01             	cmp    $0x1,%edx
  402ae5:	0f 84 69 07 00 00    	je     403254 <_Z10SpeedTestsv+0xd44>
  402aeb:	0f af 46 04          	imul   0x4(%rsi),%eax
  402aef:	83 fa 02             	cmp    $0x2,%edx
  402af2:	0f 84 0c 08 00 00    	je     403304 <_Z10SpeedTestsv+0xdf4>
  402af8:	0f af 46 08          	imul   0x8(%rsi),%eax
  402afc:	83 fa 03             	cmp    $0x3,%edx
  402aff:	0f 84 45 08 00 00    	je     40334a <_Z10SpeedTestsv+0xe3a>
  402b05:	0f af 46 0c          	imul   0xc(%rsi),%eax
  402b09:	83 fa 04             	cmp    $0x4,%edx
  402b0c:	0f 84 2e 08 00 00    	je     403340 <_Z10SpeedTestsv+0xe30>
  402b12:	0f af 46 10          	imul   0x10(%rsi),%eax
  402b16:	83 fa 05             	cmp    $0x5,%edx
  402b19:	0f 84 17 08 00 00    	je     403336 <_Z10SpeedTestsv+0xe26>
  402b1f:	0f af 46 14          	imul   0x14(%rsi),%eax
  402b23:	83 fa 06             	cmp    $0x6,%edx
  402b26:	0f 84 00 08 00 00    	je     40332c <_Z10SpeedTestsv+0xe1c>
  402b2c:	0f af 46 18          	imul   0x18(%rsi),%eax
  402b30:	83 fa 07             	cmp    $0x7,%edx
  402b33:	0f 84 e9 07 00 00    	je     403322 <_Z10SpeedTestsv+0xe12>
  402b39:	0f af 46 1c          	imul   0x1c(%rsi),%eax
  402b3d:	b9 08 00 00 00       	mov    $0x8,%ecx
  402b42:	39 d7                	cmp    %edx,%edi
  402b44:	0f 84 dd 00 00 00    	je     402c27 <_Z10SpeedTestsv+0x717>
  402b4a:	41 89 fb             	mov    %edi,%r11d
  402b4d:	44 8d 57 ff          	lea    -0x1(%rdi),%r10d
  402b51:	89 d5                	mov    %edx,%ebp
  402b53:	41 29 d3             	sub    %edx,%r11d
  402b56:	45 8d 43 fc          	lea    -0x4(%r11),%r8d
  402b5a:	41 29 d2             	sub    %edx,%r10d
  402b5d:	41 c1 e8 02          	shr    $0x2,%r8d
  402b61:	41 83 c0 01          	add    $0x1,%r8d
  402b65:	41 83 fa 02          	cmp    $0x2,%r10d
  402b69:	42 8d 1c 85 00 00 00 	lea    0x0(,%r8,4),%ebx
  402b70:	00 
  402b71:	0f 86 8d 00 00 00    	jbe    402c04 <_Z10SpeedTestsv+0x6f4>
  402b77:	48 8d 14 ae          	lea    (%rsi,%rbp,4),%rdx
  402b7b:	66 0f 6f 05 ad 62 04 	movdqa 0x462ad(%rip),%xmm0        # 448e30 <_ZTV6MatrixId15CPU_MATHEMATICS10continuousIdS0_EE+0x9c88>
  402b82:	00 
  402b83:	45 31 d2             	xor    %r10d,%r10d
  402b86:	66 0f 6f 0a          	movdqa (%rdx),%xmm1
  402b8a:	66 0f 6f d0          	movdqa %xmm0,%xmm2
  402b8e:	66 0f 73 d0 20       	psrlq  $0x20,%xmm0
  402b93:	41 83 c2 01          	add    $0x1,%r10d
  402b97:	48 83 c2 10          	add    $0x10,%rdx
  402b9b:	66 0f f4 52 f0       	pmuludq -0x10(%rdx),%xmm2
  402ba0:	66 0f 73 d1 20       	psrlq  $0x20,%xmm1
  402ba5:	66 0f f4 c8          	pmuludq %xmm0,%xmm1
  402ba9:	66 0f 70 c2 08       	pshufd $0x8,%xmm2,%xmm0
  402bae:	45 39 c2             	cmp    %r8d,%r10d
  402bb1:	66 0f 70 c9 08       	pshufd $0x8,%xmm1,%xmm1
  402bb6:	66 0f 62 c1          	punpckldq %xmm1,%xmm0
  402bba:	72 ca                	jb     402b86 <_Z10SpeedTestsv+0x676>
  402bbc:	66 0f 6f c8          	movdqa %xmm0,%xmm1
  402bc0:	01 d9                	add    %ebx,%ecx
  402bc2:	66 0f 6f d0          	movdqa %xmm0,%xmm2
  402bc6:	66 0f 73 d0 20       	psrlq  $0x20,%xmm0
  402bcb:	66 0f 73 d9 08       	psrldq $0x8,%xmm1
  402bd0:	66 0f f4 d1          	pmuludq %xmm1,%xmm2
  402bd4:	66 0f 73 d1 20       	psrlq  $0x20,%xmm1
  402bd9:	66 0f f4 c1          	pmuludq %xmm1,%xmm0
  402bdd:	66 0f 70 ca 08       	pshufd $0x8,%xmm2,%xmm1
  402be2:	66 0f 70 c0 08       	pshufd $0x8,%xmm0,%xmm0
  402be7:	66 0f 62 c8          	punpckldq %xmm0,%xmm1
  402beb:	66 0f 6f c1          	movdqa %xmm1,%xmm0
  402bef:	66 0f 73 d9 04       	psrldq $0x4,%xmm1
  402bf4:	66 0f f4 c1          	pmuludq %xmm1,%xmm0
  402bf8:	66 0f 7e c2          	movd   %xmm0,%edx
  402bfc:	0f af c2             	imul   %edx,%eax
  402bff:	44 39 db             	cmp    %r11d,%ebx
  402c02:	74 23                	je     402c27 <_Z10SpeedTestsv+0x717>
  402c04:	48 63 d1             	movslq %ecx,%rdx
  402c07:	0f af 04 96          	imul   (%rsi,%rdx,4),%eax
  402c0b:	8d 51 01             	lea    0x1(%rcx),%edx
  402c0e:	39 fa                	cmp    %edi,%edx
  402c10:	7d 15                	jge    402c27 <_Z10SpeedTestsv+0x717>
  402c12:	48 63 d2             	movslq %edx,%rdx
  402c15:	83 c1 02             	add    $0x2,%ecx
  402c18:	0f af 04 96          	imul   (%rsi,%rdx,4),%eax
  402c1c:	39 f9                	cmp    %edi,%ecx
  402c1e:	7d 07                	jge    402c27 <_Z10SpeedTestsv+0x717>
  402c20:	48 63 c9             	movslq %ecx,%rcx
  402c23:	0f af 04 8e          	imul   (%rsi,%rcx,4),%eax
  402c27:	41 89 01             	mov    %eax,(%r9)
  402c2a:	48 63 84 24 00 01 00 	movslq 0x100(%rsp),%rax
  402c31:	00 
  402c32:	48 ba 00 00 00 00 00 	movabs $0xfe0000000000000,%rdx
  402c39:	00 e0 0f 
  402c3c:	48 63 04 86          	movslq (%rsi,%rax,4),%rax
  402c40:	48 39 d0             	cmp    %rdx,%rax
  402c43:	0f 87 92 07 00 00    	ja     4033db <_Z10SpeedTestsv+0xecb>
  402c49:	48 8d 3c c5 00 00 00 	lea    0x0(,%rax,8),%rdi
  402c50:	00 
  402c51:	e8 ba e7 ff ff       	callq  401410 <_Znam@plt>
  402c56:	48 63 8c 24 a0 00 00 	movslq 0xa0(%rsp),%rcx
  402c5d:	00 
  402c5e:	48 8b 94 24 98 00 00 	mov    0x98(%rsp),%rdx
  402c65:	00 
  402c66:	bf 30 1e 40 00       	mov    $0x401e30,%edi
  402c6b:	48 8b b4 24 90 00 00 	mov    0x90(%rsp),%rsi
  402c72:	00 
  402c73:	48 89 84 24 f0 00 00 	mov    %rax,0xf0(%rsp)
  402c7a:	00 
  402c7b:	f2 0f 10 35 75 c5 03 	movsd  0x3c575(%rip),%xmm6        # 43f1f8 <_ZTV6MatrixId15CPU_MATHEMATICS10continuousIdS0_EE+0x50>
  402c82:	00 
  402c83:	c6 84 24 08 01 00 00 	movb   $0x1,0x108(%rsp)
  402c8a:	01 
  402c8b:	f2 0f 10 2d 5d c5 03 	movsd  0x3c55d(%rip),%xmm5        # 43f1f0 <_ZTV6MatrixId15CPU_MATHEMATICS10continuousIdS0_EE+0x48>
  402c92:	00 
  402c93:	c6 84 24 09 01 00 00 	movb   $0x1,0x109(%rsp)
  402c9a:	01 
  402c9b:	48 89 c8             	mov    %rcx,%rax
  402c9e:	8b 0c 8a             	mov    (%rdx,%rcx,4),%ecx
  402ca1:	48 89 74 24 38       	mov    %rsi,0x38(%rsp)
  402ca6:	89 44 24 48          	mov    %eax,0x48(%rsp)
  402caa:	48 8d 74 24 50       	lea    0x50(%rsp),%rsi
  402caf:	48 8d 44 24 30       	lea    0x30(%rsp),%rax
  402cb4:	48 89 54 24 40       	mov    %rdx,0x40(%rsp)
  402cb9:	31 d2                	xor    %edx,%edx
  402cbb:	f2 0f 11 74 24 60    	movsd  %xmm6,0x60(%rsp)
  402cc1:	89 4c 24 68          	mov    %ecx,0x68(%rsp)
  402cc5:	31 c9                	xor    %ecx,%ecx
  402cc7:	48 89 44 24 50       	mov    %rax,0x50(%rsp)
  402ccc:	f2 0f 11 6c 24 58    	movsd  %xmm5,0x58(%rsp)
  402cd2:	48 c7 84 24 e0 00 00 	movq   $0x43f1b8,0xe0(%rsp)
  402cd9:	00 b8 f1 43 00 
  402cde:	48 c7 44 24 30 c8 f0 	movq   $0x43f0c8,0x30(%rsp)
  402ce5:	43 00 
  402ce7:	e8 b4 e8 ff ff       	callq  4015a0 <GOMP_parallel@plt>
  402cec:	e8 4f e9 ff ff       	callq  401640 <GOMP_barrier@plt>
  402cf1:	48 63 8c 24 d0 00 00 	movslq 0xd0(%rsp),%rcx
  402cf8:	00 
  402cf9:	48 8b 94 24 c8 00 00 	mov    0xc8(%rsp),%rdx
  402d00:	00 
  402d01:	bf 30 1e 40 00       	mov    $0x401e30,%edi
  402d06:	48 8b b4 24 c0 00 00 	mov    0xc0(%rsp),%rsi
  402d0d:	00 
  402d0e:	f2 0f 10 3d da c4 03 	movsd  0x3c4da(%rip),%xmm7        # 43f1f0 <_ZTV6MatrixId15CPU_MATHEMATICS10continuousIdS0_EE+0x48>
  402d15:	00 
  402d16:	f2 0f 10 2d da c4 03 	movsd  0x3c4da(%rip),%xmm5        # 43f1f8 <_ZTV6MatrixId15CPU_MATHEMATICS10continuousIdS0_EE+0x50>
  402d1d:	00 
  402d1e:	48 89 c8             	mov    %rcx,%rax
  402d21:	8b 0c 8a             	mov    (%rdx,%rcx,4),%ecx
  402d24:	48 89 74 24 38       	mov    %rsi,0x38(%rsp)
  402d29:	89 44 24 48          	mov    %eax,0x48(%rsp)
  402d2d:	48 8d 74 24 50       	lea    0x50(%rsp),%rsi
  402d32:	48 8d 44 24 30       	lea    0x30(%rsp),%rax
  402d37:	48 89 54 24 40       	mov    %rdx,0x40(%rsp)
  402d3c:	31 d2                	xor    %edx,%edx
  402d3e:	f2 0f 11 7c 24 58    	movsd  %xmm7,0x58(%rsp)
  402d44:	89 4c 24 68          	mov    %ecx,0x68(%rsp)
  402d48:	31 c9                	xor    %ecx,%ecx
  402d4a:	48 89 44 24 50       	mov    %rax,0x50(%rsp)
  402d4f:	f2 0f 11 6c 24 60    	movsd  %xmm5,0x60(%rsp)
  402d55:	48 c7 44 24 30 c8 f0 	movq   $0x43f0c8,0x30(%rsp)
  402d5c:	43 00 
  402d5e:	e8 3d e8 ff ff       	callq  4015a0 <GOMP_parallel@plt>
  402d63:	e8 d8 e8 ff ff       	callq  401640 <GOMP_barrier@plt>
  402d68:	e8 b3 e8 ff ff       	callq  401620 <omp_get_wtime@plt>
  402d6d:	66 0f ef f6          	pxor   %xmm6,%xmm6
  402d71:	be 69 e2 43 00       	mov    $0x43e269,%esi
  402d76:	bf 01 00 00 00       	mov    $0x1,%edi
  402d7b:	31 c0                	xor    %eax,%eax
  402d7d:	f2 0f 5a f0          	cvtsd2ss %xmm0,%xmm6
  402d81:	f3 0f 11 74 24 2c    	movss  %xmm6,0x2c(%rsp)
  402d87:	e8 74 e6 ff ff       	callq  401400 <__printf_chk@plt>
  402d8c:	48 63 94 24 00 01 00 	movslq 0x100(%rsp),%rdx
  402d93:	00 
  402d94:	48 8b bc 24 90 00 00 	mov    0x90(%rsp),%rdi
  402d9b:	00 
  402d9c:	48 8b 84 24 f8 00 00 	mov    0xf8(%rsp),%rax
  402da3:	00 
  402da4:	48 63 b4 24 d0 00 00 	movslq 0xd0(%rsp),%rsi
  402dab:	00 
  402dac:	4c 8b 84 24 c0 00 00 	mov    0xc0(%rsp),%r8
  402db3:	00 
  402db4:	44 8b 0c 90          	mov    (%rax,%rdx,4),%r9d
  402db8:	49 89 ff             	mov    %rdi,%r15
  402dbb:	48 63 94 24 a0 00 00 	movslq 0xa0(%rsp),%rdx
  402dc2:	00 
  402dc3:	49 c1 e7 3c          	shl    $0x3c,%r15
  402dc7:	49 c1 ef 3f          	shr    $0x3f,%r15
  402dcb:	45 39 cf             	cmp    %r9d,%r15d
  402dce:	45 89 ce             	mov    %r9d,%r14d
  402dd1:	45 0f 47 f9          	cmova  %r9d,%r15d
  402dd5:	41 83 ff 01          	cmp    $0x1,%r15d
  402dd9:	45 89 fb             	mov    %r15d,%r11d
  402ddc:	19 c0                	sbb    %eax,%eax
  402dde:	45 29 fe             	sub    %r15d,%r14d
  402de1:	49 c1 e3 03          	shl    $0x3,%r11
  402de5:	41 8d 5e fe          	lea    -0x2(%r14),%ebx
  402de9:	83 c0 01             	add    $0x1,%eax
  402dec:	4a 8d 2c 1f          	lea    (%rdi,%r11,1),%rbp
  402df0:	89 44 24 28          	mov    %eax,0x28(%rsp)
  402df4:	4f 8d 24 18          	lea    (%r8,%r11,1),%r12
  402df8:	d1 eb                	shr    %ebx
  402dfa:	83 c3 01             	add    $0x1,%ebx
  402dfd:	8d 0c 1b             	lea    (%rbx,%rbx,1),%ecx
  402e00:	89 4c 24 20          	mov    %ecx,0x20(%rsp)
  402e04:	01 c1                	add    %eax,%ecx
  402e06:	48 8b 84 24 98 00 00 	mov    0x98(%rsp),%rax
  402e0d:	00 
  402e0e:	89 4c 24 24          	mov    %ecx,0x24(%rsp)
  402e12:	48 8b 8c 24 c8 00 00 	mov    0xc8(%rsp),%rcx
  402e19:	00 
  402e1a:	8b 0c b1             	mov    (%rcx,%rsi,4),%ecx
  402e1d:	39 0c 90             	cmp    %ecx,(%rax,%rdx,4)
  402e20:	0f 4d 0c 90          	cmovge (%rax,%rdx,4),%ecx
  402e24:	41 39 c9             	cmp    %ecx,%r9d
  402e27:	0f 85 82 05 00 00    	jne    4033af <_Z10SpeedTestsv+0xe9f>
  402e2d:	48 8b 84 24 f0 00 00 	mov    0xf0(%rsp),%rax
  402e34:	00 
  402e35:	49 8d 48 10          	lea    0x10(%r8),%rcx
  402e39:	41 ba e8 03 00 00    	mov    $0x3e8,%r10d
  402e3f:	48 89 0c 24          	mov    %rcx,(%rsp)
  402e43:	48 8d 4f 10          	lea    0x10(%rdi),%rcx
  402e47:	4c 8d 68 10          	lea    0x10(%rax),%r13
  402e4b:	49 01 c3             	add    %rax,%r11
  402e4e:	48 89 4c 24 10       	mov    %rcx,0x10(%rsp)
  402e53:	0f 1f 44 00 00       	nopl   0x0(%rax,%rax,1)
  402e58:	45 85 c9             	test   %r9d,%r9d
  402e5b:	0f 8e a7 00 00 00    	jle    402f08 <_Z10SpeedTestsv+0x9f8>
  402e61:	48 3b 04 24          	cmp    (%rsp),%rax
  402e65:	0f 93 c1             	setae  %cl
  402e68:	4d 39 c5             	cmp    %r8,%r13
  402e6b:	0f 96 c2             	setbe  %dl
  402e6e:	09 d1                	or     %edx,%ecx
  402e70:	48 3b 44 24 10       	cmp    0x10(%rsp),%rax
  402e75:	40 0f 93 c6          	setae  %sil
  402e79:	49 39 fd             	cmp    %rdi,%r13
  402e7c:	0f 96 c2             	setbe  %dl
  402e7f:	09 f2                	or     %esi,%edx
  402e81:	84 d1                	test   %dl,%cl
  402e83:	0f 84 5f 03 00 00    	je     4031e8 <_Z10SpeedTestsv+0xcd8>
  402e89:	41 83 f9 0a          	cmp    $0xa,%r9d
  402e8d:	0f 86 55 03 00 00    	jbe    4031e8 <_Z10SpeedTestsv+0xcd8>
  402e93:	45 85 ff             	test   %r15d,%r15d
  402e96:	74 15                	je     402ead <_Z10SpeedTestsv+0x99d>
  402e98:	f2 0f 10 07          	movsd  (%rdi),%xmm0
  402e9c:	f2 41 0f 10 08       	movsd  (%r8),%xmm1
  402ea1:	f2 0f 58 c8          	addsd  %xmm0,%xmm1
  402ea5:	f2 0f 58 c1          	addsd  %xmm1,%xmm0
  402ea9:	f2 0f 11 00          	movsd  %xmm0,(%rax)
  402ead:	41 83 fe 01          	cmp    $0x1,%r14d
  402eb1:	0f 84 21 03 00 00    	je     4031d8 <_Z10SpeedTestsv+0xcc8>
  402eb7:	31 d2                	xor    %edx,%edx
  402eb9:	31 c9                	xor    %ecx,%ecx
  402ebb:	0f 1f 44 00 00       	nopl   0x0(%rax,%rax,1)
  402ec0:	66 0f 28 44 15 00    	movapd 0x0(%rbp,%rdx,1),%xmm0
  402ec6:	83 c1 01             	add    $0x1,%ecx
  402ec9:	66 41 0f 10 0c 14    	movupd (%r12,%rdx,1),%xmm1
  402ecf:	66 0f 58 c8          	addpd  %xmm0,%xmm1
  402ed3:	66 0f 58 c1          	addpd  %xmm1,%xmm0
  402ed7:	41 0f 11 04 13       	movups %xmm0,(%r11,%rdx,1)
  402edc:	48 83 c2 10          	add    $0x10,%rdx
  402ee0:	39 d9                	cmp    %ebx,%ecx
  402ee2:	72 dc                	jb     402ec0 <_Z10SpeedTestsv+0x9b0>
  402ee4:	44 39 74 24 20       	cmp    %r14d,0x20(%rsp)
  402ee9:	74 1d                	je     402f08 <_Z10SpeedTestsv+0x9f8>
  402eeb:	48 63 54 24 24       	movslq 0x24(%rsp),%rdx
  402ef0:	f2 0f 10 04 d7       	movsd  (%rdi,%rdx,8),%xmm0
  402ef5:	f2 41 0f 10 0c d0    	movsd  (%r8,%rdx,8),%xmm1
  402efb:	f2 0f 58 c8          	addsd  %xmm0,%xmm1
  402eff:	f2 0f 58 c1          	addsd  %xmm1,%xmm0
  402f03:	f2 0f 11 04 d0       	movsd  %xmm0,(%rax,%rdx,8)
  402f08:	41 83 ea 01          	sub    $0x1,%r10d
  402f0c:	0f 85 46 ff ff ff    	jne    402e58 <_Z10SpeedTestsv+0x948>
  402f12:	66 0f ef ff          	pxor   %xmm7,%xmm7
  402f16:	be 98 e1 43 00       	mov    $0x43e198,%esi
  402f1b:	bf 01 00 00 00       	mov    $0x1,%edi
  402f20:	b8 01 00 00 00       	mov    $0x1,%eax
  402f25:	f3 0f 5a 7c 24 2c    	cvtss2sd 0x2c(%rsp),%xmm7
  402f2b:	66 0f 28 c7          	movapd %xmm7,%xmm0
  402f2f:	f2 0f 11 3c 24       	movsd  %xmm7,(%rsp)
  402f34:	e8 c7 e4 ff ff       	callq  401400 <__printf_chk@plt>
  402f39:	e8 e2 e6 ff ff       	callq  401620 <omp_get_wtime@plt>
  402f3e:	f2 0f 5c 04 24       	subsd  (%rsp),%xmm0
  402f43:	be 84 e2 43 00       	mov    $0x43e284,%esi
  402f48:	bf 01 00 00 00       	mov    $0x1,%edi
  402f4d:	b8 02 00 00 00       	mov    $0x2,%eax
  402f52:	f2 0f 5a c0          	cvtsd2ss %xmm0,%xmm0
  402f56:	f3 0f 5a c0          	cvtss2sd %xmm0,%xmm0
  402f5a:	66 0f 28 c8          	movapd %xmm0,%xmm1
  402f5e:	e8 9d e4 ff ff       	callq  401400 <__printf_chk@plt>
  402f63:	48 63 94 24 00 01 00 	movslq 0x100(%rsp),%rdx
  402f6a:	00 
  402f6b:	48 8b 84 24 f8 00 00 	mov    0xf8(%rsp),%rax
  402f72:	00 
  402f73:	48 8b 9c 24 f0 00 00 	mov    0xf0(%rsp),%rbx
  402f7a:	00 
  402f7b:	4c 8b b4 24 90 00 00 	mov    0x90(%rsp),%r14
  402f82:	00 
  402f83:	4c 8b ac 24 c0 00 00 	mov    0xc0(%rsp),%r13
  402f8a:	00 
  402f8b:	44 8b 24 90          	mov    (%rax,%rdx,4),%r12d
  402f8f:	e8 8c e6 ff ff       	callq  401620 <omp_get_wtime@plt>
  402f94:	66 0f ef ed          	pxor   %xmm5,%xmm5
  402f98:	f2 0f 5a e8          	cvtsd2ss %xmm0,%xmm5
  402f9c:	f3 0f 11 2c 24       	movss  %xmm5,(%rsp)
  402fa1:	e8 ba f1 ff ff       	callq  402160 <_ZSt4endlIcSt11char_traitsIcEERSt13basic_ostreamIT_T0_ES6_.constprop.65>
  402fa6:	48 89 c7             	mov    %rax,%rdi
  402fa9:	e8 a2 e4 ff ff       	callq  401450 <_ZSt4endlIcSt11char_traitsIcEERSt13basic_ostreamIT_T0_ES6_@plt>
  402fae:	be d8 e1 43 00       	mov    $0x43e1d8,%esi
  402fb3:	bf 01 00 00 00       	mov    $0x1,%edi
  402fb8:	31 c0                	xor    %eax,%eax
  402fba:	e8 41 e4 ff ff       	callq  401400 <__printf_chk@plt>
  402fbf:	bd e8 03 00 00       	mov    $0x3e8,%ebp
  402fc4:	0f 1f 40 00          	nopl   0x0(%rax)
  402fc8:	48 8d 74 24 50       	lea    0x50(%rsp),%rsi
  402fcd:	31 c9                	xor    %ecx,%ecx
  402fcf:	31 d2                	xor    %edx,%edx
  402fd1:	bf f0 1a 40 00       	mov    $0x401af0,%edi
  402fd6:	48 89 5c 24 50       	mov    %rbx,0x50(%rsp)
  402fdb:	4c 89 74 24 58       	mov    %r14,0x58(%rsp)
  402fe0:	4c 89 6c 24 60       	mov    %r13,0x60(%rsp)
  402fe5:	44 89 64 24 68       	mov    %r12d,0x68(%rsp)
  402fea:	e8 b1 e5 ff ff       	callq  4015a0 <GOMP_parallel@plt>
  402fef:	e8 4c e6 ff ff       	callq  401640 <GOMP_barrier@plt>
  402ff4:	48 8d 74 24 50       	lea    0x50(%rsp),%rsi
  402ff9:	31 c9                	xor    %ecx,%ecx
  402ffb:	31 d2                	xor    %edx,%edx
  402ffd:	bf f0 1a 40 00       	mov    $0x401af0,%edi
  403002:	48 89 5c 24 50       	mov    %rbx,0x50(%rsp)
  403007:	48 89 5c 24 58       	mov    %rbx,0x58(%rsp)
  40300c:	4c 89 74 24 60       	mov    %r14,0x60(%rsp)
  403011:	44 89 64 24 68       	mov    %r12d,0x68(%rsp)
  403016:	e8 85 e5 ff ff       	callq  4015a0 <GOMP_parallel@plt>
  40301b:	e8 20 e6 ff ff       	callq  401640 <GOMP_barrier@plt>
  403020:	83 ed 01             	sub    $0x1,%ebp
  403023:	75 a3                	jne    402fc8 <_Z10SpeedTestsv+0xab8>
  403025:	e8 f6 e5 ff ff       	callq  401620 <omp_get_wtime@plt>
  40302a:	66 0f ef c9          	pxor   %xmm1,%xmm1
  40302e:	be 84 e2 43 00       	mov    $0x43e284,%esi
  403033:	bf 01 00 00 00       	mov    $0x1,%edi
  403038:	b8 02 00 00 00       	mov    $0x2,%eax
  40303d:	f3 0f 5a 0c 24       	cvtss2sd (%rsp),%xmm1
  403042:	f2 0f 5c c1          	subsd  %xmm1,%xmm0
  403046:	f2 0f 5a c0          	cvtsd2ss %xmm0,%xmm0
  40304a:	f3 0f 5a c0          	cvtss2sd %xmm0,%xmm0
  40304e:	66 0f 28 c8          	movapd %xmm0,%xmm1
  403052:	e8 a9 e3 ff ff       	callq  401400 <__printf_chk@plt>
  403057:	ba 08 00 00 00       	mov    $0x8,%edx
  40305c:	be f5 e2 43 00       	mov    $0x43e2f5,%esi
  403061:	bf e0 c1 64 00       	mov    $0x64c1e0,%edi
  403066:	e8 e5 e4 ff ff       	callq  401550 <_ZSt16__ostream_insertIcSt11char_traitsIcEERSt13basic_ostreamIT_T0_ES6_PKS3_l@plt>
  40306b:	e8 f0 f0 ff ff       	callq  402160 <_ZSt4endlIcSt11char_traitsIcEERSt13basic_ostreamIT_T0_ES6_.constprop.65>
  403070:	e8 eb f0 ff ff       	callq  402160 <_ZSt4endlIcSt11char_traitsIcEERSt13basic_ostreamIT_T0_ES6_.constprop.65>
  403075:	48 89 c7             	mov    %rax,%rdi
  403078:	e8 d3 e3 ff ff       	callq  401450 <_ZSt4endlIcSt11char_traitsIcEERSt13basic_ostreamIT_T0_ES6_@plt>
  40307d:	be 20 e2 43 00       	mov    $0x43e220,%esi
  403082:	bf 01 00 00 00       	mov    $0x1,%edi
  403087:	31 c0                	xor    %eax,%eax
  403089:	e8 72 e3 ff ff       	callq  401400 <__printf_chk@plt>
  40308e:	e8 8d e5 ff ff       	callq  401620 <omp_get_wtime@plt>
  403093:	66 0f ef ff          	pxor   %xmm7,%xmm7
  403097:	48 89 1c 24          	mov    %rbx,(%rsp)
  40309b:	f3 0f 7e 2c 24       	movq   (%rsp),%xmm5
  4030a0:	4c 89 34 24          	mov    %r14,(%rsp)
  4030a4:	0f 16 2c 24          	movhps (%rsp),%xmm5
  4030a8:	4c 89 2c 24          	mov    %r13,(%rsp)
  4030ac:	bd e8 03 00 00       	mov    $0x3e8,%ebp
  4030b1:	f2 0f 5a f8          	cvtsd2ss %xmm0,%xmm7
  4030b5:	f3 0f 7e 34 24       	movq   (%rsp),%xmm6
  4030ba:	66 0f 6c f6          	punpcklqdq %xmm6,%xmm6
  4030be:	0f 29 6c 24 10       	movaps %xmm5,0x10(%rsp)
  4030c3:	0f 29 34 24          	movaps %xmm6,(%rsp)
  4030c7:	f3 0f 11 7c 24 20    	movss  %xmm7,0x20(%rsp)
  4030cd:	0f 1f 00             	nopl   (%rax)
  4030d0:	66 0f 6f 5c 24 10    	movdqa 0x10(%rsp),%xmm3
  4030d6:	48 8d 74 24 50       	lea    0x50(%rsp),%rsi
  4030db:	31 c9                	xor    %ecx,%ecx
  4030dd:	31 d2                	xor    %edx,%edx
  4030df:	bf 60 1c 40 00       	mov    $0x401c60,%edi
  4030e4:	44 89 64 24 70       	mov    %r12d,0x70(%rsp)
  4030e9:	66 0f 6f 24 24       	movdqa (%rsp),%xmm4
  4030ee:	0f 29 5c 24 50       	movaps %xmm3,0x50(%rsp)
  4030f3:	0f 29 64 24 60       	movaps %xmm4,0x60(%rsp)
  4030f8:	e8 a3 e4 ff ff       	callq  4015a0 <GOMP_parallel@plt>
  4030fd:	e8 3e e5 ff ff       	callq  401640 <GOMP_barrier@plt>
  403102:	83 ed 01             	sub    $0x1,%ebp
  403105:	75 c9                	jne    4030d0 <_Z10SpeedTestsv+0xbc0>
  403107:	e8 14 e5 ff ff       	callq  401620 <omp_get_wtime@plt>
  40310c:	66 0f ef c9          	pxor   %xmm1,%xmm1
  403110:	be 84 e2 43 00       	mov    $0x43e284,%esi
  403115:	bf 01 00 00 00       	mov    $0x1,%edi
  40311a:	b8 02 00 00 00       	mov    $0x2,%eax
  40311f:	f3 0f 5a 4c 24 20    	cvtss2sd 0x20(%rsp),%xmm1
  403125:	f2 0f 5c c1          	subsd  %xmm1,%xmm0
  403129:	f2 0f 5a c0          	cvtsd2ss %xmm0,%xmm0
  40312d:	f3 0f 5a c0          	cvtss2sd %xmm0,%xmm0
  403131:	66 0f 28 c8          	movapd %xmm0,%xmm1
  403135:	e8 c6 e2 ff ff       	callq  401400 <__printf_chk@plt>
  40313a:	e8 21 f0 ff ff       	callq  402160 <_ZSt4endlIcSt11char_traitsIcEERSt13basic_ostreamIT_T0_ES6_.constprop.65>
  40313f:	48 89 c7             	mov    %rax,%rdi
  403142:	e8 09 e3 ff ff       	callq  401450 <_ZSt4endlIcSt11char_traitsIcEERSt13basic_ostreamIT_T0_ES6_@plt>
  403147:	ba 08 00 00 00       	mov    $0x8,%edx
  40314c:	be f5 e2 43 00       	mov    $0x43e2f5,%esi
  403151:	bf e0 c1 64 00       	mov    $0x64c1e0,%edi
  403156:	e8 f5 e3 ff ff       	callq  401550 <_ZSt16__ostream_insertIcSt11char_traitsIcEERSt13basic_ostreamIT_T0_ES6_PKS3_l@plt>
  40315b:	e8 00 f0 ff ff       	callq  402160 <_ZSt4endlIcSt11char_traitsIcEERSt13basic_ostreamIT_T0_ES6_.constprop.65>
  403160:	48 8d bc 24 e0 00 00 	lea    0xe0(%rsp),%rdi
  403167:	00 
  403168:	48 c7 84 24 e0 00 00 	movq   $0x43f1b8,0xe0(%rsp)
  40316f:	00 b8 f1 43 00 
  403174:	e8 b7 34 00 00       	callq  406630 <_ZN11Tensor_JackId15CPU_MATHEMATICS10continuousIdS0_EED1Ev>
  403179:	48 8d bc 24 b0 00 00 	lea    0xb0(%rsp),%rdi
  403180:	00 
  403181:	48 c7 84 24 b0 00 00 	movq   $0x43f1b8,0xb0(%rsp)
  403188:	00 b8 f1 43 00 
  40318d:	e8 9e 34 00 00       	callq  406630 <_ZN11Tensor_JackId15CPU_MATHEMATICS10continuousIdS0_EED1Ev>
  403192:	48 8d bc 24 80 00 00 	lea    0x80(%rsp),%rdi
  403199:	00 
  40319a:	48 c7 84 24 80 00 00 	movq   $0x43f1b8,0x80(%rsp)
  4031a1:	00 b8 f1 43 00 
  4031a6:	e8 85 34 00 00       	callq  406630 <_ZN11Tensor_JackId15CPU_MATHEMATICS10continuousIdS0_EED1Ev>
  4031ab:	48 8b 9c 24 28 01 00 	mov    0x128(%rsp),%rbx
  4031b2:	00 
  4031b3:	64 48 33 1c 25 28 00 	xor    %fs:0x28,%rbx
  4031ba:	00 00 
  4031bc:	0f 85 2b 02 00 00    	jne    4033ed <_Z10SpeedTestsv+0xedd>
  4031c2:	48 81 c4 38 01 00 00 	add    $0x138,%rsp
  4031c9:	5b                   	pop    %rbx
  4031ca:	5d                   	pop    %rbp
  4031cb:	41 5c                	pop    %r12
  4031cd:	41 5d                	pop    %r13
  4031cf:	41 5e                	pop    %r14
  4031d1:	41 5f                	pop    %r15
  4031d3:	c3                   	retq   
  4031d4:	0f 1f 40 00          	nopl   0x0(%rax)
  4031d8:	48 63 54 24 28       	movslq 0x28(%rsp),%rdx
  4031dd:	e9 0e fd ff ff       	jmpq   402ef0 <_Z10SpeedTestsv+0x9e0>
  4031e2:	66 0f 1f 44 00 00    	nopw   0x0(%rax,%rax,1)
  4031e8:	31 d2                	xor    %edx,%edx
  4031ea:	66 0f 1f 44 00 00    	nopw   0x0(%rax,%rax,1)
  4031f0:	f2 0f 10 04 d7       	movsd  (%rdi,%rdx,8),%xmm0
  4031f5:	f2 41 0f 10 0c d0    	movsd  (%r8,%rdx,8),%xmm1
  4031fb:	f2 0f 58 c8          	addsd  %xmm0,%xmm1
  4031ff:	f2 0f 58 c1          	addsd  %xmm1,%xmm0
  403203:	f2 0f 11 04 d0       	movsd  %xmm0,(%rax,%rdx,8)
  403208:	48 83 c2 01          	add    $0x1,%rdx
  40320c:	41 39 d1             	cmp    %edx,%r9d
  40320f:	7f df                	jg     4031f0 <_Z10SpeedTestsv+0xce0>
  403211:	e9 f2 fc ff ff       	jmpq   402f08 <_Z10SpeedTestsv+0x9f8>
  403216:	31 c9                	xor    %ecx,%ecx
  403218:	85 d2                	test   %edx,%edx
  40321a:	b8 01 00 00 00       	mov    $0x1,%eax
  40321f:	0f 84 63 f4 ff ff    	je     402688 <_Z10SpeedTestsv+0x178>
  403225:	83 fa 01             	cmp    $0x1,%edx
  403228:	8b 06                	mov    (%rsi),%eax
  40322a:	0f 85 f9 f3 ff ff    	jne    402629 <_Z10SpeedTestsv+0x119>
  403230:	b9 01 00 00 00       	mov    $0x1,%ecx
  403235:	e9 46 f4 ff ff       	jmpq   402680 <_Z10SpeedTestsv+0x170>
  40323a:	31 c9                	xor    %ecx,%ecx
  40323c:	85 d2                	test   %edx,%edx
  40323e:	b8 01 00 00 00       	mov    $0x1,%eax
  403243:	0f 84 01 f9 ff ff    	je     402b4a <_Z10SpeedTestsv+0x63a>
  403249:	83 fa 01             	cmp    $0x1,%edx
  40324c:	8b 06                	mov    (%rsi),%eax
  40324e:	0f 85 97 f8 ff ff    	jne    402aeb <_Z10SpeedTestsv+0x5db>
  403254:	b9 01 00 00 00       	mov    $0x1,%ecx
  403259:	e9 e4 f8 ff ff       	jmpq   402b42 <_Z10SpeedTestsv+0x632>
  40325e:	31 c9                	xor    %ecx,%ecx
  403260:	85 d2                	test   %edx,%edx
  403262:	b8 01 00 00 00       	mov    $0x1,%eax
  403267:	0f 84 86 f6 ff ff    	je     4028f3 <_Z10SpeedTestsv+0x3e3>
  40326d:	83 fa 01             	cmp    $0x1,%edx
  403270:	8b 06                	mov    (%rsi),%eax
  403272:	0f 85 1c f6 ff ff    	jne    402894 <_Z10SpeedTestsv+0x384>
  403278:	b9 01 00 00 00       	mov    $0x1,%ecx
  40327d:	e9 69 f6 ff ff       	jmpq   4028eb <_Z10SpeedTestsv+0x3db>
  403282:	b8 01 00 00 00       	mov    $0x1,%eax
  403287:	e9 9b f9 ff ff       	jmpq   402c27 <_Z10SpeedTestsv+0x717>
  40328c:	b8 01 00 00 00       	mov    $0x1,%eax
  403291:	e9 3b f7 ff ff       	jmpq   4029d1 <_Z10SpeedTestsv+0x4c1>
  403296:	b9 05 00 00 00       	mov    $0x5,%ecx
  40329b:	e9 4b f6 ff ff       	jmpq   4028eb <_Z10SpeedTestsv+0x3db>
  4032a0:	b9 04 00 00 00       	mov    $0x4,%ecx
  4032a5:	e9 41 f6 ff ff       	jmpq   4028eb <_Z10SpeedTestsv+0x3db>
  4032aa:	b9 03 00 00 00       	mov    $0x3,%ecx
  4032af:	e9 37 f6 ff ff       	jmpq   4028eb <_Z10SpeedTestsv+0x3db>
  4032b4:	b9 02 00 00 00       	mov    $0x2,%ecx
  4032b9:	e9 2d f6 ff ff       	jmpq   4028eb <_Z10SpeedTestsv+0x3db>
  4032be:	b9 07 00 00 00       	mov    $0x7,%ecx
  4032c3:	e9 b8 f3 ff ff       	jmpq   402680 <_Z10SpeedTestsv+0x170>
  4032c8:	b9 06 00 00 00       	mov    $0x6,%ecx
  4032cd:	e9 ae f3 ff ff       	jmpq   402680 <_Z10SpeedTestsv+0x170>
  4032d2:	b9 05 00 00 00       	mov    $0x5,%ecx
  4032d7:	e9 a4 f3 ff ff       	jmpq   402680 <_Z10SpeedTestsv+0x170>
  4032dc:	b9 04 00 00 00       	mov    $0x4,%ecx
  4032e1:	e9 9a f3 ff ff       	jmpq   402680 <_Z10SpeedTestsv+0x170>
  4032e6:	b9 03 00 00 00       	mov    $0x3,%ecx
  4032eb:	e9 90 f3 ff ff       	jmpq   402680 <_Z10SpeedTestsv+0x170>
  4032f0:	b9 02 00 00 00       	mov    $0x2,%ecx
  4032f5:	e9 86 f3 ff ff       	jmpq   402680 <_Z10SpeedTestsv+0x170>
  4032fa:	b8 01 00 00 00       	mov    $0x1,%eax
  4032ff:	e9 62 f4 ff ff       	jmpq   402766 <_Z10SpeedTestsv+0x256>
  403304:	b9 02 00 00 00       	mov    $0x2,%ecx
  403309:	e9 34 f8 ff ff       	jmpq   402b42 <_Z10SpeedTestsv+0x632>
  40330e:	b9 07 00 00 00       	mov    $0x7,%ecx
  403313:	e9 d3 f5 ff ff       	jmpq   4028eb <_Z10SpeedTestsv+0x3db>
  403318:	b9 06 00 00 00       	mov    $0x6,%ecx
  40331d:	e9 c9 f5 ff ff       	jmpq   4028eb <_Z10SpeedTestsv+0x3db>
  403322:	b9 07 00 00 00       	mov    $0x7,%ecx
  403327:	e9 16 f8 ff ff       	jmpq   402b42 <_Z10SpeedTestsv+0x632>
  40332c:	b9 06 00 00 00       	mov    $0x6,%ecx
  403331:	e9 0c f8 ff ff       	jmpq   402b42 <_Z10SpeedTestsv+0x632>
  403336:	b9 05 00 00 00       	mov    $0x5,%ecx
  40333b:	e9 02 f8 ff ff       	jmpq   402b42 <_Z10SpeedTestsv+0x632>
  403340:	b9 04 00 00 00       	mov    $0x4,%ecx
  403345:	e9 f8 f7 ff ff       	jmpq   402b42 <_Z10SpeedTestsv+0x632>
  40334a:	b9 03 00 00 00       	mov    $0x3,%ecx
  40334f:	e9 ee f7 ff ff       	jmpq   402b42 <_Z10SpeedTestsv+0x632>
  403354:	48 89 c3             	mov    %rax,%rbx
  403357:	48 8d bc 24 80 00 00 	lea    0x80(%rsp),%rdi
  40335e:	00 
  40335f:	48 c7 84 24 80 00 00 	movq   $0x43f1b8,0x80(%rsp)
  403366:	00 b8 f1 43 00 
  40336b:	e8 c0 32 00 00       	callq  406630 <_ZN11Tensor_JackId15CPU_MATHEMATICS10continuousIdS0_EED1Ev>
  403370:	48 89 df             	mov    %rbx,%rdi
  403373:	e8 98 e2 ff ff       	callq  401610 <_Unwind_Resume@plt>
  403378:	48 89 c3             	mov    %rax,%rbx
  40337b:	48 8d bc 24 e0 00 00 	lea    0xe0(%rsp),%rdi
  403382:	00 
  403383:	48 c7 84 24 e0 00 00 	movq   $0x43f1b8,0xe0(%rsp)
  40338a:	00 b8 f1 43 00 
  40338f:	e8 9c 32 00 00       	callq  406630 <_ZN11Tensor_JackId15CPU_MATHEMATICS10continuousIdS0_EED1Ev>
  403394:	48 8d bc 24 b0 00 00 	lea    0xb0(%rsp),%rdi
  40339b:	00 
  40339c:	48 c7 84 24 b0 00 00 	movq   $0x43f1b8,0xb0(%rsp)
  4033a3:	00 b8 f1 43 00 
  4033a8:	e8 83 32 00 00       	callq  406630 <_ZN11Tensor_JackId15CPU_MATHEMATICS10continuousIdS0_EED1Ev>
  4033ad:	eb a8                	jmp    403357 <_Z10SpeedTestsv+0xe47>
  4033af:	bf 10 00 00 00       	mov    $0x10,%edi
  4033b4:	e8 a7 e0 ff ff       	callq  401460 <__cxa_allocate_exception@plt>
  4033b9:	be 48 e2 43 00       	mov    $0x43e248,%esi
  4033be:	48 89 c7             	mov    %rax,%rdi
  4033c1:	48 89 c5             	mov    %rax,%rbp
  4033c4:	e8 a7 e2 ff ff       	callq  401670 <_ZNSt16invalid_argumentC1EPKc@plt>
  4033c9:	ba e0 15 40 00       	mov    $0x4015e0,%edx
  4033ce:	be a0 c3 64 00       	mov    $0x64c3a0,%esi
  4033d3:	48 89 ef             	mov    %rbp,%rdi
  4033d6:	e8 15 e2 ff ff       	callq  4015f0 <__cxa_throw@plt>
  4033db:	e8 b0 e1 ff ff       	callq  401590 <__cxa_throw_bad_array_new_length@plt>
  4033e0:	48 89 ef             	mov    %rbp,%rdi
  4033e3:	48 89 c3             	mov    %rax,%rbx
  4033e6:	e8 e5 e0 ff ff       	callq  4014d0 <__cxa_free_exception@plt>
  4033eb:	eb 8e                	jmp    40337b <_Z10SpeedTestsv+0xe6b>
  4033ed:	e8 4e e1 ff ff       	callq  401540 <__stack_chk_fail@plt>
  4033f2:	e8 99 e1 ff ff       	callq  401590 <__cxa_throw_bad_array_new_length@plt>
  4033f7:	48 89 c3             	mov    %rax,%rbx
  4033fa:	eb 98                	jmp    403394 <_Z10SpeedTestsv+0xe84>
  4033fc:	e8 8f e1 ff ff       	callq  401590 <__cxa_throw_bad_array_new_length@plt>
  403401:	0f 1f 44 00 00       	nopl   0x0(%rax,%rax,1)
  403406:	66 2e 0f 1f 84 00 00 	nopw   %cs:0x0(%rax,%rax,1)
  40340d:	00 00 00 

0000000000403410 <_Z7tq_testv>:
  403410:	41 54                	push   %r12
  403412:	55                   	push   %rbp
  403413:	ba 06 00 00 00       	mov    $0x6,%edx
  403418:	53                   	push   %rbx
  403419:	be ed e2 43 00       	mov    $0x43e2ed,%esi
  40341e:	bf e0 c1 64 00       	mov    $0x64c1e0,%edi
  403423:	48 81 ec 20 01 00 00 	sub    $0x120,%rsp
  40342a:	64 48 8b 04 25 28 00 	mov    %fs:0x28,%rax
  403431:	00 00 
  403433:	48 89 84 24 18 01 00 	mov    %rax,0x118(%rsp)
  40343a:	00 
  40343b:	31 c0                	xor    %eax,%eax
  40343d:	e8 0e e1 ff ff       	callq  401550 <_ZSt16__ostream_insertIcSt11char_traitsIcEERSt13basic_ostreamIT_T0_ES6_PKS3_l@plt>
  403442:	e8 19 ed ff ff       	callq  402160 <_ZSt4endlIcSt11char_traitsIcEERSt13basic_ostreamIT_T0_ES6_.constprop.65>
  403447:	bf 0c 00 00 00       	mov    $0xc,%edi
  40344c:	48 c7 44 24 50 c8 ec 	movq   $0x43ecc8,0x50(%rsp)
  403453:	43 00 
  403455:	48 c7 44 24 58 58 ec 	movq   $0x43ec58,0x58(%rsp)
  40345c:	43 00 
  40345e:	c7 44 24 70 02 00 00 	movl   $0x2,0x70(%rsp)
  403465:	00 
  403466:	e8 a5 df ff ff       	callq  401410 <_Znam@plt>
  40346b:	48 8d b4 24 e0 00 00 	lea    0xe0(%rsp),%rsi
  403472:	00 
  403473:	48 89 44 24 68       	mov    %rax,0x68(%rsp)
  403478:	48 8d 44 24 68       	lea    0x68(%rsp),%rax
  40347d:	31 c9                	xor    %ecx,%ecx
  40347f:	31 d2                	xor    %edx,%edx
  403481:	bf a0 18 40 00       	mov    $0x4018a0,%edi
  403486:	48 89 84 24 e0 00 00 	mov    %rax,0xe0(%rsp)
  40348d:	00 
  40348e:	48 c7 84 24 e8 00 00 	movq   $0x43e320,0xe8(%rsp)
  403495:	00 20 e3 43 00 
  40349a:	c7 84 24 f0 00 00 00 	movl   $0x2,0xf0(%rsp)
  4034a1:	02 00 00 00 
  4034a5:	e8 f6 e0 ff ff       	callq  4015a0 <GOMP_parallel@plt>
  4034aa:	e8 91 e1 ff ff       	callq  401640 <GOMP_barrier@plt>
  4034af:	48 63 44 24 70       	movslq 0x70(%rsp),%rax
  4034b4:	48 8b 4c 24 68       	mov    0x68(%rsp),%rcx
  4034b9:	85 c0                	test   %eax,%eax
  4034bb:	4c 8d 0c 81          	lea    (%rcx,%rax,4),%r9
  4034bf:	0f 8e 3b 0c 00 00    	jle    404100 <_Z7tq_testv+0xcf0>
  4034c5:	48 89 c6             	mov    %rax,%rsi
  4034c8:	48 89 c8             	mov    %rcx,%rax
  4034cb:	83 e0 0f             	and    $0xf,%eax
  4034ce:	48 c1 e8 02          	shr    $0x2,%rax
  4034d2:	48 f7 d8             	neg    %rax
  4034d5:	83 e0 03             	and    $0x3,%eax
  4034d8:	39 f0                	cmp    %esi,%eax
  4034da:	0f 47 c6             	cmova  %esi,%eax
  4034dd:	83 fe 08             	cmp    $0x8,%esi
  4034e0:	0f 8f 7a 0b 00 00    	jg     404060 <_Z7tq_testv+0xc50>
  4034e6:	89 f0                	mov    %esi,%eax
  4034e8:	83 f8 01             	cmp    $0x1,%eax
  4034eb:	8b 11                	mov    (%rcx),%edx
  4034ed:	0f 84 7d 0c 00 00    	je     404170 <_Z7tq_testv+0xd60>
  4034f3:	0f af 51 04          	imul   0x4(%rcx),%edx
  4034f7:	83 f8 02             	cmp    $0x2,%eax
  4034fa:	0f 84 80 0c 00 00    	je     404180 <_Z7tq_testv+0xd70>
  403500:	0f af 51 08          	imul   0x8(%rcx),%edx
  403504:	83 f8 03             	cmp    $0x3,%eax
  403507:	0f 84 83 0c 00 00    	je     404190 <_Z7tq_testv+0xd80>
  40350d:	0f af 51 0c          	imul   0xc(%rcx),%edx
  403511:	83 f8 04             	cmp    $0x4,%eax
  403514:	0f 84 86 0c 00 00    	je     4041a0 <_Z7tq_testv+0xd90>
  40351a:	0f af 51 10          	imul   0x10(%rcx),%edx
  40351e:	83 f8 05             	cmp    $0x5,%eax
  403521:	0f 84 a9 0c 00 00    	je     4041d0 <_Z7tq_testv+0xdc0>
  403527:	0f af 51 14          	imul   0x14(%rcx),%edx
  40352b:	83 f8 06             	cmp    $0x6,%eax
  40352e:	0f 84 ac 0c 00 00    	je     4041e0 <_Z7tq_testv+0xdd0>
  403534:	0f af 51 18          	imul   0x18(%rcx),%edx
  403538:	83 f8 07             	cmp    $0x7,%eax
  40353b:	0f 84 1f 0d 00 00    	je     404260 <_Z7tq_testv+0xe50>
  403541:	0f af 51 1c          	imul   0x1c(%rcx),%edx
  403545:	bf 08 00 00 00       	mov    $0x8,%edi
  40354a:	39 c6                	cmp    %eax,%esi
  40354c:	0f 84 dc 00 00 00    	je     40362e <_Z7tq_testv+0x21e>
  403552:	41 89 f3             	mov    %esi,%r11d
  403555:	44 8d 56 ff          	lea    -0x1(%rsi),%r10d
  403559:	89 c5                	mov    %eax,%ebp
  40355b:	41 29 c3             	sub    %eax,%r11d
  40355e:	45 8d 43 fc          	lea    -0x4(%r11),%r8d
  403562:	41 29 c2             	sub    %eax,%r10d
  403565:	41 c1 e8 02          	shr    $0x2,%r8d
  403569:	41 83 c0 01          	add    $0x1,%r8d
  40356d:	41 83 fa 02          	cmp    $0x2,%r10d
  403571:	42 8d 1c 85 00 00 00 	lea    0x0(,%r8,4),%ebx
  403578:	00 
  403579:	0f 86 8d 00 00 00    	jbe    40360c <_Z7tq_testv+0x1fc>
  40357f:	48 8d 04 a9          	lea    (%rcx,%rbp,4),%rax
  403583:	66 0f 6f 05 a5 58 04 	movdqa 0x458a5(%rip),%xmm0        # 448e30 <_ZTV6MatrixId15CPU_MATHEMATICS10continuousIdS0_EE+0x9c88>
  40358a:	00 
  40358b:	45 31 d2             	xor    %r10d,%r10d
  40358e:	66 0f 6f 08          	movdqa (%rax),%xmm1
  403592:	66 0f 6f d0          	movdqa %xmm0,%xmm2
  403596:	66 0f 73 d0 20       	psrlq  $0x20,%xmm0
  40359b:	41 83 c2 01          	add    $0x1,%r10d
  40359f:	48 83 c0 10          	add    $0x10,%rax
  4035a3:	66 0f f4 50 f0       	pmuludq -0x10(%rax),%xmm2
  4035a8:	66 0f 73 d1 20       	psrlq  $0x20,%xmm1
  4035ad:	66 0f f4 c8          	pmuludq %xmm0,%xmm1
  4035b1:	66 0f 70 c2 08       	pshufd $0x8,%xmm2,%xmm0
  4035b6:	45 39 c2             	cmp    %r8d,%r10d
  4035b9:	66 0f 70 c9 08       	pshufd $0x8,%xmm1,%xmm1
  4035be:	66 0f 62 c1          	punpckldq %xmm1,%xmm0
  4035c2:	72 ca                	jb     40358e <_Z7tq_testv+0x17e>
  4035c4:	66 0f 6f c8          	movdqa %xmm0,%xmm1
  4035c8:	01 df                	add    %ebx,%edi
  4035ca:	66 0f 6f d0          	movdqa %xmm0,%xmm2
  4035ce:	66 0f 73 d0 20       	psrlq  $0x20,%xmm0
  4035d3:	66 0f 73 d9 08       	psrldq $0x8,%xmm1
  4035d8:	66 0f f4 d1          	pmuludq %xmm1,%xmm2
  4035dc:	66 0f 73 d1 20       	psrlq  $0x20,%xmm1
  4035e1:	66 0f f4 c1          	pmuludq %xmm1,%xmm0
  4035e5:	66 0f 70 ca 08       	pshufd $0x8,%xmm2,%xmm1
  4035ea:	66 0f 70 c0 08       	pshufd $0x8,%xmm0,%xmm0
  4035ef:	66 0f 62 c8          	punpckldq %xmm0,%xmm1
  4035f3:	66 0f 6f c1          	movdqa %xmm1,%xmm0
  4035f7:	66 0f 73 d9 04       	psrldq $0x4,%xmm1
  4035fc:	66 0f f4 c1          	pmuludq %xmm1,%xmm0
  403600:	66 0f 7e c0          	movd   %xmm0,%eax
  403604:	0f af d0             	imul   %eax,%edx
  403607:	41 39 db             	cmp    %ebx,%r11d
  40360a:	74 22                	je     40362e <_Z7tq_testv+0x21e>
  40360c:	48 63 c7             	movslq %edi,%rax
  40360f:	0f af 14 81          	imul   (%rcx,%rax,4),%edx
  403613:	8d 47 01             	lea    0x1(%rdi),%eax
  403616:	39 c6                	cmp    %eax,%esi
  403618:	7e 14                	jle    40362e <_Z7tq_testv+0x21e>
  40361a:	48 98                	cltq   
  40361c:	83 c7 02             	add    $0x2,%edi
  40361f:	0f af 14 81          	imul   (%rcx,%rax,4),%edx
  403623:	39 fe                	cmp    %edi,%esi
  403625:	7e 07                	jle    40362e <_Z7tq_testv+0x21e>
  403627:	48 63 ff             	movslq %edi,%rdi
  40362a:	0f af 14 b9          	imul   (%rcx,%rdi,4),%edx
  40362e:	41 89 11             	mov    %edx,(%r9)
  403631:	48 63 44 24 70       	movslq 0x70(%rsp),%rax
  403636:	48 63 3c 81          	movslq (%rcx,%rax,4),%rdi
  40363a:	48 b8 00 00 00 00 00 	movabs $0x1fc0000000000000,%rax
  403641:	00 c0 1f 
  403644:	48 39 c7             	cmp    %rax,%rdi
  403647:	0f 87 07 0d 00 00    	ja     404354 <_Z7tq_testv+0xf44>
  40364d:	48 c1 e7 02          	shl    $0x2,%rdi
  403651:	e8 ba dd ff ff       	callq  401410 <_Znam@plt>
  403656:	bf 0c 00 00 00       	mov    $0xc,%edi
  40365b:	48 89 44 24 60       	mov    %rax,0x60(%rsp)
  403660:	48 c7 44 24 50 08 ed 	movq   $0x43ed08,0x50(%rsp)
  403667:	43 00 
  403669:	c6 44 24 78 01       	movb   $0x1,0x78(%rsp)
  40366e:	c6 44 24 79 01       	movb   $0x1,0x79(%rsp)
  403673:	48 c7 84 24 80 00 00 	movq   $0x43ecc8,0x80(%rsp)
  40367a:	00 c8 ec 43 00 
  40367f:	48 c7 84 24 88 00 00 	movq   $0x43ec58,0x88(%rsp)
  403686:	00 58 ec 43 00 
  40368b:	c7 84 24 a0 00 00 00 	movl   $0x2,0xa0(%rsp)
  403692:	02 00 00 00 
  403696:	e8 75 dd ff ff       	callq  401410 <_Znam@plt>
  40369b:	48 8d b4 24 e0 00 00 	lea    0xe0(%rsp),%rsi
  4036a2:	00 
  4036a3:	48 89 84 24 98 00 00 	mov    %rax,0x98(%rsp)
  4036aa:	00 
  4036ab:	48 8d 84 24 98 00 00 	lea    0x98(%rsp),%rax
  4036b2:	00 
  4036b3:	31 c9                	xor    %ecx,%ecx
  4036b5:	31 d2                	xor    %edx,%edx
  4036b7:	bf a0 18 40 00       	mov    $0x4018a0,%edi
  4036bc:	48 89 84 24 e0 00 00 	mov    %rax,0xe0(%rsp)
  4036c3:	00 
  4036c4:	48 c7 84 24 e8 00 00 	movq   $0x43e318,0xe8(%rsp)
  4036cb:	00 18 e3 43 00 
  4036d0:	c7 84 24 f0 00 00 00 	movl   $0x2,0xf0(%rsp)
  4036d7:	02 00 00 00 
  4036db:	e8 c0 de ff ff       	callq  4015a0 <GOMP_parallel@plt>
  4036e0:	e8 5b df ff ff       	callq  401640 <GOMP_barrier@plt>
  4036e5:	48 63 84 24 a0 00 00 	movslq 0xa0(%rsp),%rax
  4036ec:	00 
  4036ed:	48 8b 8c 24 98 00 00 	mov    0x98(%rsp),%rcx
  4036f4:	00 
  4036f5:	85 c0                	test   %eax,%eax
  4036f7:	48 89 c6             	mov    %rax,%rsi
  4036fa:	4c 8d 0c 81          	lea    (%rcx,%rax,4),%r9
  4036fe:	0f 8e 1c 0a 00 00    	jle    404120 <_Z7tq_testv+0xd10>
  403704:	48 89 c8             	mov    %rcx,%rax
  403707:	83 e0 0f             	and    $0xf,%eax
  40370a:	48 c1 e8 02          	shr    $0x2,%rax
  40370e:	48 f7 d8             	neg    %rax
  403711:	83 e0 03             	and    $0x3,%eax
  403714:	39 f0                	cmp    %esi,%eax
  403716:	0f 47 c6             	cmova  %esi,%eax
  403719:	83 fe 08             	cmp    $0x8,%esi
  40371c:	0f 8f 6e 09 00 00    	jg     404090 <_Z7tq_testv+0xc80>
  403722:	89 f0                	mov    %esi,%eax
  403724:	83 f8 01             	cmp    $0x1,%eax
  403727:	8b 11                	mov    (%rcx),%edx
  403729:	0f 84 81 0b 00 00    	je     4042b0 <_Z7tq_testv+0xea0>
  40372f:	0f af 51 04          	imul   0x4(%rcx),%edx
  403733:	83 f8 02             	cmp    $0x2,%eax
  403736:	0f 84 84 0b 00 00    	je     4042c0 <_Z7tq_testv+0xeb0>
  40373c:	0f af 51 08          	imul   0x8(%rcx),%edx
  403740:	83 f8 03             	cmp    $0x3,%eax
  403743:	0f 84 87 0b 00 00    	je     4042d0 <_Z7tq_testv+0xec0>
  403749:	0f af 51 0c          	imul   0xc(%rcx),%edx
  40374d:	83 f8 04             	cmp    $0x4,%eax
  403750:	0f 84 8a 0b 00 00    	je     4042e0 <_Z7tq_testv+0xed0>
  403756:	0f af 51 10          	imul   0x10(%rcx),%edx
  40375a:	83 f8 05             	cmp    $0x5,%eax
  40375d:	0f 84 4d 0a 00 00    	je     4041b0 <_Z7tq_testv+0xda0>
  403763:	0f af 51 14          	imul   0x14(%rcx),%edx
  403767:	83 f8 06             	cmp    $0x6,%eax
  40376a:	0f 84 50 0a 00 00    	je     4041c0 <_Z7tq_testv+0xdb0>
  403770:	0f af 51 18          	imul   0x18(%rcx),%edx
  403774:	83 f8 07             	cmp    $0x7,%eax
  403777:	0f 84 23 0b 00 00    	je     4042a0 <_Z7tq_testv+0xe90>
  40377d:	0f af 51 1c          	imul   0x1c(%rcx),%edx
  403781:	bf 08 00 00 00       	mov    $0x8,%edi
  403786:	39 f0                	cmp    %esi,%eax
  403788:	0f 84 dc 00 00 00    	je     40386a <_Z7tq_testv+0x45a>
  40378e:	41 89 f3             	mov    %esi,%r11d
  403791:	44 8d 56 ff          	lea    -0x1(%rsi),%r10d
  403795:	89 c5                	mov    %eax,%ebp
  403797:	41 29 c3             	sub    %eax,%r11d
  40379a:	45 8d 43 fc          	lea    -0x4(%r11),%r8d
  40379e:	41 29 c2             	sub    %eax,%r10d
  4037a1:	41 c1 e8 02          	shr    $0x2,%r8d
  4037a5:	41 83 c0 01          	add    $0x1,%r8d
  4037a9:	41 83 fa 02          	cmp    $0x2,%r10d
  4037ad:	42 8d 1c 85 00 00 00 	lea    0x0(,%r8,4),%ebx
  4037b4:	00 
  4037b5:	0f 86 8d 00 00 00    	jbe    403848 <_Z7tq_testv+0x438>
  4037bb:	48 8d 04 a9          	lea    (%rcx,%rbp,4),%rax
  4037bf:	66 0f 6f 05 69 56 04 	movdqa 0x45669(%rip),%xmm0        # 448e30 <_ZTV6MatrixId15CPU_MATHEMATICS10continuousIdS0_EE+0x9c88>
  4037c6:	00 
  4037c7:	45 31 d2             	xor    %r10d,%r10d
  4037ca:	66 0f 6f 08          	movdqa (%rax),%xmm1
  4037ce:	66 0f 6f d0          	movdqa %xmm0,%xmm2
  4037d2:	66 0f 73 d0 20       	psrlq  $0x20,%xmm0
  4037d7:	41 83 c2 01          	add    $0x1,%r10d
  4037db:	48 83 c0 10          	add    $0x10,%rax
  4037df:	66 0f f4 50 f0       	pmuludq -0x10(%rax),%xmm2
  4037e4:	66 0f 73 d1 20       	psrlq  $0x20,%xmm1
  4037e9:	66 0f f4 c8          	pmuludq %xmm0,%xmm1
  4037ed:	66 0f 70 c2 08       	pshufd $0x8,%xmm2,%xmm0
  4037f2:	45 39 d0             	cmp    %r10d,%r8d
  4037f5:	66 0f 70 c9 08       	pshufd $0x8,%xmm1,%xmm1
  4037fa:	66 0f 62 c1          	punpckldq %xmm1,%xmm0
  4037fe:	77 ca                	ja     4037ca <_Z7tq_testv+0x3ba>
  403800:	66 0f 6f d0          	movdqa %xmm0,%xmm2
  403804:	01 df                	add    %ebx,%edi
  403806:	66 0f 6f c8          	movdqa %xmm0,%xmm1
  40380a:	66 0f 73 d0 20       	psrlq  $0x20,%xmm0
  40380f:	66 0f 73 da 08       	psrldq $0x8,%xmm2
  403814:	66 0f f4 ca          	pmuludq %xmm2,%xmm1
  403818:	66 0f 73 d2 20       	psrlq  $0x20,%xmm2
  40381d:	66 0f 70 c9 08       	pshufd $0x8,%xmm1,%xmm1
  403822:	66 0f f4 c2          	pmuludq %xmm2,%xmm0
  403826:	66 0f 70 c0 08       	pshufd $0x8,%xmm0,%xmm0
  40382b:	66 0f 62 c8          	punpckldq %xmm0,%xmm1
  40382f:	66 0f 6f c1          	movdqa %xmm1,%xmm0
  403833:	66 0f 73 d9 04       	psrldq $0x4,%xmm1
  403838:	66 0f f4 c1          	pmuludq %xmm1,%xmm0
  40383c:	66 0f 7e c0          	movd   %xmm0,%eax
  403840:	0f af d0             	imul   %eax,%edx
  403843:	41 39 db             	cmp    %ebx,%r11d
  403846:	74 22                	je     40386a <_Z7tq_testv+0x45a>
  403848:	48 63 c7             	movslq %edi,%rax
  40384b:	0f af 14 81          	imul   (%rcx,%rax,4),%edx
  40384f:	8d 47 01             	lea    0x1(%rdi),%eax
  403852:	39 c6                	cmp    %eax,%esi
  403854:	7e 14                	jle    40386a <_Z7tq_testv+0x45a>
  403856:	48 98                	cltq   
  403858:	83 c7 02             	add    $0x2,%edi
  40385b:	0f af 14 81          	imul   (%rcx,%rax,4),%edx
  40385f:	39 fe                	cmp    %edi,%esi
  403861:	7e 07                	jle    40386a <_Z7tq_testv+0x45a>
  403863:	48 63 ff             	movslq %edi,%rdi
  403866:	0f af 14 b9          	imul   (%rcx,%rdi,4),%edx
  40386a:	41 89 11             	mov    %edx,(%r9)
  40386d:	48 63 84 24 a0 00 00 	movslq 0xa0(%rsp),%rax
  403874:	00 
  403875:	48 63 3c 81          	movslq (%rcx,%rax,4),%rdi
  403879:	48 b8 00 00 00 00 00 	movabs $0x1fc0000000000000,%rax
  403880:	00 c0 1f 
  403883:	48 39 c7             	cmp    %rax,%rdi
  403886:	0f 87 e9 0a 00 00    	ja     404375 <_Z7tq_testv+0xf65>
  40388c:	48 c1 e7 02          	shl    $0x2,%rdi
  403890:	e8 7b db ff ff       	callq  401410 <_Znam@plt>
  403895:	bf 0c 00 00 00       	mov    $0xc,%edi
  40389a:	48 89 84 24 90 00 00 	mov    %rax,0x90(%rsp)
  4038a1:	00 
  4038a2:	48 c7 84 24 80 00 00 	movq   $0x43ed08,0x80(%rsp)
  4038a9:	00 08 ed 43 00 
  4038ae:	c6 84 24 a8 00 00 00 	movb   $0x1,0xa8(%rsp)
  4038b5:	01 
  4038b6:	c6 84 24 a9 00 00 00 	movb   $0x1,0xa9(%rsp)
  4038bd:	01 
  4038be:	48 c7 84 24 b0 00 00 	movq   $0x43ecc8,0xb0(%rsp)
  4038c5:	00 c8 ec 43 00 
  4038ca:	48 c7 84 24 b8 00 00 	movq   $0x43ec58,0xb8(%rsp)
  4038d1:	00 58 ec 43 00 
  4038d6:	c7 84 24 d0 00 00 00 	movl   $0x2,0xd0(%rsp)
  4038dd:	02 00 00 00 
  4038e1:	e8 2a db ff ff       	callq  401410 <_Znam@plt>
  4038e6:	48 8d b4 24 e0 00 00 	lea    0xe0(%rsp),%rsi
  4038ed:	00 
  4038ee:	48 89 84 24 c8 00 00 	mov    %rax,0xc8(%rsp)
  4038f5:	00 
  4038f6:	48 8d 84 24 c8 00 00 	lea    0xc8(%rsp),%rax
  4038fd:	00 
  4038fe:	31 c9                	xor    %ecx,%ecx
  403900:	31 d2                	xor    %edx,%edx
  403902:	bf a0 18 40 00       	mov    $0x4018a0,%edi
  403907:	48 89 84 24 e0 00 00 	mov    %rax,0xe0(%rsp)
  40390e:	00 
  40390f:	48 c7 84 24 e8 00 00 	movq   $0x43e310,0xe8(%rsp)
  403916:	00 10 e3 43 00 
  40391b:	c7 84 24 f0 00 00 00 	movl   $0x2,0xf0(%rsp)
  403922:	02 00 00 00 
  403926:	e8 75 dc ff ff       	callq  4015a0 <GOMP_parallel@plt>
  40392b:	e8 10 dd ff ff       	callq  401640 <GOMP_barrier@plt>
  403930:	48 63 84 24 d0 00 00 	movslq 0xd0(%rsp),%rax
  403937:	00 
  403938:	48 8b 8c 24 c8 00 00 	mov    0xc8(%rsp),%rcx
  40393f:	00 
  403940:	85 c0                	test   %eax,%eax
  403942:	48 89 c6             	mov    %rax,%rsi
  403945:	4c 8d 0c 81          	lea    (%rcx,%rax,4),%r9
  403949:	0f 8e a1 07 00 00    	jle    4040f0 <_Z7tq_testv+0xce0>
  40394f:	48 89 c8             	mov    %rcx,%rax
  403952:	83 e0 0f             	and    $0xf,%eax
  403955:	48 c1 e8 02          	shr    $0x2,%rax
  403959:	48 f7 d8             	neg    %rax
  40395c:	83 e0 03             	and    $0x3,%eax
  40395f:	39 f0                	cmp    %esi,%eax
  403961:	0f 47 c6             	cmova  %esi,%eax
  403964:	83 fe 08             	cmp    $0x8,%esi
  403967:	0f 8f 0b 07 00 00    	jg     404078 <_Z7tq_testv+0xc68>
  40396d:	89 f0                	mov    %esi,%eax
  40396f:	83 f8 01             	cmp    $0x1,%eax
  403972:	8b 11                	mov    (%rcx),%edx
  403974:	0f 84 76 08 00 00    	je     4041f0 <_Z7tq_testv+0xde0>
  40397a:	0f af 51 04          	imul   0x4(%rcx),%edx
  40397e:	83 f8 02             	cmp    $0x2,%eax
  403981:	0f 84 79 08 00 00    	je     404200 <_Z7tq_testv+0xdf0>
  403987:	0f af 51 08          	imul   0x8(%rcx),%edx
  40398b:	83 f8 03             	cmp    $0x3,%eax
  40398e:	0f 84 7c 08 00 00    	je     404210 <_Z7tq_testv+0xe00>
  403994:	0f af 51 0c          	imul   0xc(%rcx),%edx
  403998:	83 f8 04             	cmp    $0x4,%eax
  40399b:	0f 84 7f 08 00 00    	je     404220 <_Z7tq_testv+0xe10>
  4039a1:	0f af 51 10          	imul   0x10(%rcx),%edx
  4039a5:	83 f8 05             	cmp    $0x5,%eax
  4039a8:	0f 84 82 08 00 00    	je     404230 <_Z7tq_testv+0xe20>
  4039ae:	0f af 51 14          	imul   0x14(%rcx),%edx
  4039b2:	83 f8 06             	cmp    $0x6,%eax
  4039b5:	0f 84 85 08 00 00    	je     404240 <_Z7tq_testv+0xe30>
  4039bb:	0f af 51 18          	imul   0x18(%rcx),%edx
  4039bf:	83 f8 07             	cmp    $0x7,%eax
  4039c2:	0f 84 88 08 00 00    	je     404250 <_Z7tq_testv+0xe40>
  4039c8:	0f af 51 1c          	imul   0x1c(%rcx),%edx
  4039cc:	bf 08 00 00 00       	mov    $0x8,%edi
  4039d1:	39 c6                	cmp    %eax,%esi
  4039d3:	0f 84 dc 00 00 00    	je     403ab5 <_Z7tq_testv+0x6a5>
  4039d9:	41 89 f3             	mov    %esi,%r11d
  4039dc:	44 8d 56 ff          	lea    -0x1(%rsi),%r10d
  4039e0:	89 c5                	mov    %eax,%ebp
  4039e2:	41 29 c3             	sub    %eax,%r11d
  4039e5:	45 8d 43 fc          	lea    -0x4(%r11),%r8d
  4039e9:	41 29 c2             	sub    %eax,%r10d
  4039ec:	41 c1 e8 02          	shr    $0x2,%r8d
  4039f0:	41 83 c0 01          	add    $0x1,%r8d
  4039f4:	41 83 fa 02          	cmp    $0x2,%r10d
  4039f8:	42 8d 1c 85 00 00 00 	lea    0x0(,%r8,4),%ebx
  4039ff:	00 
  403a00:	0f 86 8d 00 00 00    	jbe    403a93 <_Z7tq_testv+0x683>
  403a06:	48 8d 04 a9          	lea    (%rcx,%rbp,4),%rax
  403a0a:	66 0f 6f 05 1e 54 04 	movdqa 0x4541e(%rip),%xmm0        # 448e30 <_ZTV6MatrixId15CPU_MATHEMATICS10continuousIdS0_EE+0x9c88>
  403a11:	00 
  403a12:	45 31 d2             	xor    %r10d,%r10d
  403a15:	66 0f 6f 08          	movdqa (%rax),%xmm1
  403a19:	66 0f 6f d0          	movdqa %xmm0,%xmm2
  403a1d:	66 0f 73 d0 20       	psrlq  $0x20,%xmm0
  403a22:	41 83 c2 01          	add    $0x1,%r10d
  403a26:	48 83 c0 10          	add    $0x10,%rax
  403a2a:	66 0f f4 50 f0       	pmuludq -0x10(%rax),%xmm2
  403a2f:	66 0f 73 d1 20       	psrlq  $0x20,%xmm1
  403a34:	66 0f f4 c8          	pmuludq %xmm0,%xmm1
  403a38:	66 0f 70 c2 08       	pshufd $0x8,%xmm2,%xmm0
  403a3d:	45 39 d0             	cmp    %r10d,%r8d
  403a40:	66 0f 70 c9 08       	pshufd $0x8,%xmm1,%xmm1
  403a45:	66 0f 62 c1          	punpckldq %xmm1,%xmm0
  403a49:	77 ca                	ja     403a15 <_Z7tq_testv+0x605>
  403a4b:	66 0f 6f c8          	movdqa %xmm0,%xmm1
  403a4f:	01 df                	add    %ebx,%edi
  403a51:	66 0f 6f d0          	movdqa %xmm0,%xmm2
  403a55:	66 0f 73 d0 20       	psrlq  $0x20,%xmm0
  403a5a:	66 0f 73 d9 08       	psrldq $0x8,%xmm1
  403a5f:	66 0f f4 d1          	pmuludq %xmm1,%xmm2
  403a63:	66 0f 73 d1 20       	psrlq  $0x20,%xmm1
  403a68:	66 0f f4 c1          	pmuludq %xmm1,%xmm0
  403a6c:	66 0f 70 ca 08       	pshufd $0x8,%xmm2,%xmm1
  403a71:	66 0f 70 c0 08       	pshufd $0x8,%xmm0,%xmm0
  403a76:	66 0f 62 c8          	punpckldq %xmm0,%xmm1
  403a7a:	66 0f 6f c1          	movdqa %xmm1,%xmm0
  403a7e:	66 0f 73 d9 04       	psrldq $0x4,%xmm1
  403a83:	66 0f f4 c1          	pmuludq %xmm1,%xmm0
  403a87:	66 0f 7e c0          	movd   %xmm0,%eax
  403a8b:	0f af d0             	imul   %eax,%edx
  403a8e:	44 39 db             	cmp    %r11d,%ebx
  403a91:	74 22                	je     403ab5 <_Z7tq_testv+0x6a5>
  403a93:	48 63 c7             	movslq %edi,%rax
  403a96:	0f af 14 81          	imul   (%rcx,%rax,4),%edx
  403a9a:	8d 47 01             	lea    0x1(%rdi),%eax
  403a9d:	39 c6                	cmp    %eax,%esi
  403a9f:	7e 14                	jle    403ab5 <_Z7tq_testv+0x6a5>
  403aa1:	48 98                	cltq   
  403aa3:	83 c7 02             	add    $0x2,%edi
  403aa6:	0f af 14 81          	imul   (%rcx,%rax,4),%edx
  403aaa:	39 fe                	cmp    %edi,%esi
  403aac:	7e 07                	jle    403ab5 <_Z7tq_testv+0x6a5>
  403aae:	48 63 ff             	movslq %edi,%rdi
  403ab1:	0f af 14 b9          	imul   (%rcx,%rdi,4),%edx
  403ab5:	41 89 11             	mov    %edx,(%r9)
  403ab8:	48 63 84 24 d0 00 00 	movslq 0xd0(%rsp),%rax
  403abf:	00 
  403ac0:	48 63 3c 81          	movslq (%rcx,%rax,4),%rdi
  403ac4:	48 b8 00 00 00 00 00 	movabs $0x1fc0000000000000,%rax
  403acb:	00 c0 1f 
  403ace:	48 39 c7             	cmp    %rax,%rdi
  403ad1:	0f 87 73 08 00 00    	ja     40434a <_Z7tq_testv+0xf3a>
  403ad7:	48 c1 e7 02          	shl    $0x2,%rdi
  403adb:	e8 30 d9 ff ff       	callq  401410 <_Znam@plt>
  403ae0:	bf 0c 00 00 00       	mov    $0xc,%edi
  403ae5:	48 89 84 24 c0 00 00 	mov    %rax,0xc0(%rsp)
  403aec:	00 
  403aed:	48 c7 84 24 b0 00 00 	movq   $0x43ed08,0xb0(%rsp)
  403af4:	00 08 ed 43 00 
  403af9:	c6 84 24 d8 00 00 00 	movb   $0x1,0xd8(%rsp)
  403b00:	01 
  403b01:	c6 84 24 d9 00 00 00 	movb   $0x1,0xd9(%rsp)
  403b08:	01 
  403b09:	48 c7 84 24 e0 00 00 	movq   $0x43ecc8,0xe0(%rsp)
  403b10:	00 c8 ec 43 00 
  403b15:	48 c7 84 24 e8 00 00 	movq   $0x43ec58,0xe8(%rsp)
  403b1c:	00 58 ec 43 00 
  403b21:	c7 84 24 00 01 00 00 	movl   $0x2,0x100(%rsp)
  403b28:	02 00 00 00 
  403b2c:	e8 df d8 ff ff       	callq  401410 <_Znam@plt>
  403b31:	48 8d 5c 24 20       	lea    0x20(%rsp),%rbx
  403b36:	48 89 84 24 f8 00 00 	mov    %rax,0xf8(%rsp)
  403b3d:	00 
  403b3e:	48 8d 84 24 f8 00 00 	lea    0xf8(%rsp),%rax
  403b45:	00 
  403b46:	31 c9                	xor    %ecx,%ecx
  403b48:	31 d2                	xor    %edx,%edx
  403b4a:	bf a0 18 40 00       	mov    $0x4018a0,%edi
  403b4f:	48 89 de             	mov    %rbx,%rsi
  403b52:	48 89 44 24 20       	mov    %rax,0x20(%rsp)
  403b57:	48 c7 44 24 28 08 e3 	movq   $0x43e308,0x28(%rsp)
  403b5e:	43 00 
  403b60:	c7 44 24 30 02 00 00 	movl   $0x2,0x30(%rsp)
  403b67:	00 
  403b68:	e8 33 da ff ff       	callq  4015a0 <GOMP_parallel@plt>
  403b6d:	e8 ce da ff ff       	callq  401640 <GOMP_barrier@plt>
  403b72:	48 63 84 24 00 01 00 	movslq 0x100(%rsp),%rax
  403b79:	00 
  403b7a:	48 8b 8c 24 f8 00 00 	mov    0xf8(%rsp),%rcx
  403b81:	00 
  403b82:	85 c0                	test   %eax,%eax
  403b84:	48 89 c6             	mov    %rax,%rsi
  403b87:	4c 8d 0c 81          	lea    (%rcx,%rax,4),%r9
  403b8b:	0f 8e 7f 05 00 00    	jle    404110 <_Z7tq_testv+0xd00>
  403b91:	48 89 c8             	mov    %rcx,%rax
  403b94:	83 e0 0f             	and    $0xf,%eax
  403b97:	48 c1 e8 02          	shr    $0x2,%rax
  403b9b:	48 f7 d8             	neg    %rax
  403b9e:	83 e0 03             	and    $0x3,%eax
  403ba1:	39 f0                	cmp    %esi,%eax
  403ba3:	0f 47 c6             	cmova  %esi,%eax
  403ba6:	83 fe 08             	cmp    $0x8,%esi
  403ba9:	0f 8f f9 04 00 00    	jg     4040a8 <_Z7tq_testv+0xc98>
  403baf:	89 f0                	mov    %esi,%eax
  403bb1:	83 f8 01             	cmp    $0x1,%eax
  403bb4:	8b 11                	mov    (%rcx),%edx
  403bb6:	0f 84 74 05 00 00    	je     404130 <_Z7tq_testv+0xd20>
  403bbc:	0f af 51 04          	imul   0x4(%rcx),%edx
  403bc0:	83 f8 02             	cmp    $0x2,%eax
  403bc3:	0f 84 77 05 00 00    	je     404140 <_Z7tq_testv+0xd30>
  403bc9:	0f af 51 08          	imul   0x8(%rcx),%edx
  403bcd:	83 f8 03             	cmp    $0x3,%eax
  403bd0:	0f 84 7a 05 00 00    	je     404150 <_Z7tq_testv+0xd40>
  403bd6:	0f af 51 0c          	imul   0xc(%rcx),%edx
  403bda:	83 f8 04             	cmp    $0x4,%eax
  403bdd:	0f 84 7d 05 00 00    	je     404160 <_Z7tq_testv+0xd50>
  403be3:	0f af 51 10          	imul   0x10(%rcx),%edx
  403be7:	83 f8 05             	cmp    $0x5,%eax
  403bea:	0f 84 80 06 00 00    	je     404270 <_Z7tq_testv+0xe60>
  403bf0:	0f af 51 14          	imul   0x14(%rcx),%edx
  403bf4:	83 f8 06             	cmp    $0x6,%eax
  403bf7:	0f 84 83 06 00 00    	je     404280 <_Z7tq_testv+0xe70>
  403bfd:	0f af 51 18          	imul   0x18(%rcx),%edx
  403c01:	83 f8 07             	cmp    $0x7,%eax
  403c04:	0f 84 86 06 00 00    	je     404290 <_Z7tq_testv+0xe80>
  403c0a:	0f af 51 1c          	imul   0x1c(%rcx),%edx
  403c0e:	bf 08 00 00 00       	mov    $0x8,%edi
  403c13:	39 c6                	cmp    %eax,%esi
  403c15:	0f 84 dd 00 00 00    	je     403cf8 <_Z7tq_testv+0x8e8>
  403c1b:	41 89 f3             	mov    %esi,%r11d
  403c1e:	44 8d 56 ff          	lea    -0x1(%rsi),%r10d
  403c22:	41 89 c4             	mov    %eax,%r12d
  403c25:	41 29 c3             	sub    %eax,%r11d
  403c28:	45 8d 43 fc          	lea    -0x4(%r11),%r8d
  403c2c:	41 29 c2             	sub    %eax,%r10d
  403c2f:	41 c1 e8 02          	shr    $0x2,%r8d
  403c33:	41 83 c0 01          	add    $0x1,%r8d
  403c37:	41 83 fa 02          	cmp    $0x2,%r10d
  403c3b:	42 8d 2c 85 00 00 00 	lea    0x0(,%r8,4),%ebp
  403c42:	00 
  403c43:	0f 86 8d 00 00 00    	jbe    403cd6 <_Z7tq_testv+0x8c6>
  403c49:	4a 8d 04 a1          	lea    (%rcx,%r12,4),%rax
  403c4d:	66 0f 6f 05 db 51 04 	movdqa 0x451db(%rip),%xmm0        # 448e30 <_ZTV6MatrixId15CPU_MATHEMATICS10continuousIdS0_EE+0x9c88>
  403c54:	00 
  403c55:	45 31 d2             	xor    %r10d,%r10d
  403c58:	66 0f 6f 08          	movdqa (%rax),%xmm1
  403c5c:	66 0f 6f d0          	movdqa %xmm0,%xmm2
  403c60:	66 0f 73 d0 20       	psrlq  $0x20,%xmm0
  403c65:	41 83 c2 01          	add    $0x1,%r10d
  403c69:	48 83 c0 10          	add    $0x10,%rax
  403c6d:	66 0f f4 50 f0       	pmuludq -0x10(%rax),%xmm2
  403c72:	66 0f 73 d1 20       	psrlq  $0x20,%xmm1
  403c77:	66 0f f4 c8          	pmuludq %xmm0,%xmm1
  403c7b:	66 0f 70 c2 08       	pshufd $0x8,%xmm2,%xmm0
  403c80:	45 39 d0             	cmp    %r10d,%r8d
  403c83:	66 0f 70 c9 08       	pshufd $0x8,%xmm1,%xmm1
  403c88:	66 0f 62 c1          	punpckldq %xmm1,%xmm0
  403c8c:	77 ca                	ja     403c58 <_Z7tq_testv+0x848>
  403c8e:	66 0f 6f d0          	movdqa %xmm0,%xmm2
  403c92:	01 ef                	add    %ebp,%edi
  403c94:	66 0f 73 da 08       	psrldq $0x8,%xmm2
  403c99:	66 0f 6f ca          	movdqa %xmm2,%xmm1
  403c9d:	66 0f 73 d2 20       	psrlq  $0x20,%xmm2
  403ca2:	66 0f f4 c8          	pmuludq %xmm0,%xmm1
  403ca6:	66 0f 73 d0 20       	psrlq  $0x20,%xmm0
  403cab:	66 0f 70 c9 08       	pshufd $0x8,%xmm1,%xmm1
  403cb0:	66 0f f4 c2          	pmuludq %xmm2,%xmm0
  403cb4:	66 0f 70 c0 08       	pshufd $0x8,%xmm0,%xmm0
  403cb9:	66 0f 62 c8          	punpckldq %xmm0,%xmm1
  403cbd:	66 0f 6f c1          	movdqa %xmm1,%xmm0
  403cc1:	66 0f 73 d9 04       	psrldq $0x4,%xmm1
  403cc6:	66 0f f4 c1          	pmuludq %xmm1,%xmm0
  403cca:	66 0f 7e c0          	movd   %xmm0,%eax
  403cce:	0f af d0             	imul   %eax,%edx
  403cd1:	41 39 eb             	cmp    %ebp,%r11d
  403cd4:	74 22                	je     403cf8 <_Z7tq_testv+0x8e8>
  403cd6:	48 63 c7             	movslq %edi,%rax
  403cd9:	0f af 14 81          	imul   (%rcx,%rax,4),%edx
  403cdd:	8d 47 01             	lea    0x1(%rdi),%eax
  403ce0:	39 c6                	cmp    %eax,%esi
  403ce2:	7e 14                	jle    403cf8 <_Z7tq_testv+0x8e8>
  403ce4:	48 98                	cltq   
  403ce6:	83 c7 02             	add    $0x2,%edi
  403ce9:	0f af 14 81          	imul   (%rcx,%rax,4),%edx
  403ced:	39 fe                	cmp    %edi,%esi
  403cef:	7e 07                	jle    403cf8 <_Z7tq_testv+0x8e8>
  403cf1:	48 63 ff             	movslq %edi,%rdi
  403cf4:	0f af 14 b9          	imul   (%rcx,%rdi,4),%edx
  403cf8:	41 89 11             	mov    %edx,(%r9)
  403cfb:	48 63 84 24 00 01 00 	movslq 0x100(%rsp),%rax
  403d02:	00 
  403d03:	48 63 3c 81          	movslq (%rcx,%rax,4),%rdi
  403d07:	48 b8 00 00 00 00 00 	movabs $0x1fc0000000000000,%rax
  403d0e:	00 c0 1f 
  403d11:	48 39 c7             	cmp    %rax,%rdi
  403d14:	0f 87 51 06 00 00    	ja     40436b <_Z7tq_testv+0xf5b>
  403d1a:	48 c1 e7 02          	shl    $0x2,%rdi
  403d1e:	e8 ed d6 ff ff       	callq  401410 <_Znam@plt>
  403d23:	48 63 8c 24 a0 00 00 	movslq 0xa0(%rsp),%rcx
  403d2a:	00 
  403d2b:	48 8b 94 24 98 00 00 	mov    0x98(%rsp),%rdx
  403d32:	00 
  403d33:	bf 30 1a 40 00       	mov    $0x401a30,%edi
  403d38:	48 8b b4 24 90 00 00 	mov    0x90(%rsp),%rsi
  403d3f:	00 
  403d40:	48 89 84 24 f0 00 00 	mov    %rax,0xf0(%rsp)
  403d47:	00 
  403d48:	48 c7 84 24 e0 00 00 	movq   $0x43ed08,0xe0(%rsp)
  403d4f:	00 08 ed 43 00 
  403d54:	c6 84 24 08 01 00 00 	movb   $0x1,0x108(%rsp)
  403d5b:	01 
  403d5c:	c6 84 24 09 01 00 00 	movb   $0x1,0x109(%rsp)
  403d63:	01 
  403d64:	48 89 c8             	mov    %rcx,%rax
  403d67:	8b 0c 8a             	mov    (%rdx,%rcx,4),%ecx
  403d6a:	48 89 74 24 28       	mov    %rsi,0x28(%rsp)
  403d6f:	48 89 54 24 30       	mov    %rdx,0x30(%rsp)
  403d74:	48 89 e6             	mov    %rsp,%rsi
  403d77:	31 d2                	xor    %edx,%edx
  403d79:	89 44 24 38          	mov    %eax,0x38(%rsp)
  403d7d:	48 c7 44 24 20 58 ec 	movq   $0x43ec58,0x20(%rsp)
  403d84:	43 00 
  403d86:	89 4c 24 10          	mov    %ecx,0x10(%rsp)
  403d8a:	31 c9                	xor    %ecx,%ecx
  403d8c:	48 89 1c 24          	mov    %rbx,(%rsp)
  403d90:	c7 44 24 08 00 00 48 	movl   $0xc2480000,0x8(%rsp)
  403d97:	c2 
  403d98:	c7 44 24 0c 00 00 48 	movl   $0x42480000,0xc(%rsp)
  403d9f:	42 
  403da0:	e8 fb d7 ff ff       	callq  4015a0 <GOMP_parallel@plt>
  403da5:	e8 96 d8 ff ff       	callq  401640 <GOMP_barrier@plt>
  403daa:	48 63 8c 24 d0 00 00 	movslq 0xd0(%rsp),%rcx
  403db1:	00 
  403db2:	48 8b 94 24 c8 00 00 	mov    0xc8(%rsp),%rdx
  403db9:	00 
  403dba:	bf 30 1a 40 00       	mov    $0x401a30,%edi
  403dbf:	48 8b b4 24 c0 00 00 	mov    0xc0(%rsp),%rsi
  403dc6:	00 
  403dc7:	48 89 c8             	mov    %rcx,%rax
  403dca:	8b 0c 8a             	mov    (%rdx,%rcx,4),%ecx
  403dcd:	48 89 74 24 28       	mov    %rsi,0x28(%rsp)
  403dd2:	48 89 54 24 30       	mov    %rdx,0x30(%rsp)
  403dd7:	48 89 e6             	mov    %rsp,%rsi
  403dda:	31 d2                	xor    %edx,%edx
  403ddc:	89 44 24 38          	mov    %eax,0x38(%rsp)
  403de0:	48 c7 44 24 20 58 ec 	movq   $0x43ec58,0x20(%rsp)
  403de7:	43 00 
  403de9:	89 4c 24 10          	mov    %ecx,0x10(%rsp)
  403ded:	31 c9                	xor    %ecx,%ecx
  403def:	48 89 1c 24          	mov    %rbx,(%rsp)
  403df3:	c7 44 24 08 00 00 48 	movl   $0xc2480000,0x8(%rsp)
  403dfa:	c2 
  403dfb:	c7 44 24 0c 00 00 48 	movl   $0x42480000,0xc(%rsp)
  403e02:	42 
  403e03:	e8 98 d7 ff ff       	callq  4015a0 <GOMP_parallel@plt>
  403e08:	e8 33 d8 ff ff       	callq  401640 <GOMP_barrier@plt>
  403e0d:	48 8d bc 24 80 00 00 	lea    0x80(%rsp),%rdi
  403e14:	00 
  403e15:	e8 66 42 00 00       	callq  408080 <_ZNK11Tensor_JackIf15CPU_MATHEMATICS10continuousIfS0_EE5printEv>
  403e1a:	48 8d bc 24 b0 00 00 	lea    0xb0(%rsp),%rdi
  403e21:	00 
  403e22:	e8 59 42 00 00       	callq  408080 <_ZNK11Tensor_JackIf15CPU_MATHEMATICS10continuousIfS0_EE5printEv>
  403e27:	48 8d bc 24 e0 00 00 	lea    0xe0(%rsp),%rdi
  403e2e:	00 
  403e2f:	e8 4c 42 00 00       	callq  408080 <_ZNK11Tensor_JackIf15CPU_MATHEMATICS10continuousIfS0_EE5printEv>
  403e34:	48 63 4c 24 70       	movslq 0x70(%rsp),%rcx
  403e39:	48 8b 44 24 68       	mov    0x68(%rsp),%rax
  403e3e:	48 c7 44 24 28 48 ed 	movq   $0x43ed48,0x28(%rsp)
  403e45:	43 00 
  403e47:	48 c7 44 24 30 c8 ed 	movq   $0x43edc8,0x30(%rsp)
  403e4e:	43 00 
  403e50:	c7 44 24 38 00 00 48 	movl   $0x43480000,0x38(%rsp)
  403e57:	43 
  403e58:	c6 44 24 40 00       	movb   $0x0,0x40(%rsp)
  403e5d:	c6 44 24 41 00       	movb   $0x0,0x41(%rsp)
  403e62:	48 c7 44 24 20 88 ee 	movq   $0x43ee88,0x20(%rsp)
  403e69:	43 00 
  403e6b:	8b 3c 88             	mov    (%rax,%rcx,4),%edi
  403e6e:	48 63 8c 24 00 01 00 	movslq 0x100(%rsp),%rcx
  403e75:	00 
  403e76:	48 8b 84 24 f8 00 00 	mov    0xf8(%rsp),%rax
  403e7d:	00 
  403e7e:	48 8b 94 24 f0 00 00 	mov    0xf0(%rsp),%rdx
  403e85:	00 
  403e86:	8b 04 88             	mov    (%rax,%rcx,4),%eax
  403e89:	b9 01 00 00 00       	mov    $0x1,%ecx
  403e8e:	85 c0                	test   %eax,%eax
  403e90:	0f 4e c1             	cmovle %ecx,%eax
  403e93:	39 c7                	cmp    %eax,%edi
  403e95:	0f 85 54 04 00 00    	jne    4042ef <_Z7tq_testv+0xedf>
  403e9b:	48 8b 74 24 60       	mov    0x60(%rsp),%rsi
  403ea0:	85 ff                	test   %edi,%edi
  403ea2:	0f 4f cf             	cmovg  %edi,%ecx
  403ea5:	48 8d 46 10          	lea    0x10(%rsi),%rax
  403ea9:	48 39 c2             	cmp    %rax,%rdx
  403eac:	48 8d 42 10          	lea    0x10(%rdx),%rax
  403eb0:	41 0f 93 c0          	setae  %r8b
  403eb4:	48 39 c6             	cmp    %rax,%rsi
  403eb7:	0f 93 c0             	setae  %al
  403eba:	41 08 c0             	or     %al,%r8b
  403ebd:	0f 84 fd 01 00 00    	je     4040c0 <_Z7tq_testv+0xcb0>
  403ec3:	83 f9 0a             	cmp    $0xa,%ecx
  403ec6:	0f 86 f4 01 00 00    	jbe    4040c0 <_Z7tq_testv+0xcb0>
  403ecc:	48 89 d0             	mov    %rdx,%rax
  403ecf:	83 e0 0f             	and    $0xf,%eax
  403ed2:	48 c1 e8 02          	shr    $0x2,%rax
  403ed6:	48 f7 d8             	neg    %rax
  403ed9:	83 e0 03             	and    $0x3,%eax
  403edc:	39 c8                	cmp    %ecx,%eax
  403ede:	0f 47 c1             	cmova  %ecx,%eax
  403ee1:	45 31 c0             	xor    %r8d,%r8d
  403ee4:	85 c0                	test   %eax,%eax
  403ee6:	74 46                	je     403f2e <_Z7tq_testv+0xb1e>
  403ee8:	f3 0f 10 05 90 4f 04 	movss  0x44f90(%rip),%xmm0        # 448e80 <_ZTV6MatrixId15CPU_MATHEMATICS10continuousIdS0_EE+0x9cd8>
  403eef:	00 
  403ef0:	83 f8 01             	cmp    $0x1,%eax
  403ef3:	41 b8 01 00 00 00    	mov    $0x1,%r8d
  403ef9:	0f 28 c8             	movaps %xmm0,%xmm1
  403efc:	f3 0f 5c 0a          	subss  (%rdx),%xmm1
  403f00:	f3 0f 11 0e          	movss  %xmm1,(%rsi)
  403f04:	74 28                	je     403f2e <_Z7tq_testv+0xb1e>
  403f06:	0f 28 c8             	movaps %xmm0,%xmm1
  403f09:	83 f8 02             	cmp    $0x2,%eax
  403f0c:	41 b8 02 00 00 00    	mov    $0x2,%r8d
  403f12:	f3 0f 5c 4a 04       	subss  0x4(%rdx),%xmm1
  403f17:	f3 0f 11 4e 04       	movss  %xmm1,0x4(%rsi)
  403f1c:	74 10                	je     403f2e <_Z7tq_testv+0xb1e>
  403f1e:	f3 0f 5c 42 08       	subss  0x8(%rdx),%xmm0
  403f23:	41 b8 03 00 00 00    	mov    $0x3,%r8d
  403f29:	f3 0f 11 46 08       	movss  %xmm0,0x8(%rsi)
  403f2e:	29 c1                	sub    %eax,%ecx
  403f30:	44 8d 57 ff          	lea    -0x1(%rdi),%r10d
  403f34:	bd 00 00 00 00       	mov    $0x0,%ebp
  403f39:	44 8d 49 fc          	lea    -0x4(%rcx),%r9d
  403f3d:	41 89 c3             	mov    %eax,%r11d
  403f40:	41 c1 e9 02          	shr    $0x2,%r9d
  403f44:	41 83 c1 01          	add    $0x1,%r9d
  403f48:	85 ff                	test   %edi,%edi
  403f4a:	44 0f 4e d5          	cmovle %ebp,%r10d
  403f4e:	42 8d 1c 8d 00 00 00 	lea    0x0(,%r9,4),%ebx
  403f55:	00 
  403f56:	41 29 c2             	sub    %eax,%r10d
  403f59:	41 83 fa 02          	cmp    $0x2,%r10d
  403f5d:	76 3c                	jbe    403f9b <_Z7tq_testv+0xb8b>
  403f5f:	4e 8d 14 9d 00 00 00 	lea    0x0(,%r11,4),%r10
  403f66:	00 
  403f67:	0f 28 0d d2 4e 04 00 	movaps 0x44ed2(%rip),%xmm1        # 448e40 <_ZTV6MatrixId15CPU_MATHEMATICS10continuousIdS0_EE+0x9c98>
  403f6e:	31 c0                	xor    %eax,%eax
  403f70:	45 31 db             	xor    %r11d,%r11d
  403f73:	4a 8d 2c 12          	lea    (%rdx,%r10,1),%rbp
  403f77:	49 01 f2             	add    %rsi,%r10
  403f7a:	0f 28 c1             	movaps %xmm1,%xmm0
  403f7d:	41 83 c3 01          	add    $0x1,%r11d
  403f81:	0f 5c 44 05 00       	subps  0x0(%rbp,%rax,1),%xmm0
  403f86:	41 0f 11 04 02       	movups %xmm0,(%r10,%rax,1)
  403f8b:	48 83 c0 10          	add    $0x10,%rax
  403f8f:	45 39 cb             	cmp    %r9d,%r11d
  403f92:	72 e6                	jb     403f7a <_Z7tq_testv+0xb6a>
  403f94:	41 01 d8             	add    %ebx,%r8d
  403f97:	39 cb                	cmp    %ecx,%ebx
  403f99:	74 43                	je     403fde <_Z7tq_testv+0xbce>
  403f9b:	f3 0f 10 05 dd 4e 04 	movss  0x44edd(%rip),%xmm0        # 448e80 <_ZTV6MatrixId15CPU_MATHEMATICS10continuousIdS0_EE+0x9cd8>
  403fa2:	00 
  403fa3:	49 63 c0             	movslq %r8d,%rax
  403fa6:	0f 28 c8             	movaps %xmm0,%xmm1
  403fa9:	f3 0f 5c 0c 82       	subss  (%rdx,%rax,4),%xmm1
  403fae:	f3 0f 11 0c 86       	movss  %xmm1,(%rsi,%rax,4)
  403fb3:	41 8d 40 01          	lea    0x1(%r8),%eax
  403fb7:	39 f8                	cmp    %edi,%eax
  403fb9:	7d 23                	jge    403fde <_Z7tq_testv+0xbce>
  403fbb:	0f 28 c8             	movaps %xmm0,%xmm1
  403fbe:	48 98                	cltq   
  403fc0:	f3 0f 5c 0c 82       	subss  (%rdx,%rax,4),%xmm1
  403fc5:	f3 0f 11 0c 86       	movss  %xmm1,(%rsi,%rax,4)
  403fca:	41 8d 40 02          	lea    0x2(%r8),%eax
  403fce:	39 c7                	cmp    %eax,%edi
  403fd0:	7e 0c                	jle    403fde <_Z7tq_testv+0xbce>
  403fd2:	48 98                	cltq   
  403fd4:	f3 0f 5c 04 82       	subss  (%rdx,%rax,4),%xmm0
  403fd9:	f3 0f 11 04 86       	movss  %xmm0,(%rsi,%rax,4)
  403fde:	48 8d 7c 24 50       	lea    0x50(%rsp),%rdi
  403fe3:	e8 98 40 00 00       	callq  408080 <_ZNK11Tensor_JackIf15CPU_MATHEMATICS10continuousIfS0_EE5printEv>
  403fe8:	ba 08 00 00 00       	mov    $0x8,%edx
  403fed:	be f5 e2 43 00       	mov    $0x43e2f5,%esi
  403ff2:	bf e0 c1 64 00       	mov    $0x64c1e0,%edi
  403ff7:	e8 54 d5 ff ff       	callq  401550 <_ZSt16__ostream_insertIcSt11char_traitsIcEERSt13basic_ostreamIT_T0_ES6_PKS3_l@plt>
  403ffc:	e8 5f e1 ff ff       	callq  402160 <_ZSt4endlIcSt11char_traitsIcEERSt13basic_ostreamIT_T0_ES6_.constprop.65>
  404001:	48 8d bc 24 e0 00 00 	lea    0xe0(%rsp),%rdi
  404008:	00 
  404009:	e8 b2 25 00 00       	callq  4065c0 <_ZN11Tensor_JackIf15CPU_MATHEMATICS10continuousIfS0_EED1Ev>
  40400e:	48 8d bc 24 b0 00 00 	lea    0xb0(%rsp),%rdi
  404015:	00 
  404016:	e8 a5 25 00 00       	callq  4065c0 <_ZN11Tensor_JackIf15CPU_MATHEMATICS10continuousIfS0_EED1Ev>
  40401b:	48 8d bc 24 80 00 00 	lea    0x80(%rsp),%rdi
  404022:	00 
  404023:	e8 98 25 00 00       	callq  4065c0 <_ZN11Tensor_JackIf15CPU_MATHEMATICS10continuousIfS0_EED1Ev>
  404028:	48 8d 7c 24 50       	lea    0x50(%rsp),%rdi
  40402d:	e8 8e 25 00 00       	callq  4065c0 <_ZN11Tensor_JackIf15CPU_MATHEMATICS10continuousIfS0_EED1Ev>
  404032:	31 c0                	xor    %eax,%eax
  404034:	48 8b 9c 24 18 01 00 	mov    0x118(%rsp),%rbx
  40403b:	00 
  40403c:	64 48 33 1c 25 28 00 	xor    %fs:0x28,%rbx
  404043:	00 00 
  404045:	0f 85 9f 02 00 00    	jne    4042ea <_Z7tq_testv+0xeda>
  40404b:	48 81 c4 20 01 00 00 	add    $0x120,%rsp
  404052:	5b                   	pop    %rbx
  404053:	5d                   	pop    %rbp
  404054:	41 5c                	pop    %r12
  404056:	c3                   	retq   
  404057:	66 0f 1f 84 00 00 00 	nopw   0x0(%rax,%rax,1)
  40405e:	00 00 
  404060:	85 c0                	test   %eax,%eax
  404062:	0f 85 80 f4 ff ff    	jne    4034e8 <_Z7tq_testv+0xd8>
  404068:	ba 01 00 00 00       	mov    $0x1,%edx
  40406d:	31 ff                	xor    %edi,%edi
  40406f:	e9 de f4 ff ff       	jmpq   403552 <_Z7tq_testv+0x142>
  404074:	0f 1f 40 00          	nopl   0x0(%rax)
  404078:	85 c0                	test   %eax,%eax
  40407a:	0f 85 ef f8 ff ff    	jne    40396f <_Z7tq_testv+0x55f>
  404080:	ba 01 00 00 00       	mov    $0x1,%edx
  404085:	31 ff                	xor    %edi,%edi
  404087:	e9 4d f9 ff ff       	jmpq   4039d9 <_Z7tq_testv+0x5c9>
  40408c:	0f 1f 40 00          	nopl   0x0(%rax)
  404090:	85 c0                	test   %eax,%eax
  404092:	0f 85 8c f6 ff ff    	jne    403724 <_Z7tq_testv+0x314>
  404098:	ba 01 00 00 00       	mov    $0x1,%edx
  40409d:	31 ff                	xor    %edi,%edi
  40409f:	e9 ea f6 ff ff       	jmpq   40378e <_Z7tq_testv+0x37e>
  4040a4:	0f 1f 40 00          	nopl   0x0(%rax)
  4040a8:	85 c0                	test   %eax,%eax
  4040aa:	0f 85 01 fb ff ff    	jne    403bb1 <_Z7tq_testv+0x7a1>
  4040b0:	ba 01 00 00 00       	mov    $0x1,%edx
  4040b5:	31 ff                	xor    %edi,%edi
  4040b7:	e9 5f fb ff ff       	jmpq   403c1b <_Z7tq_testv+0x80b>
  4040bc:	0f 1f 40 00          	nopl   0x0(%rax)
  4040c0:	31 c0                	xor    %eax,%eax
  4040c2:	f3 0f 10 0d b6 4d 04 	movss  0x44db6(%rip),%xmm1        # 448e80 <_ZTV6MatrixId15CPU_MATHEMATICS10continuousIdS0_EE+0x9cd8>
  4040c9:	00 
  4040ca:	66 0f 1f 44 00 00    	nopw   0x0(%rax,%rax,1)
  4040d0:	0f 28 c1             	movaps %xmm1,%xmm0
  4040d3:	f3 0f 5c 04 82       	subss  (%rdx,%rax,4),%xmm0
  4040d8:	f3 0f 11 04 86       	movss  %xmm0,(%rsi,%rax,4)
  4040dd:	48 83 c0 01          	add    $0x1,%rax
  4040e1:	39 c7                	cmp    %eax,%edi
  4040e3:	7f eb                	jg     4040d0 <_Z7tq_testv+0xcc0>
  4040e5:	e9 f4 fe ff ff       	jmpq   403fde <_Z7tq_testv+0xbce>
  4040ea:	66 0f 1f 44 00 00    	nopw   0x0(%rax,%rax,1)
  4040f0:	ba 01 00 00 00       	mov    $0x1,%edx
  4040f5:	e9 bb f9 ff ff       	jmpq   403ab5 <_Z7tq_testv+0x6a5>
  4040fa:	66 0f 1f 44 00 00    	nopw   0x0(%rax,%rax,1)
  404100:	ba 01 00 00 00       	mov    $0x1,%edx
  404105:	e9 24 f5 ff ff       	jmpq   40362e <_Z7tq_testv+0x21e>
  40410a:	66 0f 1f 44 00 00    	nopw   0x0(%rax,%rax,1)
  404110:	ba 01 00 00 00       	mov    $0x1,%edx
  404115:	e9 de fb ff ff       	jmpq   403cf8 <_Z7tq_testv+0x8e8>
  40411a:	66 0f 1f 44 00 00    	nopw   0x0(%rax,%rax,1)
  404120:	ba 01 00 00 00       	mov    $0x1,%edx
  404125:	e9 40 f7 ff ff       	jmpq   40386a <_Z7tq_testv+0x45a>
  40412a:	66 0f 1f 44 00 00    	nopw   0x0(%rax,%rax,1)
  404130:	bf 01 00 00 00       	mov    $0x1,%edi
  404135:	e9 d9 fa ff ff       	jmpq   403c13 <_Z7tq_testv+0x803>
  40413a:	66 0f 1f 44 00 00    	nopw   0x0(%rax,%rax,1)
  404140:	bf 02 00 00 00       	mov    $0x2,%edi
  404145:	e9 c9 fa ff ff       	jmpq   403c13 <_Z7tq_testv+0x803>
  40414a:	66 0f 1f 44 00 00    	nopw   0x0(%rax,%rax,1)
  404150:	bf 03 00 00 00       	mov    $0x3,%edi
  404155:	e9 b9 fa ff ff       	jmpq   403c13 <_Z7tq_testv+0x803>
  40415a:	66 0f 1f 44 00 00    	nopw   0x0(%rax,%rax,1)
  404160:	bf 04 00 00 00       	mov    $0x4,%edi
  404165:	e9 a9 fa ff ff       	jmpq   403c13 <_Z7tq_testv+0x803>
  40416a:	66 0f 1f 44 00 00    	nopw   0x0(%rax,%rax,1)
  404170:	bf 01 00 00 00       	mov    $0x1,%edi
  404175:	e9 d0 f3 ff ff       	jmpq   40354a <_Z7tq_testv+0x13a>
  40417a:	66 0f 1f 44 00 00    	nopw   0x0(%rax,%rax,1)
  404180:	bf 02 00 00 00       	mov    $0x2,%edi
  404185:	e9 c0 f3 ff ff       	jmpq   40354a <_Z7tq_testv+0x13a>
  40418a:	66 0f 1f 44 00 00    	nopw   0x0(%rax,%rax,1)
  404190:	bf 03 00 00 00       	mov    $0x3,%edi
  404195:	e9 b0 f3 ff ff       	jmpq   40354a <_Z7tq_testv+0x13a>
  40419a:	66 0f 1f 44 00 00    	nopw   0x0(%rax,%rax,1)
  4041a0:	bf 04 00 00 00       	mov    $0x4,%edi
  4041a5:	e9 a0 f3 ff ff       	jmpq   40354a <_Z7tq_testv+0x13a>
  4041aa:	66 0f 1f 44 00 00    	nopw   0x0(%rax,%rax,1)
  4041b0:	bf 05 00 00 00       	mov    $0x5,%edi
  4041b5:	e9 cc f5 ff ff       	jmpq   403786 <_Z7tq_testv+0x376>
  4041ba:	66 0f 1f 44 00 00    	nopw   0x0(%rax,%rax,1)
  4041c0:	bf 06 00 00 00       	mov    $0x6,%edi
  4041c5:	e9 bc f5 ff ff       	jmpq   403786 <_Z7tq_testv+0x376>
  4041ca:	66 0f 1f 44 00 00    	nopw   0x0(%rax,%rax,1)
  4041d0:	bf 05 00 00 00       	mov    $0x5,%edi
  4041d5:	e9 70 f3 ff ff       	jmpq   40354a <_Z7tq_testv+0x13a>
  4041da:	66 0f 1f 44 00 00    	nopw   0x0(%rax,%rax,1)
  4041e0:	bf 06 00 00 00       	mov    $0x6,%edi
  4041e5:	e9 60 f3 ff ff       	jmpq   40354a <_Z7tq_testv+0x13a>
  4041ea:	66 0f 1f 44 00 00    	nopw   0x0(%rax,%rax,1)
  4041f0:	bf 01 00 00 00       	mov    $0x1,%edi
  4041f5:	e9 d7 f7 ff ff       	jmpq   4039d1 <_Z7tq_testv+0x5c1>
  4041fa:	66 0f 1f 44 00 00    	nopw   0x0(%rax,%rax,1)
  404200:	bf 02 00 00 00       	mov    $0x2,%edi
  404205:	e9 c7 f7 ff ff       	jmpq   4039d1 <_Z7tq_testv+0x5c1>
  40420a:	66 0f 1f 44 00 00    	nopw   0x0(%rax,%rax,1)
  404210:	bf 03 00 00 00       	mov    $0x3,%edi
  404215:	e9 b7 f7 ff ff       	jmpq   4039d1 <_Z7tq_testv+0x5c1>
  40421a:	66 0f 1f 44 00 00    	nopw   0x0(%rax,%rax,1)
  404220:	bf 04 00 00 00       	mov    $0x4,%edi
  404225:	e9 a7 f7 ff ff       	jmpq   4039d1 <_Z7tq_testv+0x5c1>
  40422a:	66 0f 1f 44 00 00    	nopw   0x0(%rax,%rax,1)
  404230:	bf 05 00 00 00       	mov    $0x5,%edi
  404235:	e9 97 f7 ff ff       	jmpq   4039d1 <_Z7tq_testv+0x5c1>
  40423a:	66 0f 1f 44 00 00    	nopw   0x0(%rax,%rax,1)
  404240:	bf 06 00 00 00       	mov    $0x6,%edi
  404245:	e9 87 f7 ff ff       	jmpq   4039d1 <_Z7tq_testv+0x5c1>
  40424a:	66 0f 1f 44 00 00    	nopw   0x0(%rax,%rax,1)
  404250:	bf 07 00 00 00       	mov    $0x7,%edi
  404255:	e9 77 f7 ff ff       	jmpq   4039d1 <_Z7tq_testv+0x5c1>
  40425a:	66 0f 1f 44 00 00    	nopw   0x0(%rax,%rax,1)
  404260:	bf 07 00 00 00       	mov    $0x7,%edi
  404265:	e9 e0 f2 ff ff       	jmpq   40354a <_Z7tq_testv+0x13a>
  40426a:	66 0f 1f 44 00 00    	nopw   0x0(%rax,%rax,1)
  404270:	bf 05 00 00 00       	mov    $0x5,%edi
  404275:	e9 99 f9 ff ff       	jmpq   403c13 <_Z7tq_testv+0x803>
  40427a:	66 0f 1f 44 00 00    	nopw   0x0(%rax,%rax,1)
  404280:	bf 06 00 00 00       	mov    $0x6,%edi
  404285:	e9 89 f9 ff ff       	jmpq   403c13 <_Z7tq_testv+0x803>
  40428a:	66 0f 1f 44 00 00    	nopw   0x0(%rax,%rax,1)
  404290:	bf 07 00 00 00       	mov    $0x7,%edi
  404295:	e9 79 f9 ff ff       	jmpq   403c13 <_Z7tq_testv+0x803>
  40429a:	66 0f 1f 44 00 00    	nopw   0x0(%rax,%rax,1)
  4042a0:	bf 07 00 00 00       	mov    $0x7,%edi
  4042a5:	e9 dc f4 ff ff       	jmpq   403786 <_Z7tq_testv+0x376>
  4042aa:	66 0f 1f 44 00 00    	nopw   0x0(%rax,%rax,1)
  4042b0:	bf 01 00 00 00       	mov    $0x1,%edi
  4042b5:	e9 cc f4 ff ff       	jmpq   403786 <_Z7tq_testv+0x376>
  4042ba:	66 0f 1f 44 00 00    	nopw   0x0(%rax,%rax,1)
  4042c0:	bf 02 00 00 00       	mov    $0x2,%edi
  4042c5:	e9 bc f4 ff ff       	jmpq   403786 <_Z7tq_testv+0x376>
  4042ca:	66 0f 1f 44 00 00    	nopw   0x0(%rax,%rax,1)
  4042d0:	bf 03 00 00 00       	mov    $0x3,%edi
  4042d5:	e9 ac f4 ff ff       	jmpq   403786 <_Z7tq_testv+0x376>
  4042da:	66 0f 1f 44 00 00    	nopw   0x0(%rax,%rax,1)
  4042e0:	bf 04 00 00 00       	mov    $0x4,%edi
  4042e5:	e9 9c f4 ff ff       	jmpq   403786 <_Z7tq_testv+0x376>
  4042ea:	e8 51 d2 ff ff       	callq  401540 <__stack_chk_fail@plt>
  4042ef:	bf 10 00 00 00       	mov    $0x10,%edi
  4042f4:	e8 67 d1 ff ff       	callq  401460 <__cxa_allocate_exception@plt>
  4042f9:	be 48 e2 43 00       	mov    $0x43e248,%esi
  4042fe:	48 89 c7             	mov    %rax,%rdi
  404301:	49 89 c4             	mov    %rax,%r12
  404304:	e8 67 d3 ff ff       	callq  401670 <_ZNSt16invalid_argumentC1EPKc@plt>
  404309:	ba e0 15 40 00       	mov    $0x4015e0,%edx
  40430e:	be a0 c3 64 00       	mov    $0x64c3a0,%esi
  404313:	4c 89 e7             	mov    %r12,%rdi
  404316:	e8 d5 d2 ff ff       	callq  4015f0 <__cxa_throw@plt>
  40431b:	48 89 c3             	mov    %rax,%rbx
  40431e:	48 8d bc 24 b0 00 00 	lea    0xb0(%rsp),%rdi
  404325:	00 
  404326:	e8 95 22 00 00       	callq  4065c0 <_ZN11Tensor_JackIf15CPU_MATHEMATICS10continuousIfS0_EED1Ev>
  40432b:	48 8d bc 24 80 00 00 	lea    0x80(%rsp),%rdi
  404332:	00 
  404333:	e8 88 22 00 00       	callq  4065c0 <_ZN11Tensor_JackIf15CPU_MATHEMATICS10continuousIfS0_EED1Ev>
  404338:	48 8d 7c 24 50       	lea    0x50(%rsp),%rdi
  40433d:	e8 7e 22 00 00       	callq  4065c0 <_ZN11Tensor_JackIf15CPU_MATHEMATICS10continuousIfS0_EED1Ev>
  404342:	48 89 df             	mov    %rbx,%rdi
  404345:	e8 c6 d2 ff ff       	callq  401610 <_Unwind_Resume@plt>
  40434a:	e8 41 d2 ff ff       	callq  401590 <__cxa_throw_bad_array_new_length@plt>
  40434f:	48 89 c3             	mov    %rax,%rbx
  404352:	eb e4                	jmp    404338 <_Z7tq_testv+0xf28>
  404354:	e8 37 d2 ff ff       	callq  401590 <__cxa_throw_bad_array_new_length@plt>
  404359:	48 89 c3             	mov    %rax,%rbx
  40435c:	48 8d bc 24 e0 00 00 	lea    0xe0(%rsp),%rdi
  404363:	00 
  404364:	e8 57 22 00 00       	callq  4065c0 <_ZN11Tensor_JackIf15CPU_MATHEMATICS10continuousIfS0_EED1Ev>
  404369:	eb b3                	jmp    40431e <_Z7tq_testv+0xf0e>
  40436b:	e8 20 d2 ff ff       	callq  401590 <__cxa_throw_bad_array_new_length@plt>
  404370:	48 89 c3             	mov    %rax,%rbx
  404373:	eb b6                	jmp    40432b <_Z7tq_testv+0xf1b>
  404375:	e8 16 d2 ff ff       	callq  401590 <__cxa_throw_bad_array_new_length@plt>
  40437a:	48 89 c5             	mov    %rax,%rbp
  40437d:	48 89 df             	mov    %rbx,%rdi
  404380:	48 c7 44 24 20 88 ee 	movq   $0x43ee88,0x20(%rsp)
  404387:	43 00 
  404389:	48 89 eb             	mov    %rbp,%rbx
  40438c:	e8 ff 1a 00 00       	callq  405e90 <_ZN11Tensor_JackIf15CPU_MATHEMATICS19StackScalarAccessorIfS0_EED1Ev>
  404391:	eb c9                	jmp    40435c <_Z7tq_testv+0xf4c>
  404393:	4c 89 e7             	mov    %r12,%rdi
  404396:	48 89 c5             	mov    %rax,%rbp
  404399:	e8 32 d1 ff ff       	callq  4014d0 <__cxa_free_exception@plt>
  40439e:	eb dd                	jmp    40437d <_Z7tq_testv+0xf6d>

00000000004043a0 <_Z12matrix_testsv>:
  4043a0:	41 56                	push   %r14
  4043a2:	41 55                	push   %r13
  4043a4:	41 54                	push   %r12
  4043a6:	55                   	push   %rbp
  4043a7:	53                   	push   %rbx
  4043a8:	48 81 ec 40 01 00 00 	sub    $0x140,%rsp
  4043af:	64 48 8b 04 25 28 00 	mov    %fs:0x28,%rax
  4043b6:	00 00 
  4043b8:	48 89 84 24 38 01 00 	mov    %rax,0x138(%rsp)
  4043bf:	00 
  4043c0:	31 c0                	xor    %eax,%eax
  4043c2:	48 8d 9c 24 e0 00 00 	lea    0xe0(%rsp),%rbx
  4043c9:	00 
  4043ca:	48 8d ac 24 30 01 00 	lea    0x130(%rsp),%rbp
  4043d1:	00 
  4043d2:	e8 39 f0 ff ff       	callq  403410 <_Z7tq_testv>
  4043d7:	bf 08 00 00 00       	mov    $0x8,%edi
  4043dc:	c7 84 24 30 01 00 00 	movl   $0x5,0x130(%rsp)
  4043e3:	05 00 00 00 
  4043e7:	48 c7 44 24 50 c8 ec 	movq   $0x43ecc8,0x50(%rsp)
  4043ee:	43 00 
  4043f0:	48 c7 44 24 58 58 ec 	movq   $0x43ec58,0x58(%rsp)
  4043f7:	43 00 
  4043f9:	c7 44 24 70 01 00 00 	movl   $0x1,0x70(%rsp)
  404400:	00 
  404401:	e8 0a d0 ff ff       	callq  401410 <_Znam@plt>
  404406:	48 89 44 24 68       	mov    %rax,0x68(%rsp)
  40440b:	48 8d 44 24 68       	lea    0x68(%rsp),%rax
  404410:	31 c9                	xor    %ecx,%ecx
  404412:	31 d2                	xor    %edx,%edx
  404414:	48 89 de             	mov    %rbx,%rsi
  404417:	bf a0 18 40 00       	mov    $0x4018a0,%edi
  40441c:	48 89 84 24 e0 00 00 	mov    %rax,0xe0(%rsp)
  404423:	00 
  404424:	48 89 ac 24 e8 00 00 	mov    %rbp,0xe8(%rsp)
  40442b:	00 
  40442c:	c7 84 24 f0 00 00 00 	movl   $0x1,0xf0(%rsp)
  404433:	01 00 00 00 
  404437:	e8 64 d1 ff ff       	callq  4015a0 <GOMP_parallel@plt>
  40443c:	e8 ff d1 ff ff       	callq  401640 <GOMP_barrier@plt>
  404441:	48 63 44 24 70       	movslq 0x70(%rsp),%rax
  404446:	48 8b 4c 24 68       	mov    0x68(%rsp),%rcx
  40444b:	85 c0                	test   %eax,%eax
  40444d:	4c 8d 0c 81          	lea    (%rcx,%rax,4),%r9
  404451:	0f 8e d1 0d 00 00    	jle    405228 <_Z12matrix_testsv+0xe88>
  404457:	48 89 c6             	mov    %rax,%rsi
  40445a:	48 89 c8             	mov    %rcx,%rax
  40445d:	83 e0 0f             	and    $0xf,%eax
  404460:	48 c1 e8 02          	shr    $0x2,%rax
  404464:	48 f7 d8             	neg    %rax
  404467:	83 e0 03             	and    $0x3,%eax
  40446a:	39 f0                	cmp    %esi,%eax
  40446c:	0f 47 c6             	cmova  %esi,%eax
  40446f:	83 fe 08             	cmp    $0x8,%esi
  404472:	0f 8f 28 0d 00 00    	jg     4051a0 <_Z12matrix_testsv+0xe00>
  404478:	89 f0                	mov    %esi,%eax
  40447a:	83 f8 01             	cmp    $0x1,%eax
  40447d:	8b 11                	mov    (%rcx),%edx
  40447f:	0f 84 03 0e 00 00    	je     405288 <_Z12matrix_testsv+0xee8>
  404485:	0f af 51 04          	imul   0x4(%rcx),%edx
  404489:	83 f8 02             	cmp    $0x2,%eax
  40448c:	0f 84 d6 0d 00 00    	je     405268 <_Z12matrix_testsv+0xec8>
  404492:	0f af 51 08          	imul   0x8(%rcx),%edx
  404496:	83 f8 03             	cmp    $0x3,%eax
  404499:	0f 84 d9 0d 00 00    	je     405278 <_Z12matrix_testsv+0xed8>
  40449f:	0f af 51 0c          	imul   0xc(%rcx),%edx
  4044a3:	83 f8 04             	cmp    $0x4,%eax
  4044a6:	0f 84 3c 0f 00 00    	je     4053e8 <_Z12matrix_testsv+0x1048>
  4044ac:	0f af 51 10          	imul   0x10(%rcx),%edx
  4044b0:	83 f8 05             	cmp    $0x5,%eax
  4044b3:	0f 84 3f 0f 00 00    	je     4053f8 <_Z12matrix_testsv+0x1058>
  4044b9:	0f af 51 14          	imul   0x14(%rcx),%edx
  4044bd:	83 f8 06             	cmp    $0x6,%eax
  4044c0:	0f 84 42 0f 00 00    	je     405408 <_Z12matrix_testsv+0x1068>
  4044c6:	0f af 51 18          	imul   0x18(%rcx),%edx
  4044ca:	83 f8 07             	cmp    $0x7,%eax
  4044cd:	0f 84 45 0f 00 00    	je     405418 <_Z12matrix_testsv+0x1078>
  4044d3:	0f af 51 1c          	imul   0x1c(%rcx),%edx
  4044d7:	bf 08 00 00 00       	mov    $0x8,%edi
  4044dc:	39 c6                	cmp    %eax,%esi
  4044de:	0f 84 dd 00 00 00    	je     4045c1 <_Z12matrix_testsv+0x221>
  4044e4:	41 89 f3             	mov    %esi,%r11d
  4044e7:	44 8d 56 ff          	lea    -0x1(%rsi),%r10d
  4044eb:	41 89 c5             	mov    %eax,%r13d
  4044ee:	41 29 c3             	sub    %eax,%r11d
  4044f1:	45 8d 43 fc          	lea    -0x4(%r11),%r8d
  4044f5:	41 29 c2             	sub    %eax,%r10d
  4044f8:	41 c1 e8 02          	shr    $0x2,%r8d
  4044fc:	41 83 c0 01          	add    $0x1,%r8d
  404500:	41 83 fa 02          	cmp    $0x2,%r10d
  404504:	46 8d 24 85 00 00 00 	lea    0x0(,%r8,4),%r12d
  40450b:	00 
  40450c:	0f 86 8e 00 00 00    	jbe    4045a0 <_Z12matrix_testsv+0x200>
  404512:	4a 8d 04 a9          	lea    (%rcx,%r13,4),%rax
  404516:	66 0f 6f 05 12 49 04 	movdqa 0x44912(%rip),%xmm0        # 448e30 <_ZTV6MatrixId15CPU_MATHEMATICS10continuousIdS0_EE+0x9c88>
  40451d:	00 
  40451e:	45 31 d2             	xor    %r10d,%r10d
  404521:	66 0f 6f 08          	movdqa (%rax),%xmm1
  404525:	66 0f 6f d0          	movdqa %xmm0,%xmm2
  404529:	66 0f 73 d0 20       	psrlq  $0x20,%xmm0
  40452e:	41 83 c2 01          	add    $0x1,%r10d
  404532:	48 83 c0 10          	add    $0x10,%rax
  404536:	66 0f f4 50 f0       	pmuludq -0x10(%rax),%xmm2
  40453b:	66 0f 73 d1 20       	psrlq  $0x20,%xmm1
  404540:	66 0f f4 c8          	pmuludq %xmm0,%xmm1
  404544:	66 0f 70 c2 08       	pshufd $0x8,%xmm2,%xmm0
  404549:	45 39 c2             	cmp    %r8d,%r10d
  40454c:	66 0f 70 c9 08       	pshufd $0x8,%xmm1,%xmm1
  404551:	66 0f 62 c1          	punpckldq %xmm1,%xmm0
  404555:	72 ca                	jb     404521 <_Z12matrix_testsv+0x181>
  404557:	66 0f 6f c8          	movdqa %xmm0,%xmm1
  40455b:	44 01 e7             	add    %r12d,%edi
  40455e:	66 0f 6f d0          	movdqa %xmm0,%xmm2
  404562:	66 0f 73 d0 20       	psrlq  $0x20,%xmm0
  404567:	66 0f 73 d9 08       	psrldq $0x8,%xmm1
  40456c:	66 0f f4 d1          	pmuludq %xmm1,%xmm2
  404570:	66 0f 73 d1 20       	psrlq  $0x20,%xmm1
  404575:	66 0f f4 c1          	pmuludq %xmm1,%xmm0
  404579:	66 0f 70 ca 08       	pshufd $0x8,%xmm2,%xmm1
  40457e:	66 0f 70 c0 08       	pshufd $0x8,%xmm0,%xmm0
  404583:	66 0f 62 c8          	punpckldq %xmm0,%xmm1
  404587:	66 0f 6f c1          	movdqa %xmm1,%xmm0
  40458b:	66 0f 73 d9 04       	psrldq $0x4,%xmm1
  404590:	66 0f f4 c1          	pmuludq %xmm1,%xmm0
  404594:	66 0f 7e c0          	movd   %xmm0,%eax
  404598:	0f af d0             	imul   %eax,%edx
  40459b:	45 39 e3             	cmp    %r12d,%r11d
  40459e:	74 21                	je     4045c1 <_Z12matrix_testsv+0x221>
  4045a0:	48 63 c7             	movslq %edi,%rax
  4045a3:	0f af 14 81          	imul   (%rcx,%rax,4),%edx
  4045a7:	8d 47 01             	lea    0x1(%rdi),%eax
  4045aa:	39 c6                	cmp    %eax,%esi
  4045ac:	7e 13                	jle    4045c1 <_Z12matrix_testsv+0x221>
  4045ae:	48 98                	cltq   
  4045b0:	0f af 14 81          	imul   (%rcx,%rax,4),%edx
  4045b4:	8d 47 02             	lea    0x2(%rdi),%eax
  4045b7:	39 c6                	cmp    %eax,%esi
  4045b9:	7e 06                	jle    4045c1 <_Z12matrix_testsv+0x221>
  4045bb:	48 98                	cltq   
  4045bd:	0f af 14 81          	imul   (%rcx,%rax,4),%edx
  4045c1:	41 89 11             	mov    %edx,(%r9)
  4045c4:	48 63 44 24 70       	movslq 0x70(%rsp),%rax
  4045c9:	48 63 3c 81          	movslq (%rcx,%rax,4),%rdi
  4045cd:	48 b8 00 00 00 00 00 	movabs $0x1fc0000000000000,%rax
  4045d4:	00 c0 1f 
  4045d7:	48 39 c7             	cmp    %rax,%rdi
  4045da:	0f 87 d4 0e 00 00    	ja     4054b4 <_Z12matrix_testsv+0x1114>
  4045e0:	48 c1 e7 02          	shl    $0x2,%rdi
  4045e4:	e8 27 ce ff ff       	callq  401410 <_Znam@plt>
  4045e9:	48 63 74 24 70       	movslq 0x70(%rsp),%rsi
  4045ee:	48 8b 4c 24 68       	mov    0x68(%rsp),%rcx
  4045f3:	bf 30 1a 40 00       	mov    $0x401a30,%edi
  4045f8:	48 89 44 24 60       	mov    %rax,0x60(%rsp)
  4045fd:	c6 44 24 78 01       	movb   $0x1,0x78(%rsp)
  404602:	c6 44 24 79 01       	movb   $0x1,0x79(%rsp)
  404607:	48 c7 44 24 50 c8 ee 	movq   $0x43eec8,0x50(%rsp)
  40460e:	43 00 
  404610:	48 89 f2             	mov    %rsi,%rdx
  404613:	8b 34 b1             	mov    (%rcx,%rsi,4),%esi
  404616:	48 89 8c 24 f0 00 00 	mov    %rcx,0xf0(%rsp)
  40461d:	00 
  40461e:	89 94 24 f8 00 00 00 	mov    %edx,0xf8(%rsp)
  404625:	31 c9                	xor    %ecx,%ecx
  404627:	31 d2                	xor    %edx,%edx
  404629:	48 89 84 24 e8 00 00 	mov    %rax,0xe8(%rsp)
  404630:	00 
  404631:	48 c7 84 24 e0 00 00 	movq   $0x43ec58,0xe0(%rsp)
  404638:	00 58 ec 43 00 
  40463d:	89 b4 24 c0 00 00 00 	mov    %esi,0xc0(%rsp)
  404644:	48 8d b4 24 b0 00 00 	lea    0xb0(%rsp),%rsi
  40464b:	00 
  40464c:	48 89 9c 24 b0 00 00 	mov    %rbx,0xb0(%rsp)
  404653:	00 
  404654:	c7 84 24 b8 00 00 00 	movl   $0xbf800000,0xb8(%rsp)
  40465b:	00 00 80 bf 
  40465f:	c7 84 24 bc 00 00 00 	movl   $0x3f800000,0xbc(%rsp)
  404666:	00 00 80 3f 
  40466a:	e8 31 cf ff ff       	callq  4015a0 <GOMP_parallel@plt>
  40466f:	e8 cc cf ff ff       	callq  401640 <GOMP_barrier@plt>
  404674:	48 8d 7c 24 50       	lea    0x50(%rsp),%rdi
  404679:	e8 02 3a 00 00       	callq  408080 <_ZNK11Tensor_JackIf15CPU_MATHEMATICS10continuousIfS0_EE5printEv>
  40467e:	48 8b 44 24 60       	mov    0x60(%rsp),%rax
  404683:	48 89 df             	mov    %rbx,%rdi
  404686:	48 c7 84 24 e8 00 00 	movq   $0x43ef08,0xe8(%rsp)
  40468d:	00 08 ef 43 00 
  404692:	48 c7 84 24 f0 00 00 	movq   $0x43ef88,0xf0(%rsp)
  404699:	00 88 ef 43 00 
  40469e:	c6 84 24 00 01 00 00 	movb   $0x0,0x100(%rsp)
  4046a5:	00 
  4046a6:	c6 84 24 01 01 00 00 	movb   $0x0,0x101(%rsp)
  4046ad:	00 
  4046ae:	48 c7 84 24 e0 00 00 	movq   $0x43f048,0xe0(%rsp)
  4046b5:	00 48 f0 43 00 
  4046ba:	48 89 84 24 f8 00 00 	mov    %rax,0xf8(%rsp)
  4046c1:	00 
  4046c2:	e8 89 27 00 00       	callq  406e50 <_ZNK11Tensor_JackIf15CPU_MATHEMATICS23ReferenceScalarAccessorIfS0_EE5printEv>
  4046c7:	80 bc 24 00 01 00 00 	cmpb   $0x0,0x100(%rsp)
  4046ce:	00 
  4046cf:	48 c7 84 24 e0 00 00 	movq   $0x43f008,0xe0(%rsp)
  4046d6:	00 08 f0 43 00 
  4046db:	74 12                	je     4046ef <_Z12matrix_testsv+0x34f>
  4046dd:	48 8b bc 24 f8 00 00 	mov    0xf8(%rsp),%rdi
  4046e4:	00 
  4046e5:	48 85 ff             	test   %rdi,%rdi
  4046e8:	74 05                	je     4046ef <_Z12matrix_testsv+0x34f>
  4046ea:	e8 91 ce ff ff       	callq  401580 <_ZdaPv@plt>
  4046ef:	48 8b 44 24 60       	mov    0x60(%rsp),%rax
  4046f4:	48 89 df             	mov    %rbx,%rdi
  4046f7:	48 c7 84 24 e8 00 00 	movq   $0x43ef08,0xe8(%rsp)
  4046fe:	00 08 ef 43 00 
  404703:	48 c7 84 24 f0 00 00 	movq   $0x43ef88,0xf0(%rsp)
  40470a:	00 88 ef 43 00 
  40470f:	c6 84 24 00 01 00 00 	movb   $0x0,0x100(%rsp)
  404716:	00 
  404717:	c6 84 24 01 01 00 00 	movb   $0x0,0x101(%rsp)
  40471e:	00 
  40471f:	48 c7 84 24 e0 00 00 	movq   $0x43f048,0xe0(%rsp)
  404726:	00 48 f0 43 00 
  40472b:	48 83 c0 0c          	add    $0xc,%rax
  40472f:	48 89 84 24 f8 00 00 	mov    %rax,0xf8(%rsp)
  404736:	00 
  404737:	e8 14 27 00 00       	callq  406e50 <_ZNK11Tensor_JackIf15CPU_MATHEMATICS23ReferenceScalarAccessorIfS0_EE5printEv>
  40473c:	80 bc 24 00 01 00 00 	cmpb   $0x0,0x100(%rsp)
  404743:	00 
  404744:	48 c7 84 24 e0 00 00 	movq   $0x43f008,0xe0(%rsp)
  40474b:	00 08 f0 43 00 
  404750:	74 12                	je     404764 <_Z12matrix_testsv+0x3c4>
  404752:	48 8b bc 24 f8 00 00 	mov    0xf8(%rsp),%rdi
  404759:	00 
  40475a:	48 85 ff             	test   %rdi,%rdi
  40475d:	74 05                	je     404764 <_Z12matrix_testsv+0x3c4>
  40475f:	e8 1c ce ff ff       	callq  401580 <_ZdaPv@plt>
  404764:	48 8d 7c 24 50       	lea    0x50(%rsp),%rdi
  404769:	e8 12 39 00 00       	callq  408080 <_ZNK11Tensor_JackIf15CPU_MATHEMATICS10continuousIfS0_EE5printEv>
  40476e:	e8 ed d9 ff ff       	callq  402160 <_ZSt4endlIcSt11char_traitsIcEERSt13basic_ostreamIT_T0_ES6_.constprop.65>
  404773:	bf 0c 00 00 00       	mov    $0xc,%edi
  404778:	c7 84 24 10 01 00 00 	movl   $0x2,0x110(%rsp)
  40477f:	02 00 00 00 
  404783:	c7 84 24 14 01 00 00 	movl   $0x3,0x114(%rsp)
  40478a:	03 00 00 00 
  40478e:	48 c7 84 24 80 00 00 	movq   $0x43ecc8,0x80(%rsp)
  404795:	00 c8 ec 43 00 
  40479a:	48 c7 84 24 88 00 00 	movq   $0x43ec58,0x88(%rsp)
  4047a1:	00 58 ec 43 00 
  4047a6:	c7 84 24 a0 00 00 00 	movl   $0x2,0xa0(%rsp)
  4047ad:	02 00 00 00 
  4047b1:	e8 5a cc ff ff       	callq  401410 <_Znam@plt>
  4047b6:	48 89 84 24 98 00 00 	mov    %rax,0x98(%rsp)
  4047bd:	00 
  4047be:	48 8d 84 24 98 00 00 	lea    0x98(%rsp),%rax
  4047c5:	00 
  4047c6:	31 c9                	xor    %ecx,%ecx
  4047c8:	31 d2                	xor    %edx,%edx
  4047ca:	48 89 de             	mov    %rbx,%rsi
  4047cd:	bf a0 18 40 00       	mov    $0x4018a0,%edi
  4047d2:	48 89 84 24 e0 00 00 	mov    %rax,0xe0(%rsp)
  4047d9:	00 
  4047da:	48 8d 84 24 10 01 00 	lea    0x110(%rsp),%rax
  4047e1:	00 
  4047e2:	c7 84 24 f0 00 00 00 	movl   $0x2,0xf0(%rsp)
  4047e9:	02 00 00 00 
  4047ed:	48 89 84 24 e8 00 00 	mov    %rax,0xe8(%rsp)
  4047f4:	00 
  4047f5:	e8 a6 cd ff ff       	callq  4015a0 <GOMP_parallel@plt>
  4047fa:	e8 41 ce ff ff       	callq  401640 <GOMP_barrier@plt>
  4047ff:	48 63 84 24 a0 00 00 	movslq 0xa0(%rsp),%rax
  404806:	00 
  404807:	48 8b 8c 24 98 00 00 	mov    0x98(%rsp),%rcx
  40480e:	00 
  40480f:	85 c0                	test   %eax,%eax
  404811:	48 89 c6             	mov    %rax,%rsi
  404814:	4c 8d 0c 81          	lea    (%rcx,%rax,4),%r9
  404818:	0f 8e 3a 0a 00 00    	jle    405258 <_Z12matrix_testsv+0xeb8>
  40481e:	48 89 c8             	mov    %rcx,%rax
  404821:	83 e0 0f             	and    $0xf,%eax
  404824:	48 c1 e8 02          	shr    $0x2,%rax
  404828:	48 f7 d8             	neg    %rax
  40482b:	83 e0 03             	and    $0x3,%eax
  40482e:	39 f0                	cmp    %esi,%eax
  404830:	0f 47 c6             	cmova  %esi,%eax
  404833:	83 fe 08             	cmp    $0x8,%esi
  404836:	0f 8f 7c 09 00 00    	jg     4051b8 <_Z12matrix_testsv+0xe18>
  40483c:	89 f0                	mov    %esi,%eax
  40483e:	83 f8 01             	cmp    $0x1,%eax
  404841:	8b 11                	mov    (%rcx),%edx
  404843:	0f 84 cf 0a 00 00    	je     405318 <_Z12matrix_testsv+0xf78>
  404849:	0f af 51 04          	imul   0x4(%rcx),%edx
  40484d:	83 f8 02             	cmp    $0x2,%eax
  404850:	0f 84 d2 0a 00 00    	je     405328 <_Z12matrix_testsv+0xf88>
  404856:	0f af 51 08          	imul   0x8(%rcx),%edx
  40485a:	83 f8 03             	cmp    $0x3,%eax
  40485d:	0f 84 d5 0a 00 00    	je     405338 <_Z12matrix_testsv+0xf98>
  404863:	0f af 51 0c          	imul   0xc(%rcx),%edx
  404867:	83 f8 04             	cmp    $0x4,%eax
  40486a:	0f 84 38 0b 00 00    	je     4053a8 <_Z12matrix_testsv+0x1008>
  404870:	0f af 51 10          	imul   0x10(%rcx),%edx
  404874:	83 f8 05             	cmp    $0x5,%eax
  404877:	0f 84 3b 0b 00 00    	je     4053b8 <_Z12matrix_testsv+0x1018>
  40487d:	0f af 51 14          	imul   0x14(%rcx),%edx
  404881:	83 f8 06             	cmp    $0x6,%eax
  404884:	0f 84 3e 0b 00 00    	je     4053c8 <_Z12matrix_testsv+0x1028>
  40488a:	0f af 51 18          	imul   0x18(%rcx),%edx
  40488e:	83 f8 07             	cmp    $0x7,%eax
  404891:	0f 84 41 0b 00 00    	je     4053d8 <_Z12matrix_testsv+0x1038>
  404897:	0f af 51 1c          	imul   0x1c(%rcx),%edx
  40489b:	bf 08 00 00 00       	mov    $0x8,%edi
  4048a0:	39 c6                	cmp    %eax,%esi
  4048a2:	0f 84 dd 00 00 00    	je     404985 <_Z12matrix_testsv+0x5e5>
  4048a8:	41 89 f3             	mov    %esi,%r11d
  4048ab:	44 8d 56 ff          	lea    -0x1(%rsi),%r10d
  4048af:	41 89 c5             	mov    %eax,%r13d
  4048b2:	41 29 c3             	sub    %eax,%r11d
  4048b5:	45 8d 43 fc          	lea    -0x4(%r11),%r8d
  4048b9:	41 29 c2             	sub    %eax,%r10d
  4048bc:	41 c1 e8 02          	shr    $0x2,%r8d
  4048c0:	41 83 c0 01          	add    $0x1,%r8d
  4048c4:	41 83 fa 02          	cmp    $0x2,%r10d
  4048c8:	46 8d 24 85 00 00 00 	lea    0x0(,%r8,4),%r12d
  4048cf:	00 
  4048d0:	0f 86 8e 00 00 00    	jbe    404964 <_Z12matrix_testsv+0x5c4>
  4048d6:	4a 8d 04 a9          	lea    (%rcx,%r13,4),%rax
  4048da:	66 0f 6f 05 4e 45 04 	movdqa 0x4454e(%rip),%xmm0        # 448e30 <_ZTV6MatrixId15CPU_MATHEMATICS10continuousIdS0_EE+0x9c88>
  4048e1:	00 
  4048e2:	45 31 d2             	xor    %r10d,%r10d
  4048e5:	66 0f 6f 08          	movdqa (%rax),%xmm1
  4048e9:	66 0f 6f d0          	movdqa %xmm0,%xmm2
  4048ed:	66 0f 73 d0 20       	psrlq  $0x20,%xmm0
  4048f2:	41 83 c2 01          	add    $0x1,%r10d
  4048f6:	48 83 c0 10          	add    $0x10,%rax
  4048fa:	66 0f f4 50 f0       	pmuludq -0x10(%rax),%xmm2
  4048ff:	66 0f 73 d1 20       	psrlq  $0x20,%xmm1
  404904:	66 0f f4 c8          	pmuludq %xmm0,%xmm1
  404908:	66 0f 70 c2 08       	pshufd $0x8,%xmm2,%xmm0
  40490d:	45 39 c2             	cmp    %r8d,%r10d
  404910:	66 0f 70 c9 08       	pshufd $0x8,%xmm1,%xmm1
  404915:	66 0f 62 c1          	punpckldq %xmm1,%xmm0
  404919:	72 ca                	jb     4048e5 <_Z12matrix_testsv+0x545>
  40491b:	66 0f 6f c8          	movdqa %xmm0,%xmm1
  40491f:	44 01 e7             	add    %r12d,%edi
  404922:	66 0f 6f d0          	movdqa %xmm0,%xmm2
  404926:	66 0f 73 d0 20       	psrlq  $0x20,%xmm0
  40492b:	66 0f 73 d9 08       	psrldq $0x8,%xmm1
  404930:	66 0f f4 d1          	pmuludq %xmm1,%xmm2
  404934:	66 0f 73 d1 20       	psrlq  $0x20,%xmm1
  404939:	66 0f f4 c1          	pmuludq %xmm1,%xmm0
  40493d:	66 0f 70 ca 08       	pshufd $0x8,%xmm2,%xmm1
  404942:	66 0f 70 c0 08       	pshufd $0x8,%xmm0,%xmm0
  404947:	66 0f 62 c8          	punpckldq %xmm0,%xmm1
  40494b:	66 0f 6f c1          	movdqa %xmm1,%xmm0
  40494f:	66 0f 73 d9 04       	psrldq $0x4,%xmm1
  404954:	66 0f f4 c1          	pmuludq %xmm1,%xmm0
  404958:	66 0f 7e c0          	movd   %xmm0,%eax
  40495c:	0f af d0             	imul   %eax,%edx
  40495f:	45 39 e3             	cmp    %r12d,%r11d
  404962:	74 21                	je     404985 <_Z12matrix_testsv+0x5e5>
  404964:	48 63 c7             	movslq %edi,%rax
  404967:	0f af 14 81          	imul   (%rcx,%rax,4),%edx
  40496b:	8d 47 01             	lea    0x1(%rdi),%eax
  40496e:	39 c6                	cmp    %eax,%esi
  404970:	7e 13                	jle    404985 <_Z12matrix_testsv+0x5e5>
  404972:	48 98                	cltq   
  404974:	0f af 14 81          	imul   (%rcx,%rax,4),%edx
  404978:	8d 47 02             	lea    0x2(%rdi),%eax
  40497b:	39 c6                	cmp    %eax,%esi
  40497d:	7e 06                	jle    404985 <_Z12matrix_testsv+0x5e5>
  40497f:	48 98                	cltq   
  404981:	0f af 14 81          	imul   (%rcx,%rax,4),%edx
  404985:	41 89 11             	mov    %edx,(%r9)
  404988:	48 63 84 24 a0 00 00 	movslq 0xa0(%rsp),%rax
  40498f:	00 
  404990:	48 63 3c 81          	movslq (%rcx,%rax,4),%rdi
  404994:	48 b8 00 00 00 00 00 	movabs $0x1fc0000000000000,%rax
  40499b:	00 c0 1f 
  40499e:	48 39 c7             	cmp    %rax,%rdi
  4049a1:	0f 87 7b 0a 00 00    	ja     405422 <_Z12matrix_testsv+0x1082>
  4049a7:	48 c1 e7 02          	shl    $0x2,%rdi
  4049ab:	e8 60 ca ff ff       	callq  401410 <_Znam@plt>
  4049b0:	bf 0c 00 00 00       	mov    $0xc,%edi
  4049b5:	48 89 84 24 90 00 00 	mov    %rax,0x90(%rsp)
  4049bc:	00 
  4049bd:	c6 84 24 a8 00 00 00 	movb   $0x1,0xa8(%rsp)
  4049c4:	01 
  4049c5:	c6 84 24 a9 00 00 00 	movb   $0x1,0xa9(%rsp)
  4049cc:	01 
  4049cd:	48 c7 84 24 80 00 00 	movq   $0x43f088,0x80(%rsp)
  4049d4:	00 88 f0 43 00 
  4049d9:	c7 84 24 20 01 00 00 	movl   $0x3,0x120(%rsp)
  4049e0:	03 00 00 00 
  4049e4:	c7 84 24 24 01 00 00 	movl   $0x2,0x124(%rsp)
  4049eb:	02 00 00 00 
  4049ef:	48 c7 84 24 b0 00 00 	movq   $0x43ecc8,0xb0(%rsp)
  4049f6:	00 c8 ec 43 00 
  4049fb:	48 c7 84 24 b8 00 00 	movq   $0x43ec58,0xb8(%rsp)
  404a02:	00 58 ec 43 00 
  404a07:	c7 84 24 d0 00 00 00 	movl   $0x2,0xd0(%rsp)
  404a0e:	02 00 00 00 
  404a12:	e8 f9 c9 ff ff       	callq  401410 <_Znam@plt>
  404a17:	48 89 84 24 c8 00 00 	mov    %rax,0xc8(%rsp)
  404a1e:	00 
  404a1f:	48 8d 84 24 c8 00 00 	lea    0xc8(%rsp),%rax
  404a26:	00 
  404a27:	31 c9                	xor    %ecx,%ecx
  404a29:	31 d2                	xor    %edx,%edx
  404a2b:	48 89 de             	mov    %rbx,%rsi
  404a2e:	bf a0 18 40 00       	mov    $0x4018a0,%edi
  404a33:	48 89 84 24 e0 00 00 	mov    %rax,0xe0(%rsp)
  404a3a:	00 
  404a3b:	48 8d 84 24 20 01 00 	lea    0x120(%rsp),%rax
  404a42:	00 
  404a43:	c7 84 24 f0 00 00 00 	movl   $0x2,0xf0(%rsp)
  404a4a:	02 00 00 00 
  404a4e:	48 89 84 24 e8 00 00 	mov    %rax,0xe8(%rsp)
  404a55:	00 
  404a56:	e8 45 cb ff ff       	callq  4015a0 <GOMP_parallel@plt>
  404a5b:	e8 e0 cb ff ff       	callq  401640 <GOMP_barrier@plt>
  404a60:	48 63 84 24 d0 00 00 	movslq 0xd0(%rsp),%rax
  404a67:	00 
  404a68:	48 8b 8c 24 c8 00 00 	mov    0xc8(%rsp),%rcx
  404a6f:	00 
  404a70:	85 c0                	test   %eax,%eax
  404a72:	48 89 c6             	mov    %rax,%rsi
  404a75:	4c 8d 0c 81          	lea    (%rcx,%rax,4),%r9
  404a79:	0f 8e b9 07 00 00    	jle    405238 <_Z12matrix_testsv+0xe98>
  404a7f:	48 89 c8             	mov    %rcx,%rax
  404a82:	83 e0 0f             	and    $0xf,%eax
  404a85:	48 c1 e8 02          	shr    $0x2,%rax
  404a89:	48 f7 d8             	neg    %rax
  404a8c:	83 e0 03             	and    $0x3,%eax
  404a8f:	39 f0                	cmp    %esi,%eax
  404a91:	0f 47 c6             	cmova  %esi,%eax
  404a94:	83 fe 08             	cmp    $0x8,%esi
  404a97:	0f 8f eb 06 00 00    	jg     405188 <_Z12matrix_testsv+0xde8>
  404a9d:	89 f0                	mov    %esi,%eax
  404a9f:	83 f8 01             	cmp    $0x1,%eax
  404aa2:	8b 11                	mov    (%rcx),%edx
  404aa4:	0f 84 ee 07 00 00    	je     405298 <_Z12matrix_testsv+0xef8>
  404aaa:	0f af 51 04          	imul   0x4(%rcx),%edx
  404aae:	83 f8 02             	cmp    $0x2,%eax
  404ab1:	0f 84 91 08 00 00    	je     405348 <_Z12matrix_testsv+0xfa8>
  404ab7:	0f af 51 08          	imul   0x8(%rcx),%edx
  404abb:	83 f8 03             	cmp    $0x3,%eax
  404abe:	0f 84 94 08 00 00    	je     405358 <_Z12matrix_testsv+0xfb8>
  404ac4:	0f af 51 0c          	imul   0xc(%rcx),%edx
  404ac8:	83 f8 04             	cmp    $0x4,%eax
  404acb:	0f 84 97 08 00 00    	je     405368 <_Z12matrix_testsv+0xfc8>
  404ad1:	0f af 51 10          	imul   0x10(%rcx),%edx
  404ad5:	83 f8 05             	cmp    $0x5,%eax
  404ad8:	0f 84 9a 08 00 00    	je     405378 <_Z12matrix_testsv+0xfd8>
  404ade:	0f af 51 14          	imul   0x14(%rcx),%edx
  404ae2:	83 f8 06             	cmp    $0x6,%eax
  404ae5:	0f 84 9d 08 00 00    	je     405388 <_Z12matrix_testsv+0xfe8>
  404aeb:	0f af 51 18          	imul   0x18(%rcx),%edx
  404aef:	83 f8 07             	cmp    $0x7,%eax
  404af2:	0f 84 a0 08 00 00    	je     405398 <_Z12matrix_testsv+0xff8>
  404af8:	0f af 51 1c          	imul   0x1c(%rcx),%edx
  404afc:	bf 08 00 00 00       	mov    $0x8,%edi
  404b01:	39 c6                	cmp    %eax,%esi
  404b03:	0f 84 dd 00 00 00    	je     404be6 <_Z12matrix_testsv+0x846>
  404b09:	41 89 f3             	mov    %esi,%r11d
  404b0c:	44 8d 56 ff          	lea    -0x1(%rsi),%r10d
  404b10:	41 89 c5             	mov    %eax,%r13d
  404b13:	41 29 c3             	sub    %eax,%r11d
  404b16:	45 8d 43 fc          	lea    -0x4(%r11),%r8d
  404b1a:	41 29 c2             	sub    %eax,%r10d
  404b1d:	41 c1 e8 02          	shr    $0x2,%r8d
  404b21:	41 83 c0 01          	add    $0x1,%r8d
  404b25:	41 83 fa 02          	cmp    $0x2,%r10d
  404b29:	46 8d 24 85 00 00 00 	lea    0x0(,%r8,4),%r12d
  404b30:	00 
  404b31:	0f 86 8e 00 00 00    	jbe    404bc5 <_Z12matrix_testsv+0x825>
  404b37:	4a 8d 04 a9          	lea    (%rcx,%r13,4),%rax
  404b3b:	66 0f 6f 05 ed 42 04 	movdqa 0x442ed(%rip),%xmm0        # 448e30 <_ZTV6MatrixId15CPU_MATHEMATICS10continuousIdS0_EE+0x9c88>
  404b42:	00 
  404b43:	45 31 d2             	xor    %r10d,%r10d
  404b46:	66 0f 6f 08          	movdqa (%rax),%xmm1
  404b4a:	66 0f 6f d0          	movdqa %xmm0,%xmm2
  404b4e:	66 0f 73 d0 20       	psrlq  $0x20,%xmm0
  404b53:	41 83 c2 01          	add    $0x1,%r10d
  404b57:	48 83 c0 10          	add    $0x10,%rax
  404b5b:	66 0f f4 50 f0       	pmuludq -0x10(%rax),%xmm2
  404b60:	66 0f 73 d1 20       	psrlq  $0x20,%xmm1
  404b65:	66 0f f4 c8          	pmuludq %xmm0,%xmm1
  404b69:	66 0f 70 c2 08       	pshufd $0x8,%xmm2,%xmm0
  404b6e:	45 39 c2             	cmp    %r8d,%r10d
  404b71:	66 0f 70 c9 08       	pshufd $0x8,%xmm1,%xmm1
  404b76:	66 0f 62 c1          	punpckldq %xmm1,%xmm0
  404b7a:	72 ca                	jb     404b46 <_Z12matrix_testsv+0x7a6>
  404b7c:	66 0f 6f c8          	movdqa %xmm0,%xmm1
  404b80:	44 01 e7             	add    %r12d,%edi
  404b83:	66 0f 6f d0          	movdqa %xmm0,%xmm2
  404b87:	66 0f 73 d0 20       	psrlq  $0x20,%xmm0
  404b8c:	66 0f 73 d9 08       	psrldq $0x8,%xmm1
  404b91:	66 0f f4 d1          	pmuludq %xmm1,%xmm2
  404b95:	66 0f 73 d1 20       	psrlq  $0x20,%xmm1
  404b9a:	66 0f f4 c1          	pmuludq %xmm1,%xmm0
  404b9e:	66 0f 70 ca 08       	pshufd $0x8,%xmm2,%xmm1
  404ba3:	66 0f 70 c0 08       	pshufd $0x8,%xmm0,%xmm0
  404ba8:	66 0f 62 c8          	punpckldq %xmm0,%xmm1
  404bac:	66 0f 6f c1          	movdqa %xmm1,%xmm0
  404bb0:	66 0f 73 d9 04       	psrldq $0x4,%xmm1
  404bb5:	66 0f f4 c1          	pmuludq %xmm1,%xmm0
  404bb9:	66 0f 7e c0          	movd   %xmm0,%eax
  404bbd:	0f af d0             	imul   %eax,%edx
  404bc0:	45 39 e3             	cmp    %r12d,%r11d
  404bc3:	74 21                	je     404be6 <_Z12matrix_testsv+0x846>
  404bc5:	48 63 c7             	movslq %edi,%rax
  404bc8:	0f af 14 81          	imul   (%rcx,%rax,4),%edx
  404bcc:	8d 47 01             	lea    0x1(%rdi),%eax
  404bcf:	39 c6                	cmp    %eax,%esi
  404bd1:	7e 13                	jle    404be6 <_Z12matrix_testsv+0x846>
  404bd3:	48 98                	cltq   
  404bd5:	0f af 14 81          	imul   (%rcx,%rax,4),%edx
  404bd9:	8d 47 02             	lea    0x2(%rdi),%eax
  404bdc:	39 c6                	cmp    %eax,%esi
  404bde:	7e 06                	jle    404be6 <_Z12matrix_testsv+0x846>
  404be0:	48 98                	cltq   
  404be2:	0f af 14 81          	imul   (%rcx,%rax,4),%edx
  404be6:	41 89 11             	mov    %edx,(%r9)
  404be9:	48 63 84 24 d0 00 00 	movslq 0xd0(%rsp),%rax
  404bf0:	00 
  404bf1:	48 63 3c 81          	movslq (%rcx,%rax,4),%rdi
  404bf5:	48 b8 00 00 00 00 00 	movabs $0x1fc0000000000000,%rax
  404bfc:	00 c0 1f 
  404bff:	48 39 c7             	cmp    %rax,%rdi
  404c02:	0f 87 c2 08 00 00    	ja     4054ca <_Z12matrix_testsv+0x112a>
  404c08:	48 c1 e7 02          	shl    $0x2,%rdi
  404c0c:	e8 ff c7 ff ff       	callq  401410 <_Znam@plt>
  404c11:	bf 0c 00 00 00       	mov    $0xc,%edi
  404c16:	48 89 84 24 c0 00 00 	mov    %rax,0xc0(%rsp)
  404c1d:	00 
  404c1e:	c6 84 24 d8 00 00 00 	movb   $0x1,0xd8(%rsp)
  404c25:	01 
  404c26:	c6 84 24 d9 00 00 00 	movb   $0x1,0xd9(%rsp)
  404c2d:	01 
  404c2e:	48 c7 84 24 b0 00 00 	movq   $0x43f088,0xb0(%rsp)
  404c35:	00 88 f0 43 00 
  404c3a:	c7 84 24 30 01 00 00 	movl   $0x2,0x130(%rsp)
  404c41:	02 00 00 00 
  404c45:	c7 84 24 34 01 00 00 	movl   $0x2,0x134(%rsp)
  404c4c:	02 00 00 00 
  404c50:	48 c7 84 24 e0 00 00 	movq   $0x43ecc8,0xe0(%rsp)
  404c57:	00 c8 ec 43 00 
  404c5c:	48 c7 84 24 e8 00 00 	movq   $0x43ec58,0xe8(%rsp)
  404c63:	00 58 ec 43 00 
  404c68:	c7 84 24 00 01 00 00 	movl   $0x2,0x100(%rsp)
  404c6f:	02 00 00 00 
  404c73:	e8 98 c7 ff ff       	callq  401410 <_Znam@plt>
  404c78:	48 89 6c 24 38       	mov    %rbp,0x38(%rsp)
  404c7d:	48 8d 6c 24 30       	lea    0x30(%rsp),%rbp
  404c82:	48 89 84 24 f8 00 00 	mov    %rax,0xf8(%rsp)
  404c89:	00 
  404c8a:	48 8d 43 18          	lea    0x18(%rbx),%rax
  404c8e:	31 c9                	xor    %ecx,%ecx
  404c90:	31 d2                	xor    %edx,%edx
  404c92:	48 89 ee             	mov    %rbp,%rsi
  404c95:	bf a0 18 40 00       	mov    $0x4018a0,%edi
  404c9a:	c7 44 24 40 02 00 00 	movl   $0x2,0x40(%rsp)
  404ca1:	00 
  404ca2:	48 89 44 24 30       	mov    %rax,0x30(%rsp)
  404ca7:	e8 f4 c8 ff ff       	callq  4015a0 <GOMP_parallel@plt>
  404cac:	e8 8f c9 ff ff       	callq  401640 <GOMP_barrier@plt>
  404cb1:	48 63 84 24 00 01 00 	movslq 0x100(%rsp),%rax
  404cb8:	00 
  404cb9:	48 8b 8c 24 f8 00 00 	mov    0xf8(%rsp),%rcx
  404cc0:	00 
  404cc1:	85 c0                	test   %eax,%eax
  404cc3:	48 89 c6             	mov    %rax,%rsi
  404cc6:	4c 8d 04 81          	lea    (%rcx,%rax,4),%r8
  404cca:	0f 8e 78 05 00 00    	jle    405248 <_Z12matrix_testsv+0xea8>
  404cd0:	48 89 c8             	mov    %rcx,%rax
  404cd3:	83 e0 0f             	and    $0xf,%eax
  404cd6:	48 c1 e8 02          	shr    $0x2,%rax
  404cda:	48 f7 d8             	neg    %rax
  404cdd:	83 e0 03             	and    $0x3,%eax
  404ce0:	39 f0                	cmp    %esi,%eax
  404ce2:	0f 47 c6             	cmova  %esi,%eax
  404ce5:	83 fe 08             	cmp    $0x8,%esi
  404ce8:	0f 8f e2 04 00 00    	jg     4051d0 <_Z12matrix_testsv+0xe30>
  404cee:	89 f0                	mov    %esi,%eax
  404cf0:	83 f8 01             	cmp    $0x1,%eax
  404cf3:	8b 11                	mov    (%rcx),%edx
  404cf5:	0f 84 0d 06 00 00    	je     405308 <_Z12matrix_testsv+0xf68>
  404cfb:	0f af 51 04          	imul   0x4(%rcx),%edx
  404cff:	83 f8 02             	cmp    $0x2,%eax
  404d02:	0f 84 e0 05 00 00    	je     4052e8 <_Z12matrix_testsv+0xf48>
  404d08:	0f af 51 08          	imul   0x8(%rcx),%edx
  404d0c:	83 f8 03             	cmp    $0x3,%eax
  404d0f:	0f 84 e3 05 00 00    	je     4052f8 <_Z12matrix_testsv+0xf58>
  404d15:	0f af 51 0c          	imul   0xc(%rcx),%edx
  404d19:	83 f8 04             	cmp    $0x4,%eax
  404d1c:	0f 84 86 05 00 00    	je     4052a8 <_Z12matrix_testsv+0xf08>
  404d22:	0f af 51 10          	imul   0x10(%rcx),%edx
  404d26:	83 f8 05             	cmp    $0x5,%eax
  404d29:	0f 84 89 05 00 00    	je     4052b8 <_Z12matrix_testsv+0xf18>
  404d2f:	0f af 51 14          	imul   0x14(%rcx),%edx
  404d33:	83 f8 06             	cmp    $0x6,%eax
  404d36:	0f 84 8c 05 00 00    	je     4052c8 <_Z12matrix_testsv+0xf28>
  404d3c:	0f af 51 18          	imul   0x18(%rcx),%edx
  404d40:	83 f8 07             	cmp    $0x7,%eax
  404d43:	0f 84 8f 05 00 00    	je     4052d8 <_Z12matrix_testsv+0xf38>
  404d49:	0f af 51 1c          	imul   0x1c(%rcx),%edx
  404d4d:	bf 08 00 00 00       	mov    $0x8,%edi
  404d52:	39 c6                	cmp    %eax,%esi
  404d54:	0f 84 dd 00 00 00    	je     404e37 <_Z12matrix_testsv+0xa97>
  404d5a:	41 89 f3             	mov    %esi,%r11d
  404d5d:	44 8d 56 ff          	lea    -0x1(%rsi),%r10d
  404d61:	41 89 c5             	mov    %eax,%r13d
  404d64:	41 29 c3             	sub    %eax,%r11d
  404d67:	45 8d 4b fc          	lea    -0x4(%r11),%r9d
  404d6b:	41 29 c2             	sub    %eax,%r10d
  404d6e:	41 c1 e9 02          	shr    $0x2,%r9d
  404d72:	41 83 c1 01          	add    $0x1,%r9d
  404d76:	41 83 fa 02          	cmp    $0x2,%r10d
  404d7a:	46 8d 24 8d 00 00 00 	lea    0x0(,%r9,4),%r12d
  404d81:	00 
  404d82:	0f 86 8e 00 00 00    	jbe    404e16 <_Z12matrix_testsv+0xa76>
  404d88:	4a 8d 04 a9          	lea    (%rcx,%r13,4),%rax
  404d8c:	66 0f 6f 05 9c 40 04 	movdqa 0x4409c(%rip),%xmm0        # 448e30 <_ZTV6MatrixId15CPU_MATHEMATICS10continuousIdS0_EE+0x9c88>
  404d93:	00 
  404d94:	45 31 d2             	xor    %r10d,%r10d
  404d97:	66 0f 6f 08          	movdqa (%rax),%xmm1
  404d9b:	66 0f 6f d0          	movdqa %xmm0,%xmm2
  404d9f:	66 0f 73 d0 20       	psrlq  $0x20,%xmm0
  404da4:	41 83 c2 01          	add    $0x1,%r10d
  404da8:	48 83 c0 10          	add    $0x10,%rax
  404dac:	66 0f f4 50 f0       	pmuludq -0x10(%rax),%xmm2
  404db1:	66 0f 73 d1 20       	psrlq  $0x20,%xmm1
  404db6:	66 0f f4 c8          	pmuludq %xmm0,%xmm1
  404dba:	66 0f 70 c2 08       	pshufd $0x8,%xmm2,%xmm0
  404dbf:	45 39 d1             	cmp    %r10d,%r9d
  404dc2:	66 0f 70 c9 08       	pshufd $0x8,%xmm1,%xmm1
  404dc7:	66 0f 62 c1          	punpckldq %xmm1,%xmm0
  404dcb:	77 ca                	ja     404d97 <_Z12matrix_testsv+0x9f7>
  404dcd:	66 0f 6f d0          	movdqa %xmm0,%xmm2
  404dd1:	44 01 e7             	add    %r12d,%edi
  404dd4:	66 0f 6f c8          	movdqa %xmm0,%xmm1
  404dd8:	66 0f 73 d0 20       	psrlq  $0x20,%xmm0
  404ddd:	66 0f 73 da 08       	psrldq $0x8,%xmm2
  404de2:	66 0f f4 ca          	pmuludq %xmm2,%xmm1
  404de6:	66 0f 73 d2 20       	psrlq  $0x20,%xmm2
  404deb:	66 0f 70 c9 08       	pshufd $0x8,%xmm1,%xmm1
  404df0:	66 0f f4 c2          	pmuludq %xmm2,%xmm0
  404df4:	66 0f 70 c0 08       	pshufd $0x8,%xmm0,%xmm0
  404df9:	66 0f 62 c8          	punpckldq %xmm0,%xmm1
  404dfd:	66 0f 6f c1          	movdqa %xmm1,%xmm0
  404e01:	66 0f 73 d9 04       	psrldq $0x4,%xmm1
  404e06:	66 0f f4 c1          	pmuludq %xmm1,%xmm0
  404e0a:	66 0f 7e c0          	movd   %xmm0,%eax
  404e0e:	0f af d0             	imul   %eax,%edx
  404e11:	45 39 e3             	cmp    %r12d,%r11d
  404e14:	74 21                	je     404e37 <_Z12matrix_testsv+0xa97>
  404e16:	48 63 c7             	movslq %edi,%rax
  404e19:	0f af 14 81          	imul   (%rcx,%rax,4),%edx
  404e1d:	8d 47 01             	lea    0x1(%rdi),%eax
  404e20:	39 c6                	cmp    %eax,%esi
  404e22:	7e 13                	jle    404e37 <_Z12matrix_testsv+0xa97>
  404e24:	48 98                	cltq   
  404e26:	0f af 14 81          	imul   (%rcx,%rax,4),%edx
  404e2a:	8d 47 02             	lea    0x2(%rdi),%eax
  404e2d:	39 c6                	cmp    %eax,%esi
  404e2f:	7e 06                	jle    404e37 <_Z12matrix_testsv+0xa97>
  404e31:	48 98                	cltq   
  404e33:	0f af 14 81          	imul   (%rcx,%rax,4),%edx
  404e37:	41 89 10             	mov    %edx,(%r8)
  404e3a:	48 63 84 24 00 01 00 	movslq 0x100(%rsp),%rax
  404e41:	00 
  404e42:	48 63 3c 81          	movslq (%rcx,%rax,4),%rdi
  404e46:	48 b8 00 00 00 00 00 	movabs $0x1fc0000000000000,%rax
  404e4d:	00 c0 1f 
  404e50:	48 39 c7             	cmp    %rax,%rdi
  404e53:	0f 87 d3 05 00 00    	ja     40542c <_Z12matrix_testsv+0x108c>
  404e59:	48 c1 e7 02          	shl    $0x2,%rdi
  404e5d:	e8 ae c5 ff ff       	callq  401410 <_Znam@plt>
  404e62:	48 63 8c 24 a0 00 00 	movslq 0xa0(%rsp),%rcx
  404e69:	00 
  404e6a:	48 8b 94 24 98 00 00 	mov    0x98(%rsp),%rdx
  404e71:	00 
  404e72:	48 89 84 24 f0 00 00 	mov    %rax,0xf0(%rsp)
  404e79:	00 
  404e7a:	c6 84 24 08 01 00 00 	movb   $0x1,0x108(%rsp)
  404e81:	01 
  404e82:	c6 84 24 09 01 00 00 	movb   $0x1,0x109(%rsp)
  404e89:	01 
  404e8a:	48 c7 84 24 e0 00 00 	movq   $0x43f088,0xe0(%rsp)
  404e91:	00 88 f0 43 00 
  404e96:	8b 3c 8a             	mov    (%rdx,%rcx,4),%edi
  404e99:	85 ff                	test   %edi,%edi
  404e9b:	0f 8e b2 01 00 00    	jle    405053 <_Z12matrix_testsv+0xcb3>
  404ea1:	48 8b 8c 24 90 00 00 	mov    0x90(%rsp),%rcx
  404ea8:	00 
  404ea9:	48 8b b4 24 c0 00 00 	mov    0xc0(%rsp),%rsi
  404eb0:	00 
  404eb1:	48 8d 51 10          	lea    0x10(%rcx),%rdx
  404eb5:	48 39 d6             	cmp    %rdx,%rsi
  404eb8:	48 8d 56 10          	lea    0x10(%rsi),%rdx
  404ebc:	41 0f 93 c0          	setae  %r8b
  404ec0:	48 39 d1             	cmp    %rdx,%rcx
  404ec3:	0f 93 c2             	setae  %dl
  404ec6:	41 08 d0             	or     %dl,%r8b
  404ec9:	0f 84 19 03 00 00    	je     4051e8 <_Z12matrix_testsv+0xe48>
  404ecf:	83 ff 07             	cmp    $0x7,%edi
  404ed2:	0f 86 10 03 00 00    	jbe    4051e8 <_Z12matrix_testsv+0xe48>
  404ed8:	48 89 ca             	mov    %rcx,%rdx
  404edb:	83 e2 0f             	and    $0xf,%edx
  404ede:	48 c1 ea 02          	shr    $0x2,%rdx
  404ee2:	48 f7 da             	neg    %rdx
  404ee5:	83 e2 03             	and    $0x3,%edx
  404ee8:	39 fa                	cmp    %edi,%edx
  404eea:	48 0f 47 d7          	cmova  %rdi,%rdx
  404eee:	45 31 c0             	xor    %r8d,%r8d
  404ef1:	85 d2                	test   %edx,%edx
  404ef3:	74 44                	je     404f39 <_Z12matrix_testsv+0xb99>
  404ef5:	83 fa 01             	cmp    $0x1,%edx
  404ef8:	c7 01 00 00 80 3f    	movl   $0x3f800000,(%rcx)
  404efe:	41 b8 01 00 00 00    	mov    $0x1,%r8d
  404f04:	c7 06 00 00 e0 40    	movl   $0x40e00000,(%rsi)
  404f0a:	74 2d                	je     404f39 <_Z12matrix_testsv+0xb99>
  404f0c:	83 fa 03             	cmp    $0x3,%edx
  404f0f:	c7 41 04 00 00 00 40 	movl   $0x40000000,0x4(%rcx)
  404f16:	41 b8 02 00 00 00    	mov    $0x2,%r8d
  404f1c:	c7 46 04 00 00 00 41 	movl   $0x41000000,0x4(%rsi)
  404f23:	75 14                	jne    404f39 <_Z12matrix_testsv+0xb99>
  404f25:	c7 41 08 00 00 40 40 	movl   $0x40400000,0x8(%rcx)
  404f2c:	41 b8 03 00 00 00    	mov    $0x3,%r8d
  404f32:	c7 46 08 00 00 10 41 	movl   $0x41100000,0x8(%rsi)
  404f39:	41 89 fa             	mov    %edi,%r10d
  404f3c:	44 89 44 24 0c       	mov    %r8d,0xc(%rsp)
  404f41:	45 31 e4             	xor    %r12d,%r12d
  404f44:	41 29 d2             	sub    %edx,%r10d
  404f47:	66 0f 6e 6c 24 0c    	movd   0xc(%rsp),%xmm5
  404f4d:	48 c1 e2 02          	shl    $0x2,%rdx
  404f51:	45 8d 4a fc          	lea    -0x4(%r10),%r9d
  404f55:	66 0f 6f 25 d3 3e 04 	movdqa 0x43ed3(%rip),%xmm4        # 448e30 <_ZTV6MatrixId15CPU_MATHEMATICS10continuousIdS0_EE+0x9c88>
  404f5c:	00 
  404f5d:	66 0f 70 c5 00       	pshufd $0x0,%xmm5,%xmm0
  404f62:	4c 8d 34 11          	lea    (%rcx,%rdx,1),%r14
  404f66:	41 c1 e9 02          	shr    $0x2,%r9d
  404f6a:	66 0f 6f 1d ee 3e 04 	movdqa 0x43eee(%rip),%xmm3        # 448e60 <_ZTV6MatrixId15CPU_MATHEMATICS10continuousIdS0_EE+0x9cb8>
  404f71:	00 
  404f72:	41 83 c1 01          	add    $0x1,%r9d
  404f76:	48 01 f2             	add    %rsi,%rdx
  404f79:	45 31 ed             	xor    %r13d,%r13d
  404f7c:	46 8d 1c 8d 00 00 00 	lea    0x0(,%r9,4),%r11d
  404f83:	00 
  404f84:	66 0f 6f 15 e4 3e 04 	movdqa 0x43ee4(%rip),%xmm2        # 448e70 <_ZTV6MatrixId15CPU_MATHEMATICS10continuousIdS0_EE+0x9cc8>
  404f8b:	00 
  404f8c:	66 0f fe 05 bc 3e 04 	paddd  0x43ebc(%rip),%xmm0        # 448e50 <_ZTV6MatrixId15CPU_MATHEMATICS10continuousIdS0_EE+0x9ca8>
  404f93:	00 
  404f94:	66 0f 6f c8          	movdqa %xmm0,%xmm1
  404f98:	41 83 c5 01          	add    $0x1,%r13d
  404f9c:	66 0f fe cc          	paddd  %xmm4,%xmm1
  404fa0:	0f 5b c9             	cvtdq2ps %xmm1,%xmm1
  404fa3:	43 0f 29 0c 26       	movaps %xmm1,(%r14,%r12,1)
  404fa8:	66 0f 6f c8          	movdqa %xmm0,%xmm1
  404fac:	66 0f fe c3          	paddd  %xmm3,%xmm0
  404fb0:	66 0f fe ca          	paddd  %xmm2,%xmm1
  404fb4:	0f 5b c9             	cvtdq2ps %xmm1,%xmm1
  404fb7:	42 0f 11 0c 22       	movups %xmm1,(%rdx,%r12,1)
  404fbc:	49 83 c4 10          	add    $0x10,%r12
  404fc0:	45 39 e9             	cmp    %r13d,%r9d
  404fc3:	77 cf                	ja     404f94 <_Z12matrix_testsv+0xbf4>
  404fc5:	45 39 d3             	cmp    %r10d,%r11d
  404fc8:	43 8d 14 03          	lea    (%r11,%r8,1),%edx
  404fcc:	0f 84 81 00 00 00    	je     405053 <_Z12matrix_testsv+0xcb3>
  404fd2:	66 0f ef c0          	pxor   %xmm0,%xmm0
  404fd6:	44 8d 42 01          	lea    0x1(%rdx),%r8d
  404fda:	4c 63 d2             	movslq %edx,%r10
  404fdd:	44 8d 4a 07          	lea    0x7(%rdx),%r9d
  404fe1:	44 39 c7             	cmp    %r8d,%edi
  404fe4:	f3 41 0f 2a c0       	cvtsi2ss %r8d,%xmm0
  404fe9:	f3 42 0f 11 04 91    	movss  %xmm0,(%rcx,%r10,4)
  404fef:	66 0f ef c0          	pxor   %xmm0,%xmm0
  404ff3:	f3 41 0f 2a c1       	cvtsi2ss %r9d,%xmm0
  404ff8:	f3 42 0f 11 04 96    	movss  %xmm0,(%rsi,%r10,4)
  404ffe:	7e 53                	jle    405053 <_Z12matrix_testsv+0xcb3>
  405000:	66 0f ef c0          	pxor   %xmm0,%xmm0
  405004:	4d 63 c8             	movslq %r8d,%r9
  405007:	44 8d 42 02          	lea    0x2(%rdx),%r8d
  40500b:	44 8d 52 08          	lea    0x8(%rdx),%r10d
  40500f:	44 39 c7             	cmp    %r8d,%edi
  405012:	f3 41 0f 2a c0       	cvtsi2ss %r8d,%xmm0
  405017:	f3 42 0f 11 04 89    	movss  %xmm0,(%rcx,%r9,4)
  40501d:	66 0f ef c0          	pxor   %xmm0,%xmm0
  405021:	f3 41 0f 2a c2       	cvtsi2ss %r10d,%xmm0
  405026:	f3 42 0f 11 04 8e    	movss  %xmm0,(%rsi,%r9,4)
  40502c:	7e 25                	jle    405053 <_Z12matrix_testsv+0xcb3>
  40502e:	66 0f ef c0          	pxor   %xmm0,%xmm0
  405032:	8d 7a 03             	lea    0x3(%rdx),%edi
  405035:	4d 63 c0             	movslq %r8d,%r8
  405038:	83 c2 09             	add    $0x9,%edx
  40503b:	f3 0f 2a c7          	cvtsi2ss %edi,%xmm0
  40503f:	f3 42 0f 11 04 81    	movss  %xmm0,(%rcx,%r8,4)
  405045:	66 0f ef c0          	pxor   %xmm0,%xmm0
  405049:	f3 0f 2a c2          	cvtsi2ss %edx,%xmm0
  40504d:	f3 42 0f 11 04 86    	movss  %xmm0,(%rsi,%r8,4)
  405053:	48 63 b4 24 00 01 00 	movslq 0x100(%rsp),%rsi
  40505a:	00 
  40505b:	48 8b 8c 24 f8 00 00 	mov    0xf8(%rsp),%rcx
  405062:	00 
  405063:	bf 30 1a 40 00       	mov    $0x401a30,%edi
  405068:	48 89 f2             	mov    %rsi,%rdx
  40506b:	8b 34 b1             	mov    (%rcx,%rsi,4),%esi
  40506e:	48 89 4c 24 40       	mov    %rcx,0x40(%rsp)
  405073:	89 54 24 48          	mov    %edx,0x48(%rsp)
  405077:	31 c9                	xor    %ecx,%ecx
  405079:	31 d2                	xor    %edx,%edx
  40507b:	48 89 44 24 38       	mov    %rax,0x38(%rsp)
  405080:	48 c7 44 24 30 58 ec 	movq   $0x43ec58,0x30(%rsp)
  405087:	43 00 
  405089:	89 74 24 20          	mov    %esi,0x20(%rsp)
  40508d:	48 8d 74 24 10       	lea    0x10(%rsp),%rsi
  405092:	48 89 6c 24 10       	mov    %rbp,0x10(%rsp)
  405097:	c7 44 24 18 00 00 80 	movl   $0xbf800000,0x18(%rsp)
  40509e:	bf 
  40509f:	c7 44 24 1c 00 00 80 	movl   $0x3f800000,0x1c(%rsp)
  4050a6:	3f 
  4050a7:	e8 f4 c4 ff ff       	callq  4015a0 <GOMP_parallel@plt>
  4050ac:	e8 8f c5 ff ff       	callq  401640 <GOMP_barrier@plt>
  4050b1:	48 89 df             	mov    %rbx,%rdi
  4050b4:	e8 c7 2f 00 00       	callq  408080 <_ZNK11Tensor_JackIf15CPU_MATHEMATICS10continuousIfS0_EE5printEv>
  4050b9:	48 8d bc 24 80 00 00 	lea    0x80(%rsp),%rdi
  4050c0:	00 
  4050c1:	e8 ba 2f 00 00       	callq  408080 <_ZNK11Tensor_JackIf15CPU_MATHEMATICS10continuousIfS0_EE5printEv>
  4050c6:	48 8d bc 24 b0 00 00 	lea    0xb0(%rsp),%rdi
  4050cd:	00 
  4050ce:	e8 ad 2f 00 00       	callq  408080 <_ZNK11Tensor_JackIf15CPU_MATHEMATICS10continuousIfS0_EE5printEv>
  4050d3:	48 89 df             	mov    %rbx,%rdi
  4050d6:	e8 a5 2f 00 00       	callq  408080 <_ZNK11Tensor_JackIf15CPU_MATHEMATICS10continuousIfS0_EE5printEv>
  4050db:	48 8d bc 24 b0 00 00 	lea    0xb0(%rsp),%rdi
  4050e2:	00 
  4050e3:	e8 98 2f 00 00       	callq  408080 <_ZNK11Tensor_JackIf15CPU_MATHEMATICS10continuousIfS0_EE5printEv>
  4050e8:	ba 09 00 00 00       	mov    $0x9,%edx
  4050ed:	be f4 e2 43 00       	mov    $0x43e2f4,%esi
  4050f2:	bf e0 c1 64 00       	mov    $0x64c1e0,%edi
  4050f7:	e8 54 c4 ff ff       	callq  401550 <_ZSt16__ostream_insertIcSt11char_traitsIcEERSt13basic_ostreamIT_T0_ES6_PKS3_l@plt>
  4050fc:	e8 5f d0 ff ff       	callq  402160 <_ZSt4endlIcSt11char_traitsIcEERSt13basic_ostreamIT_T0_ES6_.constprop.65>
  405101:	48 89 df             	mov    %rbx,%rdi
  405104:	48 c7 84 24 e0 00 00 	movq   $0x43f088,0xe0(%rsp)
  40510b:	00 88 f0 43 00 
  405110:	e8 ab 14 00 00       	callq  4065c0 <_ZN11Tensor_JackIf15CPU_MATHEMATICS10continuousIfS0_EED1Ev>
  405115:	48 8d bc 24 b0 00 00 	lea    0xb0(%rsp),%rdi
  40511c:	00 
  40511d:	48 c7 84 24 b0 00 00 	movq   $0x43f088,0xb0(%rsp)
  405124:	00 88 f0 43 00 
  405129:	e8 92 14 00 00       	callq  4065c0 <_ZN11Tensor_JackIf15CPU_MATHEMATICS10continuousIfS0_EED1Ev>
  40512e:	48 8d bc 24 80 00 00 	lea    0x80(%rsp),%rdi
  405135:	00 
  405136:	48 c7 84 24 80 00 00 	movq   $0x43f088,0x80(%rsp)
  40513d:	00 88 f0 43 00 
  405142:	e8 79 14 00 00       	callq  4065c0 <_ZN11Tensor_JackIf15CPU_MATHEMATICS10continuousIfS0_EED1Ev>
  405147:	48 8d 7c 24 50       	lea    0x50(%rsp),%rdi
  40514c:	48 c7 44 24 50 c8 ee 	movq   $0x43eec8,0x50(%rsp)
  405153:	43 00 
  405155:	e8 66 14 00 00       	callq  4065c0 <_ZN11Tensor_JackIf15CPU_MATHEMATICS10continuousIfS0_EED1Ev>
  40515a:	48 8b 84 24 38 01 00 	mov    0x138(%rsp),%rax
  405161:	00 
  405162:	64 48 33 04 25 28 00 	xor    %fs:0x28,%rax
  405169:	00 00 
  40516b:	0f 85 b6 02 00 00    	jne    405427 <_Z12matrix_testsv+0x1087>
  405171:	48 81 c4 40 01 00 00 	add    $0x140,%rsp
  405178:	5b                   	pop    %rbx
  405179:	5d                   	pop    %rbp
  40517a:	41 5c                	pop    %r12
  40517c:	41 5d                	pop    %r13
  40517e:	41 5e                	pop    %r14
  405180:	c3                   	retq   
  405181:	0f 1f 80 00 00 00 00 	nopl   0x0(%rax)
  405188:	85 c0                	test   %eax,%eax
  40518a:	0f 85 0f f9 ff ff    	jne    404a9f <_Z12matrix_testsv+0x6ff>
  405190:	ba 01 00 00 00       	mov    $0x1,%edx
  405195:	31 ff                	xor    %edi,%edi
  405197:	e9 6d f9 ff ff       	jmpq   404b09 <_Z12matrix_testsv+0x769>
  40519c:	0f 1f 40 00          	nopl   0x0(%rax)
  4051a0:	85 c0                	test   %eax,%eax
  4051a2:	0f 85 d2 f2 ff ff    	jne    40447a <_Z12matrix_testsv+0xda>
  4051a8:	ba 01 00 00 00       	mov    $0x1,%edx
  4051ad:	31 ff                	xor    %edi,%edi
  4051af:	e9 30 f3 ff ff       	jmpq   4044e4 <_Z12matrix_testsv+0x144>
  4051b4:	0f 1f 40 00          	nopl   0x0(%rax)
  4051b8:	85 c0                	test   %eax,%eax
  4051ba:	0f 85 7e f6 ff ff    	jne    40483e <_Z12matrix_testsv+0x49e>
  4051c0:	ba 01 00 00 00       	mov    $0x1,%edx
  4051c5:	31 ff                	xor    %edi,%edi
  4051c7:	e9 dc f6 ff ff       	jmpq   4048a8 <_Z12matrix_testsv+0x508>
  4051cc:	0f 1f 40 00          	nopl   0x0(%rax)
  4051d0:	85 c0                	test   %eax,%eax
  4051d2:	0f 85 18 fb ff ff    	jne    404cf0 <_Z12matrix_testsv+0x950>
  4051d8:	ba 01 00 00 00       	mov    $0x1,%edx
  4051dd:	31 ff                	xor    %edi,%edi
  4051df:	e9 76 fb ff ff       	jmpq   404d5a <_Z12matrix_testsv+0x9ba>
  4051e4:	0f 1f 40 00          	nopl   0x0(%rax)
  4051e8:	45 31 c0             	xor    %r8d,%r8d
  4051eb:	31 d2                	xor    %edx,%edx
  4051ed:	0f 1f 00             	nopl   (%rax)
  4051f0:	66 0f ef c0          	pxor   %xmm0,%xmm0
  4051f4:	83 c2 01             	add    $0x1,%edx
  4051f7:	44 8d 4a 06          	lea    0x6(%rdx),%r9d
  4051fb:	f3 0f 2a c2          	cvtsi2ss %edx,%xmm0
  4051ff:	f3 42 0f 11 04 01    	movss  %xmm0,(%rcx,%r8,1)
  405205:	66 0f ef c0          	pxor   %xmm0,%xmm0
  405209:	f3 41 0f 2a c1       	cvtsi2ss %r9d,%xmm0
  40520e:	f3 42 0f 11 04 06    	movss  %xmm0,(%rsi,%r8,1)
  405214:	49 83 c0 04          	add    $0x4,%r8
  405218:	39 d7                	cmp    %edx,%edi
  40521a:	75 d4                	jne    4051f0 <_Z12matrix_testsv+0xe50>
  40521c:	e9 32 fe ff ff       	jmpq   405053 <_Z12matrix_testsv+0xcb3>
  405221:	0f 1f 80 00 00 00 00 	nopl   0x0(%rax)
  405228:	ba 01 00 00 00       	mov    $0x1,%edx
  40522d:	e9 8f f3 ff ff       	jmpq   4045c1 <_Z12matrix_testsv+0x221>
  405232:	66 0f 1f 44 00 00    	nopw   0x0(%rax,%rax,1)
  405238:	ba 01 00 00 00       	mov    $0x1,%edx
  40523d:	e9 a4 f9 ff ff       	jmpq   404be6 <_Z12matrix_testsv+0x846>
  405242:	66 0f 1f 44 00 00    	nopw   0x0(%rax,%rax,1)
  405248:	ba 01 00 00 00       	mov    $0x1,%edx
  40524d:	e9 e5 fb ff ff       	jmpq   404e37 <_Z12matrix_testsv+0xa97>
  405252:	66 0f 1f 44 00 00    	nopw   0x0(%rax,%rax,1)
  405258:	ba 01 00 00 00       	mov    $0x1,%edx
  40525d:	e9 23 f7 ff ff       	jmpq   404985 <_Z12matrix_testsv+0x5e5>
  405262:	66 0f 1f 44 00 00    	nopw   0x0(%rax,%rax,1)
  405268:	bf 02 00 00 00       	mov    $0x2,%edi
  40526d:	e9 6a f2 ff ff       	jmpq   4044dc <_Z12matrix_testsv+0x13c>
  405272:	66 0f 1f 44 00 00    	nopw   0x0(%rax,%rax,1)
  405278:	bf 03 00 00 00       	mov    $0x3,%edi
  40527d:	e9 5a f2 ff ff       	jmpq   4044dc <_Z12matrix_testsv+0x13c>
  405282:	66 0f 1f 44 00 00    	nopw   0x0(%rax,%rax,1)
  405288:	bf 01 00 00 00       	mov    $0x1,%edi
  40528d:	e9 4a f2 ff ff       	jmpq   4044dc <_Z12matrix_testsv+0x13c>
  405292:	66 0f 1f 44 00 00    	nopw   0x0(%rax,%rax,1)
  405298:	bf 01 00 00 00       	mov    $0x1,%edi
  40529d:	e9 5f f8 ff ff       	jmpq   404b01 <_Z12matrix_testsv+0x761>
  4052a2:	66 0f 1f 44 00 00    	nopw   0x0(%rax,%rax,1)
  4052a8:	bf 04 00 00 00       	mov    $0x4,%edi
  4052ad:	e9 a0 fa ff ff       	jmpq   404d52 <_Z12matrix_testsv+0x9b2>
  4052b2:	66 0f 1f 44 00 00    	nopw   0x0(%rax,%rax,1)
  4052b8:	bf 05 00 00 00       	mov    $0x5,%edi
  4052bd:	e9 90 fa ff ff       	jmpq   404d52 <_Z12matrix_testsv+0x9b2>
  4052c2:	66 0f 1f 44 00 00    	nopw   0x0(%rax,%rax,1)
  4052c8:	bf 06 00 00 00       	mov    $0x6,%edi
  4052cd:	e9 80 fa ff ff       	jmpq   404d52 <_Z12matrix_testsv+0x9b2>
  4052d2:	66 0f 1f 44 00 00    	nopw   0x0(%rax,%rax,1)
  4052d8:	bf 07 00 00 00       	mov    $0x7,%edi
  4052dd:	e9 70 fa ff ff       	jmpq   404d52 <_Z12matrix_testsv+0x9b2>
  4052e2:	66 0f 1f 44 00 00    	nopw   0x0(%rax,%rax,1)
  4052e8:	bf 02 00 00 00       	mov    $0x2,%edi
  4052ed:	e9 60 fa ff ff       	jmpq   404d52 <_Z12matrix_testsv+0x9b2>
  4052f2:	66 0f 1f 44 00 00    	nopw   0x0(%rax,%rax,1)
  4052f8:	bf 03 00 00 00       	mov    $0x3,%edi
  4052fd:	e9 50 fa ff ff       	jmpq   404d52 <_Z12matrix_testsv+0x9b2>
  405302:	66 0f 1f 44 00 00    	nopw   0x0(%rax,%rax,1)
  405308:	bf 01 00 00 00       	mov    $0x1,%edi
  40530d:	e9 40 fa ff ff       	jmpq   404d52 <_Z12matrix_testsv+0x9b2>
  405312:	66 0f 1f 44 00 00    	nopw   0x0(%rax,%rax,1)
  405318:	bf 01 00 00 00       	mov    $0x1,%edi
  40531d:	e9 7e f5 ff ff       	jmpq   4048a0 <_Z12matrix_testsv+0x500>
  405322:	66 0f 1f 44 00 00    	nopw   0x0(%rax,%rax,1)
  405328:	bf 02 00 00 00       	mov    $0x2,%edi
  40532d:	e9 6e f5 ff ff       	jmpq   4048a0 <_Z12matrix_testsv+0x500>
  405332:	66 0f 1f 44 00 00    	nopw   0x0(%rax,%rax,1)
  405338:	bf 03 00 00 00       	mov    $0x3,%edi
  40533d:	e9 5e f5 ff ff       	jmpq   4048a0 <_Z12matrix_testsv+0x500>
  405342:	66 0f 1f 44 00 00    	nopw   0x0(%rax,%rax,1)
  405348:	bf 02 00 00 00       	mov    $0x2,%edi
  40534d:	e9 af f7 ff ff       	jmpq   404b01 <_Z12matrix_testsv+0x761>
  405352:	66 0f 1f 44 00 00    	nopw   0x0(%rax,%rax,1)
  405358:	bf 03 00 00 00       	mov    $0x3,%edi
  40535d:	e9 9f f7 ff ff       	jmpq   404b01 <_Z12matrix_testsv+0x761>
  405362:	66 0f 1f 44 00 00    	nopw   0x0(%rax,%rax,1)
  405368:	bf 04 00 00 00       	mov    $0x4,%edi
  40536d:	e9 8f f7 ff ff       	jmpq   404b01 <_Z12matrix_testsv+0x761>
  405372:	66 0f 1f 44 00 00    	nopw   0x0(%rax,%rax,1)
  405378:	bf 05 00 00 00       	mov    $0x5,%edi
  40537d:	e9 7f f7 ff ff       	jmpq   404b01 <_Z12matrix_testsv+0x761>
  405382:	66 0f 1f 44 00 00    	nopw   0x0(%rax,%rax,1)
  405388:	bf 06 00 00 00       	mov    $0x6,%edi
  40538d:	e9 6f f7 ff ff       	jmpq   404b01 <_Z12matrix_testsv+0x761>
  405392:	66 0f 1f 44 00 00    	nopw   0x0(%rax,%rax,1)
  405398:	bf 07 00 00 00       	mov    $0x7,%edi
  40539d:	e9 5f f7 ff ff       	jmpq   404b01 <_Z12matrix_testsv+0x761>
  4053a2:	66 0f 1f 44 00 00    	nopw   0x0(%rax,%rax,1)
  4053a8:	bf 04 00 00 00       	mov    $0x4,%edi
  4053ad:	e9 ee f4 ff ff       	jmpq   4048a0 <_Z12matrix_testsv+0x500>
  4053b2:	66 0f 1f 44 00 00    	nopw   0x0(%rax,%rax,1)
  4053b8:	bf 05 00 00 00       	mov    $0x5,%edi
  4053bd:	e9 de f4 ff ff       	jmpq   4048a0 <_Z12matrix_testsv+0x500>
  4053c2:	66 0f 1f 44 00 00    	nopw   0x0(%rax,%rax,1)
  4053c8:	bf 06 00 00 00       	mov    $0x6,%edi
  4053cd:	e9 ce f4 ff ff       	jmpq   4048a0 <_Z12matrix_testsv+0x500>
  4053d2:	66 0f 1f 44 00 00    	nopw   0x0(%rax,%rax,1)
  4053d8:	bf 07 00 00 00       	mov    $0x7,%edi
  4053dd:	e9 be f4 ff ff       	jmpq   4048a0 <_Z12matrix_testsv+0x500>
  4053e2:	66 0f 1f 44 00 00    	nopw   0x0(%rax,%rax,1)
  4053e8:	bf 04 00 00 00       	mov    $0x4,%edi
  4053ed:	e9 ea f0 ff ff       	jmpq   4044dc <_Z12matrix_testsv+0x13c>
  4053f2:	66 0f 1f 44 00 00    	nopw   0x0(%rax,%rax,1)
  4053f8:	bf 05 00 00 00       	mov    $0x5,%edi
  4053fd:	e9 da f0 ff ff       	jmpq   4044dc <_Z12matrix_testsv+0x13c>
  405402:	66 0f 1f 44 00 00    	nopw   0x0(%rax,%rax,1)
  405408:	bf 06 00 00 00       	mov    $0x6,%edi
  40540d:	e9 ca f0 ff ff       	jmpq   4044dc <_Z12matrix_testsv+0x13c>
  405412:	66 0f 1f 44 00 00    	nopw   0x0(%rax,%rax,1)
  405418:	bf 07 00 00 00       	mov    $0x7,%edi
  40541d:	e9 ba f0 ff ff       	jmpq   4044dc <_Z12matrix_testsv+0x13c>
  405422:	e8 69 c1 ff ff       	callq  401590 <__cxa_throw_bad_array_new_length@plt>
  405427:	e8 14 c1 ff ff       	callq  401540 <__stack_chk_fail@plt>
  40542c:	e8 5f c1 ff ff       	callq  401590 <__cxa_throw_bad_array_new_length@plt>
  405431:	48 89 c5             	mov    %rax,%rbp
  405434:	48 89 df             	mov    %rbx,%rdi
  405437:	48 c7 84 24 e0 00 00 	movq   $0x43f088,0xe0(%rsp)
  40543e:	00 88 f0 43 00 
  405443:	48 89 eb             	mov    %rbp,%rbx
  405446:	e8 75 11 00 00       	callq  4065c0 <_ZN11Tensor_JackIf15CPU_MATHEMATICS10continuousIfS0_EED1Ev>
  40544b:	48 8d bc 24 b0 00 00 	lea    0xb0(%rsp),%rdi
  405452:	00 
  405453:	48 c7 84 24 b0 00 00 	movq   $0x43f088,0xb0(%rsp)
  40545a:	00 88 f0 43 00 
  40545f:	e8 5c 11 00 00       	callq  4065c0 <_ZN11Tensor_JackIf15CPU_MATHEMATICS10continuousIfS0_EED1Ev>
  405464:	48 8d bc 24 80 00 00 	lea    0x80(%rsp),%rdi
  40546b:	00 
  40546c:	48 c7 84 24 80 00 00 	movq   $0x43f088,0x80(%rsp)
  405473:	00 88 f0 43 00 
  405478:	e8 43 11 00 00       	callq  4065c0 <_ZN11Tensor_JackIf15CPU_MATHEMATICS10continuousIfS0_EED1Ev>
  40547d:	48 8d 7c 24 50       	lea    0x50(%rsp),%rdi
  405482:	48 c7 44 24 50 c8 ee 	movq   $0x43eec8,0x50(%rsp)
  405489:	43 00 
  40548b:	e8 30 11 00 00       	callq  4065c0 <_ZN11Tensor_JackIf15CPU_MATHEMATICS10continuousIfS0_EED1Ev>
  405490:	48 89 df             	mov    %rbx,%rdi
  405493:	e8 78 c1 ff ff       	callq  401610 <_Unwind_Resume@plt>
  405498:	48 89 c5             	mov    %rax,%rbp
  40549b:	48 89 df             	mov    %rbx,%rdi
  40549e:	48 c7 84 24 e0 00 00 	movq   $0x43f048,0xe0(%rsp)
  4054a5:	00 48 f0 43 00 
  4054aa:	48 89 eb             	mov    %rbp,%rbx
  4054ad:	e8 4e 11 00 00       	callq  406600 <_ZN11Tensor_JackIf15CPU_MATHEMATICS23ReferenceScalarAccessorIfS0_EED1Ev>
  4054b2:	eb c9                	jmp    40547d <_Z12matrix_testsv+0x10dd>
  4054b4:	e8 d7 c0 ff ff       	callq  401590 <__cxa_throw_bad_array_new_length@plt>
  4054b9:	eb dd                	jmp    405498 <_Z12matrix_testsv+0x10f8>
  4054bb:	48 89 c3             	mov    %rax,%rbx
  4054be:	eb bd                	jmp    40547d <_Z12matrix_testsv+0x10dd>
  4054c0:	48 89 c3             	mov    %rax,%rbx
  4054c3:	eb 86                	jmp    40544b <_Z12matrix_testsv+0x10ab>
  4054c5:	48 89 c3             	mov    %rax,%rbx
  4054c8:	eb 9a                	jmp    405464 <_Z12matrix_testsv+0x10c4>
  4054ca:	e8 c1 c0 ff ff       	callq  401590 <__cxa_throw_bad_array_new_length@plt>
  4054cf:	90                   	nop

00000000004054d0 <_ZNKSt5ctypeIcE8do_widenEc>:
  4054d0:	89 f0                	mov    %esi,%eax
  4054d2:	c3                   	retq   
  4054d3:	66 2e 0f 1f 84 00 00 	nopw   %cs:0x0(%rax,%rax,1)
  4054da:	00 00 00 
  4054dd:	0f 1f 00             	nopl   (%rax)

00000000004054e0 <_ZN10continuousIf15CPU_MATHEMATICSED1Ev>:
  4054e0:	f3 c3                	repz retq 
  4054e2:	66 2e 0f 1f 84 00 00 	nopw   %cs:0x0(%rax,%rax,1)
  4054e9:	00 00 00 
  4054ec:	0f 1f 40 00          	nopl   0x0(%rax)

00000000004054f0 <_ZN11Tensor_KingIf15CPU_MATHEMATICS10continuousIfS0_EED1Ev>:
  4054f0:	f3 c3                	repz retq 
  4054f2:	66 2e 0f 1f 84 00 00 	nopw   %cs:0x0(%rax,%rax,1)
  4054f9:	00 00 00 
  4054fc:	0f 1f 40 00          	nopl   0x0(%rax)

0000000000405500 <_ZN12Tensor_QueenIf15CPU_MATHEMATICS10continuousIfS0_EED1Ev>:
  405500:	f3 c3                	repz retq 
  405502:	66 2e 0f 1f 84 00 00 	nopw   %cs:0x0(%rax,%rax,1)
  405509:	00 00 00 
  40550c:	0f 1f 40 00          	nopl   0x0(%rax)

0000000000405510 <_ZN19StackScalarAccessorIf15CPU_MATHEMATICSED1Ev>:
  405510:	f3 c3                	repz retq 
  405512:	0f 1f 40 00          	nopl   0x0(%rax)
  405516:	66 2e 0f 1f 84 00 00 	nopw   %cs:0x0(%rax,%rax,1)
  40551d:	00 00 00 

0000000000405520 <_ZThn8_N19StackScalarAccessorIf15CPU_MATHEMATICSED1Ev>:
  405520:	48 83 ef 08          	sub    $0x8,%rdi
  405524:	eb ea                	jmp    405510 <_ZN19StackScalarAccessorIf15CPU_MATHEMATICSED1Ev>
  405526:	66 2e 0f 1f 84 00 00 	nopw   %cs:0x0(%rax,%rax,1)
  40552d:	00 00 00 

0000000000405530 <_ZN6bufferIf15CPU_MATHEMATICS19StackScalarAccessorIfS0_E10continuousIfS0_EN9Operation3subIfEEED1Ev>:
  405530:	f3 c3                	repz retq 
  405532:	66 2e 0f 1f 84 00 00 	nopw   %cs:0x0(%rax,%rax,1)
  405539:	00 00 00 
  40553c:	0f 1f 40 00          	nopl   0x0(%rax)

0000000000405540 <_ZN11Tensor_KingIf15CPU_MATHEMATICS6bufferIfS0_19StackScalarAccessorIfS0_E10continuousIfS0_EN9Operation3subIfEEEED1Ev>:
  405540:	f3 c3                	repz retq 
  405542:	66 2e 0f 1f 84 00 00 	nopw   %cs:0x0(%rax,%rax,1)
  405549:	00 00 00 
  40554c:	0f 1f 40 00          	nopl   0x0(%rax)

0000000000405550 <_ZN23ReferenceScalarAccessorIf15CPU_MATHEMATICSED1Ev>:
  405550:	f3 c3                	repz retq 
  405552:	0f 1f 40 00          	nopl   0x0(%rax)
  405556:	66 2e 0f 1f 84 00 00 	nopw   %cs:0x0(%rax,%rax,1)
  40555d:	00 00 00 

0000000000405560 <_ZThn8_N23ReferenceScalarAccessorIf15CPU_MATHEMATICSED1Ev>:
  405560:	48 83 ef 08          	sub    $0x8,%rdi
  405564:	eb ea                	jmp    405550 <_ZN23ReferenceScalarAccessorIf15CPU_MATHEMATICSED1Ev>
  405566:	66 2e 0f 1f 84 00 00 	nopw   %cs:0x0(%rax,%rax,1)
  40556d:	00 00 00 

0000000000405570 <_ZN11Tensor_KingIf15CPU_MATHEMATICS23ReferenceScalarAccessorIfS0_EED1Ev>:
  405570:	f3 c3                	repz retq 
  405572:	66 2e 0f 1f 84 00 00 	nopw   %cs:0x0(%rax,%rax,1)
  405579:	00 00 00 
  40557c:	0f 1f 40 00          	nopl   0x0(%rax)

0000000000405580 <_ZN12Tensor_QueenIf15CPU_MATHEMATICS23ReferenceScalarAccessorIfS0_EED1Ev>:
  405580:	f3 c3                	repz retq 
  405582:	66 2e 0f 1f 84 00 00 	nopw   %cs:0x0(%rax,%rax,1)
  405589:	00 00 00 
  40558c:	0f 1f 40 00          	nopl   0x0(%rax)

0000000000405590 <_ZN10continuousId15CPU_MATHEMATICSED1Ev>:
  405590:	f3 c3                	repz retq 
  405592:	66 2e 0f 1f 84 00 00 	nopw   %cs:0x0(%rax,%rax,1)
  405599:	00 00 00 
  40559c:	0f 1f 40 00          	nopl   0x0(%rax)

00000000004055a0 <_ZN6bufferId15CPU_MATHEMATICS10continuousIdS0_ES2_N9Operation3addIdEEED1Ev>:
  4055a0:	f3 c3                	repz retq 
  4055a2:	66 2e 0f 1f 84 00 00 	nopw   %cs:0x0(%rax,%rax,1)
  4055a9:	00 00 00 
  4055ac:	0f 1f 40 00          	nopl   0x0(%rax)

00000000004055b0 <_ZN11Tensor_KingId15CPU_MATHEMATICS6bufferIdS0_10continuousIdS0_ES3_N9Operation3addIdEEEED1Ev>:
  4055b0:	f3 c3                	repz retq 
  4055b2:	66 2e 0f 1f 84 00 00 	nopw   %cs:0x0(%rax,%rax,1)
  4055b9:	00 00 00 
  4055bc:	0f 1f 40 00          	nopl   0x0(%rax)

00000000004055c0 <_ZN6bufferId15CPU_MATHEMATICSS_IdS0_10continuousIdS0_ES2_N9Operation3addIdEEES2_S5_ED1Ev>:
  4055c0:	f3 c3                	repz retq 
  4055c2:	66 2e 0f 1f 84 00 00 	nopw   %cs:0x0(%rax,%rax,1)
  4055c9:	00 00 00 
  4055cc:	0f 1f 40 00          	nopl   0x0(%rax)

00000000004055d0 <_ZN11Tensor_KingId15CPU_MATHEMATICS6bufferIdS0_S1_IdS0_10continuousIdS0_ES3_N9Operation3addIdEEES3_S6_EED1Ev>:
  4055d0:	f3 c3                	repz retq 
  4055d2:	66 2e 0f 1f 84 00 00 	nopw   %cs:0x0(%rax,%rax,1)
  4055d9:	00 00 00 
  4055dc:	0f 1f 40 00          	nopl   0x0(%rax)

00000000004055e0 <_ZN10continuousId15CPU_MATHEMATICSE7getDataEv>:
  4055e0:	48 8b 47 08          	mov    0x8(%rdi),%rax
  4055e4:	c3                   	retq   
  4055e5:	66 2e 0f 1f 84 00 00 	nopw   %cs:0x0(%rax,%rax,1)
  4055ec:	00 00 00 
  4055ef:	90                   	nop

00000000004055f0 <_ZN10continuousIf15CPU_MATHEMATICSE7getDataEv>:
  4055f0:	48 8b 47 08          	mov    0x8(%rdi),%rax
  4055f4:	c3                   	retq   
  4055f5:	66 2e 0f 1f 84 00 00 	nopw   %cs:0x0(%rax,%rax,1)
  4055fc:	00 00 00 
  4055ff:	90                   	nop

0000000000405600 <_ZN10continuousIf15CPU_MATHEMATICSE8getShapeEv>:
  405600:	48 8b 47 10          	mov    0x10(%rdi),%rax
  405604:	c3                   	retq   
  405605:	66 2e 0f 1f 84 00 00 	nopw   %cs:0x0(%rax,%rax,1)
  40560c:	00 00 00 
  40560f:	90                   	nop

0000000000405610 <_ZNK10continuousIf15CPU_MATHEMATICSE8getShapeEv>:
  405610:	48 8b 47 10          	mov    0x10(%rdi),%rax
  405614:	c3                   	retq   
  405615:	66 2e 0f 1f 84 00 00 	nopw   %cs:0x0(%rax,%rax,1)
  40561c:	00 00 00 
  40561f:	90                   	nop

0000000000405620 <_ZNK11Tensor_KingIf15CPU_MATHEMATICS10continuousIfS0_EE5orderEv>:
  405620:	8b 47 20             	mov    0x20(%rdi),%eax
  405623:	c3                   	retq   
  405624:	66 2e 0f 1f 84 00 00 	nopw   %cs:0x0(%rax,%rax,1)
  40562b:	00 00 00 
  40562e:	66 90                	xchg   %ax,%ax

0000000000405630 <_ZN11Tensor_KingIf15CPU_MATHEMATICS19StackScalarAccessorIfS0_EED1Ev>:
  405630:	f3 c3                	repz retq 
  405632:	66 2e 0f 1f 84 00 00 	nopw   %cs:0x0(%rax,%rax,1)
  405639:	00 00 00 
  40563c:	0f 1f 40 00          	nopl   0x0(%rax)

0000000000405640 <_ZN12Tensor_QueenIf15CPU_MATHEMATICS19StackScalarAccessorIfS0_EED1Ev>:
  405640:	f3 c3                	repz retq 
  405642:	66 2e 0f 1f 84 00 00 	nopw   %cs:0x0(%rax,%rax,1)
  405649:	00 00 00 
  40564c:	0f 1f 40 00          	nopl   0x0(%rax)

0000000000405650 <_ZNK23ReferenceScalarAccessorIf15CPU_MATHEMATICSE8getShapeEv>:
  405650:	31 c0                	xor    %eax,%eax
  405652:	c3                   	retq   
  405653:	0f 1f 00             	nopl   (%rax)
  405656:	66 2e 0f 1f 84 00 00 	nopw   %cs:0x0(%rax,%rax,1)
  40565d:	00 00 00 

0000000000405660 <_ZThn8_NK23ReferenceScalarAccessorIf15CPU_MATHEMATICSE8getShapeEv>:
  405660:	48 83 ef 08          	sub    $0x8,%rdi
  405664:	eb ea                	jmp    405650 <_ZNK23ReferenceScalarAccessorIf15CPU_MATHEMATICSE8getShapeEv>
  405666:	66 2e 0f 1f 84 00 00 	nopw   %cs:0x0(%rax,%rax,1)
  40566d:	00 00 00 

0000000000405670 <_ZNK11Tensor_KingIf15CPU_MATHEMATICS23ReferenceScalarAccessorIfS0_EE5orderEv>:
  405670:	b8 01 00 00 00       	mov    $0x1,%eax
  405675:	c3                   	retq   
  405676:	66 2e 0f 1f 84 00 00 	nopw   %cs:0x0(%rax,%rax,1)
  40567d:	00 00 00 

0000000000405680 <_ZNK11Tensor_KingIf15CPU_MATHEMATICS23ReferenceScalarAccessorIfS0_EE4sizeEv>:
  405680:	b8 01 00 00 00       	mov    $0x1,%eax
  405685:	c3                   	retq   
  405686:	66 2e 0f 1f 84 00 00 	nopw   %cs:0x0(%rax,%rax,1)
  40568d:	00 00 00 

0000000000405690 <_ZN11Tensor_KingId15CPU_MATHEMATICS10continuousIdS0_EED1Ev>:
  405690:	f3 c3                	repz retq 
  405692:	66 2e 0f 1f 84 00 00 	nopw   %cs:0x0(%rax,%rax,1)
  405699:	00 00 00 
  40569c:	0f 1f 40 00          	nopl   0x0(%rax)

00000000004056a0 <_ZN12Tensor_QueenId15CPU_MATHEMATICS10continuousIdS0_EED1Ev>:
  4056a0:	f3 c3                	repz retq 
  4056a2:	66 2e 0f 1f 84 00 00 	nopw   %cs:0x0(%rax,%rax,1)
  4056a9:	00 00 00 
  4056ac:	0f 1f 40 00          	nopl   0x0(%rax)

00000000004056b0 <_ZNK10continuousIf15CPU_MATHEMATICSE5orderEv>:
  4056b0:	8b 47 18             	mov    0x18(%rdi),%eax
  4056b3:	c3                   	retq   
  4056b4:	66 2e 0f 1f 84 00 00 	nopw   %cs:0x0(%rax,%rax,1)
  4056bb:	00 00 00 
  4056be:	66 90                	xchg   %ax,%ax

00000000004056c0 <_ZN19StackScalarAccessorIf15CPU_MATHEMATICSE8getShapeEv>:
  4056c0:	31 c0                	xor    %eax,%eax
  4056c2:	c3                   	retq   
  4056c3:	0f 1f 00             	nopl   (%rax)
  4056c6:	66 2e 0f 1f 84 00 00 	nopw   %cs:0x0(%rax,%rax,1)
  4056cd:	00 00 00 

00000000004056d0 <_ZThn8_N19StackScalarAccessorIf15CPU_MATHEMATICSE8getShapeEv>:
  4056d0:	48 83 ef 08          	sub    $0x8,%rdi
  4056d4:	eb ea                	jmp    4056c0 <_ZN19StackScalarAccessorIf15CPU_MATHEMATICSE8getShapeEv>
  4056d6:	66 2e 0f 1f 84 00 00 	nopw   %cs:0x0(%rax,%rax,1)
  4056dd:	00 00 00 

00000000004056e0 <_ZN23ReferenceScalarAccessorIf15CPU_MATHEMATICSE7getDataEv>:
  4056e0:	48 8b 47 10          	mov    0x10(%rdi),%rax
  4056e4:	c3                   	retq   
  4056e5:	90                   	nop
  4056e6:	66 2e 0f 1f 84 00 00 	nopw   %cs:0x0(%rax,%rax,1)
  4056ed:	00 00 00 

00000000004056f0 <_ZThn8_N23ReferenceScalarAccessorIf15CPU_MATHEMATICSE7getDataEv>:
  4056f0:	48 83 ef 08          	sub    $0x8,%rdi
  4056f4:	eb ea                	jmp    4056e0 <_ZN23ReferenceScalarAccessorIf15CPU_MATHEMATICSE7getDataEv>
  4056f6:	66 2e 0f 1f 84 00 00 	nopw   %cs:0x0(%rax,%rax,1)
  4056fd:	00 00 00 

0000000000405700 <_ZN23ReferenceScalarAccessorIf15CPU_MATHEMATICSE8getShapeEv>:
  405700:	31 c0                	xor    %eax,%eax
  405702:	c3                   	retq   
  405703:	0f 1f 00             	nopl   (%rax)
  405706:	66 2e 0f 1f 84 00 00 	nopw   %cs:0x0(%rax,%rax,1)
  40570d:	00 00 00 

0000000000405710 <_ZThn8_N23ReferenceScalarAccessorIf15CPU_MATHEMATICSE8getShapeEv>:
  405710:	48 83 ef 08          	sub    $0x8,%rdi
  405714:	eb ea                	jmp    405700 <_ZN23ReferenceScalarAccessorIf15CPU_MATHEMATICSE8getShapeEv>
  405716:	66 2e 0f 1f 84 00 00 	nopw   %cs:0x0(%rax,%rax,1)
  40571d:	00 00 00 

0000000000405720 <_ZNK23ReferenceScalarAccessorIf15CPU_MATHEMATICSE5orderEv>:
  405720:	b8 01 00 00 00       	mov    $0x1,%eax
  405725:	c3                   	retq   
  405726:	66 2e 0f 1f 84 00 00 	nopw   %cs:0x0(%rax,%rax,1)
  40572d:	00 00 00 

0000000000405730 <_ZThn8_NK23ReferenceScalarAccessorIf15CPU_MATHEMATICSE5orderEv>:
  405730:	48 83 ef 08          	sub    $0x8,%rdi
  405734:	eb ea                	jmp    405720 <_ZNK23ReferenceScalarAccessorIf15CPU_MATHEMATICSE5orderEv>
  405736:	66 2e 0f 1f 84 00 00 	nopw   %cs:0x0(%rax,%rax,1)
  40573d:	00 00 00 

0000000000405740 <_ZNK23ReferenceScalarAccessorIf15CPU_MATHEMATICSE4sizeEv>:
  405740:	b8 01 00 00 00       	mov    $0x1,%eax
  405745:	c3                   	retq   
  405746:	66 2e 0f 1f 84 00 00 	nopw   %cs:0x0(%rax,%rax,1)
  40574d:	00 00 00 

0000000000405750 <_ZThn8_NK23ReferenceScalarAccessorIf15CPU_MATHEMATICSE4sizeEv>:
  405750:	48 83 ef 08          	sub    $0x8,%rdi
  405754:	eb ea                	jmp    405740 <_ZNK23ReferenceScalarAccessorIf15CPU_MATHEMATICSE4sizeEv>
  405756:	66 2e 0f 1f 84 00 00 	nopw   %cs:0x0(%rax,%rax,1)
  40575d:	00 00 00 

0000000000405760 <_ZNK23ReferenceScalarAccessorIf15CPU_MATHEMATICSEixEi>:
  405760:	48 8b 47 10          	mov    0x10(%rdi),%rax
  405764:	c3                   	retq   
  405765:	90                   	nop
  405766:	66 2e 0f 1f 84 00 00 	nopw   %cs:0x0(%rax,%rax,1)
  40576d:	00 00 00 

0000000000405770 <_ZThn8_NK23ReferenceScalarAccessorIf15CPU_MATHEMATICSEixEi>:
  405770:	48 83 ef 08          	sub    $0x8,%rdi
  405774:	eb ea                	jmp    405760 <_ZNK23ReferenceScalarAccessorIf15CPU_MATHEMATICSEixEi>
  405776:	66 2e 0f 1f 84 00 00 	nopw   %cs:0x0(%rax,%rax,1)
  40577d:	00 00 00 

0000000000405780 <_ZN10continuousId15CPU_MATHEMATICSE8getShapeEv>:
  405780:	48 8b 47 10          	mov    0x10(%rdi),%rax
  405784:	c3                   	retq   
  405785:	66 2e 0f 1f 84 00 00 	nopw   %cs:0x0(%rax,%rax,1)
  40578c:	00 00 00 
  40578f:	90                   	nop

0000000000405790 <_ZNK10continuousId15CPU_MATHEMATICSE5orderEv>:
  405790:	8b 47 18             	mov    0x18(%rdi),%eax
  405793:	c3                   	retq   
  405794:	66 2e 0f 1f 84 00 00 	nopw   %cs:0x0(%rax,%rax,1)
  40579b:	00 00 00 
  40579e:	66 90                	xchg   %ax,%ax

00000000004057a0 <_ZNK19StackScalarAccessorIf15CPU_MATHEMATICSEixEi>:
  4057a0:	f3 0f 10 47 10       	movss  0x10(%rdi),%xmm0
  4057a5:	c3                   	retq   
  4057a6:	66 2e 0f 1f 84 00 00 	nopw   %cs:0x0(%rax,%rax,1)
  4057ad:	00 00 00 

00000000004057b0 <_ZThn8_NK19StackScalarAccessorIf15CPU_MATHEMATICSEixEi>:
  4057b0:	48 83 ef 08          	sub    $0x8,%rdi
  4057b4:	eb ea                	jmp    4057a0 <_ZNK19StackScalarAccessorIf15CPU_MATHEMATICSEixEi>
  4057b6:	66 2e 0f 1f 84 00 00 	nopw   %cs:0x0(%rax,%rax,1)
  4057bd:	00 00 00 

00000000004057c0 <_ZN12Tensor_QueenId15CPU_MATHEMATICS6bufferIdS0_S1_IdS0_10continuousIdS0_ES3_N9Operation3addIdEEES3_S6_EED1Ev>:
  4057c0:	f3 c3                	repz retq 
  4057c2:	66 2e 0f 1f 84 00 00 	nopw   %cs:0x0(%rax,%rax,1)
  4057c9:	00 00 00 
  4057cc:	0f 1f 40 00          	nopl   0x0(%rax)

00000000004057d0 <_ZN12Tensor_QueenId15CPU_MATHEMATICS6bufferIdS0_10continuousIdS0_ES3_N9Operation3addIdEEEED1Ev>:
  4057d0:	f3 c3                	repz retq 
  4057d2:	66 2e 0f 1f 84 00 00 	nopw   %cs:0x0(%rax,%rax,1)
  4057d9:	00 00 00 
  4057dc:	0f 1f 40 00          	nopl   0x0(%rax)

00000000004057e0 <_ZN12Tensor_QueenIf15CPU_MATHEMATICS6bufferIfS0_19StackScalarAccessorIfS0_E10continuousIfS0_EN9Operation3subIfEEEED1Ev>:
  4057e0:	f3 c3                	repz retq 
  4057e2:	66 2e 0f 1f 84 00 00 	nopw   %cs:0x0(%rax,%rax,1)
  4057e9:	00 00 00 
  4057ec:	0f 1f 40 00          	nopl   0x0(%rax)

00000000004057f0 <_ZNK11Tensor_KingId15CPU_MATHEMATICS6bufferIdS0_S1_IdS0_10continuousIdS0_ES3_N9Operation3addIdEEES3_S6_EE5orderEv>:
  4057f0:	8b 47 70             	mov    0x70(%rdi),%eax
  4057f3:	39 47 50             	cmp    %eax,0x50(%rdi)
  4057f6:	0f 4d 47 50          	cmovge 0x50(%rdi),%eax
  4057fa:	8b 57 30             	mov    0x30(%rdi),%edx
  4057fd:	39 d0                	cmp    %edx,%eax
  4057ff:	0f 4c c2             	cmovl  %edx,%eax
  405802:	c3                   	retq   
  405803:	66 2e 0f 1f 84 00 00 	nopw   %cs:0x0(%rax,%rax,1)
  40580a:	00 00 00 
  40580d:	0f 1f 00             	nopl   (%rax)

0000000000405810 <_ZNK6bufferId15CPU_MATHEMATICSS_IdS0_10continuousIdS0_ES2_N9Operation3addIdEEES2_S5_E4sizeEv>:
  405810:	48 63 4f 48          	movslq 0x48(%rdi),%rcx
  405814:	48 63 77 68          	movslq 0x68(%rdi),%rsi
  405818:	48 8b 57 40          	mov    0x40(%rdi),%rdx
  40581c:	48 8b 47 60          	mov    0x60(%rdi),%rax
  405820:	8b 04 b0             	mov    (%rax,%rsi,4),%eax
  405823:	39 04 8a             	cmp    %eax,(%rdx,%rcx,4)
  405826:	0f 4d 04 8a          	cmovge (%rdx,%rcx,4),%eax
  40582a:	48 63 4f 28          	movslq 0x28(%rdi),%rcx
  40582e:	48 8b 57 20          	mov    0x20(%rdi),%rdx
  405832:	8b 14 8a             	mov    (%rdx,%rcx,4),%edx
  405835:	39 d0                	cmp    %edx,%eax
  405837:	0f 4c c2             	cmovl  %edx,%eax
  40583a:	c3                   	retq   
  40583b:	0f 1f 44 00 00       	nopl   0x0(%rax,%rax,1)

0000000000405840 <_ZNK6bufferId15CPU_MATHEMATICSS_IdS0_10continuousIdS0_ES2_N9Operation3addIdEEES2_S5_E9dimensionEi>:
  405840:	3b 77 68             	cmp    0x68(%rdi),%esi
  405843:	b9 01 00 00 00       	mov    $0x1,%ecx
  405848:	7d 0a                	jge    405854 <_ZNK6bufferId15CPU_MATHEMATICSS_IdS0_10continuousIdS0_ES2_N9Operation3addIdEEES2_S5_E9dimensionEi+0x14>
  40584a:	48 8b 57 60          	mov    0x60(%rdi),%rdx
  40584e:	48 63 c6             	movslq %esi,%rax
  405851:	8b 0c 82             	mov    (%rdx,%rax,4),%ecx
  405854:	3b 77 48             	cmp    0x48(%rdi),%esi
  405857:	7d 37                	jge    405890 <_ZNK6bufferId15CPU_MATHEMATICSS_IdS0_10continuousIdS0_ES2_N9Operation3addIdEEES2_S5_E9dimensionEi+0x50>
  405859:	3b 77 28             	cmp    0x28(%rdi),%esi
  40585c:	48 8b 57 40          	mov    0x40(%rdi),%rdx
  405860:	48 63 c6             	movslq %esi,%rax
  405863:	4c 8d 04 85 00 00 00 	lea    0x0(,%rax,4),%r8
  40586a:	00 
  40586b:	8b 14 82             	mov    (%rdx,%rax,4),%edx
  40586e:	b8 01 00 00 00       	mov    $0x1,%eax
  405873:	7d 08                	jge    40587d <_ZNK6bufferId15CPU_MATHEMATICSS_IdS0_10continuousIdS0_ES2_N9Operation3addIdEEES2_S5_E9dimensionEi+0x3d>
  405875:	48 8b 47 20          	mov    0x20(%rdi),%rax
  405879:	42 8b 04 00          	mov    (%rax,%r8,1),%eax
  40587d:	39 c2                	cmp    %eax,%edx
  40587f:	0f 4d c2             	cmovge %edx,%eax
  405882:	39 c8                	cmp    %ecx,%eax
  405884:	0f 4c c1             	cmovl  %ecx,%eax
  405887:	c3                   	retq   
  405888:	0f 1f 84 00 00 00 00 	nopl   0x0(%rax,%rax,1)
  40588f:	00 
  405890:	3b 77 28             	cmp    0x28(%rdi),%esi
  405893:	b8 01 00 00 00       	mov    $0x1,%eax
  405898:	7d e8                	jge    405882 <_ZNK6bufferId15CPU_MATHEMATICSS_IdS0_10continuousIdS0_ES2_N9Operation3addIdEEES2_S5_E9dimensionEi+0x42>
  40589a:	48 63 f6             	movslq %esi,%rsi
  40589d:	ba 01 00 00 00       	mov    $0x1,%edx
  4058a2:	4c 8d 04 b5 00 00 00 	lea    0x0(,%rsi,4),%r8
  4058a9:	00 
  4058aa:	eb c9                	jmp    405875 <_ZNK6bufferId15CPU_MATHEMATICSS_IdS0_10continuousIdS0_ES2_N9Operation3addIdEEES2_S5_E9dimensionEi+0x35>
  4058ac:	0f 1f 40 00          	nopl   0x0(%rax)

00000000004058b0 <_ZNK6bufferId15CPU_MATHEMATICSS_IdS0_10continuousIdS0_ES2_N9Operation3addIdEEES2_S5_E17leading_dimensionEi>:
  4058b0:	85 f6                	test   %esi,%esi
  4058b2:	0f 9f c2             	setg   %dl
  4058b5:	3b 77 68             	cmp    0x68(%rdi),%esi
  4058b8:	7d 5e                	jge    405918 <_ZNK6bufferId15CPU_MATHEMATICSS_IdS0_10continuousIdS0_ES2_N9Operation3addIdEEES2_S5_E17leading_dimensionEi+0x68>
  4058ba:	84 d2                	test   %dl,%dl
  4058bc:	74 5a                	je     405918 <_ZNK6bufferId15CPU_MATHEMATICSS_IdS0_10continuousIdS0_ES2_N9Operation3addIdEEES2_S5_E17leading_dimensionEi+0x68>
  4058be:	48 8b 47 60          	mov    0x60(%rdi),%rax
  4058c2:	4c 63 c6             	movslq %esi,%r8
  4058c5:	42 8b 4c 80 fc       	mov    -0x4(%rax,%r8,4),%ecx
  4058ca:	3b 77 48             	cmp    0x48(%rdi),%esi
  4058cd:	7d 31                	jge    405900 <_ZNK6bufferId15CPU_MATHEMATICSS_IdS0_10continuousIdS0_ES2_N9Operation3addIdEEES2_S5_E17leading_dimensionEi+0x50>
  4058cf:	84 d2                	test   %dl,%dl
  4058d1:	74 2d                	je     405900 <_ZNK6bufferId15CPU_MATHEMATICSS_IdS0_10continuousIdS0_ES2_N9Operation3addIdEEES2_S5_E17leading_dimensionEi+0x50>
  4058d3:	3b 77 28             	cmp    0x28(%rdi),%esi
  4058d6:	48 8b 47 40          	mov    0x40(%rdi),%rax
  4058da:	4c 63 c6             	movslq %esi,%r8
  4058dd:	42 8b 44 80 fc       	mov    -0x4(%rax,%r8,4),%eax
  4058e2:	7d 2c                	jge    405910 <_ZNK6bufferId15CPU_MATHEMATICSS_IdS0_10continuousIdS0_ES2_N9Operation3addIdEEES2_S5_E17leading_dimensionEi+0x60>
  4058e4:	48 8b 57 20          	mov    0x20(%rdi),%rdx
  4058e8:	42 8b 54 82 fc       	mov    -0x4(%rdx,%r8,4),%edx
  4058ed:	39 c2                	cmp    %eax,%edx
  4058ef:	0f 4d c2             	cmovge %edx,%eax
  4058f2:	39 c8                	cmp    %ecx,%eax
  4058f4:	0f 4c c1             	cmovl  %ecx,%eax
  4058f7:	c3                   	retq   
  4058f8:	0f 1f 84 00 00 00 00 	nopl   0x0(%rax,%rax,1)
  4058ff:	00 
  405900:	31 c0                	xor    %eax,%eax
  405902:	3b 77 28             	cmp    0x28(%rdi),%esi
  405905:	7d eb                	jge    4058f2 <_ZNK6bufferId15CPU_MATHEMATICSS_IdS0_10continuousIdS0_ES2_N9Operation3addIdEEES2_S5_E17leading_dimensionEi+0x42>
  405907:	85 f6                	test   %esi,%esi
  405909:	7e 05                	jle    405910 <_ZNK6bufferId15CPU_MATHEMATICSS_IdS0_10continuousIdS0_ES2_N9Operation3addIdEEES2_S5_E17leading_dimensionEi+0x60>
  40590b:	4c 63 c6             	movslq %esi,%r8
  40590e:	eb d4                	jmp    4058e4 <_ZNK6bufferId15CPU_MATHEMATICSS_IdS0_10continuousIdS0_ES2_N9Operation3addIdEEES2_S5_E17leading_dimensionEi+0x34>
  405910:	31 d2                	xor    %edx,%edx
  405912:	eb d9                	jmp    4058ed <_ZNK6bufferId15CPU_MATHEMATICSS_IdS0_10continuousIdS0_ES2_N9Operation3addIdEEES2_S5_E17leading_dimensionEi+0x3d>
  405914:	0f 1f 40 00          	nopl   0x0(%rax)
  405918:	31 c9                	xor    %ecx,%ecx
  40591a:	eb ae                	jmp    4058ca <_ZNK6bufferId15CPU_MATHEMATICSS_IdS0_10continuousIdS0_ES2_N9Operation3addIdEEES2_S5_E17leading_dimensionEi+0x1a>
  40591c:	0f 1f 40 00          	nopl   0x0(%rax)

0000000000405920 <_ZNK6bufferId15CPU_MATHEMATICSS_IdS0_10continuousIdS0_ES2_N9Operation3addIdEEES2_S5_E5orderEv>:
  405920:	8b 47 68             	mov    0x68(%rdi),%eax
  405923:	39 47 48             	cmp    %eax,0x48(%rdi)
  405926:	0f 4d 47 48          	cmovge 0x48(%rdi),%eax
  40592a:	8b 57 28             	mov    0x28(%rdi),%edx
  40592d:	39 d0                	cmp    %edx,%eax
  40592f:	0f 4c c2             	cmovl  %edx,%eax
  405932:	c3                   	retq   
  405933:	66 2e 0f 1f 84 00 00 	nopw   %cs:0x0(%rax,%rax,1)
  40593a:	00 00 00 
  40593d:	0f 1f 00             	nopl   (%rax)

0000000000405940 <_ZNK11Tensor_KingId15CPU_MATHEMATICS6bufferIdS0_10continuousIdS0_ES3_N9Operation3addIdEEEE5orderEv>:
  405940:	8b 47 48             	mov    0x48(%rdi),%eax
  405943:	39 47 28             	cmp    %eax,0x28(%rdi)
  405946:	0f 4d 47 28          	cmovge 0x28(%rdi),%eax
  40594a:	c3                   	retq   
  40594b:	0f 1f 44 00 00       	nopl   0x0(%rax,%rax,1)

0000000000405950 <_ZNK6bufferId15CPU_MATHEMATICS10continuousIdS0_ES2_N9Operation3addIdEEE4sizeEv>:
  405950:	48 63 4f 20          	movslq 0x20(%rdi),%rcx
  405954:	48 63 77 40          	movslq 0x40(%rdi),%rsi
  405958:	48 8b 57 18          	mov    0x18(%rdi),%rdx
  40595c:	48 8b 47 38          	mov    0x38(%rdi),%rax
  405960:	8b 04 b0             	mov    (%rax,%rsi,4),%eax
  405963:	39 04 8a             	cmp    %eax,(%rdx,%rcx,4)
  405966:	0f 4d 04 8a          	cmovge (%rdx,%rcx,4),%eax
  40596a:	c3                   	retq   
  40596b:	0f 1f 44 00 00       	nopl   0x0(%rax,%rax,1)

0000000000405970 <_ZNK6bufferId15CPU_MATHEMATICS10continuousIdS0_ES2_N9Operation3addIdEEE9dimensionEi>:
  405970:	3b 77 40             	cmp    0x40(%rdi),%esi
  405973:	7d 2b                	jge    4059a0 <_ZNK6bufferId15CPU_MATHEMATICS10continuousIdS0_ES2_N9Operation3addIdEEE9dimensionEi+0x30>
  405975:	3b 77 20             	cmp    0x20(%rdi),%esi
  405978:	48 8b 57 38          	mov    0x38(%rdi),%rdx
  40597c:	48 63 c6             	movslq %esi,%rax
  40597f:	48 8d 0c 85 00 00 00 	lea    0x0(,%rax,4),%rcx
  405986:	00 
  405987:	8b 14 82             	mov    (%rdx,%rax,4),%edx
  40598a:	b8 01 00 00 00       	mov    $0x1,%eax
  40598f:	7d 07                	jge    405998 <_ZNK6bufferId15CPU_MATHEMATICS10continuousIdS0_ES2_N9Operation3addIdEEE9dimensionEi+0x28>
  405991:	48 8b 47 18          	mov    0x18(%rdi),%rax
  405995:	8b 04 08             	mov    (%rax,%rcx,1),%eax
  405998:	39 d0                	cmp    %edx,%eax
  40599a:	0f 4c c2             	cmovl  %edx,%eax
  40599d:	c3                   	retq   
  40599e:	66 90                	xchg   %ax,%ax
