
test:     file format elf64-x86-64


Disassembly of section .init:

0000000000401c60 <_init>:
  401c60:	48 83 ec 08          	sub    $0x8,%rsp
  401c64:	48 8b 05 8d 23 21 00 	mov    0x21238d(%rip),%rax        # 613ff8 <_DYNAMIC+0x220>
  401c6b:	48 85 c0             	test   %rax,%rax
  401c6e:	74 05                	je     401c75 <_init+0x15>
  401c70:	e8 bb 03 00 00       	callq  402030 <_ZNSt8ios_base4InitD1Ev@plt+0x10>
  401c75:	48 83 c4 08          	add    $0x8,%rsp
  401c79:	c3                   	retq   

Disassembly of section .plt:

0000000000401c80 <_Znam@plt-0x10>:
  401c80:	ff 35 82 23 21 00    	pushq  0x212382(%rip)        # 614008 <_GLOBAL_OFFSET_TABLE_+0x8>
  401c86:	ff 25 84 23 21 00    	jmpq   *0x212384(%rip)        # 614010 <_GLOBAL_OFFSET_TABLE_+0x10>
  401c8c:	0f 1f 40 00          	nopl   0x0(%rax)

0000000000401c90 <_Znam@plt>:
  401c90:	ff 25 82 23 21 00    	jmpq   *0x212382(%rip)        # 614018 <_GLOBAL_OFFSET_TABLE_+0x18>
  401c96:	68 00 00 00 00       	pushq  $0x0
  401c9b:	e9 e0 ff ff ff       	jmpq   401c80 <_init+0x20>

0000000000401ca0 <printf@plt>:
  401ca0:	ff 25 7a 23 21 00    	jmpq   *0x21237a(%rip)        # 614020 <_GLOBAL_OFFSET_TABLE_+0x20>
  401ca6:	68 01 00 00 00       	pushq  $0x1
  401cab:	e9 d0 ff ff ff       	jmpq   401c80 <_init+0x20>

0000000000401cb0 <_ZNSaIcED2Ev@plt>:
  401cb0:	ff 25 72 23 21 00    	jmpq   *0x212372(%rip)        # 614028 <_GLOBAL_OFFSET_TABLE_+0x28>
  401cb6:	68 02 00 00 00       	pushq  $0x2
  401cbb:	e9 c0 ff ff ff       	jmpq   401c80 <_init+0x20>

0000000000401cc0 <rand@plt>:
  401cc0:	ff 25 6a 23 21 00    	jmpq   *0x21236a(%rip)        # 614030 <_GLOBAL_OFFSET_TABLE_+0x30>
  401cc6:	68 03 00 00 00       	pushq  $0x3
  401ccb:	e9 b0 ff ff ff       	jmpq   401c80 <_init+0x20>

0000000000401cd0 <_ZNSt7__cxx1112basic_stringIcSt11char_traitsIcESaIcEE13_S_copy_charsEPcS5_S5_@plt>:
  401cd0:	ff 25 62 23 21 00    	jmpq   *0x212362(%rip)        # 614038 <_GLOBAL_OFFSET_TABLE_+0x38>
  401cd6:	68 04 00 00 00       	pushq  $0x4
  401cdb:	e9 a0 ff ff ff       	jmpq   401c80 <_init+0x20>

0000000000401ce0 <__cxa_begin_catch@plt>:
  401ce0:	ff 25 5a 23 21 00    	jmpq   *0x21235a(%rip)        # 614040 <_GLOBAL_OFFSET_TABLE_+0x40>
  401ce6:	68 05 00 00 00       	pushq  $0x5
  401ceb:	e9 90 ff ff ff       	jmpq   401c80 <_init+0x20>

0000000000401cf0 <_ZNSt7__cxx1112basic_stringIcSt11char_traitsIcESaIcEEC1ERKS4_@plt>:
  401cf0:	ff 25 52 23 21 00    	jmpq   *0x212352(%rip)        # 614048 <_GLOBAL_OFFSET_TABLE_+0x48>
  401cf6:	68 06 00 00 00       	pushq  $0x6
  401cfb:	e9 80 ff ff ff       	jmpq   401c80 <_init+0x20>

0000000000401d00 <_ZSt4endlIcSt11char_traitsIcEERSt13basic_ostreamIT_T0_ES6_@plt>:
  401d00:	ff 25 4a 23 21 00    	jmpq   *0x21234a(%rip)        # 614050 <_GLOBAL_OFFSET_TABLE_+0x50>
  401d06:	68 07 00 00 00       	pushq  $0x7
  401d0b:	e9 70 ff ff ff       	jmpq   401c80 <_init+0x20>

0000000000401d10 <__cxa_allocate_exception@plt>:
  401d10:	ff 25 42 23 21 00    	jmpq   *0x212342(%rip)        # 614058 <_GLOBAL_OFFSET_TABLE_+0x58>
  401d16:	68 08 00 00 00       	pushq  $0x8
  401d1b:	e9 60 ff ff ff       	jmpq   401c80 <_init+0x20>

0000000000401d20 <_ZNSt7__cxx1112basic_stringIcSt11char_traitsIcESaIcEED1Ev@plt>:
  401d20:	ff 25 3a 23 21 00    	jmpq   *0x21233a(%rip)        # 614060 <_GLOBAL_OFFSET_TABLE_+0x60>
  401d26:	68 09 00 00 00       	pushq  $0x9
  401d2b:	e9 50 ff ff ff       	jmpq   401c80 <_init+0x20>

0000000000401d30 <vsnprintf@plt>:
  401d30:	ff 25 32 23 21 00    	jmpq   *0x212332(%rip)        # 614068 <_GLOBAL_OFFSET_TABLE_+0x68>
  401d36:	68 0a 00 00 00       	pushq  $0xa
  401d3b:	e9 40 ff ff ff       	jmpq   401c80 <_init+0x20>

0000000000401d40 <_ZNSt7__cxx1112basic_stringIcSt11char_traitsIcESaIcEE13_M_set_lengthEm@plt>:
  401d40:	ff 25 2a 23 21 00    	jmpq   *0x21232a(%rip)        # 614070 <_GLOBAL_OFFSET_TABLE_+0x70>
  401d46:	68 0b 00 00 00       	pushq  $0xb
  401d4b:	e9 30 ff ff ff       	jmpq   401c80 <_init+0x20>

0000000000401d50 <_ZSt19__throw_logic_errorPKc@plt>:
  401d50:	ff 25 22 23 21 00    	jmpq   *0x212322(%rip)        # 614078 <_GLOBAL_OFFSET_TABLE_+0x78>
  401d56:	68 0c 00 00 00       	pushq  $0xc
  401d5b:	e9 20 ff ff ff       	jmpq   401c80 <_init+0x20>

0000000000401d60 <__cxa_free_exception@plt>:
  401d60:	ff 25 1a 23 21 00    	jmpq   *0x21231a(%rip)        # 614080 <_GLOBAL_OFFSET_TABLE_+0x80>
  401d66:	68 0d 00 00 00       	pushq  $0xd
  401d6b:	e9 10 ff ff ff       	jmpq   401c80 <_init+0x20>

0000000000401d70 <_ZNSt7__cxx1112basic_stringIcSt11char_traitsIcESaIcEE13_M_local_dataEv@plt>:
  401d70:	ff 25 12 23 21 00    	jmpq   *0x212312(%rip)        # 614088 <_GLOBAL_OFFSET_TABLE_+0x88>
  401d76:	68 0e 00 00 00       	pushq  $0xe
  401d7b:	e9 00 ff ff ff       	jmpq   401c80 <_init+0x20>

0000000000401d80 <_ZNSt7__cxx1112basic_stringIcSt11char_traitsIcESaIcEE7_M_dataEPc@plt>:
  401d80:	ff 25 0a 23 21 00    	jmpq   *0x21230a(%rip)        # 614090 <_GLOBAL_OFFSET_TABLE_+0x90>
  401d86:	68 0f 00 00 00       	pushq  $0xf
  401d8b:	e9 f0 fe ff ff       	jmpq   401c80 <_init+0x20>

0000000000401d90 <__cxa_atexit@plt>:
  401d90:	ff 25 02 23 21 00    	jmpq   *0x212302(%rip)        # 614098 <_GLOBAL_OFFSET_TABLE_+0x98>
  401d96:	68 10 00 00 00       	pushq  $0x10
  401d9b:	e9 e0 fe ff ff       	jmpq   401c80 <_init+0x20>

0000000000401da0 <_ZStlsIcSt11char_traitsIcESaIcEERSt13basic_ostreamIT_T0_ES7_RKNSt7__cxx1112basic_stringIS4_S5_T1_EE@plt>:
  401da0:	ff 25 fa 22 21 00    	jmpq   *0x2122fa(%rip)        # 6140a0 <_GLOBAL_OFFSET_TABLE_+0xa0>
  401da6:	68 11 00 00 00       	pushq  $0x11
  401dab:	e9 d0 fe ff ff       	jmpq   401c80 <_init+0x20>

0000000000401db0 <_ZNSt7__cxx1112basic_stringIcSt11char_traitsIcESaIcEEpLEPKc@plt>:
  401db0:	ff 25 f2 22 21 00    	jmpq   *0x2122f2(%rip)        # 6140a8 <_GLOBAL_OFFSET_TABLE_+0xa8>
  401db6:	68 12 00 00 00       	pushq  $0x12
  401dbb:	e9 c0 fe ff ff       	jmpq   401c80 <_init+0x20>

0000000000401dc0 <_ZStlsISt11char_traitsIcEERSt13basic_ostreamIcT_ES5_PKc@plt>:
  401dc0:	ff 25 ea 22 21 00    	jmpq   *0x2122ea(%rip)        # 6140b0 <_GLOBAL_OFFSET_TABLE_+0xb0>
  401dc6:	68 13 00 00 00       	pushq  $0x13
  401dcb:	e9 b0 fe ff ff       	jmpq   401c80 <_init+0x20>

0000000000401dd0 <_ZdlPvm@plt>:
  401dd0:	ff 25 e2 22 21 00    	jmpq   *0x2122e2(%rip)        # 6140b8 <_GLOBAL_OFFSET_TABLE_+0xb8>
  401dd6:	68 14 00 00 00       	pushq  $0x14
  401ddb:	e9 a0 fe ff ff       	jmpq   401c80 <_init+0x20>

0000000000401de0 <_ZNKSt7__cxx1112basic_stringIcSt11char_traitsIcESaIcEE6substrEmm@plt>:
  401de0:	ff 25 da 22 21 00    	jmpq   *0x2122da(%rip)        # 6140c0 <_GLOBAL_OFFSET_TABLE_+0xc0>
  401de6:	68 15 00 00 00       	pushq  $0x15
  401deb:	e9 90 fe ff ff       	jmpq   401c80 <_init+0x20>

0000000000401df0 <_ZNSolsEPFRSoS_E@plt>:
  401df0:	ff 25 d2 22 21 00    	jmpq   *0x2122d2(%rip)        # 6140c8 <_GLOBAL_OFFSET_TABLE_+0xc8>
  401df6:	68 16 00 00 00       	pushq  $0x16
  401dfb:	e9 80 fe ff ff       	jmpq   401c80 <_init+0x20>

0000000000401e00 <_ZNSt7__cxx1112basic_stringIcSt11char_traitsIcESaIcEE12_Alloc_hiderC1EPcRKS3_@plt>:
  401e00:	ff 25 ca 22 21 00    	jmpq   *0x2122ca(%rip)        # 6140d0 <_GLOBAL_OFFSET_TABLE_+0xd0>
  401e06:	68 17 00 00 00       	pushq  $0x17
  401e0b:	e9 70 fe ff ff       	jmpq   401c80 <_init+0x20>

0000000000401e10 <_ZNSaIcED1Ev@plt>:
  401e10:	ff 25 c2 22 21 00    	jmpq   *0x2122c2(%rip)        # 6140d8 <_GLOBAL_OFFSET_TABLE_+0xd8>
  401e16:	68 18 00 00 00       	pushq  $0x18
  401e1b:	e9 60 fe ff ff       	jmpq   401c80 <_init+0x20>

0000000000401e20 <_ZNKSt7__cxx1112basic_stringIcSt11char_traitsIcESaIcEE7_M_dataEv@plt>:
  401e20:	ff 25 ba 22 21 00    	jmpq   *0x2122ba(%rip)        # 6140e0 <_GLOBAL_OFFSET_TABLE_+0xe0>
  401e26:	68 19 00 00 00       	pushq  $0x19
  401e2b:	e9 50 fe ff ff       	jmpq   401c80 <_init+0x20>

0000000000401e30 <__stack_chk_fail@plt>:
  401e30:	ff 25 b2 22 21 00    	jmpq   *0x2122b2(%rip)        # 6140e8 <_GLOBAL_OFFSET_TABLE_+0xe8>
  401e36:	68 1a 00 00 00       	pushq  $0x1a
  401e3b:	e9 40 fe ff ff       	jmpq   401c80 <_init+0x20>

0000000000401e40 <_ZNSt7__cxx1112basic_stringIcSt11char_traitsIcESaIcEEC1EPKcmRKS3_@plt>:
  401e40:	ff 25 aa 22 21 00    	jmpq   *0x2122aa(%rip)        # 6140f0 <_GLOBAL_OFFSET_TABLE_+0xf0>
  401e46:	68 1b 00 00 00       	pushq  $0x1b
  401e4b:	e9 30 fe ff ff       	jmpq   401c80 <_init+0x20>

0000000000401e50 <_ZNSt7__cxx1112basic_stringIcSt11char_traitsIcESaIcEEaSEOS4_@plt>:
  401e50:	ff 25 a2 22 21 00    	jmpq   *0x2122a2(%rip)        # 6140f8 <_GLOBAL_OFFSET_TABLE_+0xf8>
  401e56:	68 1c 00 00 00       	pushq  $0x1c
  401e5b:	e9 20 fe ff ff       	jmpq   401c80 <_init+0x20>

0000000000401e60 <_ZNSt7__cxx1112basic_stringIcSt11char_traitsIcESaIcEE10_M_disposeEv@plt>:
  401e60:	ff 25 9a 22 21 00    	jmpq   *0x21229a(%rip)        # 614100 <_GLOBAL_OFFSET_TABLE_+0x100>
  401e66:	68 1d 00 00 00       	pushq  $0x1d
  401e6b:	e9 10 fe ff ff       	jmpq   401c80 <_init+0x20>

0000000000401e70 <_ZNSt7__cxx1112basic_stringIcSt11char_traitsIcESaIcEEpLERKS4_@plt>:
  401e70:	ff 25 92 22 21 00    	jmpq   *0x212292(%rip)        # 614108 <_GLOBAL_OFFSET_TABLE_+0x108>
  401e76:	68 1e 00 00 00       	pushq  $0x1e
  401e7b:	e9 00 fe ff ff       	jmpq   401c80 <_init+0x20>

0000000000401e80 <_ZdaPv@plt>:
  401e80:	ff 25 8a 22 21 00    	jmpq   *0x21228a(%rip)        # 614110 <_GLOBAL_OFFSET_TABLE_+0x110>
  401e86:	68 1f 00 00 00       	pushq  $0x1f
  401e8b:	e9 f0 fd ff ff       	jmpq   401c80 <_init+0x20>

0000000000401e90 <cblas_sgemm@plt>:
  401e90:	ff 25 82 22 21 00    	jmpq   *0x212282(%rip)        # 614118 <_GLOBAL_OFFSET_TABLE_+0x118>
  401e96:	68 20 00 00 00       	pushq  $0x20
  401e9b:	e9 e0 fd ff ff       	jmpq   401c80 <_init+0x20>

0000000000401ea0 <_ZNSt7__cxx1112basic_stringIcSt11char_traitsIcESaIcEEC1EPKcRKS3_@plt>:
  401ea0:	ff 25 7a 22 21 00    	jmpq   *0x21227a(%rip)        # 614120 <_GLOBAL_OFFSET_TABLE_+0x120>
  401ea6:	68 21 00 00 00       	pushq  $0x21
  401eab:	e9 d0 fd ff ff       	jmpq   401c80 <_init+0x20>

0000000000401eb0 <cblas_dgemm@plt>:
  401eb0:	ff 25 72 22 21 00    	jmpq   *0x212272(%rip)        # 614128 <_GLOBAL_OFFSET_TABLE_+0x128>
  401eb6:	68 22 00 00 00       	pushq  $0x22
  401ebb:	e9 c0 fd ff ff       	jmpq   401c80 <_init+0x20>

0000000000401ec0 <__cxa_throw_bad_array_new_length@plt>:
  401ec0:	ff 25 6a 22 21 00    	jmpq   *0x21226a(%rip)        # 614130 <_GLOBAL_OFFSET_TABLE_+0x130>
  401ec6:	68 23 00 00 00       	pushq  $0x23
  401ecb:	e9 b0 fd ff ff       	jmpq   401c80 <_init+0x20>

0000000000401ed0 <__cxa_rethrow@plt>:
  401ed0:	ff 25 62 22 21 00    	jmpq   *0x212262(%rip)        # 614138 <_GLOBAL_OFFSET_TABLE_+0x138>
  401ed6:	68 24 00 00 00       	pushq  $0x24
  401edb:	e9 a0 fd ff ff       	jmpq   401c80 <_init+0x20>

0000000000401ee0 <_ZNKSt7__cxx1112basic_stringIcSt11char_traitsIcESaIcEE6lengthEv@plt>:
  401ee0:	ff 25 5a 22 21 00    	jmpq   *0x21225a(%rip)        # 614140 <_GLOBAL_OFFSET_TABLE_+0x140>
  401ee6:	68 25 00 00 00       	pushq  $0x25
  401eeb:	e9 90 fd ff ff       	jmpq   401c80 <_init+0x20>

0000000000401ef0 <GOMP_parallel@plt>:
  401ef0:	ff 25 52 22 21 00    	jmpq   *0x212252(%rip)        # 614148 <_GLOBAL_OFFSET_TABLE_+0x148>
  401ef6:	68 26 00 00 00       	pushq  $0x26
  401efb:	e9 80 fd ff ff       	jmpq   401c80 <_init+0x20>

0000000000401f00 <_ZNSt8ios_base4InitC1Ev@plt>:
  401f00:	ff 25 4a 22 21 00    	jmpq   *0x21224a(%rip)        # 614150 <_GLOBAL_OFFSET_TABLE_+0x150>
  401f06:	68 27 00 00 00       	pushq  $0x27
  401f0b:	e9 70 fd ff ff       	jmpq   401c80 <_init+0x20>

0000000000401f10 <puts@plt>:
  401f10:	ff 25 42 22 21 00    	jmpq   *0x212242(%rip)        # 614158 <_GLOBAL_OFFSET_TABLE_+0x158>
  401f16:	68 28 00 00 00       	pushq  $0x28
  401f1b:	e9 60 fd ff ff       	jmpq   401c80 <_init+0x20>

0000000000401f20 <omp_get_thread_num@plt>:
  401f20:	ff 25 3a 22 21 00    	jmpq   *0x21223a(%rip)        # 614160 <_GLOBAL_OFFSET_TABLE_+0x160>
  401f26:	68 29 00 00 00       	pushq  $0x29
  401f2b:	e9 50 fd ff ff       	jmpq   401c80 <_init+0x20>

0000000000401f30 <__cxa_end_catch@plt>:
  401f30:	ff 25 32 22 21 00    	jmpq   *0x212232(%rip)        # 614168 <_GLOBAL_OFFSET_TABLE_+0x168>
  401f36:	68 2a 00 00 00       	pushq  $0x2a
  401f3b:	e9 40 fd ff ff       	jmpq   401c80 <_init+0x20>

0000000000401f40 <__gxx_personality_v0@plt>:
  401f40:	ff 25 2a 22 21 00    	jmpq   *0x21222a(%rip)        # 614170 <_GLOBAL_OFFSET_TABLE_+0x170>
  401f46:	68 2b 00 00 00       	pushq  $0x2b
  401f4b:	e9 30 fd ff ff       	jmpq   401c80 <_init+0x20>

0000000000401f50 <_ZNSt16invalid_argumentD1Ev@plt>:
  401f50:	ff 25 22 22 21 00    	jmpq   *0x212222(%rip)        # 614178 <_GLOBAL_OFFSET_TABLE_+0x178>
  401f56:	68 2c 00 00 00       	pushq  $0x2c
  401f5b:	e9 20 fd ff ff       	jmpq   401c80 <_init+0x20>

0000000000401f60 <floor@plt>:
  401f60:	ff 25 1a 22 21 00    	jmpq   *0x21221a(%rip)        # 614180 <_GLOBAL_OFFSET_TABLE_+0x180>
  401f66:	68 2d 00 00 00       	pushq  $0x2d
  401f6b:	e9 10 fd ff ff       	jmpq   401c80 <_init+0x20>

0000000000401f70 <__cxa_throw@plt>:
  401f70:	ff 25 12 22 21 00    	jmpq   *0x212212(%rip)        # 614188 <_GLOBAL_OFFSET_TABLE_+0x188>
  401f76:	68 2e 00 00 00       	pushq  $0x2e
  401f7b:	e9 00 fd ff ff       	jmpq   401c80 <_init+0x20>

0000000000401f80 <_ZNSolsEi@plt>:
  401f80:	ff 25 0a 22 21 00    	jmpq   *0x21220a(%rip)        # 614190 <_GLOBAL_OFFSET_TABLE_+0x190>
  401f86:	68 2f 00 00 00       	pushq  $0x2f
  401f8b:	e9 f0 fc ff ff       	jmpq   401c80 <_init+0x20>

0000000000401f90 <_Unwind_Resume@plt>:
  401f90:	ff 25 02 22 21 00    	jmpq   *0x212202(%rip)        # 614198 <_GLOBAL_OFFSET_TABLE_+0x198>
  401f96:	68 30 00 00 00       	pushq  $0x30
  401f9b:	e9 e0 fc ff ff       	jmpq   401c80 <_init+0x20>

0000000000401fa0 <_ZNSaIcEC1Ev@plt>:
  401fa0:	ff 25 fa 21 21 00    	jmpq   *0x2121fa(%rip)        # 6141a0 <_GLOBAL_OFFSET_TABLE_+0x1a0>
  401fa6:	68 31 00 00 00       	pushq  $0x31
  401fab:	e9 d0 fc ff ff       	jmpq   401c80 <_init+0x20>

0000000000401fb0 <_ZNSt7__cxx1112basic_stringIcSt11char_traitsIcESaIcEE9_M_createERmm@plt>:
  401fb0:	ff 25 f2 21 21 00    	jmpq   *0x2121f2(%rip)        # 6141a8 <_GLOBAL_OFFSET_TABLE_+0x1a8>
  401fb6:	68 32 00 00 00       	pushq  $0x32
  401fbb:	e9 c0 fc ff ff       	jmpq   401c80 <_init+0x20>

0000000000401fc0 <GOMP_barrier@plt>:
  401fc0:	ff 25 ea 21 21 00    	jmpq   *0x2121ea(%rip)        # 6141b0 <_GLOBAL_OFFSET_TABLE_+0x1b0>
  401fc6:	68 33 00 00 00       	pushq  $0x33
  401fcb:	e9 b0 fc ff ff       	jmpq   401c80 <_init+0x20>

0000000000401fd0 <__libc_start_main@plt>:
  401fd0:	ff 25 e2 21 21 00    	jmpq   *0x2121e2(%rip)        # 6141b8 <_GLOBAL_OFFSET_TABLE_+0x1b8>
  401fd6:	68 34 00 00 00       	pushq  $0x34
  401fdb:	e9 a0 fc ff ff       	jmpq   401c80 <_init+0x20>

0000000000401fe0 <omp_get_num_threads@plt>:
  401fe0:	ff 25 da 21 21 00    	jmpq   *0x2121da(%rip)        # 6141c0 <_GLOBAL_OFFSET_TABLE_+0x1c0>
  401fe6:	68 35 00 00 00       	pushq  $0x35
  401feb:	e9 90 fc ff ff       	jmpq   401c80 <_init+0x20>

0000000000401ff0 <_ZNSt16invalid_argumentC1EPKc@plt>:
  401ff0:	ff 25 d2 21 21 00    	jmpq   *0x2121d2(%rip)        # 6141c8 <_GLOBAL_OFFSET_TABLE_+0x1c8>
  401ff6:	68 36 00 00 00       	pushq  $0x36
  401ffb:	e9 80 fc ff ff       	jmpq   401c80 <_init+0x20>

0000000000402000 <__cxa_pure_virtual@plt>:
  402000:	ff 25 ca 21 21 00    	jmpq   *0x2121ca(%rip)        # 6141d0 <_GLOBAL_OFFSET_TABLE_+0x1d0>
  402006:	68 37 00 00 00       	pushq  $0x37
  40200b:	e9 70 fc ff ff       	jmpq   401c80 <_init+0x20>

0000000000402010 <_ZNSt7__cxx1112basic_stringIcSt11char_traitsIcESaIcEE11_M_capacityEm@plt>:
  402010:	ff 25 c2 21 21 00    	jmpq   *0x2121c2(%rip)        # 6141d8 <_GLOBAL_OFFSET_TABLE_+0x1d8>
  402016:	68 38 00 00 00       	pushq  $0x38
  40201b:	e9 60 fc ff ff       	jmpq   401c80 <_init+0x20>

0000000000402020 <_ZNSt8ios_base4InitD1Ev@plt>:
  402020:	ff 25 ba 21 21 00    	jmpq   *0x2121ba(%rip)        # 6141e0 <_GLOBAL_OFFSET_TABLE_+0x1e0>
  402026:	68 39 00 00 00       	pushq  $0x39
  40202b:	e9 50 fc ff ff       	jmpq   401c80 <_init+0x20>

Disassembly of section .plt.got:

0000000000402030 <.plt.got>:
  402030:	ff 25 c2 1f 21 00    	jmpq   *0x211fc2(%rip)        # 613ff8 <_DYNAMIC+0x220>
  402036:	66 90                	xchg   %ax,%ax

Disassembly of section .text:

0000000000402040 <_start>:
  402040:	31 ed                	xor    %ebp,%ebp
  402042:	49 89 d1             	mov    %rdx,%r9
  402045:	5e                   	pop    %rsi
  402046:	48 89 e2             	mov    %rsp,%rdx
  402049:	48 83 e4 f0          	and    $0xfffffffffffffff0,%rsp
  40204d:	50                   	push   %rax
  40204e:	54                   	push   %rsp
  40204f:	49 c7 c0 60 c6 40 00 	mov    $0x40c660,%r8
  402056:	48 c7 c1 f0 c5 40 00 	mov    $0x40c5f0,%rcx
  40205d:	48 c7 c7 bd 2c 40 00 	mov    $0x402cbd,%rdi
  402064:	e8 67 ff ff ff       	callq  401fd0 <__libc_start_main@plt>
  402069:	f4                   	hlt    
  40206a:	66 0f 1f 44 00 00    	nopw   0x0(%rax,%rax,1)

0000000000402070 <deregister_tm_clones>:
  402070:	b8 ff 41 61 00       	mov    $0x6141ff,%eax
  402075:	55                   	push   %rbp
  402076:	48 2d f8 41 61 00    	sub    $0x6141f8,%rax
  40207c:	48 83 f8 0e          	cmp    $0xe,%rax
  402080:	48 89 e5             	mov    %rsp,%rbp
  402083:	76 1b                	jbe    4020a0 <deregister_tm_clones+0x30>
  402085:	b8 00 00 00 00       	mov    $0x0,%eax
  40208a:	48 85 c0             	test   %rax,%rax
  40208d:	74 11                	je     4020a0 <deregister_tm_clones+0x30>
  40208f:	5d                   	pop    %rbp
  402090:	bf f8 41 61 00       	mov    $0x6141f8,%edi
  402095:	ff e0                	jmpq   *%rax
  402097:	66 0f 1f 84 00 00 00 	nopw   0x0(%rax,%rax,1)
  40209e:	00 00 
  4020a0:	5d                   	pop    %rbp
  4020a1:	c3                   	retq   
  4020a2:	0f 1f 40 00          	nopl   0x0(%rax)
  4020a6:	66 2e 0f 1f 84 00 00 	nopw   %cs:0x0(%rax,%rax,1)
  4020ad:	00 00 00 

00000000004020b0 <register_tm_clones>:
  4020b0:	be f8 41 61 00       	mov    $0x6141f8,%esi
  4020b5:	55                   	push   %rbp
  4020b6:	48 81 ee f8 41 61 00 	sub    $0x6141f8,%rsi
  4020bd:	48 c1 fe 03          	sar    $0x3,%rsi
  4020c1:	48 89 e5             	mov    %rsp,%rbp
  4020c4:	48 89 f0             	mov    %rsi,%rax
  4020c7:	48 c1 e8 3f          	shr    $0x3f,%rax
  4020cb:	48 01 c6             	add    %rax,%rsi
  4020ce:	48 d1 fe             	sar    %rsi
  4020d1:	74 15                	je     4020e8 <register_tm_clones+0x38>
  4020d3:	b8 00 00 00 00       	mov    $0x0,%eax
  4020d8:	48 85 c0             	test   %rax,%rax
  4020db:	74 0b                	je     4020e8 <register_tm_clones+0x38>
  4020dd:	5d                   	pop    %rbp
  4020de:	bf f8 41 61 00       	mov    $0x6141f8,%edi
  4020e3:	ff e0                	jmpq   *%rax
  4020e5:	0f 1f 00             	nopl   (%rax)
  4020e8:	5d                   	pop    %rbp
  4020e9:	c3                   	retq   
  4020ea:	66 0f 1f 44 00 00    	nopw   0x0(%rax,%rax,1)

00000000004020f0 <__do_global_dtors_aux>:
  4020f0:	80 3d 41 23 21 00 00 	cmpb   $0x0,0x212341(%rip)        # 614438 <completed.7585>
  4020f7:	75 11                	jne    40210a <__do_global_dtors_aux+0x1a>
  4020f9:	55                   	push   %rbp
  4020fa:	48 89 e5             	mov    %rsp,%rbp
  4020fd:	e8 6e ff ff ff       	callq  402070 <deregister_tm_clones>
  402102:	5d                   	pop    %rbp
  402103:	c6 05 2e 23 21 00 01 	movb   $0x1,0x21232e(%rip)        # 614438 <completed.7585>
  40210a:	f3 c3                	repz retq 
  40210c:	0f 1f 40 00          	nopl   0x0(%rax)

0000000000402110 <frame_dummy>:
  402110:	bf d0 3d 61 00       	mov    $0x613dd0,%edi
  402115:	48 83 3f 00          	cmpq   $0x0,(%rdi)
  402119:	75 05                	jne    402120 <frame_dummy+0x10>
  40211b:	eb 93                	jmp    4020b0 <register_tm_clones>
  40211d:	0f 1f 00             	nopl   (%rax)
  402120:	b8 00 00 00 00       	mov    $0x0,%eax
  402125:	48 85 c0             	test   %rax,%rax
  402128:	74 f1                	je     40211b <frame_dummy+0xb>
  40212a:	55                   	push   %rbp
  40212b:	48 89 e5             	mov    %rsp,%rbp
  40212e:	ff d0                	callq  *%rax
  402130:	5d                   	pop    %rbp
  402131:	e9 7a ff ff ff       	jmpq   4020b0 <register_tm_clones>

0000000000402136 <_Z3maxii>:
  402136:	55                   	push   %rbp
  402137:	48 89 e5             	mov    %rsp,%rbp
  40213a:	89 7d fc             	mov    %edi,-0x4(%rbp)
  40213d:	89 75 f8             	mov    %esi,-0x8(%rbp)
  402140:	8b 45 fc             	mov    -0x4(%rbp),%eax
  402143:	3b 45 f8             	cmp    -0x8(%rbp),%eax
  402146:	7e 05                	jle    40214d <_Z3maxii+0x17>
  402148:	8b 45 fc             	mov    -0x4(%rbp),%eax
  40214b:	eb 03                	jmp    402150 <_Z3maxii+0x1a>
  40214d:	8b 45 f8             	mov    -0x8(%rbp),%eax
  402150:	5d                   	pop    %rbp
  402151:	c3                   	retq   

0000000000402152 <_ZNK10Tensor_Ace9same_sizeERKS_>:
  402152:	55                   	push   %rbp
  402153:	48 89 e5             	mov    %rsp,%rbp
  402156:	53                   	push   %rbx
  402157:	48 83 ec 18          	sub    $0x18,%rsp
  40215b:	48 89 7d e8          	mov    %rdi,-0x18(%rbp)
  40215f:	48 89 75 e0          	mov    %rsi,-0x20(%rbp)
  402163:	48 8b 45 e8          	mov    -0x18(%rbp),%rax
  402167:	48 8b 00             	mov    (%rax),%rax
  40216a:	48 8b 00             	mov    (%rax),%rax
  40216d:	48 8b 55 e8          	mov    -0x18(%rbp),%rdx
  402171:	48 89 d7             	mov    %rdx,%rdi
  402174:	ff d0                	callq  *%rax
  402176:	89 c3                	mov    %eax,%ebx
  402178:	48 8b 45 e0          	mov    -0x20(%rbp),%rax
  40217c:	48 8b 00             	mov    (%rax),%rax
  40217f:	48 8b 00             	mov    (%rax),%rax
  402182:	48 8b 55 e0          	mov    -0x20(%rbp),%rdx
  402186:	48 89 d7             	mov    %rdx,%rdi
  402189:	ff d0                	callq  *%rax
  40218b:	39 c3                	cmp    %eax,%ebx
  40218d:	0f 94 c0             	sete   %al
  402190:	48 83 c4 18          	add    $0x18,%rsp
  402194:	5b                   	pop    %rbx
  402195:	5d                   	pop    %rbp
  402196:	c3                   	retq   
  402197:	90                   	nop

0000000000402198 <_ZNK10Tensor_Ace15same_dimensionsERKS_>:
  402198:	55                   	push   %rbp
  402199:	48 89 e5             	mov    %rsp,%rbp
  40219c:	53                   	push   %rbx
  40219d:	48 83 ec 28          	sub    $0x28,%rsp
  4021a1:	48 89 7d d8          	mov    %rdi,-0x28(%rbp)
  4021a5:	48 89 75 d0          	mov    %rsi,-0x30(%rbp)
  4021a9:	c7 45 ec 00 00 00 00 	movl   $0x0,-0x14(%rbp)
  4021b0:	48 8b 45 d8          	mov    -0x28(%rbp),%rax
  4021b4:	48 8b 00             	mov    (%rax),%rax
  4021b7:	48 83 c0 18          	add    $0x18,%rax
  4021bb:	48 8b 00             	mov    (%rax),%rax
  4021be:	48 8b 55 d8          	mov    -0x28(%rbp),%rdx
  4021c2:	48 89 d7             	mov    %rdx,%rdi
  4021c5:	ff d0                	callq  *%rax
  4021c7:	89 c3                	mov    %eax,%ebx
  4021c9:	48 8b 45 d0          	mov    -0x30(%rbp),%rax
  4021cd:	48 8b 00             	mov    (%rax),%rax
  4021d0:	48 83 c0 18          	add    $0x18,%rax
  4021d4:	48 8b 00             	mov    (%rax),%rax
  4021d7:	48 8b 55 d0          	mov    -0x30(%rbp),%rdx
  4021db:	48 89 d7             	mov    %rdx,%rdi
  4021de:	ff d0                	callq  *%rax
  4021e0:	89 de                	mov    %ebx,%esi
  4021e2:	89 c7                	mov    %eax,%edi
  4021e4:	e8 4d ff ff ff       	callq  402136 <_Z3maxii>
  4021e9:	3b 45 ec             	cmp    -0x14(%rbp),%eax
  4021ec:	0f 9f c0             	setg   %al
  4021ef:	84 c0                	test   %al,%al
  4021f1:	74 53                	je     402246 <_ZNK10Tensor_Ace15same_dimensionsERKS_+0xae>
  4021f3:	48 8b 45 d8          	mov    -0x28(%rbp),%rax
  4021f7:	48 8b 00             	mov    (%rax),%rax
  4021fa:	48 83 c0 08          	add    $0x8,%rax
  4021fe:	48 8b 00             	mov    (%rax),%rax
  402201:	8b 4d ec             	mov    -0x14(%rbp),%ecx
  402204:	48 8b 55 d8          	mov    -0x28(%rbp),%rdx
  402208:	89 ce                	mov    %ecx,%esi
  40220a:	48 89 d7             	mov    %rdx,%rdi
  40220d:	ff d0                	callq  *%rax
  40220f:	89 c3                	mov    %eax,%ebx
  402211:	48 8b 45 d0          	mov    -0x30(%rbp),%rax
  402215:	48 8b 00             	mov    (%rax),%rax
  402218:	48 83 c0 08          	add    $0x8,%rax
  40221c:	48 8b 00             	mov    (%rax),%rax
  40221f:	8b 4d ec             	mov    -0x14(%rbp),%ecx
  402222:	48 8b 55 d0          	mov    -0x30(%rbp),%rdx
  402226:	89 ce                	mov    %ecx,%esi
  402228:	48 89 d7             	mov    %rdx,%rdi
  40222b:	ff d0                	callq  *%rax
  40222d:	39 c3                	cmp    %eax,%ebx
  40222f:	0f 95 c0             	setne  %al
  402232:	84 c0                	test   %al,%al
  402234:	74 07                	je     40223d <_ZNK10Tensor_Ace15same_dimensionsERKS_+0xa5>
  402236:	b8 00 00 00 00       	mov    $0x0,%eax
  40223b:	eb 0e                	jmp    40224b <_ZNK10Tensor_Ace15same_dimensionsERKS_+0xb3>
  40223d:	83 45 ec 01          	addl   $0x1,-0x14(%rbp)
  402241:	e9 6a ff ff ff       	jmpq   4021b0 <_ZNK10Tensor_Ace15same_dimensionsERKS_+0x18>
  402246:	b8 01 00 00 00       	mov    $0x1,%eax
  40224b:	48 83 c4 28          	add    $0x28,%rsp
  40224f:	5b                   	pop    %rbx
  402250:	5d                   	pop    %rbp
  402251:	c3                   	retq   

0000000000402252 <_ZNK10Tensor_Ace16assert_same_sizeERKS_>:
  402252:	55                   	push   %rbp
  402253:	48 89 e5             	mov    %rsp,%rbp
  402256:	41 54                	push   %r12
  402258:	53                   	push   %rbx
  402259:	48 83 ec 10          	sub    $0x10,%rsp
  40225d:	48 89 7d e8          	mov    %rdi,-0x18(%rbp)
  402261:	48 89 75 e0          	mov    %rsi,-0x20(%rbp)
  402265:	48 8b 55 e0          	mov    -0x20(%rbp),%rdx
  402269:	48 8b 45 e8          	mov    -0x18(%rbp),%rax
  40226d:	48 89 d6             	mov    %rdx,%rsi
  402270:	48 89 c7             	mov    %rax,%rdi
  402273:	e8 da fe ff ff       	callq  402152 <_ZNK10Tensor_Ace9same_sizeERKS_>
  402278:	83 f0 01             	xor    $0x1,%eax
  40227b:	84 c0                	test   %al,%al
  40227d:	74 42                	je     4022c1 <_ZNK10Tensor_Ace16assert_same_sizeERKS_+0x6f>
  40227f:	bf 10 00 00 00       	mov    $0x10,%edi
  402284:	e8 87 fa ff ff       	callq  401d10 <__cxa_allocate_exception@plt>
  402289:	48 89 c3             	mov    %rax,%rbx
  40228c:	be 8f c6 40 00       	mov    $0x40c68f,%esi
  402291:	48 89 df             	mov    %rbx,%rdi
  402294:	e8 57 fd ff ff       	callq  401ff0 <_ZNSt16invalid_argumentC1EPKc@plt>
  402299:	ba 50 1f 40 00       	mov    $0x401f50,%edx
  40229e:	be 20 44 61 00       	mov    $0x614420,%esi
  4022a3:	48 89 df             	mov    %rbx,%rdi
  4022a6:	e8 c5 fc ff ff       	callq  401f70 <__cxa_throw@plt>
  4022ab:	49 89 c4             	mov    %rax,%r12
  4022ae:	48 89 df             	mov    %rbx,%rdi
  4022b1:	e8 aa fa ff ff       	callq  401d60 <__cxa_free_exception@plt>
  4022b6:	4c 89 e0             	mov    %r12,%rax
  4022b9:	48 89 c7             	mov    %rax,%rdi
  4022bc:	e8 cf fc ff ff       	callq  401f90 <_Unwind_Resume@plt>
  4022c1:	90                   	nop
  4022c2:	48 83 c4 10          	add    $0x10,%rsp
  4022c6:	5b                   	pop    %rbx
  4022c7:	41 5c                	pop    %r12
  4022c9:	5d                   	pop    %rbp
  4022ca:	c3                   	retq   
  4022cb:	90                   	nop

00000000004022cc <_ZNK10Tensor_Ace22assert_same_dimensionsERKS_>:
  4022cc:	55                   	push   %rbp
  4022cd:	48 89 e5             	mov    %rsp,%rbp
  4022d0:	41 54                	push   %r12
  4022d2:	53                   	push   %rbx
  4022d3:	48 83 ec 10          	sub    $0x10,%rsp
  4022d7:	48 89 7d e8          	mov    %rdi,-0x18(%rbp)
  4022db:	48 89 75 e0          	mov    %rsi,-0x20(%rbp)
  4022df:	48 8b 55 e0          	mov    -0x20(%rbp),%rdx
  4022e3:	48 8b 45 e8          	mov    -0x18(%rbp),%rax
  4022e7:	48 89 d6             	mov    %rdx,%rsi
  4022ea:	48 89 c7             	mov    %rax,%rdi
  4022ed:	e8 a6 fe ff ff       	callq  402198 <_ZNK10Tensor_Ace15same_dimensionsERKS_>
  4022f2:	83 f0 01             	xor    $0x1,%eax
  4022f5:	84 c0                	test   %al,%al
  4022f7:	74 42                	je     40233b <_ZNK10Tensor_Ace22assert_same_dimensionsERKS_+0x6f>
  4022f9:	bf 10 00 00 00       	mov    $0x10,%edi
  4022fe:	e8 0d fa ff ff       	callq  401d10 <__cxa_allocate_exception@plt>
  402303:	48 89 c3             	mov    %rax,%rbx
  402306:	be 9d c6 40 00       	mov    $0x40c69d,%esi
  40230b:	48 89 df             	mov    %rbx,%rdi
  40230e:	e8 dd fc ff ff       	callq  401ff0 <_ZNSt16invalid_argumentC1EPKc@plt>
  402313:	ba 50 1f 40 00       	mov    $0x401f50,%edx
  402318:	be 20 44 61 00       	mov    $0x614420,%esi
  40231d:	48 89 df             	mov    %rbx,%rdi
  402320:	e8 4b fc ff ff       	callq  401f70 <__cxa_throw@plt>
  402325:	49 89 c4             	mov    %rax,%r12
  402328:	48 89 df             	mov    %rbx,%rdi
  40232b:	e8 30 fa ff ff       	callq  401d60 <__cxa_free_exception@plt>
  402330:	4c 89 e0             	mov    %r12,%rax
  402333:	48 89 c7             	mov    %rax,%rdi
  402336:	e8 55 fc ff ff       	callq  401f90 <_Unwind_Resume@plt>
  40233b:	90                   	nop
  40233c:	48 83 c4 10          	add    $0x10,%rsp
  402340:	5b                   	pop    %rbx
  402341:	41 5c                	pop    %r12
  402343:	5d                   	pop    %rbp
  402344:	c3                   	retq   

0000000000402345 <_Z7tq_testv>:
  402345:	55                   	push   %rbp
  402346:	48 89 e5             	mov    %rsp,%rbp
  402349:	41 57                	push   %r15
  40234b:	41 56                	push   %r14
  40234d:	41 55                	push   %r13
  40234f:	41 54                	push   %r12
  402351:	53                   	push   %rbx
  402352:	48 81 ec 78 02 00 00 	sub    $0x278,%rsp
  402359:	64 48 8b 04 25 28 00 	mov    %fs:0x28,%rax
  402360:	00 00 
  402362:	48 89 45 c8          	mov    %rax,-0x38(%rbp)
  402366:	31 c0                	xor    %eax,%eax
  402368:	be b0 c6 40 00       	mov    $0x40c6b0,%esi
  40236d:	bf 60 42 61 00       	mov    $0x614260,%edi
  402372:	e8 49 fa ff ff       	callq  401dc0 <_ZStlsISt11char_traitsIcEERSt13basic_ostreamIcT_ES5_PKc@plt>
  402377:	be 00 1d 40 00       	mov    $0x401d00,%esi
  40237c:	48 89 c7             	mov    %rax,%rdi
  40237f:	e8 6c fa ff ff       	callq  401df0 <_ZNSolsEPFRSoS_E@plt>
  402384:	48 c7 85 60 fd ff ff 	movq   $0x40ca90,-0x2a0(%rbp)
  40238b:	90 ca 40 00 
  40238f:	48 c7 85 68 fd ff ff 	movq   $0x2,-0x298(%rbp)
  402396:	02 00 00 00 
  40239a:	48 8b 85 60 fd ff ff 	mov    -0x2a0(%rbp),%rax
  4023a1:	48 8b 95 68 fd ff ff 	mov    -0x298(%rbp),%rdx
  4023a8:	48 89 c1             	mov    %rax,%rcx
  4023ab:	48 89 d3             	mov    %rdx,%rbx
  4023ae:	48 8d 85 b0 fd ff ff 	lea    -0x250(%rbp),%rax
  4023b5:	48 89 ce             	mov    %rcx,%rsi
  4023b8:	48 89 c7             	mov    %rax,%rdi
  4023bb:	e8 dc 11 00 00       	callq  40359c <_ZN12Tensor_QueenIf15CPU_MATHEMATICS10continuousIfS0_EEC1ESt16initializer_listIiE>
  4023c0:	48 c7 85 70 fd ff ff 	movq   $0x40ca98,-0x290(%rbp)
  4023c7:	98 ca 40 00 
  4023cb:	48 c7 85 78 fd ff ff 	movq   $0x2,-0x288(%rbp)
  4023d2:	02 00 00 00 
  4023d6:	48 8b 85 70 fd ff ff 	mov    -0x290(%rbp),%rax
  4023dd:	48 8b 95 78 fd ff ff 	mov    -0x288(%rbp),%rdx
  4023e4:	48 89 c1             	mov    %rax,%rcx
  4023e7:	48 89 d3             	mov    %rdx,%rbx
  4023ea:	48 8d 85 e0 fd ff ff 	lea    -0x220(%rbp),%rax
  4023f1:	48 89 ce             	mov    %rcx,%rsi
  4023f4:	48 89 c7             	mov    %rax,%rdi
  4023f7:	e8 a0 11 00 00       	callq  40359c <_ZN12Tensor_QueenIf15CPU_MATHEMATICS10continuousIfS0_EEC1ESt16initializer_listIiE>
  4023fc:	41 be a0 ca 40 00    	mov    $0x40caa0,%r14d
  402402:	41 bf 02 00 00 00    	mov    $0x2,%r15d
  402408:	4c 89 f1             	mov    %r14,%rcx
  40240b:	4c 89 fb             	mov    %r15,%rbx
  40240e:	4c 89 f0             	mov    %r14,%rax
  402411:	4c 89 fa             	mov    %r15,%rdx
  402414:	48 8d 85 10 fe ff ff 	lea    -0x1f0(%rbp),%rax
  40241b:	48 89 ce             	mov    %rcx,%rsi
  40241e:	48 89 c7             	mov    %rax,%rdi
  402421:	e8 76 11 00 00       	callq  40359c <_ZN12Tensor_QueenIf15CPU_MATHEMATICS10continuousIfS0_EEC1ESt16initializer_listIiE>
  402426:	41 bc a8 ca 40 00    	mov    $0x40caa8,%r12d
  40242c:	41 bd 02 00 00 00    	mov    $0x2,%r13d
  402432:	4c 89 e1             	mov    %r12,%rcx
  402435:	4c 89 eb             	mov    %r13,%rbx
  402438:	4c 89 e0             	mov    %r12,%rax
  40243b:	4c 89 ea             	mov    %r13,%rdx
  40243e:	48 8d 85 40 fe ff ff 	lea    -0x1c0(%rbp),%rax
  402445:	48 89 ce             	mov    %rcx,%rsi
  402448:	48 89 c7             	mov    %rax,%rdi
  40244b:	e8 4c 11 00 00       	callq  40359c <_ZN12Tensor_QueenIf15CPU_MATHEMATICS10continuousIfS0_EEC1ESt16initializer_listIiE>
  402450:	48 8d 85 e0 fd ff ff 	lea    -0x220(%rbp),%rax
  402457:	f3 0f 10 0d 91 a7 00 	movss  0xa791(%rip),%xmm1        # 40cbf0 <._93+0x148>
  40245e:	00 
  40245f:	f3 0f 10 05 8d a7 00 	movss  0xa78d(%rip),%xmm0        # 40cbf4 <._93+0x14c>
  402466:	00 
  402467:	48 89 c7             	mov    %rax,%rdi
  40246a:	e8 03 13 00 00       	callq  403772 <_ZN12Tensor_QueenIf15CPU_MATHEMATICS10continuousIfS0_EE9randomizeEff>
  40246f:	48 8d 85 10 fe ff ff 	lea    -0x1f0(%rbp),%rax
  402476:	f3 0f 10 0d 72 a7 00 	movss  0xa772(%rip),%xmm1        # 40cbf0 <._93+0x148>
  40247d:	00 
  40247e:	f3 0f 10 05 6e a7 00 	movss  0xa76e(%rip),%xmm0        # 40cbf4 <._93+0x14c>
  402485:	00 
  402486:	48 89 c7             	mov    %rax,%rdi
  402489:	e8 e4 12 00 00       	callq  403772 <_ZN12Tensor_QueenIf15CPU_MATHEMATICS10continuousIfS0_EE9randomizeEff>
  40248e:	48 8d 85 e0 fd ff ff 	lea    -0x220(%rbp),%rax
  402495:	48 89 c7             	mov    %rax,%rdi
  402498:	e8 69 13 00 00       	callq  403806 <_ZNK12Tensor_QueenIf15CPU_MATHEMATICS10continuousIfS0_EE5printEv>
  40249d:	48 8d 85 10 fe ff ff 	lea    -0x1f0(%rbp),%rax
  4024a4:	48 89 c7             	mov    %rax,%rdi
  4024a7:	e8 5a 13 00 00       	callq  403806 <_ZNK12Tensor_QueenIf15CPU_MATHEMATICS10continuousIfS0_EE5printEv>
  4024ac:	48 8d 85 d0 fe ff ff 	lea    -0x130(%rbp),%rax
  4024b3:	48 8d 95 10 fe ff ff 	lea    -0x1f0(%rbp),%rdx
  4024ba:	48 8d 8d 10 fe ff ff 	lea    -0x1f0(%rbp),%rcx
  4024c1:	48 89 ce             	mov    %rcx,%rsi
  4024c4:	48 89 c7             	mov    %rax,%rdi
  4024c7:	e8 84 15 00 00       	callq  403a50 <_ZN12Tensor_QueenIf15CPU_MATHEMATICS10continuousIfS0_EErmIfS2_EES_IfS0_7pBufferIfS0_S2_T0_N9Operation3mulIfEEEERKS_IT_S0_S6_E>
  4024cc:	48 8d 85 30 ff ff ff 	lea    -0xd0(%rbp),%rax
  4024d3:	48 8d 95 d0 fe ff ff 	lea    -0x130(%rbp),%rdx
  4024da:	48 8d 8d e0 fd ff ff 	lea    -0x220(%rbp),%rcx
  4024e1:	48 89 ce             	mov    %rcx,%rsi
  4024e4:	48 89 c7             	mov    %rax,%rdi
  4024e7:	e8 ba 16 00 00       	callq  403ba6 <_ZN12Tensor_QueenIf15CPU_MATHEMATICS10continuousIfS0_EEplIf7pBufferIfS0_S2_S2_N9Operation3mulIfEEEEES_IfS0_S5_IfS0_S2_T0_NS6_3addIfEEEERKS_IT_S0_SA_E>
  4024ec:	48 8d 95 30 ff ff ff 	lea    -0xd0(%rbp),%rdx
  4024f3:	48 8d 85 40 fe ff ff 	lea    -0x1c0(%rbp),%rax
  4024fa:	48 89 d6             	mov    %rdx,%rsi
  4024fd:	48 89 c7             	mov    %rax,%rdi
  402500:	e8 93 17 00 00       	callq  403c98 <_ZN12Tensor_QueenIf15CPU_MATHEMATICS10continuousIfS0_EEaSIf7pBufferIfS0_S2_S5_IfS0_S2_S2_N9Operation3mulIfEEENS6_3addIfEEEEERS3_RKS_IT_S0_T0_E>
  402505:	48 8d 85 30 ff ff ff 	lea    -0xd0(%rbp),%rax
  40250c:	48 89 c7             	mov    %rax,%rdi
  40250f:	e8 5e 89 00 00       	callq  40ae72 <_ZN12Tensor_QueenIf15CPU_MATHEMATICS7pBufferIfS0_10continuousIfS0_ES1_IfS0_S3_S3_N9Operation3mulIfEEENS4_3addIfEEEED1Ev>
  402514:	48 8d 85 d0 fe ff ff 	lea    -0x130(%rbp),%rax
  40251b:	48 89 c7             	mov    %rax,%rdi
  40251e:	e8 bb 89 00 00       	callq  40aede <_ZN12Tensor_QueenIf15CPU_MATHEMATICS7pBufferIfS0_10continuousIfS0_ES3_N9Operation3mulIfEEEED1Ev>
  402523:	48 8d 85 40 fe ff ff 	lea    -0x1c0(%rbp),%rax
  40252a:	48 89 c7             	mov    %rax,%rdi
  40252d:	e8 d4 12 00 00       	callq  403806 <_ZNK12Tensor_QueenIf15CPU_MATHEMATICS10continuousIfS0_EE5printEv>
  402532:	48 8d 85 80 fd ff ff 	lea    -0x280(%rbp),%rax
  402539:	f3 0f 10 05 b7 a6 00 	movss  0xa6b7(%rip),%xmm0        # 40cbf8 <._93+0x150>
  402540:	00 
  402541:	48 89 c7             	mov    %rax,%rdi
  402544:	e8 1d 18 00 00       	callq  403d66 <_ZN6ScalarIf15CPU_MATHEMATICSEC1Ef>
  402549:	48 8d 85 70 fe ff ff 	lea    -0x190(%rbp),%rax
  402550:	48 8d 95 40 fe ff ff 	lea    -0x1c0(%rbp),%rdx
  402557:	48 8d 8d 80 fd ff ff 	lea    -0x280(%rbp),%rcx
  40255e:	48 89 ce             	mov    %rcx,%rsi
  402561:	48 89 c7             	mov    %rax,%rdi
  402564:	e8 03 1b 00 00       	callq  40406c <_ZN12Tensor_QueenIf15CPU_MATHEMATICS19StackScalarAccessorIfS0_EEmiIf10continuousIfS0_EEES_IfS0_7pBufferIfS0_S2_T0_N9Operation3subIfEEEERKS_IT_S0_S8_E>
  402569:	48 8d 95 70 fe ff ff 	lea    -0x190(%rbp),%rdx
  402570:	48 8d 85 b0 fd ff ff 	lea    -0x250(%rbp),%rax
  402577:	48 89 d6             	mov    %rdx,%rsi
  40257a:	48 89 c7             	mov    %rax,%rdi
  40257d:	e8 b4 1b 00 00       	callq  404136 <_ZN12Tensor_QueenIf15CPU_MATHEMATICS10continuousIfS0_EEaSIf7pBufferIfS0_19StackScalarAccessorIfS0_ES2_N9Operation3subIfEEEEERS3_RKS_IT_S0_T0_E>
  402582:	48 8d 85 70 fe ff ff 	lea    -0x190(%rbp),%rax
  402589:	48 89 c7             	mov    %rax,%rdi
  40258c:	e8 09 88 00 00       	callq  40ad9a <_ZN12Tensor_QueenIf15CPU_MATHEMATICS7pBufferIfS0_19StackScalarAccessorIfS0_E10continuousIfS0_EN9Operation3subIfEEEED1Ev>
  402591:	48 8d 85 80 fd ff ff 	lea    -0x280(%rbp),%rax
  402598:	48 89 c7             	mov    %rax,%rdi
  40259b:	e8 66 88 00 00       	callq  40ae06 <_ZN6ScalarIf15CPU_MATHEMATICSED1Ev>
  4025a0:	48 8d 85 b0 fd ff ff 	lea    -0x250(%rbp),%rax
  4025a7:	48 89 c7             	mov    %rax,%rdi
  4025aa:	e8 57 12 00 00       	callq  403806 <_ZNK12Tensor_QueenIf15CPU_MATHEMATICS10continuousIfS0_EE5printEv>
  4025af:	be b7 c6 40 00       	mov    $0x40c6b7,%esi
  4025b4:	bf 60 42 61 00       	mov    $0x614260,%edi
  4025b9:	e8 02 f8 ff ff       	callq  401dc0 <_ZStlsISt11char_traitsIcEERSt13basic_ostreamIcT_ES5_PKc@plt>
  4025be:	be 00 1d 40 00       	mov    $0x401d00,%esi
  4025c3:	48 89 c7             	mov    %rax,%rdi
  4025c6:	e8 25 f8 ff ff       	callq  401df0 <_ZNSolsEPFRSoS_E@plt>
  4025cb:	bb 00 00 00 00       	mov    $0x0,%ebx
  4025d0:	48 8d 85 40 fe ff ff 	lea    -0x1c0(%rbp),%rax
  4025d7:	48 89 c7             	mov    %rax,%rdi
  4025da:	e8 b9 1b 00 00       	callq  404198 <_ZN12Tensor_QueenIf15CPU_MATHEMATICS10continuousIfS0_EED1Ev>
  4025df:	48 8d 85 10 fe ff ff 	lea    -0x1f0(%rbp),%rax
  4025e6:	48 89 c7             	mov    %rax,%rdi
  4025e9:	e8 aa 1b 00 00       	callq  404198 <_ZN12Tensor_QueenIf15CPU_MATHEMATICS10continuousIfS0_EED1Ev>
  4025ee:	48 8d 85 e0 fd ff ff 	lea    -0x220(%rbp),%rax
  4025f5:	48 89 c7             	mov    %rax,%rdi
  4025f8:	e8 9b 1b 00 00       	callq  404198 <_ZN12Tensor_QueenIf15CPU_MATHEMATICS10continuousIfS0_EED1Ev>
  4025fd:	48 8d 85 b0 fd ff ff 	lea    -0x250(%rbp),%rax
  402604:	48 89 c7             	mov    %rax,%rdi
  402607:	e8 8c 1b 00 00       	callq  404198 <_ZN12Tensor_QueenIf15CPU_MATHEMATICS10continuousIfS0_EED1Ev>
  40260c:	89 d8                	mov    %ebx,%eax
  40260e:	48 8b 75 c8          	mov    -0x38(%rbp),%rsi
  402612:	64 48 33 34 25 28 00 	xor    %fs:0x28,%rsi
  402619:	00 00 
  40261b:	0f 84 b3 00 00 00    	je     4026d4 <_Z7tq_testv+0x38f>
  402621:	e9 a9 00 00 00       	jmpq   4026cf <_Z7tq_testv+0x38a>
  402626:	48 89 c3             	mov    %rax,%rbx
  402629:	48 8d 85 30 ff ff ff 	lea    -0xd0(%rbp),%rax
  402630:	48 89 c7             	mov    %rax,%rdi
  402633:	e8 3a 88 00 00       	callq  40ae72 <_ZN12Tensor_QueenIf15CPU_MATHEMATICS7pBufferIfS0_10continuousIfS0_ES1_IfS0_S3_S3_N9Operation3mulIfEEENS4_3addIfEEEED1Ev>
  402638:	eb 03                	jmp    40263d <_Z7tq_testv+0x2f8>
  40263a:	48 89 c3             	mov    %rax,%rbx
  40263d:	48 8d 85 d0 fe ff ff 	lea    -0x130(%rbp),%rax
  402644:	48 89 c7             	mov    %rax,%rdi
  402647:	e8 92 88 00 00       	callq  40aede <_ZN12Tensor_QueenIf15CPU_MATHEMATICS7pBufferIfS0_10continuousIfS0_ES3_N9Operation3mulIfEEEED1Ev>
  40264c:	eb 2b                	jmp    402679 <_Z7tq_testv+0x334>
  40264e:	48 89 c3             	mov    %rax,%rbx
  402651:	48 8d 85 70 fe ff ff 	lea    -0x190(%rbp),%rax
  402658:	48 89 c7             	mov    %rax,%rdi
  40265b:	e8 3a 87 00 00       	callq  40ad9a <_ZN12Tensor_QueenIf15CPU_MATHEMATICS7pBufferIfS0_19StackScalarAccessorIfS0_E10continuousIfS0_EN9Operation3subIfEEEED1Ev>
  402660:	eb 03                	jmp    402665 <_Z7tq_testv+0x320>
  402662:	48 89 c3             	mov    %rax,%rbx
  402665:	48 8d 85 80 fd ff ff 	lea    -0x280(%rbp),%rax
  40266c:	48 89 c7             	mov    %rax,%rdi
  40266f:	e8 92 87 00 00       	callq  40ae06 <_ZN6ScalarIf15CPU_MATHEMATICSED1Ev>
  402674:	eb 03                	jmp    402679 <_Z7tq_testv+0x334>
  402676:	48 89 c3             	mov    %rax,%rbx
  402679:	48 8d 85 40 fe ff ff 	lea    -0x1c0(%rbp),%rax
  402680:	48 89 c7             	mov    %rax,%rdi
  402683:	e8 10 1b 00 00       	callq  404198 <_ZN12Tensor_QueenIf15CPU_MATHEMATICS10continuousIfS0_EED1Ev>
  402688:	eb 03                	jmp    40268d <_Z7tq_testv+0x348>
  40268a:	48 89 c3             	mov    %rax,%rbx
  40268d:	48 8d 85 10 fe ff ff 	lea    -0x1f0(%rbp),%rax
  402694:	48 89 c7             	mov    %rax,%rdi
  402697:	e8 fc 1a 00 00       	callq  404198 <_ZN12Tensor_QueenIf15CPU_MATHEMATICS10continuousIfS0_EED1Ev>
  40269c:	eb 03                	jmp    4026a1 <_Z7tq_testv+0x35c>
  40269e:	48 89 c3             	mov    %rax,%rbx
  4026a1:	48 8d 85 e0 fd ff ff 	lea    -0x220(%rbp),%rax
  4026a8:	48 89 c7             	mov    %rax,%rdi
  4026ab:	e8 e8 1a 00 00       	callq  404198 <_ZN12Tensor_QueenIf15CPU_MATHEMATICS10continuousIfS0_EED1Ev>
  4026b0:	eb 03                	jmp    4026b5 <_Z7tq_testv+0x370>
  4026b2:	48 89 c3             	mov    %rax,%rbx
  4026b5:	48 8d 85 b0 fd ff ff 	lea    -0x250(%rbp),%rax
  4026bc:	48 89 c7             	mov    %rax,%rdi
  4026bf:	e8 d4 1a 00 00       	callq  404198 <_ZN12Tensor_QueenIf15CPU_MATHEMATICS10continuousIfS0_EED1Ev>
  4026c4:	48 89 d8             	mov    %rbx,%rax
  4026c7:	48 89 c7             	mov    %rax,%rdi
  4026ca:	e8 c1 f8 ff ff       	callq  401f90 <_Unwind_Resume@plt>
  4026cf:	e8 5c f7 ff ff       	callq  401e30 <__stack_chk_fail@plt>
  4026d4:	48 81 c4 78 02 00 00 	add    $0x278,%rsp
  4026db:	5b                   	pop    %rbx
  4026dc:	41 5c                	pop    %r12
  4026de:	41 5d                	pop    %r13
  4026e0:	41 5e                	pop    %r14
  4026e2:	41 5f                	pop    %r15
  4026e4:	5d                   	pop    %rbp
  4026e5:	c3                   	retq   

00000000004026e6 <_Z12matrix_testsv>:
  4026e6:	55                   	push   %rbp
  4026e7:	48 89 e5             	mov    %rsp,%rbp
  4026ea:	53                   	push   %rbx
  4026eb:	48 81 ec f8 02 00 00 	sub    $0x2f8,%rsp
  4026f2:	64 48 8b 04 25 28 00 	mov    %fs:0x28,%rax
  4026f9:	00 00 
  4026fb:	48 89 45 e8          	mov    %rax,-0x18(%rbp)
  4026ff:	31 c0                	xor    %eax,%eax
  402701:	e8 3f fc ff ff       	callq  402345 <_Z7tq_testv>
  402706:	48 8d 85 d0 fd ff ff 	lea    -0x230(%rbp),%rax
  40270d:	be 05 00 00 00       	mov    $0x5,%esi
  402712:	48 89 c7             	mov    %rax,%rdi
  402715:	e8 ea 1a 00 00       	callq  404204 <_ZN6VectorIf15CPU_MATHEMATICS10continuousIfS0_EEC1Ei>
  40271a:	48 8d 85 d0 fd ff ff 	lea    -0x230(%rbp),%rax
  402721:	f3 0f 10 0d d3 a4 00 	movss  0xa4d3(%rip),%xmm1        # 40cbfc <._93+0x154>
  402728:	00 
  402729:	f3 0f 10 05 cf a4 00 	movss  0xa4cf(%rip),%xmm0        # 40cc00 <._93+0x158>
  402730:	00 
  402731:	48 89 c7             	mov    %rax,%rdi
  402734:	e8 39 10 00 00       	callq  403772 <_ZN12Tensor_QueenIf15CPU_MATHEMATICS10continuousIfS0_EE9randomizeEff>
  402739:	48 8d 85 d0 fd ff ff 	lea    -0x230(%rbp),%rax
  402740:	48 89 c7             	mov    %rax,%rdi
  402743:	e8 be 10 00 00       	callq  403806 <_ZNK12Tensor_QueenIf15CPU_MATHEMATICS10continuousIfS0_EE5printEv>
  402748:	48 8d 85 10 fd ff ff 	lea    -0x2f0(%rbp),%rax
  40274f:	48 8d 8d d0 fd ff ff 	lea    -0x230(%rbp),%rcx
  402756:	ba 00 00 00 00       	mov    $0x0,%edx
  40275b:	48 89 ce             	mov    %rcx,%rsi
  40275e:	48 89 c7             	mov    %rax,%rdi
  402761:	e8 14 1d 00 00       	callq  40447a <_ZN6VectorIf15CPU_MATHEMATICS10continuousIfS0_EEixEi>
  402766:	48 8d 85 10 fd ff ff 	lea    -0x2f0(%rbp),%rax
  40276d:	48 89 c7             	mov    %rax,%rdi
  402770:	e8 45 1d 00 00       	callq  4044ba <_ZNK12Tensor_QueenIf15CPU_MATHEMATICS23ReferenceScalarAccessorIfS0_EE5printEv>
  402775:	48 8d 85 10 fd ff ff 	lea    -0x2f0(%rbp),%rax
  40277c:	48 89 c7             	mov    %rax,%rdi
  40277f:	e8 3e 85 00 00       	callq  40acc2 <_ZN9Id_ScalarIf15CPU_MATHEMATICSED1Ev>
  402784:	48 8d 85 40 fd ff ff 	lea    -0x2c0(%rbp),%rax
  40278b:	48 8d 8d d0 fd ff ff 	lea    -0x230(%rbp),%rcx
  402792:	ba 03 00 00 00       	mov    $0x3,%edx
  402797:	48 89 ce             	mov    %rcx,%rsi
  40279a:	48 89 c7             	mov    %rax,%rdi
  40279d:	e8 d8 1c 00 00       	callq  40447a <_ZN6VectorIf15CPU_MATHEMATICS10continuousIfS0_EEixEi>
  4027a2:	48 8d 85 40 fd ff ff 	lea    -0x2c0(%rbp),%rax
  4027a9:	48 89 c7             	mov    %rax,%rdi
  4027ac:	e8 09 1d 00 00       	callq  4044ba <_ZNK12Tensor_QueenIf15CPU_MATHEMATICS23ReferenceScalarAccessorIfS0_EE5printEv>
  4027b1:	48 8d 85 40 fd ff ff 	lea    -0x2c0(%rbp),%rax
  4027b8:	48 89 c7             	mov    %rax,%rdi
  4027bb:	e8 02 85 00 00       	callq  40acc2 <_ZN9Id_ScalarIf15CPU_MATHEMATICSED1Ev>
  4027c0:	48 8d 85 70 fd ff ff 	lea    -0x290(%rbp),%rax
  4027c7:	48 8d 8d d0 fd ff ff 	lea    -0x230(%rbp),%rcx
  4027ce:	ba 03 00 00 00       	mov    $0x3,%edx
  4027d3:	48 89 ce             	mov    %rcx,%rsi
  4027d6:	48 89 c7             	mov    %rax,%rdi
  4027d9:	e8 9c 1c 00 00       	callq  40447a <_ZN6VectorIf15CPU_MATHEMATICS10continuousIfS0_EEixEi>
  4027de:	48 8d 85 30 ff ff ff 	lea    -0xd0(%rbp),%rax
  4027e5:	48 8d 95 70 fd ff ff 	lea    -0x290(%rbp),%rdx
  4027ec:	48 8d 8d d0 fd ff ff 	lea    -0x230(%rbp),%rcx
  4027f3:	48 89 ce             	mov    %rcx,%rsi
  4027f6:	48 89 c7             	mov    %rax,%rdi
  4027f9:	e8 9e 1e 00 00       	callq  40469c <_ZN12Tensor_QueenIf15CPU_MATHEMATICS10continuousIfS0_EEplIf23ReferenceScalarAccessorIfS0_EEES_IfS0_7pBufferIfS0_S2_T0_N9Operation3addIfEEEERKS_IT_S0_S8_E>
  4027fe:	48 8d 95 30 ff ff ff 	lea    -0xd0(%rbp),%rdx
  402805:	48 8d 85 d0 fd ff ff 	lea    -0x230(%rbp),%rax
  40280c:	48 89 d6             	mov    %rdx,%rsi
  40280f:	48 89 c7             	mov    %rax,%rdi
  402812:	e8 4f 1f 00 00       	callq  404766 <_ZN6VectorIf15CPU_MATHEMATICS10continuousIfS0_EEaSIf7pBufferIfS0_S2_23ReferenceScalarAccessorIfS0_EN9Operation3addIfEEEEERS3_RK12Tensor_QueenIT_S0_T0_E>
  402817:	48 8d 85 30 ff ff ff 	lea    -0xd0(%rbp),%rax
  40281e:	48 89 c7             	mov    %rax,%rdi
  402821:	e8 30 84 00 00       	callq  40ac56 <_ZN12Tensor_QueenIf15CPU_MATHEMATICS7pBufferIfS0_10continuousIfS0_E23ReferenceScalarAccessorIfS0_EN9Operation3addIfEEEED1Ev>
  402826:	48 8d 85 70 fd ff ff 	lea    -0x290(%rbp),%rax
  40282d:	48 89 c7             	mov    %rax,%rdi
  402830:	e8 8d 84 00 00       	callq  40acc2 <_ZN9Id_ScalarIf15CPU_MATHEMATICSED1Ev>
  402835:	48 8d 85 d0 fd ff ff 	lea    -0x230(%rbp),%rax
  40283c:	48 89 c7             	mov    %rax,%rdi
  40283f:	e8 c2 0f 00 00       	callq  403806 <_ZNK12Tensor_QueenIf15CPU_MATHEMATICS10continuousIfS0_EE5printEv>
  402844:	be 00 1d 40 00       	mov    $0x401d00,%esi
  402849:	bf 60 42 61 00       	mov    $0x614260,%edi
  40284e:	e8 9d f5 ff ff       	callq  401df0 <_ZNSolsEPFRSoS_E@plt>
  402853:	48 8d 85 00 fe ff ff 	lea    -0x200(%rbp),%rax
  40285a:	ba 03 00 00 00       	mov    $0x3,%edx
  40285f:	be 02 00 00 00       	mov    $0x2,%esi
  402864:	48 89 c7             	mov    %rax,%rdi
  402867:	e8 48 1f 00 00       	callq  4047b4 <_ZN6MatrixIf15CPU_MATHEMATICS10continuousIfS0_EEC1Eii>
  40286c:	48 8d 85 30 fe ff ff 	lea    -0x1d0(%rbp),%rax
  402873:	ba 02 00 00 00       	mov    $0x2,%edx
  402878:	be 03 00 00 00       	mov    $0x3,%esi
  40287d:	48 89 c7             	mov    %rax,%rdi
  402880:	e8 2f 1f 00 00       	callq  4047b4 <_ZN6MatrixIf15CPU_MATHEMATICS10continuousIfS0_EEC1Eii>
  402885:	48 8d 85 60 fe ff ff 	lea    -0x1a0(%rbp),%rax
  40288c:	ba 02 00 00 00       	mov    $0x2,%edx
  402891:	be 02 00 00 00       	mov    $0x2,%esi
  402896:	48 89 c7             	mov    %rax,%rdi
  402899:	e8 16 1f 00 00       	callq  4047b4 <_ZN6MatrixIf15CPU_MATHEMATICS10continuousIfS0_EEC1Eii>
  40289e:	c7 85 0c fd ff ff 00 	movl   $0x0,-0x2f4(%rbp)
  4028a5:	00 00 00 
  4028a8:	48 8d 85 00 fe ff ff 	lea    -0x200(%rbp),%rax
  4028af:	48 89 c7             	mov    %rax,%rdi
  4028b2:	e8 7b 1f 00 00       	callq  404832 <_ZNK11Tensor_KingIf15CPU_MATHEMATICS10continuousIfS0_EE4sizeEv>
  4028b7:	3b 85 0c fd ff ff    	cmp    -0x2f4(%rbp),%eax
  4028bd:	0f 9f c0             	setg   %al
  4028c0:	84 c0                	test   %al,%al
  4028c2:	0f 84 80 00 00 00    	je     402948 <_Z12matrix_testsv+0x262>
  4028c8:	48 8d 85 00 fe ff ff 	lea    -0x200(%rbp),%rax
  4028cf:	48 89 c7             	mov    %rax,%rdi
  4028d2:	e8 79 1f 00 00       	callq  404850 <_ZN11Tensor_KingIf15CPU_MATHEMATICS10continuousIfS0_EE8accessorEv>
  4028d7:	48 89 c2             	mov    %rax,%rdx
  4028da:	8b 85 0c fd ff ff    	mov    -0x2f4(%rbp),%eax
  4028e0:	89 c6                	mov    %eax,%esi
  4028e2:	48 89 d7             	mov    %rdx,%rdi
  4028e5:	e8 78 1f 00 00       	callq  404862 <_ZN10continuousIf15CPU_MATHEMATICSEixEi>
  4028ea:	48 89 c2             	mov    %rax,%rdx
  4028ed:	8b 85 0c fd ff ff    	mov    -0x2f4(%rbp),%eax
  4028f3:	83 c0 01             	add    $0x1,%eax
  4028f6:	66 0f ef c0          	pxor   %xmm0,%xmm0
  4028fa:	f3 0f 2a c0          	cvtsi2ss %eax,%xmm0
  4028fe:	f3 0f 11 02          	movss  %xmm0,(%rdx)
  402902:	48 8d 85 30 fe ff ff 	lea    -0x1d0(%rbp),%rax
  402909:	48 89 c7             	mov    %rax,%rdi
  40290c:	e8 3f 1f 00 00       	callq  404850 <_ZN11Tensor_KingIf15CPU_MATHEMATICS10continuousIfS0_EE8accessorEv>
  402911:	48 89 c2             	mov    %rax,%rdx
  402914:	8b 85 0c fd ff ff    	mov    -0x2f4(%rbp),%eax
  40291a:	89 c6                	mov    %eax,%esi
  40291c:	48 89 d7             	mov    %rdx,%rdi
  40291f:	e8 3e 1f 00 00       	callq  404862 <_ZN10continuousIf15CPU_MATHEMATICSEixEi>
  402924:	48 89 c2             	mov    %rax,%rdx
  402927:	8b 85 0c fd ff ff    	mov    -0x2f4(%rbp),%eax
  40292d:	83 c0 07             	add    $0x7,%eax
  402930:	66 0f ef c0          	pxor   %xmm0,%xmm0
  402934:	f3 0f 2a c0          	cvtsi2ss %eax,%xmm0
  402938:	f3 0f 11 02          	movss  %xmm0,(%rdx)
  40293c:	83 85 0c fd ff ff 01 	addl   $0x1,-0x2f4(%rbp)
  402943:	e9 60 ff ff ff       	jmpq   4028a8 <_Z12matrix_testsv+0x1c2>
  402948:	48 8d 85 60 fe ff ff 	lea    -0x1a0(%rbp),%rax
  40294f:	f3 0f 10 0d a5 a2 00 	movss  0xa2a5(%rip),%xmm1        # 40cbfc <._93+0x154>
  402956:	00 
  402957:	f3 0f 10 05 a1 a2 00 	movss  0xa2a1(%rip),%xmm0        # 40cc00 <._93+0x158>
  40295e:	00 
  40295f:	48 89 c7             	mov    %rax,%rdi
  402962:	e8 0b 0e 00 00       	callq  403772 <_ZN12Tensor_QueenIf15CPU_MATHEMATICS10continuousIfS0_EE9randomizeEff>
  402967:	48 8d 85 60 fe ff ff 	lea    -0x1a0(%rbp),%rax
  40296e:	48 89 c7             	mov    %rax,%rdi
  402971:	e8 90 0e 00 00       	callq  403806 <_ZNK12Tensor_QueenIf15CPU_MATHEMATICS10continuousIfS0_EE5printEv>
  402976:	48 8d 85 00 fe ff ff 	lea    -0x200(%rbp),%rax
  40297d:	48 89 c7             	mov    %rax,%rdi
  402980:	e8 81 0e 00 00       	callq  403806 <_ZNK12Tensor_QueenIf15CPU_MATHEMATICS10continuousIfS0_EE5printEv>
  402985:	48 8d 85 30 fe ff ff 	lea    -0x1d0(%rbp),%rax
  40298c:	48 89 c7             	mov    %rax,%rdi
  40298f:	e8 72 0e 00 00       	callq  403806 <_ZNK12Tensor_QueenIf15CPU_MATHEMATICS10continuousIfS0_EE5printEv>
  402994:	48 8d 85 c0 fe ff ff 	lea    -0x140(%rbp),%rax
  40299b:	48 8d 8d 00 fe ff ff 	lea    -0x200(%rbp),%rcx
  4029a2:	ba 01 00 00 00       	mov    $0x1,%edx
  4029a7:	48 89 ce             	mov    %rcx,%rsi
  4029aa:	48 89 c7             	mov    %rax,%rdi
  4029ad:	e8 2a 21 00 00       	callq  404adc <_ZN6MatrixIf15CPU_MATHEMATICS10continuousIfS0_EEixEi>
  4029b2:	48 8d 85 a0 fd ff ff 	lea    -0x260(%rbp),%rax
  4029b9:	48 8d 8d c0 fe ff ff 	lea    -0x140(%rbp),%rcx
  4029c0:	ba 01 00 00 00       	mov    $0x1,%edx
  4029c5:	48 89 ce             	mov    %rcx,%rsi
  4029c8:	48 89 c7             	mov    %rax,%rdi
  4029cb:	e8 aa 1a 00 00       	callq  40447a <_ZN6VectorIf15CPU_MATHEMATICS10continuousIfS0_EEixEi>
  4029d0:	48 8d 85 90 fe ff ff 	lea    -0x170(%rbp),%rax
  4029d7:	48 8d 95 30 fe ff ff 	lea    -0x1d0(%rbp),%rdx
  4029de:	48 8d 8d 00 fe ff ff 	lea    -0x200(%rbp),%rcx
  4029e5:	48 89 ce             	mov    %rcx,%rsi
  4029e8:	48 89 c7             	mov    %rax,%rdi
  4029eb:	e8 94 1e 00 00       	callq  404884 <_ZN12Tensor_QueenIf15CPU_MATHEMATICS10continuousIfS0_EEmlIS2_EES3_RKS_IfS0_T_E>
  4029f0:	48 8d 45 90          	lea    -0x70(%rbp),%rax
  4029f4:	48 8d 95 a0 fd ff ff 	lea    -0x260(%rbp),%rdx
  4029fb:	48 8d 8d 90 fe ff ff 	lea    -0x170(%rbp),%rcx
  402a02:	48 89 ce             	mov    %rcx,%rsi
  402a05:	48 89 c7             	mov    %rax,%rdi
  402a08:	e8 8f 1c 00 00       	callq  40469c <_ZN12Tensor_QueenIf15CPU_MATHEMATICS10continuousIfS0_EEplIf23ReferenceScalarAccessorIfS0_EEES_IfS0_7pBufferIfS0_S2_T0_N9Operation3addIfEEEERKS_IT_S0_S8_E>
  402a0d:	48 8d 55 90          	lea    -0x70(%rbp),%rdx
  402a11:	48 8d 85 60 fe ff ff 	lea    -0x1a0(%rbp),%rax
  402a18:	48 89 d6             	mov    %rdx,%rsi
  402a1b:	48 89 c7             	mov    %rax,%rdi
  402a1e:	e8 e9 20 00 00       	callq  404b0c <_ZN6MatrixIf15CPU_MATHEMATICS10continuousIfS0_EEaSIf7pBufferIfS0_S2_23ReferenceScalarAccessorIfS0_EN9Operation3addIfEEEEERS3_RK12Tensor_QueenIT_S0_T0_E>
  402a23:	48 8d 45 90          	lea    -0x70(%rbp),%rax
  402a27:	48 89 c7             	mov    %rax,%rdi
  402a2a:	e8 27 82 00 00       	callq  40ac56 <_ZN12Tensor_QueenIf15CPU_MATHEMATICS7pBufferIfS0_10continuousIfS0_E23ReferenceScalarAccessorIfS0_EN9Operation3addIfEEEED1Ev>
  402a2f:	48 8d 85 90 fe ff ff 	lea    -0x170(%rbp),%rax
  402a36:	48 89 c7             	mov    %rax,%rdi
  402a39:	e8 5a 17 00 00       	callq  404198 <_ZN12Tensor_QueenIf15CPU_MATHEMATICS10continuousIfS0_EED1Ev>
  402a3e:	48 8d 85 a0 fd ff ff 	lea    -0x260(%rbp),%rax
  402a45:	48 89 c7             	mov    %rax,%rdi
  402a48:	e8 75 82 00 00       	callq  40acc2 <_ZN9Id_ScalarIf15CPU_MATHEMATICSED1Ev>
  402a4d:	48 8d 85 c0 fe ff ff 	lea    -0x140(%rbp),%rax
  402a54:	48 89 c7             	mov    %rax,%rdi
  402a57:	e8 d2 82 00 00       	callq  40ad2e <_ZN6VectorIf15CPU_MATHEMATICS10continuousIfS0_EED1Ev>
  402a5c:	48 8d 85 60 fe ff ff 	lea    -0x1a0(%rbp),%rax
  402a63:	48 89 c7             	mov    %rax,%rdi
  402a66:	e8 9b 0d 00 00       	callq  403806 <_ZNK12Tensor_QueenIf15CPU_MATHEMATICS10continuousIfS0_EE5printEv>
  402a6b:	48 8d 85 30 fe ff ff 	lea    -0x1d0(%rbp),%rax
  402a72:	48 89 c7             	mov    %rax,%rdi
  402a75:	e8 8c 0d 00 00       	callq  403806 <_ZNK12Tensor_QueenIf15CPU_MATHEMATICS10continuousIfS0_EE5printEv>
  402a7a:	48 8d 85 f0 fe ff ff 	lea    -0x110(%rbp),%rax
  402a81:	48 8d 95 30 fe ff ff 	lea    -0x1d0(%rbp),%rdx
  402a88:	48 89 d6             	mov    %rdx,%rsi
  402a8b:	48 89 c7             	mov    %rax,%rdi
  402a8e:	e8 b7 21 00 00       	callq  404c4a <_ZN12Tensor_QueenIf15CPU_MATHEMATICS10continuousIfS0_EE1tEv>
  402a93:	48 8d 85 f0 fe ff ff 	lea    -0x110(%rbp),%rax
  402a9a:	48 89 c7             	mov    %rax,%rdi
  402a9d:	e8 42 22 00 00       	callq  404ce4 <_ZNK12Tensor_QueenIf15CPU_MATHEMATICS18transpose_accessorIfS0_EE5printEv>
  402aa2:	48 8d 85 f0 fe ff ff 	lea    -0x110(%rbp),%rax
  402aa9:	48 89 c7             	mov    %rax,%rdi
  402aac:	e8 cd 80 00 00       	callq  40ab7e <_ZN12Tensor_QueenIf15CPU_MATHEMATICS18transpose_accessorIfS0_EED1Ev>
  402ab1:	be c0 c6 40 00       	mov    $0x40c6c0,%esi
  402ab6:	bf 60 42 61 00       	mov    $0x614260,%edi
  402abb:	e8 00 f3 ff ff       	callq  401dc0 <_ZStlsISt11char_traitsIcEERSt13basic_ostreamIcT_ES5_PKc@plt>
  402ac0:	be 00 1d 40 00       	mov    $0x401d00,%esi
  402ac5:	48 89 c7             	mov    %rax,%rdi
  402ac8:	e8 23 f3 ff ff       	callq  401df0 <_ZNSolsEPFRSoS_E@plt>
  402acd:	48 8d 85 60 fe ff ff 	lea    -0x1a0(%rbp),%rax
  402ad4:	48 89 c7             	mov    %rax,%rdi
  402ad7:	e8 0e 81 00 00       	callq  40abea <_ZN6MatrixIf15CPU_MATHEMATICS10continuousIfS0_EED1Ev>
  402adc:	48 8d 85 30 fe ff ff 	lea    -0x1d0(%rbp),%rax
  402ae3:	48 89 c7             	mov    %rax,%rdi
  402ae6:	e8 ff 80 00 00       	callq  40abea <_ZN6MatrixIf15CPU_MATHEMATICS10continuousIfS0_EED1Ev>
  402aeb:	48 8d 85 00 fe ff ff 	lea    -0x200(%rbp),%rax
  402af2:	48 89 c7             	mov    %rax,%rdi
  402af5:	e8 f0 80 00 00       	callq  40abea <_ZN6MatrixIf15CPU_MATHEMATICS10continuousIfS0_EED1Ev>
  402afa:	48 8d 85 d0 fd ff ff 	lea    -0x230(%rbp),%rax
  402b01:	48 89 c7             	mov    %rax,%rdi
  402b04:	e8 25 82 00 00       	callq  40ad2e <_ZN6VectorIf15CPU_MATHEMATICS10continuousIfS0_EED1Ev>
  402b09:	90                   	nop
  402b0a:	48 8b 45 e8          	mov    -0x18(%rbp),%rax
  402b0e:	64 48 33 04 25 28 00 	xor    %fs:0x28,%rax
  402b15:	00 00 
  402b17:	0f 84 1d 01 00 00    	je     402c3a <_Z12matrix_testsv+0x554>
  402b1d:	e9 13 01 00 00       	jmpq   402c35 <_Z12matrix_testsv+0x54f>
  402b22:	48 89 c3             	mov    %rax,%rbx
  402b25:	48 8d 85 10 fd ff ff 	lea    -0x2f0(%rbp),%rax
  402b2c:	48 89 c7             	mov    %rax,%rdi
  402b2f:	e8 8e 81 00 00       	callq  40acc2 <_ZN9Id_ScalarIf15CPU_MATHEMATICSED1Ev>
  402b34:	e9 e2 00 00 00       	jmpq   402c1b <_Z12matrix_testsv+0x535>
  402b39:	48 89 c3             	mov    %rax,%rbx
  402b3c:	48 8d 85 40 fd ff ff 	lea    -0x2c0(%rbp),%rax
  402b43:	48 89 c7             	mov    %rax,%rdi
  402b46:	e8 77 81 00 00       	callq  40acc2 <_ZN9Id_ScalarIf15CPU_MATHEMATICSED1Ev>
  402b4b:	e9 cb 00 00 00       	jmpq   402c1b <_Z12matrix_testsv+0x535>
  402b50:	48 89 c3             	mov    %rax,%rbx
  402b53:	48 8d 85 30 ff ff ff 	lea    -0xd0(%rbp),%rax
  402b5a:	48 89 c7             	mov    %rax,%rdi
  402b5d:	e8 f4 80 00 00       	callq  40ac56 <_ZN12Tensor_QueenIf15CPU_MATHEMATICS7pBufferIfS0_10continuousIfS0_E23ReferenceScalarAccessorIfS0_EN9Operation3addIfEEEED1Ev>
  402b62:	eb 03                	jmp    402b67 <_Z12matrix_testsv+0x481>
  402b64:	48 89 c3             	mov    %rax,%rbx
  402b67:	48 8d 85 70 fd ff ff 	lea    -0x290(%rbp),%rax
  402b6e:	48 89 c7             	mov    %rax,%rdi
  402b71:	e8 4c 81 00 00       	callq  40acc2 <_ZN9Id_ScalarIf15CPU_MATHEMATICSED1Ev>
  402b76:	e9 a0 00 00 00       	jmpq   402c1b <_Z12matrix_testsv+0x535>
  402b7b:	48 89 c3             	mov    %rax,%rbx
  402b7e:	48 8d 45 90          	lea    -0x70(%rbp),%rax
  402b82:	48 89 c7             	mov    %rax,%rdi
  402b85:	e8 cc 80 00 00       	callq  40ac56 <_ZN12Tensor_QueenIf15CPU_MATHEMATICS7pBufferIfS0_10continuousIfS0_E23ReferenceScalarAccessorIfS0_EN9Operation3addIfEEEED1Ev>
  402b8a:	eb 03                	jmp    402b8f <_Z12matrix_testsv+0x4a9>
  402b8c:	48 89 c3             	mov    %rax,%rbx
  402b8f:	48 8d 85 90 fe ff ff 	lea    -0x170(%rbp),%rax
  402b96:	48 89 c7             	mov    %rax,%rdi
  402b99:	e8 fa 15 00 00       	callq  404198 <_ZN12Tensor_QueenIf15CPU_MATHEMATICS10continuousIfS0_EED1Ev>
  402b9e:	eb 03                	jmp    402ba3 <_Z12matrix_testsv+0x4bd>
  402ba0:	48 89 c3             	mov    %rax,%rbx
  402ba3:	48 8d 85 a0 fd ff ff 	lea    -0x260(%rbp),%rax
  402baa:	48 89 c7             	mov    %rax,%rdi
  402bad:	e8 10 81 00 00       	callq  40acc2 <_ZN9Id_ScalarIf15CPU_MATHEMATICSED1Ev>
  402bb2:	eb 03                	jmp    402bb7 <_Z12matrix_testsv+0x4d1>
  402bb4:	48 89 c3             	mov    %rax,%rbx
  402bb7:	48 8d 85 c0 fe ff ff 	lea    -0x140(%rbp),%rax
  402bbe:	48 89 c7             	mov    %rax,%rdi
  402bc1:	e8 68 81 00 00       	callq  40ad2e <_ZN6VectorIf15CPU_MATHEMATICS10continuousIfS0_EED1Ev>
  402bc6:	eb 17                	jmp    402bdf <_Z12matrix_testsv+0x4f9>
  402bc8:	48 89 c3             	mov    %rax,%rbx
  402bcb:	48 8d 85 f0 fe ff ff 	lea    -0x110(%rbp),%rax
  402bd2:	48 89 c7             	mov    %rax,%rdi
  402bd5:	e8 a4 7f 00 00       	callq  40ab7e <_ZN12Tensor_QueenIf15CPU_MATHEMATICS18transpose_accessorIfS0_EED1Ev>
  402bda:	eb 03                	jmp    402bdf <_Z12matrix_testsv+0x4f9>
  402bdc:	48 89 c3             	mov    %rax,%rbx
  402bdf:	48 8d 85 60 fe ff ff 	lea    -0x1a0(%rbp),%rax
  402be6:	48 89 c7             	mov    %rax,%rdi
  402be9:	e8 fc 7f 00 00       	callq  40abea <_ZN6MatrixIf15CPU_MATHEMATICS10continuousIfS0_EED1Ev>
  402bee:	eb 03                	jmp    402bf3 <_Z12matrix_testsv+0x50d>
  402bf0:	48 89 c3             	mov    %rax,%rbx
  402bf3:	48 8d 85 30 fe ff ff 	lea    -0x1d0(%rbp),%rax
  402bfa:	48 89 c7             	mov    %rax,%rdi
  402bfd:	e8 e8 7f 00 00       	callq  40abea <_ZN6MatrixIf15CPU_MATHEMATICS10continuousIfS0_EED1Ev>
  402c02:	eb 03                	jmp    402c07 <_Z12matrix_testsv+0x521>
  402c04:	48 89 c3             	mov    %rax,%rbx
  402c07:	48 8d 85 00 fe ff ff 	lea    -0x200(%rbp),%rax
  402c0e:	48 89 c7             	mov    %rax,%rdi
  402c11:	e8 d4 7f 00 00       	callq  40abea <_ZN6MatrixIf15CPU_MATHEMATICS10continuousIfS0_EED1Ev>
  402c16:	eb 03                	jmp    402c1b <_Z12matrix_testsv+0x535>
  402c18:	48 89 c3             	mov    %rax,%rbx
  402c1b:	48 8d 85 d0 fd ff ff 	lea    -0x230(%rbp),%rax
  402c22:	48 89 c7             	mov    %rax,%rdi
  402c25:	e8 04 81 00 00       	callq  40ad2e <_ZN6VectorIf15CPU_MATHEMATICS10continuousIfS0_EED1Ev>
  402c2a:	48 89 d8             	mov    %rbx,%rax
  402c2d:	48 89 c7             	mov    %rax,%rdi
  402c30:	e8 5b f3 ff ff       	callq  401f90 <_Unwind_Resume@plt>
  402c35:	e8 f6 f1 ff ff       	callq  401e30 <__stack_chk_fail@plt>
  402c3a:	48 81 c4 f8 02 00 00 	add    $0x2f8,%rsp
  402c41:	5b                   	pop    %rbx
  402c42:	5d                   	pop    %rbp
  402c43:	c3                   	retq   

0000000000402c44 <_Z3addPdS_S_i>:
  402c44:	55                   	push   %rbp
  402c45:	48 89 e5             	mov    %rsp,%rbp
  402c48:	48 89 7d e8          	mov    %rdi,-0x18(%rbp)
  402c4c:	48 89 75 e0          	mov    %rsi,-0x20(%rbp)
  402c50:	48 89 55 d8          	mov    %rdx,-0x28(%rbp)
  402c54:	89 4d d4             	mov    %ecx,-0x2c(%rbp)
  402c57:	c7 45 fc 00 00 00 00 	movl   $0x0,-0x4(%rbp)
  402c5e:	8b 45 fc             	mov    -0x4(%rbp),%eax
  402c61:	3b 45 d4             	cmp    -0x2c(%rbp),%eax
  402c64:	7d 54                	jge    402cba <_Z3addPdS_S_i+0x76>
  402c66:	8b 45 fc             	mov    -0x4(%rbp),%eax
  402c69:	48 98                	cltq   
  402c6b:	48 8d 14 c5 00 00 00 	lea    0x0(,%rax,8),%rdx
  402c72:	00 
  402c73:	48 8b 45 e8          	mov    -0x18(%rbp),%rax
  402c77:	48 01 d0             	add    %rdx,%rax
  402c7a:	8b 55 fc             	mov    -0x4(%rbp),%edx
  402c7d:	48 63 d2             	movslq %edx,%rdx
  402c80:	48 8d 0c d5 00 00 00 	lea    0x0(,%rdx,8),%rcx
  402c87:	00 
  402c88:	48 8b 55 e0          	mov    -0x20(%rbp),%rdx
  402c8c:	48 01 ca             	add    %rcx,%rdx
  402c8f:	f2 0f 10 0a          	movsd  (%rdx),%xmm1
  402c93:	8b 55 fc             	mov    -0x4(%rbp),%edx
  402c96:	48 63 d2             	movslq %edx,%rdx
  402c99:	48 8d 0c d5 00 00 00 	lea    0x0(,%rdx,8),%rcx
  402ca0:	00 
  402ca1:	48 8b 55 d8          	mov    -0x28(%rbp),%rdx
  402ca5:	48 01 ca             	add    %rcx,%rdx
  402ca8:	f2 0f 10 02          	movsd  (%rdx),%xmm0
  402cac:	f2 0f 58 c1          	addsd  %xmm1,%xmm0
  402cb0:	f2 0f 11 00          	movsd  %xmm0,(%rax)
  402cb4:	83 45 fc 01          	addl   $0x1,-0x4(%rbp)
  402cb8:	eb a4                	jmp    402c5e <_Z3addPdS_S_i+0x1a>
  402cba:	90                   	nop
  402cbb:	5d                   	pop    %rbp
  402cbc:	c3                   	retq   

0000000000402cbd <main>:
  402cbd:	55                   	push   %rbp
  402cbe:	48 89 e5             	mov    %rsp,%rbp
  402cc1:	41 54                	push   %r12
  402cc3:	53                   	push   %rbx
  402cc4:	48 81 ec 20 01 00 00 	sub    $0x120,%rsp
  402ccb:	64 48 8b 04 25 28 00 	mov    %fs:0x28,%rax
  402cd2:	00 00 
  402cd4:	48 89 45 e8          	mov    %rax,-0x18(%rbp)
  402cd8:	31 c0                	xor    %eax,%eax
  402cda:	48 8d 85 f0 fe ff ff 	lea    -0x110(%rbp),%rax
  402ce1:	ba e8 03 00 00       	mov    $0x3e8,%edx
  402ce6:	be e8 03 00 00       	mov    $0x3e8,%esi
  402ceb:	48 89 c7             	mov    %rax,%rdi
  402cee:	e8 c9 21 00 00       	callq  404ebc <_ZN6MatrixId15CPU_MATHEMATICS10continuousIdS0_EEC1Eii>
  402cf3:	48 8d 85 20 ff ff ff 	lea    -0xe0(%rbp),%rax
  402cfa:	ba e8 03 00 00       	mov    $0x3e8,%edx
  402cff:	be e8 03 00 00       	mov    $0x3e8,%esi
  402d04:	48 89 c7             	mov    %rax,%rdi
  402d07:	e8 b0 21 00 00       	callq  404ebc <_ZN6MatrixId15CPU_MATHEMATICS10continuousIdS0_EEC1Eii>
  402d0c:	48 8d 85 50 ff ff ff 	lea    -0xb0(%rbp),%rax
  402d13:	ba e8 03 00 00       	mov    $0x3e8,%edx
  402d18:	be e8 03 00 00       	mov    $0x3e8,%esi
  402d1d:	48 89 c7             	mov    %rax,%rdi
  402d20:	e8 97 21 00 00       	callq  404ebc <_ZN6MatrixId15CPU_MATHEMATICS10continuousIdS0_EEC1Eii>
  402d25:	f2 0f 10 05 db 9e 00 	movsd  0x9edb(%rip),%xmm0        # 40cc08 <._93+0x160>
  402d2c:	00 
  402d2d:	48 ba 00 00 00 00 00 	movabs $0xc059000000000000,%rdx
  402d34:	00 59 c0 
  402d37:	48 8d 85 f0 fe ff ff 	lea    -0x110(%rbp),%rax
  402d3e:	66 0f 28 c8          	movapd %xmm0,%xmm1
  402d42:	48 89 95 d8 fe ff ff 	mov    %rdx,-0x128(%rbp)
  402d49:	f2 0f 10 85 d8 fe ff 	movsd  -0x128(%rbp),%xmm0
  402d50:	ff 
  402d51:	48 89 c7             	mov    %rax,%rdi
  402d54:	e8 4b 23 00 00       	callq  4050a4 <_ZN12Tensor_QueenId15CPU_MATHEMATICS10continuousIdS0_EE9randomizeEdd>
  402d59:	f2 0f 10 05 a7 9e 00 	movsd  0x9ea7(%rip),%xmm0        # 40cc08 <._93+0x160>
  402d60:	00 
  402d61:	48 ba 00 00 00 00 00 	movabs $0xc059000000000000,%rdx
  402d68:	00 59 c0 
  402d6b:	48 8d 85 20 ff ff ff 	lea    -0xe0(%rbp),%rax
  402d72:	66 0f 28 c8          	movapd %xmm0,%xmm1
  402d76:	48 89 95 d8 fe ff ff 	mov    %rdx,-0x128(%rbp)
  402d7d:	f2 0f 10 85 d8 fe ff 	movsd  -0x128(%rbp),%xmm0
  402d84:	ff 
  402d85:	48 89 c7             	mov    %rax,%rdi
  402d88:	e8 17 23 00 00       	callq  4050a4 <_ZN12Tensor_QueenId15CPU_MATHEMATICS10continuousIdS0_EE9randomizeEdd>
  402d8d:	bf ca c6 40 00       	mov    $0x40c6ca,%edi
  402d92:	e8 79 f1 ff ff       	callq  401f10 <puts@plt>
  402d97:	48 8d 45 80          	lea    -0x80(%rbp),%rax
  402d9b:	48 8d 95 20 ff ff ff 	lea    -0xe0(%rbp),%rdx
  402da2:	48 8d 8d f0 fe ff ff 	lea    -0x110(%rbp),%rcx
  402da9:	48 89 ce             	mov    %rcx,%rsi
  402dac:	48 89 c7             	mov    %rax,%rdi
  402daf:	e8 30 24 00 00       	callq  4051e4 <_ZN12Tensor_QueenId15CPU_MATHEMATICS10continuousIdS0_EEplIdS2_EES_IdS0_7pBufferIdS0_S2_T0_N9Operation3addIdEEEERKS_IT_S0_S6_E>
  402db4:	48 8d 55 80          	lea    -0x80(%rbp),%rdx
  402db8:	48 8d 85 50 ff ff ff 	lea    -0xb0(%rbp),%rax
  402dbf:	48 89 d6             	mov    %rdx,%rsi
  402dc2:	48 89 c7             	mov    %rax,%rdi
  402dc5:	e8 e4 24 00 00       	callq  4052ae <_ZN6MatrixId15CPU_MATHEMATICS10continuousIdS0_EEaSId7pBufferIdS0_S2_S2_N9Operation3addIdEEEEERS3_RK12Tensor_QueenIT_S0_T0_E>
  402dca:	48 8d 45 80          	lea    -0x80(%rbp),%rax
  402dce:	48 89 c7             	mov    %rax,%rdi
  402dd1:	e8 d0 7c 00 00       	callq  40aaa6 <_ZN12Tensor_QueenId15CPU_MATHEMATICS7pBufferIdS0_10continuousIdS0_ES3_N9Operation3addIdEEEED1Ev>
  402dd6:	8b 85 e4 fe ff ff    	mov    -0x11c(%rbp),%eax
  402ddc:	89 c6                	mov    %eax,%esi
  402dde:	bf e4 c6 40 00       	mov    $0x40c6e4,%edi
  402de3:	b8 00 00 00 00       	mov    $0x0,%eax
  402de8:	e8 b3 ee ff ff       	callq  401ca0 <printf@plt>
  402ded:	66 0f ef c0          	pxor   %xmm0,%xmm0
  402df1:	f3 48 0f 2a 85 e8 fe 	cvtsi2ssq -0x118(%rbp),%xmm0
  402df8:	ff ff 
  402dfa:	f3 0f 5a c0          	cvtss2sd %xmm0,%xmm0
  402dfe:	48 8b 85 e8 fe ff ff 	mov    -0x118(%rbp),%rax
  402e05:	48 89 c6             	mov    %rax,%rsi
  402e08:	bf 00 c7 40 00       	mov    $0x40c700,%edi
  402e0d:	b8 01 00 00 00       	mov    $0x1,%eax
  402e12:	e8 89 ee ff ff       	callq  401ca0 <printf@plt>
  402e17:	bf 24 c7 40 00       	mov    $0x40c724,%edi
  402e1c:	e8 ef f0 ff ff       	callq  401f10 <puts@plt>
  402e21:	48 8d 85 20 ff ff ff 	lea    -0xe0(%rbp),%rax
  402e28:	48 89 c7             	mov    %rax,%rdi
  402e2b:	e8 e0 24 00 00       	callq  405310 <_ZN11Tensor_KingId15CPU_MATHEMATICS10continuousIdS0_EE8accessorEv>
  402e30:	48 8b 10             	mov    (%rax),%rdx
  402e33:	48 83 c2 48          	add    $0x48,%rdx
  402e37:	48 8b 12             	mov    (%rdx),%rdx
  402e3a:	48 89 c7             	mov    %rax,%rdi
  402e3d:	ff d2                	callq  *%rdx
  402e3f:	49 89 c4             	mov    %rax,%r12
  402e42:	48 8d 85 f0 fe ff ff 	lea    -0x110(%rbp),%rax
  402e49:	48 89 c7             	mov    %rax,%rdi
  402e4c:	e8 bf 24 00 00       	callq  405310 <_ZN11Tensor_KingId15CPU_MATHEMATICS10continuousIdS0_EE8accessorEv>
  402e51:	48 8b 10             	mov    (%rax),%rdx
  402e54:	48 83 c2 48          	add    $0x48,%rdx
  402e58:	48 8b 12             	mov    (%rdx),%rdx
  402e5b:	48 89 c7             	mov    %rax,%rdi
  402e5e:	ff d2                	callq  *%rdx
  402e60:	48 89 c3             	mov    %rax,%rbx
  402e63:	48 8d 85 50 ff ff ff 	lea    -0xb0(%rbp),%rax
  402e6a:	48 89 c7             	mov    %rax,%rdi
  402e6d:	e8 9e 24 00 00       	callq  405310 <_ZN11Tensor_KingId15CPU_MATHEMATICS10continuousIdS0_EE8accessorEv>
  402e72:	48 8b 10             	mov    (%rax),%rdx
  402e75:	48 83 c2 48          	add    $0x48,%rdx
  402e79:	48 8b 12             	mov    (%rdx),%rdx
  402e7c:	48 89 c7             	mov    %rax,%rdi
  402e7f:	ff d2                	callq  *%rdx
  402e81:	b9 40 42 0f 00       	mov    $0xf4240,%ecx
  402e86:	4c 89 e2             	mov    %r12,%rdx
  402e89:	48 89 de             	mov    %rbx,%rsi
  402e8c:	48 89 c7             	mov    %rax,%rdi
  402e8f:	e8 b0 fd ff ff       	callq  402c44 <_Z3addPdS_S_i>
  402e94:	8b 85 e4 fe ff ff    	mov    -0x11c(%rbp),%eax
  402e9a:	89 c6                	mov    %eax,%esi
  402e9c:	bf e4 c6 40 00       	mov    $0x40c6e4,%edi
  402ea1:	b8 00 00 00 00       	mov    $0x0,%eax
  402ea6:	e8 f5 ed ff ff       	callq  401ca0 <printf@plt>
  402eab:	66 0f ef c0          	pxor   %xmm0,%xmm0
  402eaf:	f3 48 0f 2a 85 e8 fe 	cvtsi2ssq -0x118(%rbp),%xmm0
  402eb6:	ff ff 
  402eb8:	f3 0f 5a c0          	cvtss2sd %xmm0,%xmm0
  402ebc:	48 8b 85 e8 fe ff ff 	mov    -0x118(%rbp),%rax
  402ec3:	48 89 c6             	mov    %rax,%rsi
  402ec6:	bf 00 c7 40 00       	mov    $0x40c700,%edi
  402ecb:	b8 01 00 00 00       	mov    $0x1,%eax
  402ed0:	e8 cb ed ff ff       	callq  401ca0 <printf@plt>
  402ed5:	be b7 c6 40 00       	mov    $0x40c6b7,%esi
  402eda:	bf 60 42 61 00       	mov    $0x614260,%edi
  402edf:	e8 dc ee ff ff       	callq  401dc0 <_ZStlsISt11char_traitsIcEERSt13basic_ostreamIcT_ES5_PKc@plt>
  402ee4:	be 00 1d 40 00       	mov    $0x401d00,%esi
  402ee9:	48 89 c7             	mov    %rax,%rdi
  402eec:	e8 ff ee ff ff       	callq  401df0 <_ZNSolsEPFRSoS_E@plt>
  402ef1:	48 8d 85 50 ff ff ff 	lea    -0xb0(%rbp),%rax
  402ef8:	48 89 c7             	mov    %rax,%rdi
  402efb:	e8 12 7c 00 00       	callq  40ab12 <_ZN6MatrixId15CPU_MATHEMATICS10continuousIdS0_EED1Ev>
  402f00:	48 8d 85 20 ff ff ff 	lea    -0xe0(%rbp),%rax
  402f07:	48 89 c7             	mov    %rax,%rdi
  402f0a:	e8 03 7c 00 00       	callq  40ab12 <_ZN6MatrixId15CPU_MATHEMATICS10continuousIdS0_EED1Ev>
  402f0f:	48 8d 85 f0 fe ff ff 	lea    -0x110(%rbp),%rax
  402f16:	48 89 c7             	mov    %rax,%rdi
  402f19:	e8 f4 7b 00 00       	callq  40ab12 <_ZN6MatrixId15CPU_MATHEMATICS10continuousIdS0_EED1Ev>
  402f1e:	b8 00 00 00 00       	mov    $0x0,%eax
  402f23:	48 8b 4d e8          	mov    -0x18(%rbp),%rcx
  402f27:	64 48 33 0c 25 28 00 	xor    %fs:0x28,%rcx
  402f2e:	00 00 
  402f30:	74 5d                	je     402f8f <main+0x2d2>
  402f32:	eb 56                	jmp    402f8a <main+0x2cd>
  402f34:	48 89 c3             	mov    %rax,%rbx
  402f37:	48 8d 45 80          	lea    -0x80(%rbp),%rax
  402f3b:	48 89 c7             	mov    %rax,%rdi
  402f3e:	e8 63 7b 00 00       	callq  40aaa6 <_ZN12Tensor_QueenId15CPU_MATHEMATICS7pBufferIdS0_10continuousIdS0_ES3_N9Operation3addIdEEEED1Ev>
  402f43:	eb 03                	jmp    402f48 <main+0x28b>
  402f45:	48 89 c3             	mov    %rax,%rbx
  402f48:	48 8d 85 50 ff ff ff 	lea    -0xb0(%rbp),%rax
  402f4f:	48 89 c7             	mov    %rax,%rdi
  402f52:	e8 bb 7b 00 00       	callq  40ab12 <_ZN6MatrixId15CPU_MATHEMATICS10continuousIdS0_EED1Ev>
  402f57:	eb 03                	jmp    402f5c <main+0x29f>
  402f59:	48 89 c3             	mov    %rax,%rbx
  402f5c:	48 8d 85 20 ff ff ff 	lea    -0xe0(%rbp),%rax
  402f63:	48 89 c7             	mov    %rax,%rdi
  402f66:	e8 a7 7b 00 00       	callq  40ab12 <_ZN6MatrixId15CPU_MATHEMATICS10continuousIdS0_EED1Ev>
  402f6b:	eb 03                	jmp    402f70 <main+0x2b3>
  402f6d:	48 89 c3             	mov    %rax,%rbx
  402f70:	48 8d 85 f0 fe ff ff 	lea    -0x110(%rbp),%rax
  402f77:	48 89 c7             	mov    %rax,%rdi
  402f7a:	e8 93 7b 00 00       	callq  40ab12 <_ZN6MatrixId15CPU_MATHEMATICS10continuousIdS0_EED1Ev>
  402f7f:	48 89 d8             	mov    %rbx,%rax
  402f82:	48 89 c7             	mov    %rax,%rdi
  402f85:	e8 06 f0 ff ff       	callq  401f90 <_Unwind_Resume@plt>
  402f8a:	e8 a1 ee ff ff       	callq  401e30 <__stack_chk_fail@plt>
  402f8f:	48 81 c4 20 01 00 00 	add    $0x120,%rsp
  402f96:	5b                   	pop    %rbx
  402f97:	41 5c                	pop    %r12
  402f99:	5d                   	pop    %rbp
  402f9a:	c3                   	retq   

0000000000402f9b <_Z41__static_initialization_and_destruction_0ii>:
  402f9b:	55                   	push   %rbp
  402f9c:	48 89 e5             	mov    %rsp,%rbp
  402f9f:	48 83 ec 10          	sub    $0x10,%rsp
  402fa3:	89 7d fc             	mov    %edi,-0x4(%rbp)
  402fa6:	89 75 f8             	mov    %esi,-0x8(%rbp)
  402fa9:	83 7d fc 01          	cmpl   $0x1,-0x4(%rbp)
  402fad:	75 27                	jne    402fd6 <_Z41__static_initialization_and_destruction_0ii+0x3b>
  402faf:	81 7d f8 ff ff 00 00 	cmpl   $0xffff,-0x8(%rbp)
  402fb6:	75 1e                	jne    402fd6 <_Z41__static_initialization_and_destruction_0ii+0x3b>
  402fb8:	bf 39 44 61 00       	mov    $0x614439,%edi
  402fbd:	e8 3e ef ff ff       	callq  401f00 <_ZNSt8ios_base4InitC1Ev@plt>
  402fc2:	ba f0 41 61 00       	mov    $0x6141f0,%edx
  402fc7:	be 39 44 61 00       	mov    $0x614439,%esi
  402fcc:	bf 20 20 40 00       	mov    $0x402020,%edi
  402fd1:	e8 ba ed ff ff       	callq  401d90 <__cxa_atexit@plt>
  402fd6:	90                   	nop
  402fd7:	c9                   	leaveq 
  402fd8:	c3                   	retq   

0000000000402fd9 <_GLOBAL__sub_I__Z3maxii>:
  402fd9:	55                   	push   %rbp
  402fda:	48 89 e5             	mov    %rsp,%rbp
  402fdd:	be ff ff 00 00       	mov    $0xffff,%esi
  402fe2:	bf 01 00 00 00       	mov    $0x1,%edi
  402fe7:	e8 af ff ff ff       	callq  402f9b <_Z41__static_initialization_and_destruction_0ii>
  402fec:	5d                   	pop    %rbp
  402fed:	c3                   	retq   

0000000000402fee <_ZN15CPU_MATHEMATICS10copy_stackIPiPKiEEvRT_T0_i._omp_fn.0>:
  402fee:	55                   	push   %rbp
  402fef:	48 89 e5             	mov    %rsp,%rbp
  402ff2:	41 54                	push   %r12
  402ff4:	53                   	push   %rbx
  402ff5:	48 83 ec 20          	sub    $0x20,%rsp
  402ff9:	48 89 7d d8          	mov    %rdi,-0x28(%rbp)
  402ffd:	48 8b 45 d8          	mov    -0x28(%rbp),%rax
  403001:	8b 58 10             	mov    0x10(%rax),%ebx
  403004:	e8 d7 ef ff ff       	callq  401fe0 <omp_get_num_threads@plt>
  403009:	41 89 c4             	mov    %eax,%r12d
  40300c:	e8 0f ef ff ff       	callq  401f20 <omp_get_thread_num@plt>
  403011:	89 c6                	mov    %eax,%esi
  403013:	89 d8                	mov    %ebx,%eax
  403015:	99                   	cltd   
  403016:	41 f7 fc             	idiv   %r12d
  403019:	89 c1                	mov    %eax,%ecx
  40301b:	89 d8                	mov    %ebx,%eax
  40301d:	99                   	cltd   
  40301e:	41 f7 fc             	idiv   %r12d
  403021:	89 d0                	mov    %edx,%eax
  403023:	39 c6                	cmp    %eax,%esi
  403025:	7c 4f                	jl     403076 <_ZN15CPU_MATHEMATICS10copy_stackIPiPKiEEvRT_T0_i._omp_fn.0+0x88>
  403027:	0f af f1             	imul   %ecx,%esi
  40302a:	89 f2                	mov    %esi,%edx
  40302c:	01 d0                	add    %edx,%eax
  40302e:	8d 14 08             	lea    (%rax,%rcx,1),%edx
  403031:	39 d0                	cmp    %edx,%eax
  403033:	7d 4b                	jge    403080 <_ZN15CPU_MATHEMATICS10copy_stackIPiPKiEEvRT_T0_i._omp_fn.0+0x92>
  403035:	89 45 ec             	mov    %eax,-0x14(%rbp)
  403038:	48 8b 45 d8          	mov    -0x28(%rbp),%rax
  40303c:	48 8b 00             	mov    (%rax),%rax
  40303f:	48 8b 00             	mov    (%rax),%rax
  403042:	8b 4d ec             	mov    -0x14(%rbp),%ecx
  403045:	48 63 c9             	movslq %ecx,%rcx
  403048:	48 c1 e1 02          	shl    $0x2,%rcx
  40304c:	48 01 c1             	add    %rax,%rcx
  40304f:	8b 45 ec             	mov    -0x14(%rbp),%eax
  403052:	48 98                	cltq   
  403054:	48 8d 34 85 00 00 00 	lea    0x0(,%rax,4),%rsi
  40305b:	00 
  40305c:	48 8b 45 d8          	mov    -0x28(%rbp),%rax
  403060:	48 8b 40 08          	mov    0x8(%rax),%rax
  403064:	48 01 f0             	add    %rsi,%rax
  403067:	8b 00                	mov    (%rax),%eax
  403069:	89 01                	mov    %eax,(%rcx)
  40306b:	83 45 ec 01          	addl   $0x1,-0x14(%rbp)
  40306f:	39 55 ec             	cmp    %edx,-0x14(%rbp)
  403072:	7c c4                	jl     403038 <_ZN15CPU_MATHEMATICS10copy_stackIPiPKiEEvRT_T0_i._omp_fn.0+0x4a>
  403074:	eb 0a                	jmp    403080 <_ZN15CPU_MATHEMATICS10copy_stackIPiPKiEEvRT_T0_i._omp_fn.0+0x92>
  403076:	b8 00 00 00 00       	mov    $0x0,%eax
  40307b:	83 c1 01             	add    $0x1,%ecx
  40307e:	eb a7                	jmp    403027 <_ZN15CPU_MATHEMATICS10copy_stackIPiPKiEEvRT_T0_i._omp_fn.0+0x39>
  403080:	48 83 c4 20          	add    $0x20,%rsp
  403084:	5b                   	pop    %rbx
  403085:	41 5c                	pop    %r12
  403087:	5d                   	pop    %rbp
  403088:	c3                   	retq   

0000000000403089 <_ZN15CPU_MATHEMATICS9randomizeI10continuousIfS_EfEEvT_T0_S4_i._omp_fn.1>:
  403089:	55                   	push   %rbp
  40308a:	48 89 e5             	mov    %rsp,%rbp
  40308d:	41 54                	push   %r12
  40308f:	53                   	push   %rbx
  403090:	48 83 ec 20          	sub    $0x20,%rsp
  403094:	48 89 7d d8          	mov    %rdi,-0x28(%rbp)
  403098:	48 8b 45 d8          	mov    -0x28(%rbp),%rax
  40309c:	8b 58 10             	mov    0x10(%rax),%ebx
  40309f:	e8 3c ef ff ff       	callq  401fe0 <omp_get_num_threads@plt>
  4030a4:	41 89 c4             	mov    %eax,%r12d
  4030a7:	e8 74 ee ff ff       	callq  401f20 <omp_get_thread_num@plt>
  4030ac:	89 c6                	mov    %eax,%esi
  4030ae:	89 d8                	mov    %ebx,%eax
  4030b0:	99                   	cltd   
  4030b1:	41 f7 fc             	idiv   %r12d
  4030b4:	89 c1                	mov    %eax,%ecx
  4030b6:	89 d8                	mov    %ebx,%eax
  4030b8:	99                   	cltd   
  4030b9:	41 f7 fc             	idiv   %r12d
  4030bc:	89 d0                	mov    %edx,%eax
  4030be:	39 c6                	cmp    %eax,%esi
  4030c0:	0f 8c 8d 00 00 00    	jl     403153 <_ZN15CPU_MATHEMATICS9randomizeI10continuousIfS_EfEEvT_T0_S4_i._omp_fn.1+0xca>
  4030c6:	0f af f1             	imul   %ecx,%esi
  4030c9:	89 f2                	mov    %esi,%edx
  4030cb:	01 d0                	add    %edx,%eax
  4030cd:	8d 1c 08             	lea    (%rax,%rcx,1),%ebx
  4030d0:	39 d8                	cmp    %ebx,%eax
  4030d2:	0f 8d 88 00 00 00    	jge    403160 <_ZN15CPU_MATHEMATICS9randomizeI10continuousIfS_EfEEvT_T0_S4_i._omp_fn.1+0xd7>
  4030d8:	89 45 ec             	mov    %eax,-0x14(%rbp)
  4030db:	48 8b 45 d8          	mov    -0x28(%rbp),%rax
  4030df:	48 8b 00             	mov    (%rax),%rax
  4030e2:	8b 55 ec             	mov    -0x14(%rbp),%edx
  4030e5:	89 d6                	mov    %edx,%esi
  4030e7:	48 89 c7             	mov    %rax,%rdi
  4030ea:	e8 73 17 00 00       	callq  404862 <_ZN10continuousIf15CPU_MATHEMATICSEixEi>
  4030ef:	49 89 c4             	mov    %rax,%r12
  4030f2:	e8 c9 eb ff ff       	callq  401cc0 <rand@plt>
  4030f7:	66 0f ef c0          	pxor   %xmm0,%xmm0
  4030fb:	f2 0f 2a c0          	cvtsi2sd %eax,%xmm0
  4030ff:	f2 0f 10 0d 09 9b 00 	movsd  0x9b09(%rip),%xmm1        # 40cc10 <._93+0x168>
  403106:	00 
  403107:	f2 0f 5e c1          	divsd  %xmm1,%xmm0
  40310b:	66 0f 28 c8          	movapd %xmm0,%xmm1
  40310f:	48 8b 45 d8          	mov    -0x28(%rbp),%rax
  403113:	f3 0f 10 50 08       	movss  0x8(%rax),%xmm2
  403118:	48 8b 45 d8          	mov    -0x28(%rbp),%rax
  40311c:	f3 0f 10 40 0c       	movss  0xc(%rax),%xmm0
  403121:	f3 0f 5c c2          	subss  %xmm2,%xmm0
  403125:	f3 0f 5a c0          	cvtss2sd %xmm0,%xmm0
  403129:	f2 0f 59 c8          	mulsd  %xmm0,%xmm1
  40312d:	48 8b 45 d8          	mov    -0x28(%rbp),%rax
  403131:	f3 0f 10 40 08       	movss  0x8(%rax),%xmm0
  403136:	f3 0f 5a c0          	cvtss2sd %xmm0,%xmm0
  40313a:	f2 0f 58 c1          	addsd  %xmm1,%xmm0
  40313e:	f2 0f 5a c0          	cvtsd2ss %xmm0,%xmm0
  403142:	f3 41 0f 11 04 24    	movss  %xmm0,(%r12)
  403148:	83 45 ec 01          	addl   $0x1,-0x14(%rbp)
  40314c:	39 5d ec             	cmp    %ebx,-0x14(%rbp)
  40314f:	7c 8a                	jl     4030db <_ZN15CPU_MATHEMATICS9randomizeI10continuousIfS_EfEEvT_T0_S4_i._omp_fn.1+0x52>
  403151:	eb 0d                	jmp    403160 <_ZN15CPU_MATHEMATICS9randomizeI10continuousIfS_EfEEvT_T0_S4_i._omp_fn.1+0xd7>
  403153:	b8 00 00 00 00       	mov    $0x0,%eax
  403158:	83 c1 01             	add    $0x1,%ecx
  40315b:	e9 66 ff ff ff       	jmpq   4030c6 <_ZN15CPU_MATHEMATICS9randomizeI10continuousIfS_EfEEvT_T0_S4_i._omp_fn.1+0x3d>
  403160:	48 83 c4 20          	add    $0x20,%rsp
  403164:	5b                   	pop    %rbx
  403165:	41 5c                	pop    %r12
  403167:	5d                   	pop    %rbp
  403168:	c3                   	retq   

0000000000403169 <_ZN15CPU_MATHEMATICS4zeroI10continuousIfS_EEEvRT_i._omp_fn.2>:
  403169:	55                   	push   %rbp
  40316a:	48 89 e5             	mov    %rsp,%rbp
  40316d:	41 54                	push   %r12
  40316f:	53                   	push   %rbx
  403170:	48 83 ec 20          	sub    $0x20,%rsp
  403174:	48 89 7d d8          	mov    %rdi,-0x28(%rbp)
  403178:	48 8b 45 d8          	mov    -0x28(%rbp),%rax
  40317c:	8b 58 08             	mov    0x8(%rax),%ebx
  40317f:	e8 5c ee ff ff       	callq  401fe0 <omp_get_num_threads@plt>
  403184:	41 89 c4             	mov    %eax,%r12d
  403187:	e8 94 ed ff ff       	callq  401f20 <omp_get_thread_num@plt>
  40318c:	89 c6                	mov    %eax,%esi
  40318e:	89 d8                	mov    %ebx,%eax
  403190:	99                   	cltd   
  403191:	41 f7 fc             	idiv   %r12d
  403194:	89 c1                	mov    %eax,%ecx
  403196:	89 d8                	mov    %ebx,%eax
  403198:	99                   	cltd   
  403199:	41 f7 fc             	idiv   %r12d
  40319c:	89 d0                	mov    %edx,%eax
  40319e:	39 c6                	cmp    %eax,%esi
  4031a0:	7c 38                	jl     4031da <_ZN15CPU_MATHEMATICS4zeroI10continuousIfS_EEEvRT_i._omp_fn.2+0x71>
  4031a2:	0f af f1             	imul   %ecx,%esi
  4031a5:	89 f2                	mov    %esi,%edx
  4031a7:	01 d0                	add    %edx,%eax
  4031a9:	8d 1c 08             	lea    (%rax,%rcx,1),%ebx
  4031ac:	39 d8                	cmp    %ebx,%eax
  4031ae:	7d 34                	jge    4031e4 <_ZN15CPU_MATHEMATICS4zeroI10continuousIfS_EEEvRT_i._omp_fn.2+0x7b>
  4031b0:	89 45 ec             	mov    %eax,-0x14(%rbp)
  4031b3:	48 8b 45 d8          	mov    -0x28(%rbp),%rax
  4031b7:	48 8b 00             	mov    (%rax),%rax
  4031ba:	8b 55 ec             	mov    -0x14(%rbp),%edx
  4031bd:	89 d6                	mov    %edx,%esi
  4031bf:	48 89 c7             	mov    %rax,%rdi
  4031c2:	e8 9b 16 00 00       	callq  404862 <_ZN10continuousIf15CPU_MATHEMATICSEixEi>
  4031c7:	66 0f ef c0          	pxor   %xmm0,%xmm0
  4031cb:	f3 0f 11 00          	movss  %xmm0,(%rax)
  4031cf:	83 45 ec 01          	addl   $0x1,-0x14(%rbp)
  4031d3:	39 5d ec             	cmp    %ebx,-0x14(%rbp)
  4031d6:	7c db                	jl     4031b3 <_ZN15CPU_MATHEMATICS4zeroI10continuousIfS_EEEvRT_i._omp_fn.2+0x4a>
  4031d8:	eb 0a                	jmp    4031e4 <_ZN15CPU_MATHEMATICS4zeroI10continuousIfS_EEEvRT_i._omp_fn.2+0x7b>
  4031da:	b8 00 00 00 00       	mov    $0x0,%eax
  4031df:	83 c1 01             	add    $0x1,%ecx
  4031e2:	eb be                	jmp    4031a2 <_ZN15CPU_MATHEMATICS4zeroI10continuousIfS_EEEvRT_i._omp_fn.2+0x39>
  4031e4:	48 83 c4 20          	add    $0x20,%rsp
  4031e8:	5b                   	pop    %rbx
  4031e9:	41 5c                	pop    %r12
  4031eb:	5d                   	pop    %rbp
  4031ec:	c3                   	retq   

00000000004031ed <_ZN15CPU_MATHEMATICS9randomizeI10continuousIdS_EdEEvT_T0_S4_i._omp_fn.3>:
  4031ed:	55                   	push   %rbp
  4031ee:	48 89 e5             	mov    %rsp,%rbp
  4031f1:	41 54                	push   %r12
  4031f3:	53                   	push   %rbx
  4031f4:	48 83 ec 20          	sub    $0x20,%rsp
  4031f8:	48 89 7d d8          	mov    %rdi,-0x28(%rbp)
  4031fc:	48 8b 45 d8          	mov    -0x28(%rbp),%rax
  403200:	8b 58 18             	mov    0x18(%rax),%ebx
  403203:	e8 d8 ed ff ff       	callq  401fe0 <omp_get_num_threads@plt>
  403208:	41 89 c4             	mov    %eax,%r12d
  40320b:	e8 10 ed ff ff       	callq  401f20 <omp_get_thread_num@plt>
  403210:	89 c6                	mov    %eax,%esi
  403212:	89 d8                	mov    %ebx,%eax
  403214:	99                   	cltd   
  403215:	41 f7 fc             	idiv   %r12d
  403218:	89 c1                	mov    %eax,%ecx
  40321a:	89 d8                	mov    %ebx,%eax
  40321c:	99                   	cltd   
  40321d:	41 f7 fc             	idiv   %r12d
  403220:	89 d0                	mov    %edx,%eax
  403222:	39 c6                	cmp    %eax,%esi
  403224:	7c 7d                	jl     4032a3 <_ZN15CPU_MATHEMATICS9randomizeI10continuousIdS_EdEEvT_T0_S4_i._omp_fn.3+0xb6>
  403226:	0f af f1             	imul   %ecx,%esi
  403229:	89 f2                	mov    %esi,%edx
  40322b:	01 d0                	add    %edx,%eax
  40322d:	8d 1c 08             	lea    (%rax,%rcx,1),%ebx
  403230:	39 d8                	cmp    %ebx,%eax
  403232:	7d 7c                	jge    4032b0 <_ZN15CPU_MATHEMATICS9randomizeI10continuousIdS_EdEEvT_T0_S4_i._omp_fn.3+0xc3>
  403234:	89 45 ec             	mov    %eax,-0x14(%rbp)
  403237:	48 8b 45 d8          	mov    -0x28(%rbp),%rax
  40323b:	48 8b 00             	mov    (%rax),%rax
  40323e:	8b 55 ec             	mov    -0x14(%rbp),%edx
  403241:	89 d6                	mov    %edx,%esi
  403243:	48 89 c7             	mov    %rax,%rdi
  403246:	e8 33 63 00 00       	callq  40957e <_ZN10continuousId15CPU_MATHEMATICSEixEi>
  40324b:	49 89 c4             	mov    %rax,%r12
  40324e:	e8 6d ea ff ff       	callq  401cc0 <rand@plt>
  403253:	66 0f ef c0          	pxor   %xmm0,%xmm0
  403257:	f2 0f 2a c0          	cvtsi2sd %eax,%xmm0
  40325b:	f2 0f 10 0d ad 99 00 	movsd  0x99ad(%rip),%xmm1        # 40cc10 <._93+0x168>
  403262:	00 
  403263:	f2 0f 5e c1          	divsd  %xmm1,%xmm0
  403267:	66 0f 28 c8          	movapd %xmm0,%xmm1
  40326b:	48 8b 45 d8          	mov    -0x28(%rbp),%rax
  40326f:	f2 0f 10 50 08       	movsd  0x8(%rax),%xmm2
  403274:	48 8b 45 d8          	mov    -0x28(%rbp),%rax
  403278:	f2 0f 10 40 10       	movsd  0x10(%rax),%xmm0
  40327d:	f2 0f 5c c2          	subsd  %xmm2,%xmm0
  403281:	f2 0f 59 c1          	mulsd  %xmm1,%xmm0
  403285:	48 8b 45 d8          	mov    -0x28(%rbp),%rax
  403289:	f2 0f 10 48 08       	movsd  0x8(%rax),%xmm1
  40328e:	f2 0f 58 c1          	addsd  %xmm1,%xmm0
  403292:	f2 41 0f 11 04 24    	movsd  %xmm0,(%r12)
  403298:	83 45 ec 01          	addl   $0x1,-0x14(%rbp)
  40329c:	39 5d ec             	cmp    %ebx,-0x14(%rbp)
  40329f:	7c 96                	jl     403237 <_ZN15CPU_MATHEMATICS9randomizeI10continuousIdS_EdEEvT_T0_S4_i._omp_fn.3+0x4a>
  4032a1:	eb 0d                	jmp    4032b0 <_ZN15CPU_MATHEMATICS9randomizeI10continuousIdS_EdEEvT_T0_S4_i._omp_fn.3+0xc3>
  4032a3:	b8 00 00 00 00       	mov    $0x0,%eax
  4032a8:	83 c1 01             	add    $0x1,%ecx
  4032ab:	e9 76 ff ff ff       	jmpq   403226 <_ZN15CPU_MATHEMATICS9randomizeI10continuousIdS_EdEEvT_T0_S4_i._omp_fn.3+0x39>
  4032b0:	48 83 c4 20          	add    $0x20,%rsp
  4032b4:	5b                   	pop    %rbx
  4032b5:	41 5c                	pop    %r12
  4032b7:	5d                   	pop    %rbp
  4032b8:	c3                   	retq   

00000000004032b9 <_ZNSt7__cxx119to_stringEi>:
  4032b9:	55                   	push   %rbp
  4032ba:	48 89 e5             	mov    %rsp,%rbp
  4032bd:	48 83 ec 20          	sub    $0x20,%rsp
  4032c1:	48 89 7d e8          	mov    %rdi,-0x18(%rbp)
  4032c5:	89 75 e4             	mov    %esi,-0x1c(%rbp)
  4032c8:	64 48 8b 04 25 28 00 	mov    %fs:0x28,%rax
  4032cf:	00 00 
  4032d1:	48 89 45 f8          	mov    %rax,-0x8(%rbp)
  4032d5:	31 c0                	xor    %eax,%eax
  4032d7:	be 10 00 00 00       	mov    $0x10,%esi
  4032dc:	48 8b 45 e8          	mov    -0x18(%rbp),%rax
  4032e0:	8b 55 e4             	mov    -0x1c(%rbp),%edx
  4032e3:	41 89 d0             	mov    %edx,%r8d
  4032e6:	b9 89 c6 40 00       	mov    $0x40c689,%ecx
  4032eb:	48 89 f2             	mov    %rsi,%rdx
  4032ee:	be 30 1d 40 00       	mov    $0x401d30,%esi
  4032f3:	48 89 c7             	mov    %rax,%rdi
  4032f6:	b8 00 00 00 00       	mov    $0x0,%eax
  4032fb:	e8 df 00 00 00       	callq  4033df <_ZN9__gnu_cxx12__to_xstringINSt7__cxx1112basic_stringIcSt11char_traitsIcESaIcEEEcEET_PFiPT0_mPKS8_P13__va_list_tagEmSB_z>
  403300:	48 8b 45 e8          	mov    -0x18(%rbp),%rax
  403304:	48 8b 4d f8          	mov    -0x8(%rbp),%rcx
  403308:	64 48 33 0c 25 28 00 	xor    %fs:0x28,%rcx
  40330f:	00 00 
  403311:	74 05                	je     403318 <_ZNSt7__cxx119to_stringEi+0x5f>
  403313:	e8 18 eb ff ff       	callq  401e30 <__stack_chk_fail@plt>
  403318:	c9                   	leaveq 
  403319:	c3                   	retq   

000000000040331a <_ZNSt7__cxx119to_stringEf>:
  40331a:	55                   	push   %rbp
  40331b:	48 89 e5             	mov    %rsp,%rbp
  40331e:	48 83 ec 20          	sub    $0x20,%rsp
  403322:	48 89 7d e8          	mov    %rdi,-0x18(%rbp)
  403326:	f3 0f 11 45 e4       	movss  %xmm0,-0x1c(%rbp)
  40332b:	64 48 8b 04 25 28 00 	mov    %fs:0x28,%rax
  403332:	00 00 
  403334:	48 89 45 f8          	mov    %rax,-0x8(%rbp)
  403338:	31 c0                	xor    %eax,%eax
  40333a:	c7 45 f4 3a 00 00 00 	movl   $0x3a,-0xc(%rbp)
  403341:	f3 0f 5a 45 e4       	cvtss2sd -0x1c(%rbp),%xmm0
  403346:	48 8b 45 e8          	mov    -0x18(%rbp),%rax
  40334a:	b9 8c c6 40 00       	mov    $0x40c68c,%ecx
  40334f:	ba 3a 00 00 00       	mov    $0x3a,%edx
  403354:	be 30 1d 40 00       	mov    $0x401d30,%esi
  403359:	48 89 c7             	mov    %rax,%rdi
  40335c:	b8 01 00 00 00       	mov    $0x1,%eax
  403361:	e8 79 00 00 00       	callq  4033df <_ZN9__gnu_cxx12__to_xstringINSt7__cxx1112basic_stringIcSt11char_traitsIcESaIcEEEcEET_PFiPT0_mPKS8_P13__va_list_tagEmSB_z>
  403366:	48 8b 45 e8          	mov    -0x18(%rbp),%rax
  40336a:	48 8b 55 f8          	mov    -0x8(%rbp),%rdx
  40336e:	64 48 33 14 25 28 00 	xor    %fs:0x28,%rdx
  403375:	00 00 
  403377:	74 05                	je     40337e <_ZNSt7__cxx119to_stringEf+0x64>
  403379:	e8 b2 ea ff ff       	callq  401e30 <__stack_chk_fail@plt>
  40337e:	c9                   	leaveq 
  40337f:	c3                   	retq   

0000000000403380 <_ZN10Tensor_AceD1Ev>:
  403380:	55                   	push   %rbp
  403381:	48 89 e5             	mov    %rsp,%rbp
  403384:	48 83 ec 10          	sub    $0x10,%rsp
  403388:	48 89 7d f8          	mov    %rdi,-0x8(%rbp)
  40338c:	ba 38 da 40 00       	mov    $0x40da38,%edx
  403391:	48 8b 45 f8          	mov    -0x8(%rbp),%rax
  403395:	48 89 10             	mov    %rdx,(%rax)
  403398:	b8 00 00 00 00       	mov    $0x0,%eax
  40339d:	85 c0                	test   %eax,%eax
  40339f:	74 11                	je     4033b2 <_ZN10Tensor_AceD1Ev+0x32>
  4033a1:	48 8b 45 f8          	mov    -0x8(%rbp),%rax
  4033a5:	be 08 00 00 00       	mov    $0x8,%esi
  4033aa:	48 89 c7             	mov    %rax,%rdi
  4033ad:	e8 1e ea ff ff       	callq  401dd0 <_ZdlPvm@plt>
  4033b2:	c9                   	leaveq 
  4033b3:	c3                   	retq   

00000000004033b4 <_ZN10Tensor_AceD0Ev>:
  4033b4:	55                   	push   %rbp
  4033b5:	48 89 e5             	mov    %rsp,%rbp
  4033b8:	48 83 ec 10          	sub    $0x10,%rsp
  4033bc:	48 89 7d f8          	mov    %rdi,-0x8(%rbp)
  4033c0:	48 8b 45 f8          	mov    -0x8(%rbp),%rax
  4033c4:	48 89 c7             	mov    %rax,%rdi
  4033c7:	e8 b4 ff ff ff       	callq  403380 <_ZN10Tensor_AceD1Ev>
  4033cc:	48 8b 45 f8          	mov    -0x8(%rbp),%rax
  4033d0:	be 08 00 00 00       	mov    $0x8,%esi
  4033d5:	48 89 c7             	mov    %rax,%rdi
  4033d8:	e8 f3 e9 ff ff       	callq  401dd0 <_ZdlPvm@plt>
  4033dd:	c9                   	leaveq 
  4033de:	c3                   	retq   

00000000004033df <_ZN9__gnu_cxx12__to_xstringINSt7__cxx1112basic_stringIcSt11char_traitsIcESaIcEEEcEET_PFiPT0_mPKS8_P13__va_list_tagEmSB_z>:
  4033df:	55                   	push   %rbp
  4033e0:	48 89 e5             	mov    %rsp,%rbp
  4033e3:	53                   	push   %rbx
  4033e4:	48 81 ec 08 01 00 00 	sub    $0x108,%rsp
  4033eb:	48 89 bd 08 ff ff ff 	mov    %rdi,-0xf8(%rbp)
  4033f2:	48 89 b5 00 ff ff ff 	mov    %rsi,-0x100(%rbp)
  4033f9:	48 89 95 f8 fe ff ff 	mov    %rdx,-0x108(%rbp)
  403400:	48 89 8d f0 fe ff ff 	mov    %rcx,-0x110(%rbp)
  403407:	4c 89 85 60 ff ff ff 	mov    %r8,-0xa0(%rbp)
  40340e:	4c 89 8d 68 ff ff ff 	mov    %r9,-0x98(%rbp)
  403415:	84 c0                	test   %al,%al
  403417:	74 23                	je     40343c <_ZN9__gnu_cxx12__to_xstringINSt7__cxx1112basic_stringIcSt11char_traitsIcESaIcEEEcEET_PFiPT0_mPKS8_P13__va_list_tagEmSB_z+0x5d>
  403419:	0f 29 85 70 ff ff ff 	movaps %xmm0,-0x90(%rbp)
  403420:	0f 29 4d 80          	movaps %xmm1,-0x80(%rbp)
  403424:	0f 29 55 90          	movaps %xmm2,-0x70(%rbp)
  403428:	0f 29 5d a0          	movaps %xmm3,-0x60(%rbp)
  40342c:	0f 29 65 b0          	movaps %xmm4,-0x50(%rbp)
  403430:	0f 29 6d c0          	movaps %xmm5,-0x40(%rbp)
  403434:	0f 29 75 d0          	movaps %xmm6,-0x30(%rbp)
  403438:	0f 29 7d e0          	movaps %xmm7,-0x20(%rbp)
  40343c:	64 48 8b 04 25 28 00 	mov    %fs:0x28,%rax
  403443:	00 00 
  403445:	48 89 85 38 ff ff ff 	mov    %rax,-0xc8(%rbp)
  40344c:	31 c0                	xor    %eax,%eax
  40344e:	48 8b 85 f8 fe ff ff 	mov    -0x108(%rbp),%rax
  403455:	48 8d 50 0f          	lea    0xf(%rax),%rdx
  403459:	b8 10 00 00 00       	mov    $0x10,%eax
  40345e:	48 83 e8 01          	sub    $0x1,%rax
  403462:	48 01 d0             	add    %rdx,%rax
  403465:	bb 10 00 00 00       	mov    $0x10,%ebx
  40346a:	ba 00 00 00 00       	mov    $0x0,%edx
  40346f:	48 f7 f3             	div    %rbx
  403472:	48 6b c0 10          	imul   $0x10,%rax,%rax
  403476:	48 29 c4             	sub    %rax,%rsp
  403479:	48 89 e0             	mov    %rsp,%rax
  40347c:	48 83 c0 0f          	add    $0xf,%rax
  403480:	48 c1 e8 04          	shr    $0x4,%rax
  403484:	48 c1 e0 04          	shl    $0x4,%rax
  403488:	48 89 85 18 ff ff ff 	mov    %rax,-0xe8(%rbp)
  40348f:	c7 85 20 ff ff ff 20 	movl   $0x20,-0xe0(%rbp)
  403496:	00 00 00 
  403499:	c7 85 24 ff ff ff 30 	movl   $0x30,-0xdc(%rbp)
  4034a0:	00 00 00 
  4034a3:	48 8d 45 10          	lea    0x10(%rbp),%rax
  4034a7:	48 89 85 28 ff ff ff 	mov    %rax,-0xd8(%rbp)
  4034ae:	48 8d 85 40 ff ff ff 	lea    -0xc0(%rbp),%rax
  4034b5:	48 89 85 30 ff ff ff 	mov    %rax,-0xd0(%rbp)
  4034bc:	48 8d 8d 20 ff ff ff 	lea    -0xe0(%rbp),%rcx
  4034c3:	48 8b 95 f0 fe ff ff 	mov    -0x110(%rbp),%rdx
  4034ca:	48 8b b5 f8 fe ff ff 	mov    -0x108(%rbp),%rsi
  4034d1:	48 8b bd 18 ff ff ff 	mov    -0xe8(%rbp),%rdi
  4034d8:	48 8b 85 00 ff ff ff 	mov    -0x100(%rbp),%rax
  4034df:	ff d0                	callq  *%rax
  4034e1:	89 85 14 ff ff ff    	mov    %eax,-0xec(%rbp)
  4034e7:	48 8d 85 13 ff ff ff 	lea    -0xed(%rbp),%rax
  4034ee:	48 89 c7             	mov    %rax,%rdi
  4034f1:	e8 aa ea ff ff       	callq  401fa0 <_ZNSaIcEC1Ev@plt>
  4034f6:	8b 85 14 ff ff ff    	mov    -0xec(%rbp),%eax
  4034fc:	48 63 d0             	movslq %eax,%rdx
  4034ff:	48 8b 85 18 ff ff ff 	mov    -0xe8(%rbp),%rax
  403506:	48 8d 3c 02          	lea    (%rdx,%rax,1),%rdi
  40350a:	48 8d 95 13 ff ff ff 	lea    -0xed(%rbp),%rdx
  403511:	48 8b b5 18 ff ff ff 	mov    -0xe8(%rbp),%rsi
  403518:	48 8b 85 08 ff ff ff 	mov    -0xf8(%rbp),%rax
  40351f:	48 89 d1             	mov    %rdx,%rcx
  403522:	48 89 fa             	mov    %rdi,%rdx
  403525:	48 89 c7             	mov    %rax,%rdi
  403528:	e8 07 1e 00 00       	callq  405334 <_ZNSt7__cxx1112basic_stringIcSt11char_traitsIcESaIcEEC1IPcvEET_S7_RKS3_>
  40352d:	48 8d 85 13 ff ff ff 	lea    -0xed(%rbp),%rax
  403534:	48 89 c7             	mov    %rax,%rdi
  403537:	e8 d4 e8 ff ff       	callq  401e10 <_ZNSaIcED1Ev@plt>
  40353c:	48 8b 85 08 ff ff ff 	mov    -0xf8(%rbp),%rax
  403543:	48 8b 9d 38 ff ff ff 	mov    -0xc8(%rbp),%rbx
  40354a:	64 48 33 1c 25 28 00 	xor    %fs:0x28,%rbx
  403551:	00 00 
  403553:	74 24                	je     403579 <_ZN9__gnu_cxx12__to_xstringINSt7__cxx1112basic_stringIcSt11char_traitsIcESaIcEEEcEET_PFiPT0_mPKS8_P13__va_list_tagEmSB_z+0x19a>
  403555:	eb 1d                	jmp    403574 <_ZN9__gnu_cxx12__to_xstringINSt7__cxx1112basic_stringIcSt11char_traitsIcESaIcEEEcEET_PFiPT0_mPKS8_P13__va_list_tagEmSB_z+0x195>
  403557:	48 89 c3             	mov    %rax,%rbx
  40355a:	48 8d 85 13 ff ff ff 	lea    -0xed(%rbp),%rax
  403561:	48 89 c7             	mov    %rax,%rdi
  403564:	e8 a7 e8 ff ff       	callq  401e10 <_ZNSaIcED1Ev@plt>
  403569:	48 89 d8             	mov    %rbx,%rax
  40356c:	48 89 c7             	mov    %rax,%rdi
  40356f:	e8 1c ea ff ff       	callq  401f90 <_Unwind_Resume@plt>
  403574:	e8 b7 e8 ff ff       	callq  401e30 <__stack_chk_fail@plt>
  403579:	48 8b 5d f8          	mov    -0x8(%rbp),%rbx
  40357d:	c9                   	leaveq 
  40357e:	c3                   	retq   
  40357f:	90                   	nop

0000000000403580 <_ZNSt7__cxx1112basic_stringIcSt11char_traitsIcESaIcEE12_Alloc_hiderD1Ev>:
  403580:	55                   	push   %rbp
  403581:	48 89 e5             	mov    %rsp,%rbp
  403584:	48 83 ec 10          	sub    $0x10,%rsp
  403588:	48 89 7d f8          	mov    %rdi,-0x8(%rbp)
  40358c:	48 8b 45 f8          	mov    -0x8(%rbp),%rax
  403590:	48 89 c7             	mov    %rax,%rdi
  403593:	e8 18 e7 ff ff       	callq  401cb0 <_ZNSaIcED2Ev@plt>
  403598:	90                   	nop
  403599:	c9                   	leaveq 
  40359a:	c3                   	retq   
  40359b:	90                   	nop

000000000040359c <_ZN12Tensor_QueenIf15CPU_MATHEMATICS10continuousIfS0_EEC1ESt16initializer_listIiE>:
  40359c:	55                   	push   %rbp
  40359d:	48 89 e5             	mov    %rsp,%rbp
  4035a0:	48 83 ec 20          	sub    $0x20,%rsp
  4035a4:	48 89 7d f8          	mov    %rdi,-0x8(%rbp)
  4035a8:	48 89 f0             	mov    %rsi,%rax
  4035ab:	48 89 d1             	mov    %rdx,%rcx
  4035ae:	48 89 ca             	mov    %rcx,%rdx
  4035b1:	48 89 45 e0          	mov    %rax,-0x20(%rbp)
  4035b5:	48 89 55 e8          	mov    %rdx,-0x18(%rbp)
  4035b9:	48 8b 45 f8          	mov    -0x8(%rbp),%rax
  4035bd:	48 8b 55 e0          	mov    -0x20(%rbp),%rdx
  4035c1:	48 8b 75 e8          	mov    -0x18(%rbp),%rsi
  4035c5:	48 89 d1             	mov    %rdx,%rcx
  4035c8:	49 89 f0             	mov    %rsi,%r8
  4035cb:	ba 01 00 00 00       	mov    $0x1,%edx
  4035d0:	be 01 00 00 00       	mov    $0x1,%esi
  4035d5:	48 89 c7             	mov    %rax,%rdi
  4035d8:	e8 e5 1d 00 00       	callq  4053c2 <_ZN11Tensor_KingIf15CPU_MATHEMATICS10continuousIfS0_EEC1IISt16initializer_listIiEEEEbbDpT_>
  4035dd:	ba d8 d8 40 00       	mov    $0x40d8d8,%edx
  4035e2:	48 8b 45 f8          	mov    -0x8(%rbp),%rax
  4035e6:	48 89 10             	mov    %rdx,(%rax)
  4035e9:	90                   	nop
  4035ea:	c9                   	leaveq 
  4035eb:	c3                   	retq   

00000000004035ec <_ZN10Tensor_AceC1ERKS_>:
  4035ec:	55                   	push   %rbp
  4035ed:	48 89 e5             	mov    %rsp,%rbp
  4035f0:	48 89 7d f8          	mov    %rdi,-0x8(%rbp)
  4035f4:	48 89 75 f0          	mov    %rsi,-0x10(%rbp)
  4035f8:	ba 38 da 40 00       	mov    $0x40da38,%edx
  4035fd:	48 8b 45 f8          	mov    -0x8(%rbp),%rax
  403601:	48 89 10             	mov    %rdx,(%rax)
  403604:	90                   	nop
  403605:	5d                   	pop    %rbp
  403606:	c3                   	retq   
  403607:	90                   	nop

0000000000403608 <_ZN12accessor_aceIf15CPU_MATHEMATICSEC1ERKS1_>:
  403608:	55                   	push   %rbp
  403609:	48 89 e5             	mov    %rsp,%rbp
  40360c:	48 83 ec 10          	sub    $0x10,%rsp
  403610:	48 89 7d f8          	mov    %rdi,-0x8(%rbp)
  403614:	48 89 75 f0          	mov    %rsi,-0x10(%rbp)
  403618:	48 8b 55 f0          	mov    -0x10(%rbp),%rdx
  40361c:	48 8b 45 f8          	mov    -0x8(%rbp),%rax
  403620:	48 89 d6             	mov    %rdx,%rsi
  403623:	48 89 c7             	mov    %rax,%rdi
  403626:	e8 c1 ff ff ff       	callq  4035ec <_ZN10Tensor_AceC1ERKS_>
  40362b:	ba c8 d9 40 00       	mov    $0x40d9c8,%edx
  403630:	48 8b 45 f8          	mov    -0x8(%rbp),%rax
  403634:	48 89 10             	mov    %rdx,(%rax)
  403637:	90                   	nop
  403638:	c9                   	leaveq 
  403639:	c3                   	retq   

000000000040363a <_ZN12accessor_aceIf15CPU_MATHEMATICSED1Ev>:
  40363a:	55                   	push   %rbp
  40363b:	48 89 e5             	mov    %rsp,%rbp
  40363e:	48 83 ec 10          	sub    $0x10,%rsp
  403642:	48 89 7d f8          	mov    %rdi,-0x8(%rbp)
  403646:	ba c8 d9 40 00       	mov    $0x40d9c8,%edx
  40364b:	48 8b 45 f8          	mov    -0x8(%rbp),%rax
  40364f:	48 89 10             	mov    %rdx,(%rax)
  403652:	48 8b 45 f8          	mov    -0x8(%rbp),%rax
  403656:	48 89 c7             	mov    %rax,%rdi
  403659:	e8 22 fd ff ff       	callq  403380 <_ZN10Tensor_AceD1Ev>
  40365e:	b8 00 00 00 00       	mov    $0x0,%eax
  403663:	85 c0                	test   %eax,%eax
  403665:	74 11                	je     403678 <_ZN12accessor_aceIf15CPU_MATHEMATICSED1Ev+0x3e>
  403667:	48 8b 45 f8          	mov    -0x8(%rbp),%rax
  40366b:	be 08 00 00 00       	mov    $0x8,%esi
  403670:	48 89 c7             	mov    %rax,%rdi
  403673:	e8 58 e7 ff ff       	callq  401dd0 <_ZdlPvm@plt>
  403678:	c9                   	leaveq 
  403679:	c3                   	retq   

000000000040367a <_ZN12accessor_aceIf15CPU_MATHEMATICSED0Ev>:
  40367a:	55                   	push   %rbp
  40367b:	48 89 e5             	mov    %rsp,%rbp
  40367e:	48 83 ec 10          	sub    $0x10,%rsp
  403682:	48 89 7d f8          	mov    %rdi,-0x8(%rbp)
  403686:	48 8b 45 f8          	mov    -0x8(%rbp),%rax
  40368a:	48 89 c7             	mov    %rax,%rdi
  40368d:	e8 a8 ff ff ff       	callq  40363a <_ZN12accessor_aceIf15CPU_MATHEMATICSED1Ev>
  403692:	48 8b 45 f8          	mov    -0x8(%rbp),%rax
  403696:	be 08 00 00 00       	mov    $0x8,%esi
  40369b:	48 89 c7             	mov    %rax,%rdi
  40369e:	e8 2d e7 ff ff       	callq  401dd0 <_ZdlPvm@plt>
  4036a3:	c9                   	leaveq 
  4036a4:	c3                   	retq   
  4036a5:	90                   	nop

00000000004036a6 <_ZN10continuousIf15CPU_MATHEMATICSEC1ERKS1_>:
  4036a6:	55                   	push   %rbp
  4036a7:	48 89 e5             	mov    %rsp,%rbp
  4036aa:	48 83 ec 10          	sub    $0x10,%rsp
  4036ae:	48 89 7d f8          	mov    %rdi,-0x8(%rbp)
  4036b2:	48 89 75 f0          	mov    %rsi,-0x10(%rbp)
  4036b6:	48 8b 55 f0          	mov    -0x10(%rbp),%rdx
  4036ba:	48 8b 45 f8          	mov    -0x8(%rbp),%rax
  4036be:	48 89 d6             	mov    %rdx,%rsi
  4036c1:	48 89 c7             	mov    %rax,%rdi
  4036c4:	e8 3f ff ff ff       	callq  403608 <_ZN12accessor_aceIf15CPU_MATHEMATICSEC1ERKS1_>
  4036c9:	ba 58 d9 40 00       	mov    $0x40d958,%edx
  4036ce:	48 8b 45 f8          	mov    -0x8(%rbp),%rax
  4036d2:	48 89 10             	mov    %rdx,(%rax)
  4036d5:	48 8b 45 f0          	mov    -0x10(%rbp),%rax
  4036d9:	48 8b 50 08          	mov    0x8(%rax),%rdx
  4036dd:	48 8b 45 f8          	mov    -0x8(%rbp),%rax
  4036e1:	48 89 50 08          	mov    %rdx,0x8(%rax)
  4036e5:	48 8b 45 f0          	mov    -0x10(%rbp),%rax
  4036e9:	48 8b 50 10          	mov    0x10(%rax),%rdx
  4036ed:	48 8b 45 f8          	mov    -0x8(%rbp),%rax
  4036f1:	48 89 50 10          	mov    %rdx,0x10(%rax)
  4036f5:	48 8b 45 f0          	mov    -0x10(%rbp),%rax
  4036f9:	8b 50 18             	mov    0x18(%rax),%edx
  4036fc:	48 8b 45 f8          	mov    -0x8(%rbp),%rax
  403700:	89 50 18             	mov    %edx,0x18(%rax)
  403703:	90                   	nop
  403704:	c9                   	leaveq 
  403705:	c3                   	retq   

0000000000403706 <_ZN10continuousIf15CPU_MATHEMATICSED1Ev>:
  403706:	55                   	push   %rbp
  403707:	48 89 e5             	mov    %rsp,%rbp
  40370a:	48 83 ec 10          	sub    $0x10,%rsp
  40370e:	48 89 7d f8          	mov    %rdi,-0x8(%rbp)
  403712:	ba 58 d9 40 00       	mov    $0x40d958,%edx
  403717:	48 8b 45 f8          	mov    -0x8(%rbp),%rax
  40371b:	48 89 10             	mov    %rdx,(%rax)
  40371e:	48 8b 45 f8          	mov    -0x8(%rbp),%rax
  403722:	48 89 c7             	mov    %rax,%rdi
  403725:	e8 10 ff ff ff       	callq  40363a <_ZN12accessor_aceIf15CPU_MATHEMATICSED1Ev>
  40372a:	b8 00 00 00 00       	mov    $0x0,%eax
  40372f:	85 c0                	test   %eax,%eax
  403731:	74 11                	je     403744 <_ZN10continuousIf15CPU_MATHEMATICSED1Ev+0x3e>
  403733:	48 8b 45 f8          	mov    -0x8(%rbp),%rax
  403737:	be 20 00 00 00       	mov    $0x20,%esi
  40373c:	48 89 c7             	mov    %rax,%rdi
  40373f:	e8 8c e6 ff ff       	callq  401dd0 <_ZdlPvm@plt>
  403744:	c9                   	leaveq 
  403745:	c3                   	retq   

0000000000403746 <_ZN10continuousIf15CPU_MATHEMATICSED0Ev>:
  403746:	55                   	push   %rbp
  403747:	48 89 e5             	mov    %rsp,%rbp
  40374a:	48 83 ec 10          	sub    $0x10,%rsp
  40374e:	48 89 7d f8          	mov    %rdi,-0x8(%rbp)
  403752:	48 8b 45 f8          	mov    -0x8(%rbp),%rax
  403756:	48 89 c7             	mov    %rax,%rdi
  403759:	e8 a8 ff ff ff       	callq  403706 <_ZN10continuousIf15CPU_MATHEMATICSED1Ev>
  40375e:	48 8b 45 f8          	mov    -0x8(%rbp),%rax
  403762:	be 20 00 00 00       	mov    $0x20,%esi
  403767:	48 89 c7             	mov    %rax,%rdi
  40376a:	e8 61 e6 ff ff       	callq  401dd0 <_ZdlPvm@plt>
  40376f:	c9                   	leaveq 
  403770:	c3                   	retq   
  403771:	90                   	nop

0000000000403772 <_ZN12Tensor_QueenIf15CPU_MATHEMATICS10continuousIfS0_EE9randomizeEff>:
  403772:	55                   	push   %rbp
  403773:	48 89 e5             	mov    %rsp,%rbp
  403776:	53                   	push   %rbx
  403777:	48 83 ec 58          	sub    $0x58,%rsp
  40377b:	48 89 7d b8          	mov    %rdi,-0x48(%rbp)
  40377f:	f3 0f 11 45 b4       	movss  %xmm0,-0x4c(%rbp)
  403784:	f3 0f 11 4d b0       	movss  %xmm1,-0x50(%rbp)
  403789:	64 48 8b 04 25 28 00 	mov    %fs:0x28,%rax
  403790:	00 00 
  403792:	48 89 45 e8          	mov    %rax,-0x18(%rbp)
  403796:	31 c0                	xor    %eax,%eax
  403798:	48 8b 45 b8          	mov    -0x48(%rbp),%rax
  40379c:	48 89 c7             	mov    %rax,%rdi
  40379f:	e8 8e 10 00 00       	callq  404832 <_ZNK11Tensor_KingIf15CPU_MATHEMATICS10continuousIfS0_EE4sizeEv>
  4037a4:	89 c3                	mov    %eax,%ebx
  4037a6:	48 8b 45 b8          	mov    -0x48(%rbp),%rax
  4037aa:	48 8d 50 08          	lea    0x8(%rax),%rdx
  4037ae:	48 8d 45 c0          	lea    -0x40(%rbp),%rax
  4037b2:	48 89 d6             	mov    %rdx,%rsi
  4037b5:	48 89 c7             	mov    %rax,%rdi
  4037b8:	e8 e9 fe ff ff       	callq  4036a6 <_ZN10continuousIf15CPU_MATHEMATICSEC1ERKS1_>
  4037bd:	f3 0f 10 45 b0       	movss  -0x50(%rbp),%xmm0
  4037c2:	8b 55 b4             	mov    -0x4c(%rbp),%edx
  4037c5:	48 8d 45 c0          	lea    -0x40(%rbp),%rax
  4037c9:	89 de                	mov    %ebx,%esi
  4037cb:	0f 28 c8             	movaps %xmm0,%xmm1
  4037ce:	89 55 ac             	mov    %edx,-0x54(%rbp)
  4037d1:	f3 0f 10 45 ac       	movss  -0x54(%rbp),%xmm0
  4037d6:	48 89 c7             	mov    %rax,%rdi
  4037d9:	e8 41 1d 00 00       	callq  40551f <_ZN15CPU_MATHEMATICS9randomizeI10continuousIfS_EfEEvT_T0_S4_i>
  4037de:	48 8d 45 c0          	lea    -0x40(%rbp),%rax
  4037e2:	48 89 c7             	mov    %rax,%rdi
  4037e5:	e8 1c ff ff ff       	callq  403706 <_ZN10continuousIf15CPU_MATHEMATICSED1Ev>
  4037ea:	90                   	nop
  4037eb:	48 8b 45 e8          	mov    -0x18(%rbp),%rax
  4037ef:	64 48 33 04 25 28 00 	xor    %fs:0x28,%rax
  4037f6:	00 00 
  4037f8:	74 05                	je     4037ff <_ZN12Tensor_QueenIf15CPU_MATHEMATICS10continuousIfS0_EE9randomizeEff+0x8d>
  4037fa:	e8 31 e6 ff ff       	callq  401e30 <__stack_chk_fail@plt>
  4037ff:	48 83 c4 58          	add    $0x58,%rsp
  403803:	5b                   	pop    %rbx
  403804:	5d                   	pop    %rbp
  403805:	c3                   	retq   

0000000000403806 <_ZNK12Tensor_QueenIf15CPU_MATHEMATICS10continuousIfS0_EE5printEv>:
  403806:	55                   	push   %rbp
  403807:	48 89 e5             	mov    %rsp,%rbp
  40380a:	41 56                	push   %r14
  40380c:	41 55                	push   %r13
  40380e:	41 54                	push   %r12
  403810:	53                   	push   %rbx
  403811:	48 83 ec 60          	sub    $0x60,%rsp
  403815:	48 89 7d 88          	mov    %rdi,-0x78(%rbp)
  403819:	64 48 8b 04 25 28 00 	mov    %fs:0x28,%rax
  403820:	00 00 
  403822:	48 89 45 d8          	mov    %rax,-0x28(%rbp)
  403826:	31 c0                	xor    %eax,%eax
  403828:	48 8b 45 88          	mov    -0x78(%rbp),%rax
  40382c:	48 83 c0 08          	add    $0x8,%rax
  403830:	48 89 c7             	mov    %rax,%rdi
  403833:	e8 82 1d 00 00       	callq  4055ba <_ZNK10continuousIf15CPU_MATHEMATICSE8hasShapeEv>
  403838:	bb 00 00 00 00       	mov    $0x0,%ebx
  40383d:	41 bc 00 00 00 00    	mov    $0x0,%r12d
  403843:	84 c0                	test   %al,%al
  403845:	74 57                	je     40389e <_ZNK12Tensor_QueenIf15CPU_MATHEMATICS10continuousIfS0_EE5printEv+0x98>
  403847:	48 8b 45 88          	mov    -0x78(%rbp),%rax
  40384b:	48 89 c7             	mov    %rax,%rdi
  40384e:	e8 89 1d 00 00       	callq  4055dc <_ZNK11Tensor_KingIf15CPU_MATHEMATICS10continuousIfS0_EE5orderEv>
  403853:	41 89 c6             	mov    %eax,%r14d
  403856:	48 8b 45 88          	mov    -0x78(%rbp),%rax
  40385a:	48 83 c0 08          	add    $0x8,%rax
  40385e:	48 89 c7             	mov    %rax,%rdi
  403861:	e8 64 1d 00 00       	callq  4055ca <_ZNK10continuousIf15CPU_MATHEMATICSE8getShapeEv>
  403866:	49 89 c5             	mov    %rax,%r13
  403869:	48 8b 45 88          	mov    -0x78(%rbp),%rax
  40386d:	48 8d 50 08          	lea    0x8(%rax),%rdx
  403871:	48 8d 45 90          	lea    -0x70(%rbp),%rax
  403875:	48 89 d6             	mov    %rdx,%rsi
  403878:	48 89 c7             	mov    %rax,%rdi
  40387b:	e8 26 fe ff ff       	callq  4036a6 <_ZN10continuousIf15CPU_MATHEMATICSEC1ERKS1_>
  403880:	bb 01 00 00 00       	mov    $0x1,%ebx
  403885:	48 8d 45 90          	lea    -0x70(%rbp),%rax
  403889:	b9 05 00 00 00       	mov    $0x5,%ecx
  40388e:	44 89 f2             	mov    %r14d,%edx
  403891:	4c 89 ee             	mov    %r13,%rsi
  403894:	48 89 c7             	mov    %rax,%rdi
  403897:	e8 5e 1d 00 00       	callq  4055fa <_ZN15CPU_MATHEMATICS5printI10continuousIfS_EEEvT_PKiii>
  40389c:	eb 40                	jmp    4038de <_ZNK12Tensor_QueenIf15CPU_MATHEMATICS10continuousIfS0_EE5printEv+0xd8>
  40389e:	48 8b 45 88          	mov    -0x78(%rbp),%rax
  4038a2:	48 89 c7             	mov    %rax,%rdi
  4038a5:	e8 88 0f 00 00       	callq  404832 <_ZNK11Tensor_KingIf15CPU_MATHEMATICS10continuousIfS0_EE4sizeEv>
  4038aa:	41 89 c5             	mov    %eax,%r13d
  4038ad:	48 8b 45 88          	mov    -0x78(%rbp),%rax
  4038b1:	48 8d 50 08          	lea    0x8(%rax),%rdx
  4038b5:	48 8d 45 b0          	lea    -0x50(%rbp),%rax
  4038b9:	48 89 d6             	mov    %rdx,%rsi
  4038bc:	48 89 c7             	mov    %rax,%rdi
  4038bf:	e8 e2 fd ff ff       	callq  4036a6 <_ZN10continuousIf15CPU_MATHEMATICSEC1ERKS1_>
  4038c4:	41 bc 01 00 00 00    	mov    $0x1,%r12d
  4038ca:	48 8d 45 b0          	lea    -0x50(%rbp),%rax
  4038ce:	ba 05 00 00 00       	mov    $0x5,%edx
  4038d3:	44 89 ee             	mov    %r13d,%esi
  4038d6:	48 89 c7             	mov    %rax,%rdi
  4038d9:	e8 72 1e 00 00       	callq  405750 <_ZN15CPU_MATHEMATICS5printI10continuousIfS_EEEvT_ii>
  4038de:	45 84 e4             	test   %r12b,%r12b
  4038e1:	74 0c                	je     4038ef <_ZNK12Tensor_QueenIf15CPU_MATHEMATICS10continuousIfS0_EE5printEv+0xe9>
  4038e3:	48 8d 45 b0          	lea    -0x50(%rbp),%rax
  4038e7:	48 89 c7             	mov    %rax,%rdi
  4038ea:	e8 17 fe ff ff       	callq  403706 <_ZN10continuousIf15CPU_MATHEMATICSED1Ev>
  4038ef:	84 db                	test   %bl,%bl
  4038f1:	74 0f                	je     403902 <_ZNK12Tensor_QueenIf15CPU_MATHEMATICS10continuousIfS0_EE5printEv+0xfc>
  4038f3:	90                   	nop
  4038f4:	48 8d 45 90          	lea    -0x70(%rbp),%rax
  4038f8:	48 89 c7             	mov    %rax,%rdi
  4038fb:	e8 06 fe ff ff       	callq  403706 <_ZN10continuousIf15CPU_MATHEMATICSED1Ev>
  403900:	eb 39                	jmp    40393b <_ZNK12Tensor_QueenIf15CPU_MATHEMATICS10continuousIfS0_EE5printEv+0x135>
  403902:	90                   	nop
  403903:	eb 36                	jmp    40393b <_ZNK12Tensor_QueenIf15CPU_MATHEMATICS10continuousIfS0_EE5printEv+0x135>
  403905:	49 89 c5             	mov    %rax,%r13
  403908:	45 84 e4             	test   %r12b,%r12b
  40390b:	74 0c                	je     403919 <_ZNK12Tensor_QueenIf15CPU_MATHEMATICS10continuousIfS0_EE5printEv+0x113>
  40390d:	48 8d 45 b0          	lea    -0x50(%rbp),%rax
  403911:	48 89 c7             	mov    %rax,%rdi
  403914:	e8 ed fd ff ff       	callq  403706 <_ZN10continuousIf15CPU_MATHEMATICSED1Ev>
  403919:	4d 89 ec             	mov    %r13,%r12
  40391c:	84 db                	test   %bl,%bl
  40391e:	74 0f                	je     40392f <_ZNK12Tensor_QueenIf15CPU_MATHEMATICS10continuousIfS0_EE5printEv+0x129>
  403920:	90                   	nop
  403921:	48 8d 45 90          	lea    -0x70(%rbp),%rax
  403925:	48 89 c7             	mov    %rax,%rdi
  403928:	e8 d9 fd ff ff       	callq  403706 <_ZN10continuousIf15CPU_MATHEMATICSED1Ev>
  40392d:	eb 01                	jmp    403930 <_ZNK12Tensor_QueenIf15CPU_MATHEMATICS10continuousIfS0_EE5printEv+0x12a>
  40392f:	90                   	nop
  403930:	4c 89 e0             	mov    %r12,%rax
  403933:	48 89 c7             	mov    %rax,%rdi
  403936:	e8 55 e6 ff ff       	callq  401f90 <_Unwind_Resume@plt>
  40393b:	48 8b 45 d8          	mov    -0x28(%rbp),%rax
  40393f:	64 48 33 04 25 28 00 	xor    %fs:0x28,%rax
  403946:	00 00 
  403948:	74 05                	je     40394f <_ZNK12Tensor_QueenIf15CPU_MATHEMATICS10continuousIfS0_EE5printEv+0x149>
  40394a:	e8 e1 e4 ff ff       	callq  401e30 <__stack_chk_fail@plt>
  40394f:	48 83 c4 60          	add    $0x60,%rsp
  403953:	5b                   	pop    %rbx
  403954:	41 5c                	pop    %r12
  403956:	41 5d                	pop    %r13
  403958:	41 5e                	pop    %r14
  40395a:	5d                   	pop    %rbp
  40395b:	c3                   	retq   

000000000040395c <_ZN7pBufferIf15CPU_MATHEMATICS10continuousIfS0_ES2_N9Operation3mulIfEEEC1ERKS6_>:
  40395c:	55                   	push   %rbp
  40395d:	48 89 e5             	mov    %rsp,%rbp
  403960:	48 83 ec 10          	sub    $0x10,%rsp
  403964:	48 89 7d f8          	mov    %rdi,-0x8(%rbp)
  403968:	48 89 75 f0          	mov    %rsi,-0x10(%rbp)
  40396c:	48 8b 55 f0          	mov    -0x10(%rbp),%rdx
  403970:	48 8b 45 f8          	mov    -0x8(%rbp),%rax
  403974:	48 89 d6             	mov    %rdx,%rsi
  403977:	48 89 c7             	mov    %rax,%rdi
  40397a:	e8 89 fc ff ff       	callq  403608 <_ZN12accessor_aceIf15CPU_MATHEMATICSEC1ERKS1_>
  40397f:	ba 68 d8 40 00       	mov    $0x40d868,%edx
  403984:	48 8b 45 f8          	mov    -0x8(%rbp),%rax
  403988:	48 89 10             	mov    %rdx,(%rax)
  40398b:	48 8b 45 f0          	mov    -0x10(%rbp),%rax
  40398f:	48 8d 50 10          	lea    0x10(%rax),%rdx
  403993:	48 8b 45 f8          	mov    -0x8(%rbp),%rax
  403997:	48 83 c0 10          	add    $0x10,%rax
  40399b:	48 89 d6             	mov    %rdx,%rsi
  40399e:	48 89 c7             	mov    %rax,%rdi
  4039a1:	e8 00 fd ff ff       	callq  4036a6 <_ZN10continuousIf15CPU_MATHEMATICSEC1ERKS1_>
  4039a6:	48 8b 45 f0          	mov    -0x10(%rbp),%rax
  4039aa:	48 8d 50 30          	lea    0x30(%rax),%rdx
  4039ae:	48 8b 45 f8          	mov    -0x8(%rbp),%rax
  4039b2:	48 83 c0 30          	add    $0x30,%rax
  4039b6:	48 89 d6             	mov    %rdx,%rsi
  4039b9:	48 89 c7             	mov    %rax,%rdi
  4039bc:	e8 e5 fc ff ff       	callq  4036a6 <_ZN10continuousIf15CPU_MATHEMATICSEC1ERKS1_>
  4039c1:	90                   	nop
  4039c2:	c9                   	leaveq 
  4039c3:	c3                   	retq   

00000000004039c4 <_ZN7pBufferIf15CPU_MATHEMATICS10continuousIfS0_ES2_N9Operation3mulIfEEED1Ev>:
  4039c4:	55                   	push   %rbp
  4039c5:	48 89 e5             	mov    %rsp,%rbp
  4039c8:	48 83 ec 10          	sub    $0x10,%rsp
  4039cc:	48 89 7d f8          	mov    %rdi,-0x8(%rbp)
  4039d0:	ba 68 d8 40 00       	mov    $0x40d868,%edx
  4039d5:	48 8b 45 f8          	mov    -0x8(%rbp),%rax
  4039d9:	48 89 10             	mov    %rdx,(%rax)
  4039dc:	48 8b 45 f8          	mov    -0x8(%rbp),%rax
  4039e0:	48 83 c0 30          	add    $0x30,%rax
  4039e4:	48 89 c7             	mov    %rax,%rdi
  4039e7:	e8 1a fd ff ff       	callq  403706 <_ZN10continuousIf15CPU_MATHEMATICSED1Ev>
  4039ec:	48 8b 45 f8          	mov    -0x8(%rbp),%rax
  4039f0:	48 83 c0 10          	add    $0x10,%rax
  4039f4:	48 89 c7             	mov    %rax,%rdi
  4039f7:	e8 0a fd ff ff       	callq  403706 <_ZN10continuousIf15CPU_MATHEMATICSED1Ev>
  4039fc:	48 8b 45 f8          	mov    -0x8(%rbp),%rax
  403a00:	48 89 c7             	mov    %rax,%rdi
  403a03:	e8 32 fc ff ff       	callq  40363a <_ZN12accessor_aceIf15CPU_MATHEMATICSED1Ev>
  403a08:	b8 00 00 00 00       	mov    $0x0,%eax
  403a0d:	85 c0                	test   %eax,%eax
  403a0f:	74 11                	je     403a22 <_ZN7pBufferIf15CPU_MATHEMATICS10continuousIfS0_ES2_N9Operation3mulIfEEED1Ev+0x5e>
  403a11:	48 8b 45 f8          	mov    -0x8(%rbp),%rax
  403a15:	be 50 00 00 00       	mov    $0x50,%esi
  403a1a:	48 89 c7             	mov    %rax,%rdi
  403a1d:	e8 ae e3 ff ff       	callq  401dd0 <_ZdlPvm@plt>
  403a22:	c9                   	leaveq 
  403a23:	c3                   	retq   

0000000000403a24 <_ZN7pBufferIf15CPU_MATHEMATICS10continuousIfS0_ES2_N9Operation3mulIfEEED0Ev>:
  403a24:	55                   	push   %rbp
  403a25:	48 89 e5             	mov    %rsp,%rbp
  403a28:	48 83 ec 10          	sub    $0x10,%rsp
  403a2c:	48 89 7d f8          	mov    %rdi,-0x8(%rbp)
  403a30:	48 8b 45 f8          	mov    -0x8(%rbp),%rax
  403a34:	48 89 c7             	mov    %rax,%rdi
  403a37:	e8 88 ff ff ff       	callq  4039c4 <_ZN7pBufferIf15CPU_MATHEMATICS10continuousIfS0_ES2_N9Operation3mulIfEEED1Ev>
  403a3c:	48 8b 45 f8          	mov    -0x8(%rbp),%rax
  403a40:	be 50 00 00 00       	mov    $0x50,%esi
  403a45:	48 89 c7             	mov    %rax,%rdi
  403a48:	e8 83 e3 ff ff       	callq  401dd0 <_ZdlPvm@plt>
  403a4d:	c9                   	leaveq 
  403a4e:	c3                   	retq   
  403a4f:	90                   	nop

0000000000403a50 <_ZN12Tensor_QueenIf15CPU_MATHEMATICS10continuousIfS0_EErmIfS2_EES_IfS0_7pBufferIfS0_S2_T0_N9Operation3mulIfEEEERKS_IT_S0_S6_E>:
  403a50:	55                   	push   %rbp
  403a51:	48 89 e5             	mov    %rsp,%rbp
  403a54:	53                   	push   %rbx
  403a55:	48 83 ec 78          	sub    $0x78,%rsp
  403a59:	48 89 7d 98          	mov    %rdi,-0x68(%rbp)
  403a5d:	48 89 75 90          	mov    %rsi,-0x70(%rbp)
  403a61:	48 89 55 88          	mov    %rdx,-0x78(%rbp)
  403a65:	64 48 8b 04 25 28 00 	mov    %fs:0x28,%rax
  403a6c:	00 00 
  403a6e:	48 89 45 e8          	mov    %rax,-0x18(%rbp)
  403a72:	31 c0                	xor    %eax,%eax
  403a74:	48 8b 45 88          	mov    -0x78(%rbp),%rax
  403a78:	48 8d 50 08          	lea    0x8(%rax),%rdx
  403a7c:	48 8d 45 c0          	lea    -0x40(%rbp),%rax
  403a80:	48 89 d6             	mov    %rdx,%rsi
  403a83:	48 89 c7             	mov    %rax,%rdi
  403a86:	e8 1b fc ff ff       	callq  4036a6 <_ZN10continuousIf15CPU_MATHEMATICSEC1ERKS1_>
  403a8b:	48 8b 45 90          	mov    -0x70(%rbp),%rax
  403a8f:	48 8d 50 08          	lea    0x8(%rax),%rdx
  403a93:	48 8d 45 a0          	lea    -0x60(%rbp),%rax
  403a97:	48 89 d6             	mov    %rdx,%rsi
  403a9a:	48 89 c7             	mov    %rax,%rdi
  403a9d:	e8 04 fc ff ff       	callq  4036a6 <_ZN10continuousIf15CPU_MATHEMATICSEC1ERKS1_>
  403aa2:	48 8d 4d c0          	lea    -0x40(%rbp),%rcx
  403aa6:	48 8d 55 a0          	lea    -0x60(%rbp),%rdx
  403aaa:	48 8b 45 98          	mov    -0x68(%rbp),%rax
  403aae:	be 00 00 00 00       	mov    $0x0,%esi
  403ab3:	48 89 c7             	mov    %rax,%rdi
  403ab6:	e8 11 1e 00 00       	callq  4058cc <_ZN12Tensor_QueenIf15CPU_MATHEMATICS7pBufferIfS0_10continuousIfS0_ES3_N9Operation3mulIfEEEEC1IIS3_S3_EEEbDpT_>
  403abb:	48 8d 45 a0          	lea    -0x60(%rbp),%rax
  403abf:	48 89 c7             	mov    %rax,%rdi
  403ac2:	e8 3f fc ff ff       	callq  403706 <_ZN10continuousIf15CPU_MATHEMATICSED1Ev>
  403ac7:	48 8d 45 c0          	lea    -0x40(%rbp),%rax
  403acb:	48 89 c7             	mov    %rax,%rdi
  403ace:	e8 33 fc ff ff       	callq  403706 <_ZN10continuousIf15CPU_MATHEMATICSED1Ev>
  403ad3:	48 8b 45 98          	mov    -0x68(%rbp),%rax
  403ad7:	48 8b 4d e8          	mov    -0x18(%rbp),%rcx
  403adb:	64 48 33 0c 25 28 00 	xor    %fs:0x28,%rcx
  403ae2:	00 00 
  403ae4:	74 2d                	je     403b13 <_ZN12Tensor_QueenIf15CPU_MATHEMATICS10continuousIfS0_EErmIfS2_EES_IfS0_7pBufferIfS0_S2_T0_N9Operation3mulIfEEEERKS_IT_S0_S6_E+0xc3>
  403ae6:	eb 26                	jmp    403b0e <_ZN12Tensor_QueenIf15CPU_MATHEMATICS10continuousIfS0_EErmIfS2_EES_IfS0_7pBufferIfS0_S2_T0_N9Operation3mulIfEEEERKS_IT_S0_S6_E+0xbe>
  403ae8:	48 89 c3             	mov    %rax,%rbx
  403aeb:	48 8d 45 a0          	lea    -0x60(%rbp),%rax
  403aef:	48 89 c7             	mov    %rax,%rdi
  403af2:	e8 0f fc ff ff       	callq  403706 <_ZN10continuousIf15CPU_MATHEMATICSED1Ev>
  403af7:	48 8d 45 c0          	lea    -0x40(%rbp),%rax
  403afb:	48 89 c7             	mov    %rax,%rdi
  403afe:	e8 03 fc ff ff       	callq  403706 <_ZN10continuousIf15CPU_MATHEMATICSED1Ev>
  403b03:	48 89 d8             	mov    %rbx,%rax
  403b06:	48 89 c7             	mov    %rax,%rdi
  403b09:	e8 82 e4 ff ff       	callq  401f90 <_Unwind_Resume@plt>
  403b0e:	e8 1d e3 ff ff       	callq  401e30 <__stack_chk_fail@plt>
  403b13:	48 83 c4 78          	add    $0x78,%rsp
  403b17:	5b                   	pop    %rbx
  403b18:	5d                   	pop    %rbp
  403b19:	c3                   	retq   

0000000000403b1a <_ZN7pBufferIf15CPU_MATHEMATICS10continuousIfS0_ES_IfS0_S2_S2_N9Operation3mulIfEEENS3_3addIfEEED1Ev>:
  403b1a:	55                   	push   %rbp
  403b1b:	48 89 e5             	mov    %rsp,%rbp
  403b1e:	48 83 ec 10          	sub    $0x10,%rsp
  403b22:	48 89 7d f8          	mov    %rdi,-0x8(%rbp)
  403b26:	ba 78 d7 40 00       	mov    $0x40d778,%edx
  403b2b:	48 8b 45 f8          	mov    -0x8(%rbp),%rax
  403b2f:	48 89 10             	mov    %rdx,(%rax)
  403b32:	48 8b 45 f8          	mov    -0x8(%rbp),%rax
  403b36:	48 83 c0 30          	add    $0x30,%rax
  403b3a:	48 89 c7             	mov    %rax,%rdi
  403b3d:	e8 82 fe ff ff       	callq  4039c4 <_ZN7pBufferIf15CPU_MATHEMATICS10continuousIfS0_ES2_N9Operation3mulIfEEED1Ev>
  403b42:	48 8b 45 f8          	mov    -0x8(%rbp),%rax
  403b46:	48 83 c0 10          	add    $0x10,%rax
  403b4a:	48 89 c7             	mov    %rax,%rdi
  403b4d:	e8 b4 fb ff ff       	callq  403706 <_ZN10continuousIf15CPU_MATHEMATICSED1Ev>
  403b52:	48 8b 45 f8          	mov    -0x8(%rbp),%rax
  403b56:	48 89 c7             	mov    %rax,%rdi
  403b59:	e8 dc fa ff ff       	callq  40363a <_ZN12accessor_aceIf15CPU_MATHEMATICSED1Ev>
  403b5e:	b8 00 00 00 00       	mov    $0x0,%eax
  403b63:	85 c0                	test   %eax,%eax
  403b65:	74 11                	je     403b78 <_ZN7pBufferIf15CPU_MATHEMATICS10continuousIfS0_ES_IfS0_S2_S2_N9Operation3mulIfEEENS3_3addIfEEED1Ev+0x5e>
  403b67:	48 8b 45 f8          	mov    -0x8(%rbp),%rax
  403b6b:	be 80 00 00 00       	mov    $0x80,%esi
  403b70:	48 89 c7             	mov    %rax,%rdi
  403b73:	e8 58 e2 ff ff       	callq  401dd0 <_ZdlPvm@plt>
  403b78:	c9                   	leaveq 
  403b79:	c3                   	retq   

0000000000403b7a <_ZN7pBufferIf15CPU_MATHEMATICS10continuousIfS0_ES_IfS0_S2_S2_N9Operation3mulIfEEENS3_3addIfEEED0Ev>:
  403b7a:	55                   	push   %rbp
  403b7b:	48 89 e5             	mov    %rsp,%rbp
  403b7e:	48 83 ec 10          	sub    $0x10,%rsp
  403b82:	48 89 7d f8          	mov    %rdi,-0x8(%rbp)
  403b86:	48 8b 45 f8          	mov    -0x8(%rbp),%rax
  403b8a:	48 89 c7             	mov    %rax,%rdi
  403b8d:	e8 88 ff ff ff       	callq  403b1a <_ZN7pBufferIf15CPU_MATHEMATICS10continuousIfS0_ES_IfS0_S2_S2_N9Operation3mulIfEEENS3_3addIfEEED1Ev>
  403b92:	48 8b 45 f8          	mov    -0x8(%rbp),%rax
  403b96:	be 80 00 00 00       	mov    $0x80,%esi
  403b9b:	48 89 c7             	mov    %rax,%rdi
  403b9e:	e8 2d e2 ff ff       	callq  401dd0 <_ZdlPvm@plt>
  403ba3:	c9                   	leaveq 
  403ba4:	c3                   	retq   
  403ba5:	90                   	nop

0000000000403ba6 <_ZN12Tensor_QueenIf15CPU_MATHEMATICS10continuousIfS0_EEplIf7pBufferIfS0_S2_S2_N9Operation3mulIfEEEEES_IfS0_S5_IfS0_S2_T0_NS6_3addIfEEEERKS_IT_S0_SA_E>:
  403ba6:	55                   	push   %rbp
  403ba7:	48 89 e5             	mov    %rsp,%rbp
  403baa:	53                   	push   %rbx
  403bab:	48 81 ec a8 00 00 00 	sub    $0xa8,%rsp
  403bb2:	48 89 bd 68 ff ff ff 	mov    %rdi,-0x98(%rbp)
  403bb9:	48 89 b5 60 ff ff ff 	mov    %rsi,-0xa0(%rbp)
  403bc0:	48 89 95 58 ff ff ff 	mov    %rdx,-0xa8(%rbp)
  403bc7:	64 48 8b 04 25 28 00 	mov    %fs:0x28,%rax
  403bce:	00 00 
  403bd0:	48 89 45 e8          	mov    %rax,-0x18(%rbp)
  403bd4:	31 c0                	xor    %eax,%eax
  403bd6:	48 8b 85 58 ff ff ff 	mov    -0xa8(%rbp),%rax
  403bdd:	48 8d 50 08          	lea    0x8(%rax),%rdx
  403be1:	48 8d 45 90          	lea    -0x70(%rbp),%rax
  403be5:	48 89 d6             	mov    %rdx,%rsi
  403be8:	48 89 c7             	mov    %rax,%rdi
  403beb:	e8 6c fd ff ff       	callq  40395c <_ZN7pBufferIf15CPU_MATHEMATICS10continuousIfS0_ES2_N9Operation3mulIfEEEC1ERKS6_>
  403bf0:	48 8b 85 60 ff ff ff 	mov    -0xa0(%rbp),%rax
  403bf7:	48 8d 50 08          	lea    0x8(%rax),%rdx
  403bfb:	48 8d 85 70 ff ff ff 	lea    -0x90(%rbp),%rax
  403c02:	48 89 d6             	mov    %rdx,%rsi
  403c05:	48 89 c7             	mov    %rax,%rdi
  403c08:	e8 99 fa ff ff       	callq  4036a6 <_ZN10continuousIf15CPU_MATHEMATICSEC1ERKS1_>
  403c0d:	48 8d 4d 90          	lea    -0x70(%rbp),%rcx
  403c11:	48 8d 95 70 ff ff ff 	lea    -0x90(%rbp),%rdx
  403c18:	48 8b 85 68 ff ff ff 	mov    -0x98(%rbp),%rax
  403c1f:	be 00 00 00 00       	mov    $0x0,%esi
  403c24:	48 89 c7             	mov    %rax,%rdi
  403c27:	e8 3c 1e 00 00       	callq  405a68 <_ZN12Tensor_QueenIf15CPU_MATHEMATICS7pBufferIfS0_10continuousIfS0_ES1_IfS0_S3_S3_N9Operation3mulIfEEENS4_3addIfEEEEC1IIS3_S7_EEEbDpT_>
  403c2c:	48 8d 85 70 ff ff ff 	lea    -0x90(%rbp),%rax
  403c33:	48 89 c7             	mov    %rax,%rdi
  403c36:	e8 cb fa ff ff       	callq  403706 <_ZN10continuousIf15CPU_MATHEMATICSED1Ev>
  403c3b:	48 8d 45 90          	lea    -0x70(%rbp),%rax
  403c3f:	48 89 c7             	mov    %rax,%rdi
  403c42:	e8 7d fd ff ff       	callq  4039c4 <_ZN7pBufferIf15CPU_MATHEMATICS10continuousIfS0_ES2_N9Operation3mulIfEEED1Ev>
  403c47:	48 8b 85 68 ff ff ff 	mov    -0x98(%rbp),%rax
  403c4e:	48 8b 4d e8          	mov    -0x18(%rbp),%rcx
  403c52:	64 48 33 0c 25 28 00 	xor    %fs:0x28,%rcx
  403c59:	00 00 
  403c5b:	74 30                	je     403c8d <_ZN12Tensor_QueenIf15CPU_MATHEMATICS10continuousIfS0_EEplIf7pBufferIfS0_S2_S2_N9Operation3mulIfEEEEES_IfS0_S5_IfS0_S2_T0_NS6_3addIfEEEERKS_IT_S0_SA_E+0xe7>
  403c5d:	eb 29                	jmp    403c88 <_ZN12Tensor_QueenIf15CPU_MATHEMATICS10continuousIfS0_EEplIf7pBufferIfS0_S2_S2_N9Operation3mulIfEEEEES_IfS0_S5_IfS0_S2_T0_NS6_3addIfEEEERKS_IT_S0_SA_E+0xe2>
  403c5f:	48 89 c3             	mov    %rax,%rbx
  403c62:	48 8d 85 70 ff ff ff 	lea    -0x90(%rbp),%rax
  403c69:	48 89 c7             	mov    %rax,%rdi
  403c6c:	e8 95 fa ff ff       	callq  403706 <_ZN10continuousIf15CPU_MATHEMATICSED1Ev>
  403c71:	48 8d 45 90          	lea    -0x70(%rbp),%rax
  403c75:	48 89 c7             	mov    %rax,%rdi
  403c78:	e8 47 fd ff ff       	callq  4039c4 <_ZN7pBufferIf15CPU_MATHEMATICS10continuousIfS0_ES2_N9Operation3mulIfEEED1Ev>
  403c7d:	48 89 d8             	mov    %rbx,%rax
  403c80:	48 89 c7             	mov    %rax,%rdi
  403c83:	e8 08 e3 ff ff       	callq  401f90 <_Unwind_Resume@plt>
  403c88:	e8 a3 e1 ff ff       	callq  401e30 <__stack_chk_fail@plt>
  403c8d:	48 81 c4 a8 00 00 00 	add    $0xa8,%rsp
  403c94:	5b                   	pop    %rbx
  403c95:	5d                   	pop    %rbp
  403c96:	c3                   	retq   
  403c97:	90                   	nop

0000000000403c98 <_ZN12Tensor_QueenIf15CPU_MATHEMATICS10continuousIfS0_EEaSIf7pBufferIfS0_S2_S5_IfS0_S2_S2_N9Operation3mulIfEEENS6_3addIfEEEEERS3_RKS_IT_S0_T0_E>:
  403c98:	55                   	push   %rbp
  403c99:	48 89 e5             	mov    %rsp,%rbp
  403c9c:	53                   	push   %rbx
  403c9d:	48 83 ec 18          	sub    $0x18,%rsp
  403ca1:	48 89 7d e8          	mov    %rdi,-0x18(%rbp)
  403ca5:	48 89 75 e0          	mov    %rsi,-0x20(%rbp)
  403ca9:	48 8b 55 e0          	mov    -0x20(%rbp),%rdx
  403cad:	48 8b 45 e8          	mov    -0x18(%rbp),%rax
  403cb1:	48 89 d6             	mov    %rdx,%rsi
  403cb4:	48 89 c7             	mov    %rax,%rdi
  403cb7:	e8 96 e5 ff ff       	callq  402252 <_ZNK10Tensor_Ace16assert_same_sizeERKS_>
  403cbc:	48 8b 45 e8          	mov    -0x18(%rbp),%rax
  403cc0:	48 89 c7             	mov    %rax,%rdi
  403cc3:	e8 6a 0b 00 00       	callq  404832 <_ZNK11Tensor_KingIf15CPU_MATHEMATICS10continuousIfS0_EE4sizeEv>
  403cc8:	89 c3                	mov    %eax,%ebx
  403cca:	48 8b 45 e0          	mov    -0x20(%rbp),%rax
  403cce:	48 89 c7             	mov    %rax,%rdi
  403cd1:	e8 60 1f 00 00       	callq  405c36 <_ZNK11Tensor_KingIf15CPU_MATHEMATICS7pBufferIfS0_10continuousIfS0_ES1_IfS0_S3_S3_N9Operation3mulIfEEENS4_3addIfEEEE8accessorEv>
  403cd6:	48 89 c1             	mov    %rax,%rcx
  403cd9:	48 8b 45 e8          	mov    -0x18(%rbp),%rax
  403cdd:	48 83 c0 08          	add    $0x8,%rax
  403ce1:	89 da                	mov    %ebx,%edx
  403ce3:	48 89 ce             	mov    %rcx,%rsi
  403ce6:	48 89 c7             	mov    %rax,%rdi
  403ce9:	e8 5a 1f 00 00       	callq  405c48 <_ZN15CPU_MATHEMATICS4copyI10continuousIfS_EK7pBufferIfS_S2_S3_IfS_S2_S2_N9Operation3mulIfEEENS4_3addIfEEEEEvRT_RT0_i>
  403cee:	48 8b 45 e8          	mov    -0x18(%rbp),%rax
  403cf2:	48 83 c4 18          	add    $0x18,%rsp
  403cf6:	5b                   	pop    %rbx
  403cf7:	5d                   	pop    %rbp
  403cf8:	c3                   	retq   
  403cf9:	90                   	nop

0000000000403cfa <_ZN12Tensor_QueenIf15CPU_MATHEMATICS19StackScalarAccessorIfS0_EED1Ev>:
  403cfa:	55                   	push   %rbp
  403cfb:	48 89 e5             	mov    %rsp,%rbp
  403cfe:	48 83 ec 10          	sub    $0x10,%rsp
  403d02:	48 89 7d f8          	mov    %rdi,-0x8(%rbp)
  403d06:	ba 88 d4 40 00       	mov    $0x40d488,%edx
  403d0b:	48 8b 45 f8          	mov    -0x8(%rbp),%rax
  403d0f:	48 89 10             	mov    %rdx,(%rax)
  403d12:	48 8b 45 f8          	mov    -0x8(%rbp),%rax
  403d16:	48 89 c7             	mov    %rax,%rdi
  403d19:	e8 cc 1f 00 00       	callq  405cea <_ZN11Tensor_KingIf15CPU_MATHEMATICS19StackScalarAccessorIfS0_EED1Ev>
  403d1e:	b8 00 00 00 00       	mov    $0x0,%eax
  403d23:	85 c0                	test   %eax,%eax
  403d25:	74 11                	je     403d38 <_ZN12Tensor_QueenIf15CPU_MATHEMATICS19StackScalarAccessorIfS0_EED1Ev+0x3e>
  403d27:	48 8b 45 f8          	mov    -0x8(%rbp),%rax
  403d2b:	be 28 00 00 00       	mov    $0x28,%esi
  403d30:	48 89 c7             	mov    %rax,%rdi
  403d33:	e8 98 e0 ff ff       	callq  401dd0 <_ZdlPvm@plt>
  403d38:	c9                   	leaveq 
  403d39:	c3                   	retq   

0000000000403d3a <_ZN12Tensor_QueenIf15CPU_MATHEMATICS19StackScalarAccessorIfS0_EED0Ev>:
  403d3a:	55                   	push   %rbp
  403d3b:	48 89 e5             	mov    %rsp,%rbp
  403d3e:	48 83 ec 10          	sub    $0x10,%rsp
  403d42:	48 89 7d f8          	mov    %rdi,-0x8(%rbp)
  403d46:	48 8b 45 f8          	mov    -0x8(%rbp),%rax
  403d4a:	48 89 c7             	mov    %rax,%rdi
  403d4d:	e8 a8 ff ff ff       	callq  403cfa <_ZN12Tensor_QueenIf15CPU_MATHEMATICS19StackScalarAccessorIfS0_EED1Ev>
  403d52:	48 8b 45 f8          	mov    -0x8(%rbp),%rax
  403d56:	be 28 00 00 00       	mov    $0x28,%esi
  403d5b:	48 89 c7             	mov    %rax,%rdi
  403d5e:	e8 6d e0 ff ff       	callq  401dd0 <_ZdlPvm@plt>
  403d63:	c9                   	leaveq 
  403d64:	c3                   	retq   
  403d65:	90                   	nop

0000000000403d66 <_ZN6ScalarIf15CPU_MATHEMATICSEC1Ef>:
  403d66:	55                   	push   %rbp
  403d67:	48 89 e5             	mov    %rsp,%rbp
  403d6a:	48 83 ec 10          	sub    $0x10,%rsp
  403d6e:	48 89 7d f8          	mov    %rdi,-0x8(%rbp)
  403d72:	f3 0f 11 45 f4       	movss  %xmm0,-0xc(%rbp)
  403d77:	48 8b 45 f8          	mov    -0x8(%rbp),%rax
  403d7b:	8b 55 f4             	mov    -0xc(%rbp),%edx
  403d7e:	89 55 f0             	mov    %edx,-0x10(%rbp)
  403d81:	f3 0f 10 45 f0       	movss  -0x10(%rbp),%xmm0
  403d86:	be 00 00 00 00       	mov    $0x0,%esi
  403d8b:	48 89 c7             	mov    %rax,%rdi
  403d8e:	e8 11 1f 00 00       	callq  405ca4 <_ZN12Tensor_QueenIf15CPU_MATHEMATICS19StackScalarAccessorIfS0_EEC1IIfEEEbDpT_>
  403d93:	ba 48 d4 40 00       	mov    $0x40d448,%edx
  403d98:	48 8b 45 f8          	mov    -0x8(%rbp),%rax
  403d9c:	48 89 10             	mov    %rdx,(%rax)
  403d9f:	90                   	nop
  403da0:	c9                   	leaveq 
  403da1:	c3                   	retq   

0000000000403da2 <_ZN15Scalar_AccessorIf15CPU_MATHEMATICSEC1ERKS1_>:
  403da2:	55                   	push   %rbp
  403da3:	48 89 e5             	mov    %rsp,%rbp
  403da6:	48 83 ec 10          	sub    $0x10,%rsp
  403daa:	48 89 7d f8          	mov    %rdi,-0x8(%rbp)
  403dae:	48 89 75 f0          	mov    %rsi,-0x10(%rbp)
  403db2:	48 8b 55 f0          	mov    -0x10(%rbp),%rdx
  403db6:	48 8b 45 f8          	mov    -0x8(%rbp),%rax
  403dba:	48 89 d6             	mov    %rdx,%rsi
  403dbd:	48 89 c7             	mov    %rax,%rdi
  403dc0:	e8 43 f8 ff ff       	callq  403608 <_ZN12accessor_aceIf15CPU_MATHEMATICSEC1ERKS1_>
  403dc5:	ba 88 d6 40 00       	mov    $0x40d688,%edx
  403dca:	48 8b 45 f8          	mov    -0x8(%rbp),%rax
  403dce:	48 89 10             	mov    %rdx,(%rax)
  403dd1:	90                   	nop
  403dd2:	c9                   	leaveq 
  403dd3:	c3                   	retq   

0000000000403dd4 <_ZN15Scalar_AccessorIf15CPU_MATHEMATICSED1Ev>:
  403dd4:	55                   	push   %rbp
  403dd5:	48 89 e5             	mov    %rsp,%rbp
  403dd8:	48 83 ec 10          	sub    $0x10,%rsp
  403ddc:	48 89 7d f8          	mov    %rdi,-0x8(%rbp)
  403de0:	ba 88 d6 40 00       	mov    $0x40d688,%edx
  403de5:	48 8b 45 f8          	mov    -0x8(%rbp),%rax
  403de9:	48 89 10             	mov    %rdx,(%rax)
  403dec:	48 8b 45 f8          	mov    -0x8(%rbp),%rax
  403df0:	48 89 c7             	mov    %rax,%rdi
  403df3:	e8 42 f8 ff ff       	callq  40363a <_ZN12accessor_aceIf15CPU_MATHEMATICSED1Ev>
  403df8:	b8 00 00 00 00       	mov    $0x0,%eax
  403dfd:	85 c0                	test   %eax,%eax
  403dff:	74 11                	je     403e12 <_ZN15Scalar_AccessorIf15CPU_MATHEMATICSED1Ev+0x3e>
  403e01:	48 8b 45 f8          	mov    -0x8(%rbp),%rax
  403e05:	be 08 00 00 00       	mov    $0x8,%esi
  403e0a:	48 89 c7             	mov    %rax,%rdi
  403e0d:	e8 be df ff ff       	callq  401dd0 <_ZdlPvm@plt>
  403e12:	c9                   	leaveq 
  403e13:	c3                   	retq   

0000000000403e14 <_ZN15Scalar_AccessorIf15CPU_MATHEMATICSED0Ev>:
  403e14:	55                   	push   %rbp
  403e15:	48 89 e5             	mov    %rsp,%rbp
  403e18:	48 83 ec 10          	sub    $0x10,%rsp
  403e1c:	48 89 7d f8          	mov    %rdi,-0x8(%rbp)
  403e20:	48 8b 45 f8          	mov    -0x8(%rbp),%rax
  403e24:	48 89 c7             	mov    %rax,%rdi
  403e27:	e8 a8 ff ff ff       	callq  403dd4 <_ZN15Scalar_AccessorIf15CPU_MATHEMATICSED1Ev>
  403e2c:	48 8b 45 f8          	mov    -0x8(%rbp),%rax
  403e30:	be 08 00 00 00       	mov    $0x8,%esi
  403e35:	48 89 c7             	mov    %rax,%rdi
  403e38:	e8 93 df ff ff       	callq  401dd0 <_ZdlPvm@plt>
  403e3d:	c9                   	leaveq 
  403e3e:	c3                   	retq   
  403e3f:	90                   	nop

0000000000403e40 <_ZN14value_accessorIf15CPU_MATHEMATICSEC1ERKS1_>:
  403e40:	55                   	push   %rbp
  403e41:	48 89 e5             	mov    %rsp,%rbp
  403e44:	48 83 ec 10          	sub    $0x10,%rsp
  403e48:	48 89 7d f8          	mov    %rdi,-0x8(%rbp)
  403e4c:	48 89 75 f0          	mov    %rsi,-0x10(%rbp)
  403e50:	48 8b 55 f0          	mov    -0x10(%rbp),%rdx
  403e54:	48 8b 45 f8          	mov    -0x8(%rbp),%rax
  403e58:	48 89 d6             	mov    %rdx,%rsi
  403e5b:	48 89 c7             	mov    %rax,%rdi
  403e5e:	e8 a5 f7 ff ff       	callq  403608 <_ZN12accessor_aceIf15CPU_MATHEMATICSEC1ERKS1_>
  403e63:	ba 08 d6 40 00       	mov    $0x40d608,%edx
  403e68:	48 8b 45 f8          	mov    -0x8(%rbp),%rax
  403e6c:	48 89 10             	mov    %rdx,(%rax)
  403e6f:	90                   	nop
  403e70:	c9                   	leaveq 
  403e71:	c3                   	retq   

0000000000403e72 <_ZN14value_accessorIf15CPU_MATHEMATICSED1Ev>:
  403e72:	55                   	push   %rbp
  403e73:	48 89 e5             	mov    %rsp,%rbp
  403e76:	48 83 ec 10          	sub    $0x10,%rsp
  403e7a:	48 89 7d f8          	mov    %rdi,-0x8(%rbp)
  403e7e:	ba 08 d6 40 00       	mov    $0x40d608,%edx
  403e83:	48 8b 45 f8          	mov    -0x8(%rbp),%rax
  403e87:	48 89 10             	mov    %rdx,(%rax)
  403e8a:	48 8b 45 f8          	mov    -0x8(%rbp),%rax
  403e8e:	48 89 c7             	mov    %rax,%rdi
  403e91:	e8 a4 f7 ff ff       	callq  40363a <_ZN12accessor_aceIf15CPU_MATHEMATICSED1Ev>
  403e96:	b8 00 00 00 00       	mov    $0x0,%eax
  403e9b:	85 c0                	test   %eax,%eax
  403e9d:	74 11                	je     403eb0 <_ZN14value_accessorIf15CPU_MATHEMATICSED1Ev+0x3e>
  403e9f:	48 8b 45 f8          	mov    -0x8(%rbp),%rax
  403ea3:	be 08 00 00 00       	mov    $0x8,%esi
  403ea8:	48 89 c7             	mov    %rax,%rdi
  403eab:	e8 20 df ff ff       	callq  401dd0 <_ZdlPvm@plt>
  403eb0:	c9                   	leaveq 
  403eb1:	c3                   	retq   

0000000000403eb2 <_ZN14value_accessorIf15CPU_MATHEMATICSED0Ev>:
  403eb2:	55                   	push   %rbp
  403eb3:	48 89 e5             	mov    %rsp,%rbp
  403eb6:	48 83 ec 10          	sub    $0x10,%rsp
  403eba:	48 89 7d f8          	mov    %rdi,-0x8(%rbp)
  403ebe:	48 8b 45 f8          	mov    -0x8(%rbp),%rax
  403ec2:	48 89 c7             	mov    %rax,%rdi
  403ec5:	e8 a8 ff ff ff       	callq  403e72 <_ZN14value_accessorIf15CPU_MATHEMATICSED1Ev>
  403eca:	48 8b 45 f8          	mov    -0x8(%rbp),%rax
  403ece:	be 08 00 00 00       	mov    $0x8,%esi
  403ed3:	48 89 c7             	mov    %rax,%rdi
  403ed6:	e8 f5 de ff ff       	callq  401dd0 <_ZdlPvm@plt>
  403edb:	c9                   	leaveq 
  403edc:	c3                   	retq   
  403edd:	90                   	nop

0000000000403ede <_ZN19StackScalarAccessorIf15CPU_MATHEMATICSEC1ERKS1_>:
  403ede:	55                   	push   %rbp
  403edf:	48 89 e5             	mov    %rsp,%rbp
  403ee2:	48 83 ec 10          	sub    $0x10,%rsp
  403ee6:	48 89 7d f8          	mov    %rdi,-0x8(%rbp)
  403eea:	48 89 75 f0          	mov    %rsi,-0x10(%rbp)
  403eee:	48 8b 55 f0          	mov    -0x10(%rbp),%rdx
  403ef2:	48 8b 45 f8          	mov    -0x8(%rbp),%rax
  403ef6:	48 89 d6             	mov    %rdx,%rsi
  403ef9:	48 89 c7             	mov    %rax,%rdi
  403efc:	e8 a1 fe ff ff       	callq  403da2 <_ZN15Scalar_AccessorIf15CPU_MATHEMATICSEC1ERKS1_>
  403f01:	48 8b 45 f0          	mov    -0x10(%rbp),%rax
  403f05:	48 8d 50 08          	lea    0x8(%rax),%rdx
  403f09:	48 8b 45 f8          	mov    -0x8(%rbp),%rax
  403f0d:	48 83 c0 08          	add    $0x8,%rax
  403f11:	48 89 d6             	mov    %rdx,%rsi
  403f14:	48 89 c7             	mov    %rax,%rdi
  403f17:	e8 24 ff ff ff       	callq  403e40 <_ZN14value_accessorIf15CPU_MATHEMATICSEC1ERKS1_>
  403f1c:	ba 08 d5 40 00       	mov    $0x40d508,%edx
  403f21:	48 8b 45 f8          	mov    -0x8(%rbp),%rax
  403f25:	48 89 10             	mov    %rdx,(%rax)
  403f28:	ba 88 d5 40 00       	mov    $0x40d588,%edx
  403f2d:	48 8b 45 f8          	mov    -0x8(%rbp),%rax
  403f31:	48 89 50 08          	mov    %rdx,0x8(%rax)
  403f35:	48 8b 45 f0          	mov    -0x10(%rbp),%rax
  403f39:	f3 0f 10 40 10       	movss  0x10(%rax),%xmm0
  403f3e:	48 8b 45 f8          	mov    -0x8(%rbp),%rax
  403f42:	f3 0f 11 40 10       	movss  %xmm0,0x10(%rax)
  403f47:	90                   	nop
  403f48:	c9                   	leaveq 
  403f49:	c3                   	retq   

0000000000403f4a <_ZN19StackScalarAccessorIf15CPU_MATHEMATICSED1Ev>:
  403f4a:	55                   	push   %rbp
  403f4b:	48 89 e5             	mov    %rsp,%rbp
  403f4e:	48 83 ec 10          	sub    $0x10,%rsp
  403f52:	48 89 7d f8          	mov    %rdi,-0x8(%rbp)
  403f56:	ba 08 d5 40 00       	mov    $0x40d508,%edx
  403f5b:	48 8b 45 f8          	mov    -0x8(%rbp),%rax
  403f5f:	48 89 10             	mov    %rdx,(%rax)
  403f62:	ba 88 d5 40 00       	mov    $0x40d588,%edx
  403f67:	48 8b 45 f8          	mov    -0x8(%rbp),%rax
  403f6b:	48 89 50 08          	mov    %rdx,0x8(%rax)
  403f6f:	48 8b 45 f8          	mov    -0x8(%rbp),%rax
  403f73:	48 83 c0 08          	add    $0x8,%rax
  403f77:	48 89 c7             	mov    %rax,%rdi
  403f7a:	e8 f3 fe ff ff       	callq  403e72 <_ZN14value_accessorIf15CPU_MATHEMATICSED1Ev>
  403f7f:	48 8b 45 f8          	mov    -0x8(%rbp),%rax
  403f83:	48 89 c7             	mov    %rax,%rdi
  403f86:	e8 49 fe ff ff       	callq  403dd4 <_ZN15Scalar_AccessorIf15CPU_MATHEMATICSED1Ev>
  403f8b:	b8 00 00 00 00       	mov    $0x0,%eax
  403f90:	85 c0                	test   %eax,%eax
  403f92:	74 11                	je     403fa5 <_ZN19StackScalarAccessorIf15CPU_MATHEMATICSED1Ev+0x5b>
  403f94:	48 8b 45 f8          	mov    -0x8(%rbp),%rax
  403f98:	be 18 00 00 00       	mov    $0x18,%esi
  403f9d:	48 89 c7             	mov    %rax,%rdi
  403fa0:	e8 2b de ff ff       	callq  401dd0 <_ZdlPvm@plt>
  403fa5:	c9                   	leaveq 
  403fa6:	c3                   	retq   

0000000000403fa7 <_ZThn8_N19StackScalarAccessorIf15CPU_MATHEMATICSED1Ev>:
  403fa7:	48 83 ef 08          	sub    $0x8,%rdi
  403fab:	eb 9d                	jmp    403f4a <_ZN19StackScalarAccessorIf15CPU_MATHEMATICSED1Ev>
  403fad:	90                   	nop

0000000000403fae <_ZN19StackScalarAccessorIf15CPU_MATHEMATICSED0Ev>:
  403fae:	55                   	push   %rbp
  403faf:	48 89 e5             	mov    %rsp,%rbp
  403fb2:	48 83 ec 10          	sub    $0x10,%rsp
  403fb6:	48 89 7d f8          	mov    %rdi,-0x8(%rbp)
  403fba:	48 8b 45 f8          	mov    -0x8(%rbp),%rax
  403fbe:	48 89 c7             	mov    %rax,%rdi
  403fc1:	e8 84 ff ff ff       	callq  403f4a <_ZN19StackScalarAccessorIf15CPU_MATHEMATICSED1Ev>
  403fc6:	48 8b 45 f8          	mov    -0x8(%rbp),%rax
  403fca:	be 18 00 00 00       	mov    $0x18,%esi
  403fcf:	48 89 c7             	mov    %rax,%rdi
  403fd2:	e8 f9 dd ff ff       	callq  401dd0 <_ZdlPvm@plt>
  403fd7:	c9                   	leaveq 
  403fd8:	c3                   	retq   

0000000000403fd9 <_ZThn8_N19StackScalarAccessorIf15CPU_MATHEMATICSED0Ev>:
  403fd9:	48 83 ef 08          	sub    $0x8,%rdi
  403fdd:	eb cf                	jmp    403fae <_ZN19StackScalarAccessorIf15CPU_MATHEMATICSED0Ev>
  403fdf:	90                   	nop

0000000000403fe0 <_ZN7pBufferIf15CPU_MATHEMATICS19StackScalarAccessorIfS0_E10continuousIfS0_EN9Operation3subIfEEED1Ev>:
  403fe0:	55                   	push   %rbp
  403fe1:	48 89 e5             	mov    %rsp,%rbp
  403fe4:	48 83 ec 10          	sub    $0x10,%rsp
  403fe8:	48 89 7d f8          	mov    %rdi,-0x8(%rbp)
  403fec:	ba d8 d3 40 00       	mov    $0x40d3d8,%edx
  403ff1:	48 8b 45 f8          	mov    -0x8(%rbp),%rax
  403ff5:	48 89 10             	mov    %rdx,(%rax)
  403ff8:	48 8b 45 f8          	mov    -0x8(%rbp),%rax
  403ffc:	48 83 c0 28          	add    $0x28,%rax
  404000:	48 89 c7             	mov    %rax,%rdi
  404003:	e8 fe f6 ff ff       	callq  403706 <_ZN10continuousIf15CPU_MATHEMATICSED1Ev>
  404008:	48 8b 45 f8          	mov    -0x8(%rbp),%rax
  40400c:	48 83 c0 10          	add    $0x10,%rax
  404010:	48 89 c7             	mov    %rax,%rdi
  404013:	e8 32 ff ff ff       	callq  403f4a <_ZN19StackScalarAccessorIf15CPU_MATHEMATICSED1Ev>
  404018:	48 8b 45 f8          	mov    -0x8(%rbp),%rax
  40401c:	48 89 c7             	mov    %rax,%rdi
  40401f:	e8 16 f6 ff ff       	callq  40363a <_ZN12accessor_aceIf15CPU_MATHEMATICSED1Ev>
  404024:	b8 00 00 00 00       	mov    $0x0,%eax
  404029:	85 c0                	test   %eax,%eax
  40402b:	74 11                	je     40403e <_ZN7pBufferIf15CPU_MATHEMATICS19StackScalarAccessorIfS0_E10continuousIfS0_EN9Operation3subIfEEED1Ev+0x5e>
  40402d:	48 8b 45 f8          	mov    -0x8(%rbp),%rax
  404031:	be 48 00 00 00       	mov    $0x48,%esi
  404036:	48 89 c7             	mov    %rax,%rdi
  404039:	e8 92 dd ff ff       	callq  401dd0 <_ZdlPvm@plt>
  40403e:	c9                   	leaveq 
  40403f:	c3                   	retq   

0000000000404040 <_ZN7pBufferIf15CPU_MATHEMATICS19StackScalarAccessorIfS0_E10continuousIfS0_EN9Operation3subIfEEED0Ev>:
  404040:	55                   	push   %rbp
  404041:	48 89 e5             	mov    %rsp,%rbp
  404044:	48 83 ec 10          	sub    $0x10,%rsp
  404048:	48 89 7d f8          	mov    %rdi,-0x8(%rbp)
  40404c:	48 8b 45 f8          	mov    -0x8(%rbp),%rax
  404050:	48 89 c7             	mov    %rax,%rdi
  404053:	e8 88 ff ff ff       	callq  403fe0 <_ZN7pBufferIf15CPU_MATHEMATICS19StackScalarAccessorIfS0_E10continuousIfS0_EN9Operation3subIfEEED1Ev>
  404058:	48 8b 45 f8          	mov    -0x8(%rbp),%rax
  40405c:	be 48 00 00 00       	mov    $0x48,%esi
  404061:	48 89 c7             	mov    %rax,%rdi
  404064:	e8 67 dd ff ff       	callq  401dd0 <_ZdlPvm@plt>
  404069:	c9                   	leaveq 
  40406a:	c3                   	retq   
  40406b:	90                   	nop

000000000040406c <_ZN12Tensor_QueenIf15CPU_MATHEMATICS19StackScalarAccessorIfS0_EEmiIf10continuousIfS0_EEES_IfS0_7pBufferIfS0_S2_T0_N9Operation3subIfEEEERKS_IT_S0_S8_E>:
  40406c:	55                   	push   %rbp
  40406d:	48 89 e5             	mov    %rsp,%rbp
  404070:	53                   	push   %rbx
  404071:	48 83 ec 78          	sub    $0x78,%rsp
  404075:	48 89 7d 98          	mov    %rdi,-0x68(%rbp)
  404079:	48 89 75 90          	mov    %rsi,-0x70(%rbp)
  40407d:	48 89 55 88          	mov    %rdx,-0x78(%rbp)
  404081:	64 48 8b 04 25 28 00 	mov    %fs:0x28,%rax
  404088:	00 00 
  40408a:	48 89 45 e8          	mov    %rax,-0x18(%rbp)
  40408e:	31 c0                	xor    %eax,%eax
  404090:	48 8b 45 88          	mov    -0x78(%rbp),%rax
  404094:	48 8d 50 08          	lea    0x8(%rax),%rdx
  404098:	48 8d 45 c0          	lea    -0x40(%rbp),%rax
  40409c:	48 89 d6             	mov    %rdx,%rsi
  40409f:	48 89 c7             	mov    %rax,%rdi
  4040a2:	e8 ff f5 ff ff       	callq  4036a6 <_ZN10continuousIf15CPU_MATHEMATICSEC1ERKS1_>
  4040a7:	48 8b 45 90          	mov    -0x70(%rbp),%rax
  4040ab:	48 8d 50 08          	lea    0x8(%rax),%rdx
  4040af:	48 8d 45 a0          	lea    -0x60(%rbp),%rax
  4040b3:	48 89 d6             	mov    %rdx,%rsi
  4040b6:	48 89 c7             	mov    %rax,%rdi
  4040b9:	e8 20 fe ff ff       	callq  403ede <_ZN19StackScalarAccessorIf15CPU_MATHEMATICSEC1ERKS1_>
  4040be:	48 8d 4d c0          	lea    -0x40(%rbp),%rcx
  4040c2:	48 8d 55 a0          	lea    -0x60(%rbp),%rdx
  4040c6:	48 8b 45 98          	mov    -0x68(%rbp),%rax
  4040ca:	be 00 00 00 00       	mov    $0x0,%esi
  4040cf:	48 89 c7             	mov    %rax,%rdi
  4040d2:	e8 d7 1c 00 00       	callq  405dae <_ZN12Tensor_QueenIf15CPU_MATHEMATICS7pBufferIfS0_19StackScalarAccessorIfS0_E10continuousIfS0_EN9Operation3subIfEEEEC1IIS3_S5_EEEbDpT_>
  4040d7:	48 8d 45 a0          	lea    -0x60(%rbp),%rax
  4040db:	48 89 c7             	mov    %rax,%rdi
  4040de:	e8 67 fe ff ff       	callq  403f4a <_ZN19StackScalarAccessorIf15CPU_MATHEMATICSED1Ev>
  4040e3:	48 8d 45 c0          	lea    -0x40(%rbp),%rax
  4040e7:	48 89 c7             	mov    %rax,%rdi
  4040ea:	e8 17 f6 ff ff       	callq  403706 <_ZN10continuousIf15CPU_MATHEMATICSED1Ev>
  4040ef:	48 8b 45 98          	mov    -0x68(%rbp),%rax
  4040f3:	48 8b 4d e8          	mov    -0x18(%rbp),%rcx
  4040f7:	64 48 33 0c 25 28 00 	xor    %fs:0x28,%rcx
  4040fe:	00 00 
  404100:	74 2d                	je     40412f <_ZN12Tensor_QueenIf15CPU_MATHEMATICS19StackScalarAccessorIfS0_EEmiIf10continuousIfS0_EEES_IfS0_7pBufferIfS0_S2_T0_N9Operation3subIfEEEERKS_IT_S0_S8_E+0xc3>
  404102:	eb 26                	jmp    40412a <_ZN12Tensor_QueenIf15CPU_MATHEMATICS19StackScalarAccessorIfS0_EEmiIf10continuousIfS0_EEES_IfS0_7pBufferIfS0_S2_T0_N9Operation3subIfEEEERKS_IT_S0_S8_E+0xbe>
  404104:	48 89 c3             	mov    %rax,%rbx
  404107:	48 8d 45 a0          	lea    -0x60(%rbp),%rax
  40410b:	48 89 c7             	mov    %rax,%rdi
  40410e:	e8 37 fe ff ff       	callq  403f4a <_ZN19StackScalarAccessorIf15CPU_MATHEMATICSED1Ev>
  404113:	48 8d 45 c0          	lea    -0x40(%rbp),%rax
  404117:	48 89 c7             	mov    %rax,%rdi
  40411a:	e8 e7 f5 ff ff       	callq  403706 <_ZN10continuousIf15CPU_MATHEMATICSED1Ev>
  40411f:	48 89 d8             	mov    %rbx,%rax
  404122:	48 89 c7             	mov    %rax,%rdi
  404125:	e8 66 de ff ff       	callq  401f90 <_Unwind_Resume@plt>
  40412a:	e8 01 dd ff ff       	callq  401e30 <__stack_chk_fail@plt>
  40412f:	48 83 c4 78          	add    $0x78,%rsp
  404133:	5b                   	pop    %rbx
  404134:	5d                   	pop    %rbp
  404135:	c3                   	retq   

0000000000404136 <_ZN12Tensor_QueenIf15CPU_MATHEMATICS10continuousIfS0_EEaSIf7pBufferIfS0_19StackScalarAccessorIfS0_ES2_N9Operation3subIfEEEEERS3_RKS_IT_S0_T0_E>:
  404136:	55                   	push   %rbp
  404137:	48 89 e5             	mov    %rsp,%rbp
  40413a:	53                   	push   %rbx
  40413b:	48 83 ec 18          	sub    $0x18,%rsp
  40413f:	48 89 7d e8          	mov    %rdi,-0x18(%rbp)
  404143:	48 89 75 e0          	mov    %rsi,-0x20(%rbp)
  404147:	48 8b 55 e0          	mov    -0x20(%rbp),%rdx
  40414b:	48 8b 45 e8          	mov    -0x18(%rbp),%rax
  40414f:	48 89 d6             	mov    %rdx,%rsi
  404152:	48 89 c7             	mov    %rax,%rdi
  404155:	e8 f8 e0 ff ff       	callq  402252 <_ZNK10Tensor_Ace16assert_same_sizeERKS_>
  40415a:	48 8b 45 e8          	mov    -0x18(%rbp),%rax
  40415e:	48 89 c7             	mov    %rax,%rdi
  404161:	e8 cc 06 00 00       	callq  404832 <_ZNK11Tensor_KingIf15CPU_MATHEMATICS10continuousIfS0_EE4sizeEv>
  404166:	89 c3                	mov    %eax,%ebx
  404168:	48 8b 45 e0          	mov    -0x20(%rbp),%rax
  40416c:	48 89 c7             	mov    %rax,%rdi
  40416f:	e8 d6 1d 00 00       	callq  405f4a <_ZNK11Tensor_KingIf15CPU_MATHEMATICS7pBufferIfS0_19StackScalarAccessorIfS0_E10continuousIfS0_EN9Operation3subIfEEEE8accessorEv>
  404174:	48 89 c1             	mov    %rax,%rcx
  404177:	48 8b 45 e8          	mov    -0x18(%rbp),%rax
  40417b:	48 83 c0 08          	add    $0x8,%rax
  40417f:	89 da                	mov    %ebx,%edx
  404181:	48 89 ce             	mov    %rcx,%rsi
  404184:	48 89 c7             	mov    %rax,%rdi
  404187:	e8 d0 1d 00 00       	callq  405f5c <_ZN15CPU_MATHEMATICS4copyI10continuousIfS_EK7pBufferIfS_19StackScalarAccessorIfS_ES2_N9Operation3subIfEEEEEvRT_RT0_i>
  40418c:	48 8b 45 e8          	mov    -0x18(%rbp),%rax
  404190:	48 83 c4 18          	add    $0x18,%rsp
  404194:	5b                   	pop    %rbx
  404195:	5d                   	pop    %rbp
  404196:	c3                   	retq   
  404197:	90                   	nop

0000000000404198 <_ZN12Tensor_QueenIf15CPU_MATHEMATICS10continuousIfS0_EED1Ev>:
  404198:	55                   	push   %rbp
  404199:	48 89 e5             	mov    %rsp,%rbp
  40419c:	48 83 ec 10          	sub    $0x10,%rsp
  4041a0:	48 89 7d f8          	mov    %rdi,-0x8(%rbp)
  4041a4:	ba d8 d8 40 00       	mov    $0x40d8d8,%edx
  4041a9:	48 8b 45 f8          	mov    -0x8(%rbp),%rax
  4041ad:	48 89 10             	mov    %rdx,(%rax)
  4041b0:	48 8b 45 f8          	mov    -0x8(%rbp),%rax
  4041b4:	48 89 c7             	mov    %rax,%rdi
  4041b7:	e8 a0 12 00 00       	callq  40545c <_ZN11Tensor_KingIf15CPU_MATHEMATICS10continuousIfS0_EED1Ev>
  4041bc:	b8 00 00 00 00       	mov    $0x0,%eax
  4041c1:	85 c0                	test   %eax,%eax
  4041c3:	74 11                	je     4041d6 <_ZN12Tensor_QueenIf15CPU_MATHEMATICS10continuousIfS0_EED1Ev+0x3e>
  4041c5:	48 8b 45 f8          	mov    -0x8(%rbp),%rax
  4041c9:	be 30 00 00 00       	mov    $0x30,%esi
  4041ce:	48 89 c7             	mov    %rax,%rdi
  4041d1:	e8 fa db ff ff       	callq  401dd0 <_ZdlPvm@plt>
  4041d6:	c9                   	leaveq 
  4041d7:	c3                   	retq   

00000000004041d8 <_ZN12Tensor_QueenIf15CPU_MATHEMATICS10continuousIfS0_EED0Ev>:
  4041d8:	55                   	push   %rbp
  4041d9:	48 89 e5             	mov    %rsp,%rbp
  4041dc:	48 83 ec 10          	sub    $0x10,%rsp
  4041e0:	48 89 7d f8          	mov    %rdi,-0x8(%rbp)
  4041e4:	48 8b 45 f8          	mov    -0x8(%rbp),%rax
  4041e8:	48 89 c7             	mov    %rax,%rdi
  4041eb:	e8 a8 ff ff ff       	callq  404198 <_ZN12Tensor_QueenIf15CPU_MATHEMATICS10continuousIfS0_EED1Ev>
  4041f0:	48 8b 45 f8          	mov    -0x8(%rbp),%rax
  4041f4:	be 30 00 00 00       	mov    $0x30,%esi
  4041f9:	48 89 c7             	mov    %rax,%rdi
  4041fc:	e8 cf db ff ff       	callq  401dd0 <_ZdlPvm@plt>
  404201:	c9                   	leaveq 
  404202:	c3                   	retq   
  404203:	90                   	nop

0000000000404204 <_ZN6VectorIf15CPU_MATHEMATICS10continuousIfS0_EEC1Ei>:
  404204:	55                   	push   %rbp
  404205:	48 89 e5             	mov    %rsp,%rbp
  404208:	48 83 ec 20          	sub    $0x20,%rsp
  40420c:	48 89 7d e8          	mov    %rdi,-0x18(%rbp)
  404210:	89 75 e4             	mov    %esi,-0x1c(%rbp)
  404213:	64 48 8b 3c 25 28 00 	mov    %fs:0x28,%rdi
  40421a:	00 00 
  40421c:	48 89 7d f8          	mov    %rdi,-0x8(%rbp)
  404220:	31 ff                	xor    %edi,%edi
  404222:	8b 4d e4             	mov    -0x1c(%rbp),%ecx
  404225:	89 4d f0             	mov    %ecx,-0x10(%rbp)
  404228:	48 8d 4d f0          	lea    -0x10(%rbp),%rcx
  40422c:	48 89 c8             	mov    %rcx,%rax
  40422f:	ba 01 00 00 00       	mov    $0x1,%edx
  404234:	48 8b 4d e8          	mov    -0x18(%rbp),%rcx
  404238:	48 89 c6             	mov    %rax,%rsi
  40423b:	48 89 d7             	mov    %rdx,%rdi
  40423e:	48 89 d0             	mov    %rdx,%rax
  404241:	48 89 c2             	mov    %rax,%rdx
  404244:	48 89 cf             	mov    %rcx,%rdi
  404247:	e8 50 f3 ff ff       	callq  40359c <_ZN12Tensor_QueenIf15CPU_MATHEMATICS10continuousIfS0_EEC1ESt16initializer_listIiE>
  40424c:	ba 18 d3 40 00       	mov    $0x40d318,%edx
  404251:	48 8b 45 e8          	mov    -0x18(%rbp),%rax
  404255:	48 89 10             	mov    %rdx,(%rax)
  404258:	90                   	nop
  404259:	48 8b 45 f8          	mov    -0x8(%rbp),%rax
  40425d:	64 48 33 04 25 28 00 	xor    %fs:0x28,%rax
  404264:	00 00 
  404266:	74 05                	je     40426d <_ZN6VectorIf15CPU_MATHEMATICS10continuousIfS0_EEC1Ei+0x69>
  404268:	e8 c3 db ff ff       	callq  401e30 <__stack_chk_fail@plt>
  40426d:	c9                   	leaveq 
  40426e:	c3                   	retq   
  40426f:	90                   	nop

0000000000404270 <_ZN18reference_accessorIf15CPU_MATHEMATICSEC1ERKS1_>:
  404270:	55                   	push   %rbp
  404271:	48 89 e5             	mov    %rsp,%rbp
  404274:	48 83 ec 10          	sub    $0x10,%rsp
  404278:	48 89 7d f8          	mov    %rdi,-0x8(%rbp)
  40427c:	48 89 75 f0          	mov    %rsi,-0x10(%rbp)
  404280:	48 8b 55 f0          	mov    -0x10(%rbp),%rdx
  404284:	48 8b 45 f8          	mov    -0x8(%rbp),%rax
  404288:	48 89 d6             	mov    %rdx,%rsi
  40428b:	48 89 c7             	mov    %rax,%rdi
  40428e:	e8 75 f3 ff ff       	callq  403608 <_ZN12accessor_aceIf15CPU_MATHEMATICSEC1ERKS1_>
  404293:	ba 98 d2 40 00       	mov    $0x40d298,%edx
  404298:	48 8b 45 f8          	mov    -0x8(%rbp),%rax
  40429c:	48 89 10             	mov    %rdx,(%rax)
  40429f:	90                   	nop
  4042a0:	c9                   	leaveq 
  4042a1:	c3                   	retq   

00000000004042a2 <_ZN18reference_accessorIf15CPU_MATHEMATICSED1Ev>:
  4042a2:	55                   	push   %rbp
  4042a3:	48 89 e5             	mov    %rsp,%rbp
  4042a6:	48 83 ec 10          	sub    $0x10,%rsp
  4042aa:	48 89 7d f8          	mov    %rdi,-0x8(%rbp)
  4042ae:	ba 98 d2 40 00       	mov    $0x40d298,%edx
  4042b3:	48 8b 45 f8          	mov    -0x8(%rbp),%rax
  4042b7:	48 89 10             	mov    %rdx,(%rax)
  4042ba:	48 8b 45 f8          	mov    -0x8(%rbp),%rax
  4042be:	48 89 c7             	mov    %rax,%rdi
  4042c1:	e8 74 f3 ff ff       	callq  40363a <_ZN12accessor_aceIf15CPU_MATHEMATICSED1Ev>
  4042c6:	b8 00 00 00 00       	mov    $0x0,%eax
  4042cb:	85 c0                	test   %eax,%eax
  4042cd:	74 11                	je     4042e0 <_ZN18reference_accessorIf15CPU_MATHEMATICSED1Ev+0x3e>
  4042cf:	48 8b 45 f8          	mov    -0x8(%rbp),%rax
  4042d3:	be 08 00 00 00       	mov    $0x8,%esi
  4042d8:	48 89 c7             	mov    %rax,%rdi
  4042db:	e8 f0 da ff ff       	callq  401dd0 <_ZdlPvm@plt>
  4042e0:	c9                   	leaveq 
  4042e1:	c3                   	retq   

00000000004042e2 <_ZN18reference_accessorIf15CPU_MATHEMATICSED0Ev>:
  4042e2:	55                   	push   %rbp
  4042e3:	48 89 e5             	mov    %rsp,%rbp
  4042e6:	48 83 ec 10          	sub    $0x10,%rsp
  4042ea:	48 89 7d f8          	mov    %rdi,-0x8(%rbp)
  4042ee:	48 8b 45 f8          	mov    -0x8(%rbp),%rax
  4042f2:	48 89 c7             	mov    %rax,%rdi
  4042f5:	e8 a8 ff ff ff       	callq  4042a2 <_ZN18reference_accessorIf15CPU_MATHEMATICSED1Ev>
  4042fa:	48 8b 45 f8          	mov    -0x8(%rbp),%rax
  4042fe:	be 08 00 00 00       	mov    $0x8,%esi
  404303:	48 89 c7             	mov    %rax,%rdi
  404306:	e8 c5 da ff ff       	callq  401dd0 <_ZdlPvm@plt>
  40430b:	c9                   	leaveq 
  40430c:	c3                   	retq   
  40430d:	90                   	nop

000000000040430e <_ZN23ReferenceScalarAccessorIf15CPU_MATHEMATICSEC1ERKS1_>:
  40430e:	55                   	push   %rbp
  40430f:	48 89 e5             	mov    %rsp,%rbp
  404312:	48 83 ec 10          	sub    $0x10,%rsp
  404316:	48 89 7d f8          	mov    %rdi,-0x8(%rbp)
  40431a:	48 89 75 f0          	mov    %rsi,-0x10(%rbp)
  40431e:	48 8b 55 f0          	mov    -0x10(%rbp),%rdx
  404322:	48 8b 45 f8          	mov    -0x8(%rbp),%rax
  404326:	48 89 d6             	mov    %rdx,%rsi
  404329:	48 89 c7             	mov    %rax,%rdi
  40432c:	e8 71 fa ff ff       	callq  403da2 <_ZN15Scalar_AccessorIf15CPU_MATHEMATICSEC1ERKS1_>
  404331:	48 8b 45 f0          	mov    -0x10(%rbp),%rax
  404335:	48 8d 50 08          	lea    0x8(%rax),%rdx
  404339:	48 8b 45 f8          	mov    -0x8(%rbp),%rax
  40433d:	48 83 c0 08          	add    $0x8,%rax
  404341:	48 89 d6             	mov    %rdx,%rsi
  404344:	48 89 c7             	mov    %rax,%rdi
  404347:	e8 24 ff ff ff       	callq  404270 <_ZN18reference_accessorIf15CPU_MATHEMATICSEC1ERKS1_>
  40434c:	ba 98 d1 40 00       	mov    $0x40d198,%edx
  404351:	48 8b 45 f8          	mov    -0x8(%rbp),%rax
  404355:	48 89 10             	mov    %rdx,(%rax)
  404358:	ba 18 d2 40 00       	mov    $0x40d218,%edx
  40435d:	48 8b 45 f8          	mov    -0x8(%rbp),%rax
  404361:	48 89 50 08          	mov    %rdx,0x8(%rax)
  404365:	48 8b 45 f0          	mov    -0x10(%rbp),%rax
  404369:	48 8b 50 10          	mov    0x10(%rax),%rdx
  40436d:	48 8b 45 f8          	mov    -0x8(%rbp),%rax
  404371:	48 89 50 10          	mov    %rdx,0x10(%rax)
  404375:	90                   	nop
  404376:	c9                   	leaveq 
  404377:	c3                   	retq   

0000000000404378 <_ZN23ReferenceScalarAccessorIf15CPU_MATHEMATICSED1Ev>:
  404378:	55                   	push   %rbp
  404379:	48 89 e5             	mov    %rsp,%rbp
  40437c:	48 83 ec 10          	sub    $0x10,%rsp
  404380:	48 89 7d f8          	mov    %rdi,-0x8(%rbp)
  404384:	ba 98 d1 40 00       	mov    $0x40d198,%edx
  404389:	48 8b 45 f8          	mov    -0x8(%rbp),%rax
  40438d:	48 89 10             	mov    %rdx,(%rax)
  404390:	ba 18 d2 40 00       	mov    $0x40d218,%edx
  404395:	48 8b 45 f8          	mov    -0x8(%rbp),%rax
  404399:	48 89 50 08          	mov    %rdx,0x8(%rax)
  40439d:	48 8b 45 f8          	mov    -0x8(%rbp),%rax
  4043a1:	48 83 c0 08          	add    $0x8,%rax
  4043a5:	48 89 c7             	mov    %rax,%rdi
  4043a8:	e8 f5 fe ff ff       	callq  4042a2 <_ZN18reference_accessorIf15CPU_MATHEMATICSED1Ev>
  4043ad:	48 8b 45 f8          	mov    -0x8(%rbp),%rax
  4043b1:	48 89 c7             	mov    %rax,%rdi
  4043b4:	e8 1b fa ff ff       	callq  403dd4 <_ZN15Scalar_AccessorIf15CPU_MATHEMATICSED1Ev>
  4043b9:	b8 00 00 00 00       	mov    $0x0,%eax
  4043be:	85 c0                	test   %eax,%eax
  4043c0:	74 11                	je     4043d3 <_ZN23ReferenceScalarAccessorIf15CPU_MATHEMATICSED1Ev+0x5b>
  4043c2:	48 8b 45 f8          	mov    -0x8(%rbp),%rax
  4043c6:	be 18 00 00 00       	mov    $0x18,%esi
  4043cb:	48 89 c7             	mov    %rax,%rdi
  4043ce:	e8 fd d9 ff ff       	callq  401dd0 <_ZdlPvm@plt>
  4043d3:	c9                   	leaveq 
  4043d4:	c3                   	retq   

00000000004043d5 <_ZThn8_N23ReferenceScalarAccessorIf15CPU_MATHEMATICSED1Ev>:
  4043d5:	48 83 ef 08          	sub    $0x8,%rdi
  4043d9:	eb 9d                	jmp    404378 <_ZN23ReferenceScalarAccessorIf15CPU_MATHEMATICSED1Ev>
  4043db:	90                   	nop

00000000004043dc <_ZN23ReferenceScalarAccessorIf15CPU_MATHEMATICSED0Ev>:
  4043dc:	55                   	push   %rbp
  4043dd:	48 89 e5             	mov    %rsp,%rbp
  4043e0:	48 83 ec 10          	sub    $0x10,%rsp
  4043e4:	48 89 7d f8          	mov    %rdi,-0x8(%rbp)
  4043e8:	48 8b 45 f8          	mov    -0x8(%rbp),%rax
  4043ec:	48 89 c7             	mov    %rax,%rdi
  4043ef:	e8 84 ff ff ff       	callq  404378 <_ZN23ReferenceScalarAccessorIf15CPU_MATHEMATICSED1Ev>
  4043f4:	48 8b 45 f8          	mov    -0x8(%rbp),%rax
  4043f8:	be 18 00 00 00       	mov    $0x18,%esi
  4043fd:	48 89 c7             	mov    %rax,%rdi
  404400:	e8 cb d9 ff ff       	callq  401dd0 <_ZdlPvm@plt>
  404405:	c9                   	leaveq 
  404406:	c3                   	retq   

0000000000404407 <_ZThn8_N23ReferenceScalarAccessorIf15CPU_MATHEMATICSED0Ev>:
  404407:	48 83 ef 08          	sub    $0x8,%rdi
  40440b:	eb cf                	jmp    4043dc <_ZN23ReferenceScalarAccessorIf15CPU_MATHEMATICSED0Ev>
  40440d:	90                   	nop

000000000040440e <_ZN12Tensor_QueenIf15CPU_MATHEMATICS23ReferenceScalarAccessorIfS0_EED1Ev>:
  40440e:	55                   	push   %rbp
  40440f:	48 89 e5             	mov    %rsp,%rbp
  404412:	48 83 ec 10          	sub    $0x10,%rsp
  404416:	48 89 7d f8          	mov    %rdi,-0x8(%rbp)
  40441a:	ba 18 d1 40 00       	mov    $0x40d118,%edx
  40441f:	48 8b 45 f8          	mov    -0x8(%rbp),%rax
  404423:	48 89 10             	mov    %rdx,(%rax)
  404426:	48 8b 45 f8          	mov    -0x8(%rbp),%rax
  40442a:	48 89 c7             	mov    %rax,%rdi
  40442d:	e8 ba 1b 00 00       	callq  405fec <_ZN11Tensor_KingIf15CPU_MATHEMATICS23ReferenceScalarAccessorIfS0_EED1Ev>
  404432:	b8 00 00 00 00       	mov    $0x0,%eax
  404437:	85 c0                	test   %eax,%eax
  404439:	74 11                	je     40444c <_ZN12Tensor_QueenIf15CPU_MATHEMATICS23ReferenceScalarAccessorIfS0_EED1Ev+0x3e>
  40443b:	48 8b 45 f8          	mov    -0x8(%rbp),%rax
  40443f:	be 28 00 00 00       	mov    $0x28,%esi
  404444:	48 89 c7             	mov    %rax,%rdi
  404447:	e8 84 d9 ff ff       	callq  401dd0 <_ZdlPvm@plt>
  40444c:	c9                   	leaveq 
  40444d:	c3                   	retq   

000000000040444e <_ZN12Tensor_QueenIf15CPU_MATHEMATICS23ReferenceScalarAccessorIfS0_EED0Ev>:
  40444e:	55                   	push   %rbp
  40444f:	48 89 e5             	mov    %rsp,%rbp
  404452:	48 83 ec 10          	sub    $0x10,%rsp
  404456:	48 89 7d f8          	mov    %rdi,-0x8(%rbp)
  40445a:	48 8b 45 f8          	mov    -0x8(%rbp),%rax
  40445e:	48 89 c7             	mov    %rax,%rdi
  404461:	e8 a8 ff ff ff       	callq  40440e <_ZN12Tensor_QueenIf15CPU_MATHEMATICS23ReferenceScalarAccessorIfS0_EED1Ev>
  404466:	48 8b 45 f8          	mov    -0x8(%rbp),%rax
  40446a:	be 28 00 00 00       	mov    $0x28,%esi
  40446f:	48 89 c7             	mov    %rax,%rdi
  404472:	e8 59 d9 ff ff       	callq  401dd0 <_ZdlPvm@plt>
  404477:	c9                   	leaveq 
  404478:	c3                   	retq   
  404479:	90                   	nop

000000000040447a <_ZN6VectorIf15CPU_MATHEMATICS10continuousIfS0_EEixEi>:
  40447a:	55                   	push   %rbp
  40447b:	48 89 e5             	mov    %rsp,%rbp
  40447e:	48 83 ec 20          	sub    $0x20,%rsp
  404482:	48 89 7d f8          	mov    %rdi,-0x8(%rbp)
  404486:	48 89 75 f0          	mov    %rsi,-0x10(%rbp)
  40448a:	89 55 ec             	mov    %edx,-0x14(%rbp)
  40448d:	48 8b 45 f0          	mov    -0x10(%rbp),%rax
  404491:	48 8d 50 08          	lea    0x8(%rax),%rdx
  404495:	8b 45 ec             	mov    -0x14(%rbp),%eax
  404498:	89 c6                	mov    %eax,%esi
  40449a:	48 89 d7             	mov    %rdx,%rdi
  40449d:	e8 c0 03 00 00       	callq  404862 <_ZN10continuousIf15CPU_MATHEMATICSEixEi>
  4044a2:	48 89 c2             	mov    %rax,%rdx
  4044a5:	48 8b 45 f8          	mov    -0x8(%rbp),%rax
  4044a9:	48 89 d6             	mov    %rdx,%rsi
  4044ac:	48 89 c7             	mov    %rax,%rdi
  4044af:	e8 04 1b 00 00       	callq  405fb8 <_ZN9Id_ScalarIf15CPU_MATHEMATICSEC1EPf>
  4044b4:	48 8b 45 f8          	mov    -0x8(%rbp),%rax
  4044b8:	c9                   	leaveq 
  4044b9:	c3                   	retq   

00000000004044ba <_ZNK12Tensor_QueenIf15CPU_MATHEMATICS23ReferenceScalarAccessorIfS0_EE5printEv>:
  4044ba:	55                   	push   %rbp
  4044bb:	48 89 e5             	mov    %rsp,%rbp
  4044be:	41 56                	push   %r14
  4044c0:	41 55                	push   %r13
  4044c2:	41 54                	push   %r12
  4044c4:	53                   	push   %rbx
  4044c5:	48 83 ec 50          	sub    $0x50,%rsp
  4044c9:	48 89 7d 98          	mov    %rdi,-0x68(%rbp)
  4044cd:	64 48 8b 04 25 28 00 	mov    %fs:0x28,%rax
  4044d4:	00 00 
  4044d6:	48 89 45 d8          	mov    %rax,-0x28(%rbp)
  4044da:	31 c0                	xor    %eax,%eax
  4044dc:	48 8b 45 98          	mov    -0x68(%rbp),%rax
  4044e0:	48 83 c0 08          	add    $0x8,%rax
  4044e4:	48 89 c7             	mov    %rax,%rdi
  4044e7:	e8 c4 1b 00 00       	callq  4060b0 <_ZNK23ReferenceScalarAccessorIf15CPU_MATHEMATICSE8hasShapeEv>
  4044ec:	bb 00 00 00 00       	mov    $0x0,%ebx
  4044f1:	41 bc 00 00 00 00    	mov    $0x0,%r12d
  4044f7:	84 c0                	test   %al,%al
  4044f9:	74 57                	je     404552 <_ZNK12Tensor_QueenIf15CPU_MATHEMATICS23ReferenceScalarAccessorIfS0_EE5printEv+0x98>
  4044fb:	48 8b 45 98          	mov    -0x68(%rbp),%rax
  4044ff:	48 89 c7             	mov    %rax,%rdi
  404502:	e8 cf 1b 00 00       	callq  4060d6 <_ZNK11Tensor_KingIf15CPU_MATHEMATICS23ReferenceScalarAccessorIfS0_EE5orderEv>
  404507:	41 89 c6             	mov    %eax,%r14d
  40450a:	48 8b 45 98          	mov    -0x68(%rbp),%rax
  40450e:	48 83 c0 08          	add    $0x8,%rax
  404512:	48 89 c7             	mov    %rax,%rdi
  404515:	e8 a6 1b 00 00       	callq  4060c0 <_ZNK23ReferenceScalarAccessorIf15CPU_MATHEMATICSE8getShapeEv>
  40451a:	49 89 c5             	mov    %rax,%r13
  40451d:	48 8b 45 98          	mov    -0x68(%rbp),%rax
  404521:	48 8d 50 08          	lea    0x8(%rax),%rdx
  404525:	48 8d 45 a0          	lea    -0x60(%rbp),%rax
  404529:	48 89 d6             	mov    %rdx,%rsi
  40452c:	48 89 c7             	mov    %rax,%rdi
  40452f:	e8 da fd ff ff       	callq  40430e <_ZN23ReferenceScalarAccessorIf15CPU_MATHEMATICSEC1ERKS1_>
  404534:	bb 01 00 00 00       	mov    $0x1,%ebx
  404539:	48 8d 45 a0          	lea    -0x60(%rbp),%rax
  40453d:	b9 05 00 00 00       	mov    $0x5,%ecx
  404542:	44 89 f2             	mov    %r14d,%edx
  404545:	4c 89 ee             	mov    %r13,%rsi
  404548:	48 89 c7             	mov    %rax,%rdi
  40454b:	e8 a4 1b 00 00       	callq  4060f4 <_ZN15CPU_MATHEMATICS5printI23ReferenceScalarAccessorIfS_EEEvT_PKiii>
  404550:	eb 40                	jmp    404592 <_ZNK12Tensor_QueenIf15CPU_MATHEMATICS23ReferenceScalarAccessorIfS0_EE5printEv+0xd8>
  404552:	48 8b 45 98          	mov    -0x68(%rbp),%rax
  404556:	48 89 c7             	mov    %rax,%rdi
  404559:	e8 ec 1c 00 00       	callq  40624a <_ZNK11Tensor_KingIf15CPU_MATHEMATICS23ReferenceScalarAccessorIfS0_EE4sizeEv>
  40455e:	41 89 c5             	mov    %eax,%r13d
  404561:	48 8b 45 98          	mov    -0x68(%rbp),%rax
  404565:	48 8d 50 08          	lea    0x8(%rax),%rdx
  404569:	48 8d 45 c0          	lea    -0x40(%rbp),%rax
  40456d:	48 89 d6             	mov    %rdx,%rsi
  404570:	48 89 c7             	mov    %rax,%rdi
  404573:	e8 96 fd ff ff       	callq  40430e <_ZN23ReferenceScalarAccessorIf15CPU_MATHEMATICSEC1ERKS1_>
  404578:	41 bc 01 00 00 00    	mov    $0x1,%r12d
  40457e:	48 8d 45 c0          	lea    -0x40(%rbp),%rax
  404582:	ba 05 00 00 00       	mov    $0x5,%edx
  404587:	44 89 ee             	mov    %r13d,%esi
  40458a:	48 89 c7             	mov    %rax,%rdi
  40458d:	e8 d6 1c 00 00       	callq  406268 <_ZN15CPU_MATHEMATICS5printI23ReferenceScalarAccessorIfS_EEEvT_ii>
  404592:	45 84 e4             	test   %r12b,%r12b
  404595:	74 0c                	je     4045a3 <_ZNK12Tensor_QueenIf15CPU_MATHEMATICS23ReferenceScalarAccessorIfS0_EE5printEv+0xe9>
  404597:	48 8d 45 c0          	lea    -0x40(%rbp),%rax
  40459b:	48 89 c7             	mov    %rax,%rdi
  40459e:	e8 d5 fd ff ff       	callq  404378 <_ZN23ReferenceScalarAccessorIf15CPU_MATHEMATICSED1Ev>
  4045a3:	84 db                	test   %bl,%bl
  4045a5:	74 0f                	je     4045b6 <_ZNK12Tensor_QueenIf15CPU_MATHEMATICS23ReferenceScalarAccessorIfS0_EE5printEv+0xfc>
  4045a7:	90                   	nop
  4045a8:	48 8d 45 a0          	lea    -0x60(%rbp),%rax
  4045ac:	48 89 c7             	mov    %rax,%rdi
  4045af:	e8 c4 fd ff ff       	callq  404378 <_ZN23ReferenceScalarAccessorIf15CPU_MATHEMATICSED1Ev>
  4045b4:	eb 39                	jmp    4045ef <_ZNK12Tensor_QueenIf15CPU_MATHEMATICS23ReferenceScalarAccessorIfS0_EE5printEv+0x135>
  4045b6:	90                   	nop
  4045b7:	eb 36                	jmp    4045ef <_ZNK12Tensor_QueenIf15CPU_MATHEMATICS23ReferenceScalarAccessorIfS0_EE5printEv+0x135>
  4045b9:	49 89 c5             	mov    %rax,%r13
  4045bc:	45 84 e4             	test   %r12b,%r12b
  4045bf:	74 0c                	je     4045cd <_ZNK12Tensor_QueenIf15CPU_MATHEMATICS23ReferenceScalarAccessorIfS0_EE5printEv+0x113>
  4045c1:	48 8d 45 c0          	lea    -0x40(%rbp),%rax
  4045c5:	48 89 c7             	mov    %rax,%rdi
  4045c8:	e8 ab fd ff ff       	callq  404378 <_ZN23ReferenceScalarAccessorIf15CPU_MATHEMATICSED1Ev>
  4045cd:	4d 89 ec             	mov    %r13,%r12
  4045d0:	84 db                	test   %bl,%bl
  4045d2:	74 0f                	je     4045e3 <_ZNK12Tensor_QueenIf15CPU_MATHEMATICS23ReferenceScalarAccessorIfS0_EE5printEv+0x129>
  4045d4:	90                   	nop
  4045d5:	48 8d 45 a0          	lea    -0x60(%rbp),%rax
  4045d9:	48 89 c7             	mov    %rax,%rdi
  4045dc:	e8 97 fd ff ff       	callq  404378 <_ZN23ReferenceScalarAccessorIf15CPU_MATHEMATICSED1Ev>
  4045e1:	eb 01                	jmp    4045e4 <_ZNK12Tensor_QueenIf15CPU_MATHEMATICS23ReferenceScalarAccessorIfS0_EE5printEv+0x12a>
  4045e3:	90                   	nop
  4045e4:	4c 89 e0             	mov    %r12,%rax
  4045e7:	48 89 c7             	mov    %rax,%rdi
  4045ea:	e8 a1 d9 ff ff       	callq  401f90 <_Unwind_Resume@plt>
  4045ef:	48 8b 45 d8          	mov    -0x28(%rbp),%rax
  4045f3:	64 48 33 04 25 28 00 	xor    %fs:0x28,%rax
  4045fa:	00 00 
  4045fc:	74 05                	je     404603 <_ZNK12Tensor_QueenIf15CPU_MATHEMATICS23ReferenceScalarAccessorIfS0_EE5printEv+0x149>
  4045fe:	e8 2d d8 ff ff       	callq  401e30 <__stack_chk_fail@plt>
  404603:	48 83 c4 50          	add    $0x50,%rsp
  404607:	5b                   	pop    %rbx
  404608:	41 5c                	pop    %r12
  40460a:	41 5d                	pop    %r13
  40460c:	41 5e                	pop    %r14
  40460e:	5d                   	pop    %rbp
  40460f:	c3                   	retq   

0000000000404610 <_ZN7pBufferIf15CPU_MATHEMATICS10continuousIfS0_E23ReferenceScalarAccessorIfS0_EN9Operation3addIfEEED1Ev>:
  404610:	55                   	push   %rbp
  404611:	48 89 e5             	mov    %rsp,%rbp
  404614:	48 83 ec 10          	sub    $0x10,%rsp
  404618:	48 89 7d f8          	mov    %rdi,-0x8(%rbp)
  40461c:	ba 68 d0 40 00       	mov    $0x40d068,%edx
  404621:	48 8b 45 f8          	mov    -0x8(%rbp),%rax
  404625:	48 89 10             	mov    %rdx,(%rax)
  404628:	48 8b 45 f8          	mov    -0x8(%rbp),%rax
  40462c:	48 83 c0 30          	add    $0x30,%rax
  404630:	48 89 c7             	mov    %rax,%rdi
  404633:	e8 40 fd ff ff       	callq  404378 <_ZN23ReferenceScalarAccessorIf15CPU_MATHEMATICSED1Ev>
  404638:	48 8b 45 f8          	mov    -0x8(%rbp),%rax
  40463c:	48 83 c0 10          	add    $0x10,%rax
  404640:	48 89 c7             	mov    %rax,%rdi
  404643:	e8 be f0 ff ff       	callq  403706 <_ZN10continuousIf15CPU_MATHEMATICSED1Ev>
  404648:	48 8b 45 f8          	mov    -0x8(%rbp),%rax
  40464c:	48 89 c7             	mov    %rax,%rdi
  40464f:	e8 e6 ef ff ff       	callq  40363a <_ZN12accessor_aceIf15CPU_MATHEMATICSED1Ev>
  404654:	b8 00 00 00 00       	mov    $0x0,%eax
  404659:	85 c0                	test   %eax,%eax
  40465b:	74 11                	je     40466e <_ZN7pBufferIf15CPU_MATHEMATICS10continuousIfS0_E23ReferenceScalarAccessorIfS0_EN9Operation3addIfEEED1Ev+0x5e>
  40465d:	48 8b 45 f8          	mov    -0x8(%rbp),%rax
  404661:	be 48 00 00 00       	mov    $0x48,%esi
  404666:	48 89 c7             	mov    %rax,%rdi
  404669:	e8 62 d7 ff ff       	callq  401dd0 <_ZdlPvm@plt>
  40466e:	c9                   	leaveq 
  40466f:	c3                   	retq   

0000000000404670 <_ZN7pBufferIf15CPU_MATHEMATICS10continuousIfS0_E23ReferenceScalarAccessorIfS0_EN9Operation3addIfEEED0Ev>:
  404670:	55                   	push   %rbp
  404671:	48 89 e5             	mov    %rsp,%rbp
  404674:	48 83 ec 10          	sub    $0x10,%rsp
  404678:	48 89 7d f8          	mov    %rdi,-0x8(%rbp)
  40467c:	48 8b 45 f8          	mov    -0x8(%rbp),%rax
  404680:	48 89 c7             	mov    %rax,%rdi
  404683:	e8 88 ff ff ff       	callq  404610 <_ZN7pBufferIf15CPU_MATHEMATICS10continuousIfS0_E23ReferenceScalarAccessorIfS0_EN9Operation3addIfEEED1Ev>
  404688:	48 8b 45 f8          	mov    -0x8(%rbp),%rax
  40468c:	be 48 00 00 00       	mov    $0x48,%esi
  404691:	48 89 c7             	mov    %rax,%rdi
  404694:	e8 37 d7 ff ff       	callq  401dd0 <_ZdlPvm@plt>
  404699:	c9                   	leaveq 
  40469a:	c3                   	retq   
  40469b:	90                   	nop

000000000040469c <_ZN12Tensor_QueenIf15CPU_MATHEMATICS10continuousIfS0_EEplIf23ReferenceScalarAccessorIfS0_EEES_IfS0_7pBufferIfS0_S2_T0_N9Operation3addIfEEEERKS_IT_S0_S8_E>:
  40469c:	55                   	push   %rbp
  40469d:	48 89 e5             	mov    %rsp,%rbp
  4046a0:	53                   	push   %rbx
  4046a1:	48 83 ec 78          	sub    $0x78,%rsp
  4046a5:	48 89 7d 98          	mov    %rdi,-0x68(%rbp)
  4046a9:	48 89 75 90          	mov    %rsi,-0x70(%rbp)
  4046ad:	48 89 55 88          	mov    %rdx,-0x78(%rbp)
  4046b1:	64 48 8b 04 25 28 00 	mov    %fs:0x28,%rax
  4046b8:	00 00 
  4046ba:	48 89 45 e8          	mov    %rax,-0x18(%rbp)
  4046be:	31 c0                	xor    %eax,%eax
  4046c0:	48 8b 45 88          	mov    -0x78(%rbp),%rax
  4046c4:	48 8d 50 08          	lea    0x8(%rax),%rdx
  4046c8:	48 8d 45 a0          	lea    -0x60(%rbp),%rax
  4046cc:	48 89 d6             	mov    %rdx,%rsi
  4046cf:	48 89 c7             	mov    %rax,%rdi
  4046d2:	e8 37 fc ff ff       	callq  40430e <_ZN23ReferenceScalarAccessorIf15CPU_MATHEMATICSEC1ERKS1_>
  4046d7:	48 8b 45 90          	mov    -0x70(%rbp),%rax
  4046db:	48 8d 50 08          	lea    0x8(%rax),%rdx
  4046df:	48 8d 45 c0          	lea    -0x40(%rbp),%rax
  4046e3:	48 89 d6             	mov    %rdx,%rsi
  4046e6:	48 89 c7             	mov    %rax,%rdi
  4046e9:	e8 b8 ef ff ff       	callq  4036a6 <_ZN10continuousIf15CPU_MATHEMATICSEC1ERKS1_>
  4046ee:	48 8d 4d a0          	lea    -0x60(%rbp),%rcx
  4046f2:	48 8d 55 c0          	lea    -0x40(%rbp),%rdx
  4046f6:	48 8b 45 98          	mov    -0x68(%rbp),%rax
  4046fa:	be 00 00 00 00       	mov    $0x0,%esi
  4046ff:	48 89 c7             	mov    %rax,%rdi
  404702:	e8 df 1c 00 00       	callq  4063e6 <_ZN12Tensor_QueenIf15CPU_MATHEMATICS7pBufferIfS0_10continuousIfS0_E23ReferenceScalarAccessorIfS0_EN9Operation3addIfEEEEC1IIS3_S5_EEEbDpT_>
  404707:	48 8d 45 c0          	lea    -0x40(%rbp),%rax
  40470b:	48 89 c7             	mov    %rax,%rdi
  40470e:	e8 f3 ef ff ff       	callq  403706 <_ZN10continuousIf15CPU_MATHEMATICSED1Ev>
  404713:	48 8d 45 a0          	lea    -0x60(%rbp),%rax
  404717:	48 89 c7             	mov    %rax,%rdi
  40471a:	e8 59 fc ff ff       	callq  404378 <_ZN23ReferenceScalarAccessorIf15CPU_MATHEMATICSED1Ev>
  40471f:	48 8b 45 98          	mov    -0x68(%rbp),%rax
  404723:	48 8b 4d e8          	mov    -0x18(%rbp),%rcx
  404727:	64 48 33 0c 25 28 00 	xor    %fs:0x28,%rcx
  40472e:	00 00 
  404730:	74 2d                	je     40475f <_ZN12Tensor_QueenIf15CPU_MATHEMATICS10continuousIfS0_EEplIf23ReferenceScalarAccessorIfS0_EEES_IfS0_7pBufferIfS0_S2_T0_N9Operation3addIfEEEERKS_IT_S0_S8_E+0xc3>
  404732:	eb 26                	jmp    40475a <_ZN12Tensor_QueenIf15CPU_MATHEMATICS10continuousIfS0_EEplIf23ReferenceScalarAccessorIfS0_EEES_IfS0_7pBufferIfS0_S2_T0_N9Operation3addIfEEEERKS_IT_S0_S8_E+0xbe>
  404734:	48 89 c3             	mov    %rax,%rbx
  404737:	48 8d 45 c0          	lea    -0x40(%rbp),%rax
  40473b:	48 89 c7             	mov    %rax,%rdi
  40473e:	e8 c3 ef ff ff       	callq  403706 <_ZN10continuousIf15CPU_MATHEMATICSED1Ev>
  404743:	48 8d 45 a0          	lea    -0x60(%rbp),%rax
  404747:	48 89 c7             	mov    %rax,%rdi
  40474a:	e8 29 fc ff ff       	callq  404378 <_ZN23ReferenceScalarAccessorIf15CPU_MATHEMATICSED1Ev>
  40474f:	48 89 d8             	mov    %rbx,%rax
  404752:	48 89 c7             	mov    %rax,%rdi
  404755:	e8 36 d8 ff ff       	callq  401f90 <_Unwind_Resume@plt>
  40475a:	e8 d1 d6 ff ff       	callq  401e30 <__stack_chk_fail@plt>
  40475f:	48 83 c4 78          	add    $0x78,%rsp
  404763:	5b                   	pop    %rbx
  404764:	5d                   	pop    %rbp
  404765:	c3                   	retq   

0000000000404766 <_ZN6VectorIf15CPU_MATHEMATICS10continuousIfS0_EEaSIf7pBufferIfS0_S2_23ReferenceScalarAccessorIfS0_EN9Operation3addIfEEEEERS3_RK12Tensor_QueenIT_S0_T0_E>:
  404766:	55                   	push   %rbp
  404767:	48 89 e5             	mov    %rsp,%rbp
  40476a:	53                   	push   %rbx
  40476b:	48 83 ec 18          	sub    $0x18,%rsp
  40476f:	48 89 7d e8          	mov    %rdi,-0x18(%rbp)
  404773:	48 89 75 e0          	mov    %rsi,-0x20(%rbp)
  404777:	48 8b 45 e8          	mov    -0x18(%rbp),%rax
  40477b:	48 89 c7             	mov    %rax,%rdi
  40477e:	e8 af 00 00 00       	callq  404832 <_ZNK11Tensor_KingIf15CPU_MATHEMATICS10continuousIfS0_EE4sizeEv>
  404783:	89 c3                	mov    %eax,%ebx
  404785:	48 8b 45 e0          	mov    -0x20(%rbp),%rax
  404789:	48 89 c7             	mov    %rax,%rdi
  40478c:	e8 f1 1d 00 00       	callq  406582 <_ZNK11Tensor_KingIf15CPU_MATHEMATICS7pBufferIfS0_10continuousIfS0_E23ReferenceScalarAccessorIfS0_EN9Operation3addIfEEEE8accessorEv>
  404791:	48 89 c1             	mov    %rax,%rcx
  404794:	48 8b 45 e8          	mov    -0x18(%rbp),%rax
  404798:	48 83 c0 08          	add    $0x8,%rax
  40479c:	89 da                	mov    %ebx,%edx
  40479e:	48 89 ce             	mov    %rcx,%rsi
  4047a1:	48 89 c7             	mov    %rax,%rdi
  4047a4:	e8 eb 1d 00 00       	callq  406594 <_ZN15CPU_MATHEMATICS4copyI10continuousIfS_EK7pBufferIfS_S2_23ReferenceScalarAccessorIfS_EN9Operation3addIfEEEEEvRT_RT0_i>
  4047a9:	48 8b 45 e8          	mov    -0x18(%rbp),%rax
  4047ad:	48 83 c4 18          	add    $0x18,%rsp
  4047b1:	5b                   	pop    %rbx
  4047b2:	5d                   	pop    %rbp
  4047b3:	c3                   	retq   

00000000004047b4 <_ZN6MatrixIf15CPU_MATHEMATICS10continuousIfS0_EEC1Eii>:
  4047b4:	55                   	push   %rbp
  4047b5:	48 89 e5             	mov    %rsp,%rbp
  4047b8:	53                   	push   %rbx
  4047b9:	48 83 ec 28          	sub    $0x28,%rsp
  4047bd:	48 89 7d d8          	mov    %rdi,-0x28(%rbp)
  4047c1:	89 75 d4             	mov    %esi,-0x2c(%rbp)
  4047c4:	89 55 d0             	mov    %edx,-0x30(%rbp)
  4047c7:	64 48 8b 04 25 28 00 	mov    %fs:0x28,%rax
  4047ce:	00 00 
  4047d0:	48 89 45 e8          	mov    %rax,-0x18(%rbp)
  4047d4:	31 c0                	xor    %eax,%eax
  4047d6:	8b 45 d4             	mov    -0x2c(%rbp),%eax
  4047d9:	89 45 e0             	mov    %eax,-0x20(%rbp)
  4047dc:	8b 45 d0             	mov    -0x30(%rbp),%eax
  4047df:	89 45 e4             	mov    %eax,-0x1c(%rbp)
  4047e2:	48 8d 45 e0          	lea    -0x20(%rbp),%rax
  4047e6:	48 89 c1             	mov    %rax,%rcx
  4047e9:	bb 02 00 00 00       	mov    $0x2,%ebx
  4047ee:	48 8b 45 d8          	mov    -0x28(%rbp),%rax
  4047f2:	48 89 ce             	mov    %rcx,%rsi
  4047f5:	48 89 df             	mov    %rbx,%rdi
  4047f8:	48 89 ca             	mov    %rcx,%rdx
  4047fb:	48 89 d9             	mov    %rbx,%rcx
  4047fe:	48 89 ca             	mov    %rcx,%rdx
  404801:	48 89 c7             	mov    %rax,%rdi
  404804:	e8 93 ed ff ff       	callq  40359c <_ZN12Tensor_QueenIf15CPU_MATHEMATICS10continuousIfS0_EEC1ESt16initializer_listIiE>
  404809:	ba a8 cf 40 00       	mov    $0x40cfa8,%edx
  40480e:	48 8b 45 d8          	mov    -0x28(%rbp),%rax
  404812:	48 89 10             	mov    %rdx,(%rax)
  404815:	90                   	nop
  404816:	48 8b 45 e8          	mov    -0x18(%rbp),%rax
  40481a:	64 48 33 04 25 28 00 	xor    %fs:0x28,%rax
  404821:	00 00 
  404823:	74 05                	je     40482a <_ZN6MatrixIf15CPU_MATHEMATICS10continuousIfS0_EEC1Eii+0x76>
  404825:	e8 06 d6 ff ff       	callq  401e30 <__stack_chk_fail@plt>
  40482a:	48 83 c4 28          	add    $0x28,%rsp
  40482e:	5b                   	pop    %rbx
  40482f:	5d                   	pop    %rbp
  404830:	c3                   	retq   
  404831:	90                   	nop

0000000000404832 <_ZNK11Tensor_KingIf15CPU_MATHEMATICS10continuousIfS0_EE4sizeEv>:
  404832:	55                   	push   %rbp
  404833:	48 89 e5             	mov    %rsp,%rbp
  404836:	48 83 ec 10          	sub    $0x10,%rsp
  40483a:	48 89 7d f8          	mov    %rdi,-0x8(%rbp)
  40483e:	48 8b 45 f8          	mov    -0x8(%rbp),%rax
  404842:	48 83 c0 08          	add    $0x8,%rax
  404846:	48 89 c7             	mov    %rax,%rdi
  404849:	e8 a2 1d 00 00       	callq  4065f0 <_ZNK10continuousIf15CPU_MATHEMATICSE4sizeEv>
  40484e:	c9                   	leaveq 
  40484f:	c3                   	retq   

0000000000404850 <_ZN11Tensor_KingIf15CPU_MATHEMATICS10continuousIfS0_EE8accessorEv>:
  404850:	55                   	push   %rbp
  404851:	48 89 e5             	mov    %rsp,%rbp
  404854:	48 89 7d f8          	mov    %rdi,-0x8(%rbp)
  404858:	48 8b 45 f8          	mov    -0x8(%rbp),%rax
  40485c:	48 83 c0 08          	add    $0x8,%rax
  404860:	5d                   	pop    %rbp
  404861:	c3                   	retq   

0000000000404862 <_ZN10continuousIf15CPU_MATHEMATICSEixEi>:
  404862:	55                   	push   %rbp
  404863:	48 89 e5             	mov    %rsp,%rbp
  404866:	48 89 7d f8          	mov    %rdi,-0x8(%rbp)
  40486a:	89 75 f4             	mov    %esi,-0xc(%rbp)
  40486d:	48 8b 45 f8          	mov    -0x8(%rbp),%rax
  404871:	48 8b 40 08          	mov    0x8(%rax),%rax
  404875:	8b 55 f4             	mov    -0xc(%rbp),%edx
  404878:	48 63 d2             	movslq %edx,%rdx
  40487b:	48 c1 e2 02          	shl    $0x2,%rdx
  40487f:	48 01 d0             	add    %rdx,%rax
  404882:	5d                   	pop    %rbp
  404883:	c3                   	retq   

0000000000404884 <_ZN12Tensor_QueenIf15CPU_MATHEMATICS10continuousIfS0_EEmlIS2_EES3_RKS_IfS0_T_E>:
  404884:	55                   	push   %rbp
  404885:	48 89 e5             	mov    %rsp,%rbp
  404888:	41 57                	push   %r15
  40488a:	41 56                	push   %r14
  40488c:	41 55                	push   %r13
  40488e:	41 54                	push   %r12
  404890:	53                   	push   %rbx
  404891:	48 83 ec 38          	sub    $0x38,%rsp
  404895:	48 89 7d b8          	mov    %rdi,-0x48(%rbp)
  404899:	48 89 75 b0          	mov    %rsi,-0x50(%rbp)
  40489d:	48 89 55 a8          	mov    %rdx,-0x58(%rbp)
  4048a1:	64 48 8b 04 25 28 00 	mov    %fs:0x28,%rax
  4048a8:	00 00 
  4048aa:	48 89 45 c8          	mov    %rax,-0x38(%rbp)
  4048ae:	31 c0                	xor    %eax,%eax
  4048b0:	48 8b 45 b0          	mov    -0x50(%rbp),%rax
  4048b4:	48 89 c7             	mov    %rax,%rdi
  4048b7:	e8 20 0d 00 00       	callq  4055dc <_ZNK11Tensor_KingIf15CPU_MATHEMATICS10continuousIfS0_EE5orderEv>
  4048bc:	83 f8 02             	cmp    $0x2,%eax
  4048bf:	7f 11                	jg     4048d2 <_ZN12Tensor_QueenIf15CPU_MATHEMATICS10continuousIfS0_EEmlIS2_EES3_RKS_IfS0_T_E+0x4e>
  4048c1:	48 8b 45 a8          	mov    -0x58(%rbp),%rax
  4048c5:	48 89 c7             	mov    %rax,%rdi
  4048c8:	e8 0f 0d 00 00       	callq  4055dc <_ZNK11Tensor_KingIf15CPU_MATHEMATICS10continuousIfS0_EE5orderEv>
  4048cd:	83 f8 02             	cmp    $0x2,%eax
  4048d0:	7e 07                	jle    4048d9 <_ZN12Tensor_QueenIf15CPU_MATHEMATICS10continuousIfS0_EEmlIS2_EES3_RKS_IfS0_T_E+0x55>
  4048d2:	b8 01 00 00 00       	mov    $0x1,%eax
  4048d7:	eb 05                	jmp    4048de <_ZN12Tensor_QueenIf15CPU_MATHEMATICS10continuousIfS0_EEmlIS2_EES3_RKS_IfS0_T_E+0x5a>
  4048d9:	b8 00 00 00 00       	mov    $0x0,%eax
  4048de:	84 c0                	test   %al,%al
  4048e0:	74 2c                	je     40490e <_ZN12Tensor_QueenIf15CPU_MATHEMATICS10continuousIfS0_EEmlIS2_EES3_RKS_IfS0_T_E+0x8a>
  4048e2:	bf 10 00 00 00       	mov    $0x10,%edi
  4048e7:	e8 24 d4 ff ff       	callq  401d10 <__cxa_allocate_exception@plt>
  4048ec:	48 89 c3             	mov    %rax,%rbx
  4048ef:	be 40 c7 40 00       	mov    $0x40c740,%esi
  4048f4:	48 89 df             	mov    %rbx,%rdi
  4048f7:	e8 f4 d6 ff ff       	callq  401ff0 <_ZNSt16invalid_argumentC1EPKc@plt>
  4048fc:	ba 50 1f 40 00       	mov    $0x401f50,%edx
  404901:	be 20 44 61 00       	mov    $0x614420,%esi
  404906:	48 89 df             	mov    %rbx,%rdi
  404909:	e8 62 d6 ff ff       	callq  401f70 <__cxa_throw@plt>
  40490e:	48 8b 45 b0          	mov    -0x50(%rbp),%rax
  404912:	be 01 00 00 00       	mov    $0x1,%esi
  404917:	48 89 c7             	mov    %rax,%rdi
  40491a:	e8 0f 1d 00 00       	callq  40662e <_ZNK11Tensor_KingIf15CPU_MATHEMATICS10continuousIfS0_EE9dimensionEi>
  40491f:	89 c3                	mov    %eax,%ebx
  404921:	48 8b 45 a8          	mov    -0x58(%rbp),%rax
  404925:	be 00 00 00 00       	mov    $0x0,%esi
  40492a:	48 89 c7             	mov    %rax,%rdi
  40492d:	e8 fc 1c 00 00       	callq  40662e <_ZNK11Tensor_KingIf15CPU_MATHEMATICS10continuousIfS0_EE9dimensionEi>
  404932:	39 c3                	cmp    %eax,%ebx
  404934:	0f 95 c0             	setne  %al
  404937:	84 c0                	test   %al,%al
  404939:	74 2c                	je     404967 <_ZN12Tensor_QueenIf15CPU_MATHEMATICS10continuousIfS0_EEmlIS2_EES3_RKS_IfS0_T_E+0xe3>
  40493b:	bf 10 00 00 00       	mov    $0x10,%edi
  404940:	e8 cb d3 ff ff       	callq  401d10 <__cxa_allocate_exception@plt>
  404945:	48 89 c3             	mov    %rax,%rbx
  404948:	be 78 c7 40 00       	mov    $0x40c778,%esi
  40494d:	48 89 df             	mov    %rbx,%rdi
  404950:	e8 9b d6 ff ff       	callq  401ff0 <_ZNSt16invalid_argumentC1EPKc@plt>
  404955:	ba 50 1f 40 00       	mov    $0x401f50,%edx
  40495a:	be 20 44 61 00       	mov    $0x614420,%esi
  40495f:	48 89 df             	mov    %rbx,%rdi
  404962:	e8 09 d6 ff ff       	callq  401f70 <__cxa_throw@plt>
  404967:	48 8b 45 b0          	mov    -0x50(%rbp),%rax
  40496b:	be 00 00 00 00       	mov    $0x0,%esi
  404970:	48 89 c7             	mov    %rax,%rdi
  404973:	e8 b6 1c 00 00       	callq  40662e <_ZNK11Tensor_KingIf15CPU_MATHEMATICS10continuousIfS0_EE9dimensionEi>
  404978:	89 45 c0             	mov    %eax,-0x40(%rbp)
  40497b:	48 8b 45 a8          	mov    -0x58(%rbp),%rax
  40497f:	be 01 00 00 00       	mov    $0x1,%esi
  404984:	48 89 c7             	mov    %rax,%rdi
  404987:	e8 a2 1c 00 00       	callq  40662e <_ZNK11Tensor_KingIf15CPU_MATHEMATICS10continuousIfS0_EE9dimensionEi>
  40498c:	89 45 c4             	mov    %eax,-0x3c(%rbp)
  40498f:	48 8d 45 c0          	lea    -0x40(%rbp),%rax
  404993:	49 89 c4             	mov    %rax,%r12
  404996:	41 bd 02 00 00 00    	mov    $0x2,%r13d
  40499c:	4c 89 e1             	mov    %r12,%rcx
  40499f:	4c 89 eb             	mov    %r13,%rbx
  4049a2:	4c 89 e0             	mov    %r12,%rax
  4049a5:	4c 89 ea             	mov    %r13,%rdx
  4049a8:	48 8b 45 b8          	mov    -0x48(%rbp),%rax
  4049ac:	48 89 ce             	mov    %rcx,%rsi
  4049af:	48 89 c7             	mov    %rax,%rdi
  4049b2:	e8 e5 eb ff ff       	callq  40359c <_ZN12Tensor_QueenIf15CPU_MATHEMATICS10continuousIfS0_EEC1ESt16initializer_listIiE>
  4049b7:	48 8b 45 b8          	mov    -0x48(%rbp),%rax
  4049bb:	48 89 c7             	mov    %rax,%rdi
  4049be:	e8 91 1c 00 00       	callq  406654 <_ZN12Tensor_QueenIf15CPU_MATHEMATICS10continuousIfS0_EE4zeroEv>
  4049c3:	48 8b 45 a8          	mov    -0x58(%rbp),%rax
  4049c7:	be 01 00 00 00       	mov    $0x1,%esi
  4049cc:	48 89 c7             	mov    %rax,%rdi
  4049cf:	e8 5a 1c 00 00       	callq  40662e <_ZNK11Tensor_KingIf15CPU_MATHEMATICS10continuousIfS0_EE9dimensionEi>
  4049d4:	41 89 c7             	mov    %eax,%r15d
  4049d7:	48 8b 45 a8          	mov    -0x58(%rbp),%rax
  4049db:	48 89 c7             	mov    %rax,%rdi
  4049de:	e8 b3 1c 00 00       	callq  406696 <_ZNK11Tensor_KingIf15CPU_MATHEMATICS10continuousIfS0_EE8accessorEv>
  4049e3:	48 8b 10             	mov    (%rax),%rdx
  4049e6:	48 83 c2 30          	add    $0x30,%rdx
  4049ea:	48 8b 12             	mov    (%rdx),%rdx
  4049ed:	48 89 c7             	mov    %rax,%rdi
  4049f0:	ff d2                	callq  *%rdx
  4049f2:	49 89 c6             	mov    %rax,%r14
  4049f5:	48 8b 45 b0          	mov    -0x50(%rbp),%rax
  4049f9:	be 01 00 00 00       	mov    $0x1,%esi
  4049fe:	48 89 c7             	mov    %rax,%rdi
  404a01:	e8 28 1c 00 00       	callq  40662e <_ZNK11Tensor_KingIf15CPU_MATHEMATICS10continuousIfS0_EE9dimensionEi>
  404a06:	41 89 c5             	mov    %eax,%r13d
  404a09:	48 8b 45 b0          	mov    -0x50(%rbp),%rax
  404a0d:	be 00 00 00 00       	mov    $0x0,%esi
  404a12:	48 89 c7             	mov    %rax,%rdi
  404a15:	e8 14 1c 00 00       	callq  40662e <_ZNK11Tensor_KingIf15CPU_MATHEMATICS10continuousIfS0_EE9dimensionEi>
  404a1a:	41 89 c4             	mov    %eax,%r12d
  404a1d:	48 8b 45 b0          	mov    -0x50(%rbp),%rax
  404a21:	48 89 c7             	mov    %rax,%rdi
  404a24:	e8 27 fe ff ff       	callq  404850 <_ZN11Tensor_KingIf15CPU_MATHEMATICS10continuousIfS0_EE8accessorEv>
  404a29:	48 8b 10             	mov    (%rax),%rdx
  404a2c:	48 83 c2 48          	add    $0x48,%rdx
  404a30:	48 8b 12             	mov    (%rdx),%rdx
  404a33:	48 89 c7             	mov    %rax,%rdi
  404a36:	ff d2                	callq  *%rdx
  404a38:	48 89 c3             	mov    %rax,%rbx
  404a3b:	48 8b 45 b8          	mov    -0x48(%rbp),%rax
  404a3f:	48 89 c7             	mov    %rax,%rdi
  404a42:	e8 09 fe ff ff       	callq  404850 <_ZN11Tensor_KingIf15CPU_MATHEMATICS10continuousIfS0_EE8accessorEv>
  404a47:	48 8b 10             	mov    (%rax),%rdx
  404a4a:	48 83 c2 48          	add    $0x48,%rdx
  404a4e:	48 8b 12             	mov    (%rdx),%rdx
  404a51:	48 89 c7             	mov    %rax,%rdi
  404a54:	ff d2                	callq  *%rdx
  404a56:	45 89 f9             	mov    %r15d,%r9d
  404a59:	4d 89 f0             	mov    %r14,%r8
  404a5c:	44 89 e9             	mov    %r13d,%ecx
  404a5f:	44 89 e2             	mov    %r12d,%edx
  404a62:	48 89 de             	mov    %rbx,%rsi
  404a65:	48 89 c7             	mov    %rax,%rdi
  404a68:	e8 b7 7a 00 00       	callq  40c524 <_ZN15CPU_MATHEMATICS10matmulBLASEPfPKfiiS2_i>
  404a6d:	eb 46                	jmp    404ab5 <_ZN12Tensor_QueenIf15CPU_MATHEMATICS10continuousIfS0_EEmlIS2_EES3_RKS_IfS0_T_E+0x231>
  404a6f:	49 89 c4             	mov    %rax,%r12
  404a72:	48 89 df             	mov    %rbx,%rdi
  404a75:	e8 e6 d2 ff ff       	callq  401d60 <__cxa_free_exception@plt>
  404a7a:	4c 89 e0             	mov    %r12,%rax
  404a7d:	48 89 c7             	mov    %rax,%rdi
  404a80:	e8 0b d5 ff ff       	callq  401f90 <_Unwind_Resume@plt>
  404a85:	49 89 c4             	mov    %rax,%r12
  404a88:	48 89 df             	mov    %rbx,%rdi
  404a8b:	e8 d0 d2 ff ff       	callq  401d60 <__cxa_free_exception@plt>
  404a90:	4c 89 e0             	mov    %r12,%rax
  404a93:	48 89 c7             	mov    %rax,%rdi
  404a96:	e8 f5 d4 ff ff       	callq  401f90 <_Unwind_Resume@plt>
  404a9b:	48 89 c3             	mov    %rax,%rbx
  404a9e:	48 8b 45 b8          	mov    -0x48(%rbp),%rax
  404aa2:	48 89 c7             	mov    %rax,%rdi
  404aa5:	e8 ee f6 ff ff       	callq  404198 <_ZN12Tensor_QueenIf15CPU_MATHEMATICS10continuousIfS0_EED1Ev>
  404aaa:	48 89 d8             	mov    %rbx,%rax
  404aad:	48 89 c7             	mov    %rax,%rdi
  404ab0:	e8 db d4 ff ff       	callq  401f90 <_Unwind_Resume@plt>
  404ab5:	48 8b 45 b8          	mov    -0x48(%rbp),%rax
  404ab9:	48 8b 4d c8          	mov    -0x38(%rbp),%rcx
  404abd:	64 48 33 0c 25 28 00 	xor    %fs:0x28,%rcx
  404ac4:	00 00 
  404ac6:	74 05                	je     404acd <_ZN12Tensor_QueenIf15CPU_MATHEMATICS10continuousIfS0_EEmlIS2_EES3_RKS_IfS0_T_E+0x249>
  404ac8:	e8 63 d3 ff ff       	callq  401e30 <__stack_chk_fail@plt>
  404acd:	48 83 c4 38          	add    $0x38,%rsp
  404ad1:	5b                   	pop    %rbx
  404ad2:	41 5c                	pop    %r12
  404ad4:	41 5d                	pop    %r13
  404ad6:	41 5e                	pop    %r14
  404ad8:	41 5f                	pop    %r15
  404ada:	5d                   	pop    %rbp
  404adb:	c3                   	retq   

0000000000404adc <_ZN6MatrixIf15CPU_MATHEMATICS10continuousIfS0_EEixEi>:
  404adc:	55                   	push   %rbp
  404add:	48 89 e5             	mov    %rsp,%rbp
  404ae0:	48 83 ec 20          	sub    $0x20,%rsp
  404ae4:	48 89 7d f8          	mov    %rdi,-0x8(%rbp)
  404ae8:	48 89 75 f0          	mov    %rsi,-0x10(%rbp)
  404aec:	89 55 ec             	mov    %edx,-0x14(%rbp)
  404aef:	48 8b 4d f0          	mov    -0x10(%rbp),%rcx
  404af3:	8b 55 ec             	mov    -0x14(%rbp),%edx
  404af6:	48 8b 45 f8          	mov    -0x8(%rbp),%rax
  404afa:	48 89 ce             	mov    %rcx,%rsi
  404afd:	48 89 c7             	mov    %rax,%rdi
  404b00:	e8 b5 1b 00 00       	callq  4066ba <_ZN6VectorIf15CPU_MATHEMATICS10continuousIfS0_EEC1IS2_EERK12Tensor_QueenIfS0_T_Ei>
  404b05:	48 8b 45 f8          	mov    -0x8(%rbp),%rax
  404b09:	c9                   	leaveq 
  404b0a:	c3                   	retq   
  404b0b:	90                   	nop

0000000000404b0c <_ZN6MatrixIf15CPU_MATHEMATICS10continuousIfS0_EEaSIf7pBufferIfS0_S2_23ReferenceScalarAccessorIfS0_EN9Operation3addIfEEEEERS3_RK12Tensor_QueenIT_S0_T0_E>:
  404b0c:	55                   	push   %rbp
  404b0d:	48 89 e5             	mov    %rsp,%rbp
  404b10:	53                   	push   %rbx
  404b11:	48 83 ec 18          	sub    $0x18,%rsp
  404b15:	48 89 7d e8          	mov    %rdi,-0x18(%rbp)
  404b19:	48 89 75 e0          	mov    %rsi,-0x20(%rbp)
  404b1d:	48 8b 55 e0          	mov    -0x20(%rbp),%rdx
  404b21:	48 8b 45 e8          	mov    -0x18(%rbp),%rax
  404b25:	48 89 d6             	mov    %rdx,%rsi
  404b28:	48 89 c7             	mov    %rax,%rdi
  404b2b:	e8 22 d7 ff ff       	callq  402252 <_ZNK10Tensor_Ace16assert_same_sizeERKS_>
  404b30:	48 8b 45 e8          	mov    -0x18(%rbp),%rax
  404b34:	48 89 c7             	mov    %rax,%rdi
  404b37:	e8 f6 fc ff ff       	callq  404832 <_ZNK11Tensor_KingIf15CPU_MATHEMATICS10continuousIfS0_EE4sizeEv>
  404b3c:	89 c3                	mov    %eax,%ebx
  404b3e:	48 8b 45 e0          	mov    -0x20(%rbp),%rax
  404b42:	48 89 c7             	mov    %rax,%rdi
  404b45:	e8 38 1a 00 00       	callq  406582 <_ZNK11Tensor_KingIf15CPU_MATHEMATICS7pBufferIfS0_10continuousIfS0_E23ReferenceScalarAccessorIfS0_EN9Operation3addIfEEEE8accessorEv>
  404b4a:	48 89 c1             	mov    %rax,%rcx
  404b4d:	48 8b 45 e8          	mov    -0x18(%rbp),%rax
  404b51:	48 83 c0 08          	add    $0x8,%rax
  404b55:	89 da                	mov    %ebx,%edx
  404b57:	48 89 ce             	mov    %rcx,%rsi
  404b5a:	48 89 c7             	mov    %rax,%rdi
  404b5d:	e8 32 1a 00 00       	callq  406594 <_ZN15CPU_MATHEMATICS4copyI10continuousIfS_EK7pBufferIfS_S2_23ReferenceScalarAccessorIfS_EN9Operation3addIfEEEEEvRT_RT0_i>
  404b62:	48 8b 45 e8          	mov    -0x18(%rbp),%rax
  404b66:	48 83 c4 18          	add    $0x18,%rsp
  404b6a:	5b                   	pop    %rbx
  404b6b:	5d                   	pop    %rbp
  404b6c:	c3                   	retq   
  404b6d:	90                   	nop

0000000000404b6e <_ZN18transpose_accessorIf15CPU_MATHEMATICSEC1ERKS1_>:
  404b6e:	55                   	push   %rbp
  404b6f:	48 89 e5             	mov    %rsp,%rbp
  404b72:	48 83 ec 10          	sub    $0x10,%rsp
  404b76:	48 89 7d f8          	mov    %rdi,-0x8(%rbp)
  404b7a:	48 89 75 f0          	mov    %rsi,-0x10(%rbp)
  404b7e:	48 8b 55 f0          	mov    -0x10(%rbp),%rdx
  404b82:	48 8b 45 f8          	mov    -0x8(%rbp),%rax
  404b86:	48 89 d6             	mov    %rdx,%rsi
  404b89:	48 89 c7             	mov    %rax,%rdi
  404b8c:	e8 77 ea ff ff       	callq  403608 <_ZN12accessor_aceIf15CPU_MATHEMATICSEC1ERKS1_>
  404b91:	ba 38 cf 40 00       	mov    $0x40cf38,%edx
  404b96:	48 8b 45 f8          	mov    -0x8(%rbp),%rax
  404b9a:	48 89 10             	mov    %rdx,(%rax)
  404b9d:	48 8b 45 f0          	mov    -0x10(%rbp),%rax
  404ba1:	48 8b 50 08          	mov    0x8(%rax),%rdx
  404ba5:	48 8b 45 f8          	mov    -0x8(%rbp),%rax
  404ba9:	48 89 50 08          	mov    %rdx,0x8(%rax)
  404bad:	48 8b 45 f0          	mov    -0x10(%rbp),%rax
  404bb1:	48 8b 50 10          	mov    0x10(%rax),%rdx
  404bb5:	48 8b 45 f8          	mov    -0x8(%rbp),%rax
  404bb9:	48 89 50 10          	mov    %rdx,0x10(%rax)
  404bbd:	48 8b 45 f0          	mov    -0x10(%rbp),%rax
  404bc1:	48 8b 50 18          	mov    0x18(%rax),%rdx
  404bc5:	48 8b 45 f8          	mov    -0x8(%rbp),%rax
  404bc9:	48 89 50 18          	mov    %rdx,0x18(%rax)
  404bcd:	48 8b 45 f0          	mov    -0x10(%rbp),%rax
  404bd1:	8b 50 20             	mov    0x20(%rax),%edx
  404bd4:	48 8b 45 f8          	mov    -0x8(%rbp),%rax
  404bd8:	89 50 20             	mov    %edx,0x20(%rax)
  404bdb:	90                   	nop
  404bdc:	c9                   	leaveq 
  404bdd:	c3                   	retq   

0000000000404bde <_ZN18transpose_accessorIf15CPU_MATHEMATICSED1Ev>:
  404bde:	55                   	push   %rbp
  404bdf:	48 89 e5             	mov    %rsp,%rbp
  404be2:	48 83 ec 10          	sub    $0x10,%rsp
  404be6:	48 89 7d f8          	mov    %rdi,-0x8(%rbp)
  404bea:	ba 38 cf 40 00       	mov    $0x40cf38,%edx
  404bef:	48 8b 45 f8          	mov    -0x8(%rbp),%rax
  404bf3:	48 89 10             	mov    %rdx,(%rax)
  404bf6:	48 8b 45 f8          	mov    -0x8(%rbp),%rax
  404bfa:	48 89 c7             	mov    %rax,%rdi
  404bfd:	e8 38 ea ff ff       	callq  40363a <_ZN12accessor_aceIf15CPU_MATHEMATICSED1Ev>
  404c02:	b8 00 00 00 00       	mov    $0x0,%eax
  404c07:	85 c0                	test   %eax,%eax
  404c09:	74 11                	je     404c1c <_ZN18transpose_accessorIf15CPU_MATHEMATICSED1Ev+0x3e>
  404c0b:	48 8b 45 f8          	mov    -0x8(%rbp),%rax
  404c0f:	be 28 00 00 00       	mov    $0x28,%esi
  404c14:	48 89 c7             	mov    %rax,%rdi
  404c17:	e8 b4 d1 ff ff       	callq  401dd0 <_ZdlPvm@plt>
  404c1c:	c9                   	leaveq 
  404c1d:	c3                   	retq   

0000000000404c1e <_ZN18transpose_accessorIf15CPU_MATHEMATICSED0Ev>:
  404c1e:	55                   	push   %rbp
  404c1f:	48 89 e5             	mov    %rsp,%rbp
  404c22:	48 83 ec 10          	sub    $0x10,%rsp
  404c26:	48 89 7d f8          	mov    %rdi,-0x8(%rbp)
  404c2a:	48 8b 45 f8          	mov    -0x8(%rbp),%rax
  404c2e:	48 89 c7             	mov    %rax,%rdi
  404c31:	e8 a8 ff ff ff       	callq  404bde <_ZN18transpose_accessorIf15CPU_MATHEMATICSED1Ev>
  404c36:	48 8b 45 f8          	mov    -0x8(%rbp),%rax
  404c3a:	be 28 00 00 00       	mov    $0x28,%esi
  404c3f:	48 89 c7             	mov    %rax,%rdi
  404c42:	e8 89 d1 ff ff       	callq  401dd0 <_ZdlPvm@plt>
  404c47:	c9                   	leaveq 
  404c48:	c3                   	retq   
  404c49:	90                   	nop

0000000000404c4a <_ZN12Tensor_QueenIf15CPU_MATHEMATICS10continuousIfS0_EE1tEv>:
  404c4a:	55                   	push   %rbp
  404c4b:	48 89 e5             	mov    %rsp,%rbp
  404c4e:	53                   	push   %rbx
  404c4f:	48 83 ec 48          	sub    $0x48,%rsp
  404c53:	48 89 7d b8          	mov    %rdi,-0x48(%rbp)
  404c57:	48 89 75 b0          	mov    %rsi,-0x50(%rbp)
  404c5b:	64 48 8b 04 25 28 00 	mov    %fs:0x28,%rax
  404c62:	00 00 
  404c64:	48 89 45 e8          	mov    %rax,-0x18(%rbp)
  404c68:	31 c0                	xor    %eax,%eax
  404c6a:	48 8b 45 b0          	mov    -0x50(%rbp),%rax
  404c6e:	48 89 c7             	mov    %rax,%rdi
  404c71:	e8 da fb ff ff       	callq  404850 <_ZN11Tensor_KingIf15CPU_MATHEMATICS10continuousIfS0_EE8accessorEv>
  404c76:	48 89 c2             	mov    %rax,%rdx
  404c79:	48 8d 45 c0          	lea    -0x40(%rbp),%rax
  404c7d:	48 89 d6             	mov    %rdx,%rsi
  404c80:	48 89 c7             	mov    %rax,%rdi
  404c83:	e8 1e ea ff ff       	callq  4036a6 <_ZN10continuousIf15CPU_MATHEMATICSEC1ERKS1_>
  404c88:	48 8d 55 c0          	lea    -0x40(%rbp),%rdx
  404c8c:	48 8b 45 b8          	mov    -0x48(%rbp),%rax
  404c90:	be 00 00 00 00       	mov    $0x0,%esi
  404c95:	48 89 c7             	mov    %rax,%rdi
  404c98:	e8 b1 1a 00 00       	callq  40674e <_ZN12Tensor_QueenIf15CPU_MATHEMATICS18transpose_accessorIfS0_EEC1II10continuousIfS0_EEEEbDpT_>
  404c9d:	48 8d 45 c0          	lea    -0x40(%rbp),%rax
  404ca1:	48 89 c7             	mov    %rax,%rdi
  404ca4:	e8 5d ea ff ff       	callq  403706 <_ZN10continuousIf15CPU_MATHEMATICSED1Ev>
  404ca9:	48 8b 45 b8          	mov    -0x48(%rbp),%rax
  404cad:	48 8b 4d e8          	mov    -0x18(%rbp),%rcx
  404cb1:	64 48 33 0c 25 28 00 	xor    %fs:0x28,%rcx
  404cb8:	00 00 
  404cba:	74 21                	je     404cdd <_ZN12Tensor_QueenIf15CPU_MATHEMATICS10continuousIfS0_EE1tEv+0x93>
  404cbc:	eb 1a                	jmp    404cd8 <_ZN12Tensor_QueenIf15CPU_MATHEMATICS10continuousIfS0_EE1tEv+0x8e>
  404cbe:	48 89 c3             	mov    %rax,%rbx
  404cc1:	48 8d 45 c0          	lea    -0x40(%rbp),%rax
  404cc5:	48 89 c7             	mov    %rax,%rdi
  404cc8:	e8 39 ea ff ff       	callq  403706 <_ZN10continuousIf15CPU_MATHEMATICSED1Ev>
  404ccd:	48 89 d8             	mov    %rbx,%rax
  404cd0:	48 89 c7             	mov    %rax,%rdi
  404cd3:	e8 b8 d2 ff ff       	callq  401f90 <_Unwind_Resume@plt>
  404cd8:	e8 53 d1 ff ff       	callq  401e30 <__stack_chk_fail@plt>
  404cdd:	48 83 c4 48          	add    $0x48,%rsp
  404ce1:	5b                   	pop    %rbx
  404ce2:	5d                   	pop    %rbp
  404ce3:	c3                   	retq   

0000000000404ce4 <_ZNK12Tensor_QueenIf15CPU_MATHEMATICS18transpose_accessorIfS0_EE5printEv>:
  404ce4:	55                   	push   %rbp
  404ce5:	48 89 e5             	mov    %rsp,%rbp
  404ce8:	41 56                	push   %r14
  404cea:	41 55                	push   %r13
  404cec:	41 54                	push   %r12
  404cee:	53                   	push   %rbx
  404cef:	48 83 ec 70          	sub    $0x70,%rsp
  404cf3:	48 89 bd 78 ff ff ff 	mov    %rdi,-0x88(%rbp)
  404cfa:	64 48 8b 04 25 28 00 	mov    %fs:0x28,%rax
  404d01:	00 00 
  404d03:	48 89 45 d8          	mov    %rax,-0x28(%rbp)
  404d07:	31 c0                	xor    %eax,%eax
  404d09:	48 8b 85 78 ff ff ff 	mov    -0x88(%rbp),%rax
  404d10:	48 83 c0 08          	add    $0x8,%rax
  404d14:	48 89 c7             	mov    %rax,%rdi
  404d17:	e8 98 1b 00 00       	callq  4068b4 <_ZNK18transpose_accessorIf15CPU_MATHEMATICSE8hasShapeEv>
  404d1c:	bb 00 00 00 00       	mov    $0x0,%ebx
  404d21:	41 bc 00 00 00 00    	mov    $0x0,%r12d
  404d27:	84 c0                	test   %al,%al
  404d29:	74 60                	je     404d8b <_ZNK12Tensor_QueenIf15CPU_MATHEMATICS18transpose_accessorIfS0_EE5printEv+0xa7>
  404d2b:	48 8b 85 78 ff ff ff 	mov    -0x88(%rbp),%rax
  404d32:	48 89 c7             	mov    %rax,%rdi
  404d35:	e8 ca 1b 00 00       	callq  406904 <_ZNK11Tensor_KingIf15CPU_MATHEMATICS18transpose_accessorIfS0_EE5orderEv>
  404d3a:	41 89 c6             	mov    %eax,%r14d
  404d3d:	48 8b 85 78 ff ff ff 	mov    -0x88(%rbp),%rax
  404d44:	48 83 c0 08          	add    $0x8,%rax
  404d48:	48 89 c7             	mov    %rax,%rdi
  404d4b:	e8 74 1b 00 00       	callq  4068c4 <_ZNK18transpose_accessorIf15CPU_MATHEMATICSE8getShapeEv>
  404d50:	49 89 c5             	mov    %rax,%r13
  404d53:	48 8b 85 78 ff ff ff 	mov    -0x88(%rbp),%rax
  404d5a:	48 8d 50 08          	lea    0x8(%rax),%rdx
  404d5e:	48 8d 45 80          	lea    -0x80(%rbp),%rax
  404d62:	48 89 d6             	mov    %rdx,%rsi
  404d65:	48 89 c7             	mov    %rax,%rdi
  404d68:	e8 01 fe ff ff       	callq  404b6e <_ZN18transpose_accessorIf15CPU_MATHEMATICSEC1ERKS1_>
  404d6d:	bb 01 00 00 00       	mov    $0x1,%ebx
  404d72:	48 8d 45 80          	lea    -0x80(%rbp),%rax
  404d76:	b9 05 00 00 00       	mov    $0x5,%ecx
  404d7b:	44 89 f2             	mov    %r14d,%edx
  404d7e:	4c 89 ee             	mov    %r13,%rsi
  404d81:	48 89 c7             	mov    %rax,%rdi
  404d84:	e8 99 1b 00 00       	callq  406922 <_ZN15CPU_MATHEMATICS5printI18transpose_accessorIfS_EEEvT_PKiii>
  404d89:	eb 46                	jmp    404dd1 <_ZNK12Tensor_QueenIf15CPU_MATHEMATICS18transpose_accessorIfS0_EE5printEv+0xed>
  404d8b:	48 8b 85 78 ff ff ff 	mov    -0x88(%rbp),%rax
  404d92:	48 89 c7             	mov    %rax,%rdi
  404d95:	e8 f6 1c 00 00       	callq  406a90 <_ZNK11Tensor_KingIf15CPU_MATHEMATICS18transpose_accessorIfS0_EE4sizeEv>
  404d9a:	41 89 c5             	mov    %eax,%r13d
  404d9d:	48 8b 85 78 ff ff ff 	mov    -0x88(%rbp),%rax
  404da4:	48 8d 50 08          	lea    0x8(%rax),%rdx
  404da8:	48 8d 45 b0          	lea    -0x50(%rbp),%rax
  404dac:	48 89 d6             	mov    %rdx,%rsi
  404daf:	48 89 c7             	mov    %rax,%rdi
  404db2:	e8 b7 fd ff ff       	callq  404b6e <_ZN18transpose_accessorIf15CPU_MATHEMATICSEC1ERKS1_>
  404db7:	41 bc 01 00 00 00    	mov    $0x1,%r12d
  404dbd:	48 8d 45 b0          	lea    -0x50(%rbp),%rax
  404dc1:	ba 05 00 00 00       	mov    $0x5,%edx
  404dc6:	44 89 ee             	mov    %r13d,%esi
  404dc9:	48 89 c7             	mov    %rax,%rdi
  404dcc:	e8 dd 1c 00 00       	callq  406aae <_ZN15CPU_MATHEMATICS5printI18transpose_accessorIfS_EEEvT_ii>
  404dd1:	45 84 e4             	test   %r12b,%r12b
  404dd4:	74 0c                	je     404de2 <_ZNK12Tensor_QueenIf15CPU_MATHEMATICS18transpose_accessorIfS0_EE5printEv+0xfe>
  404dd6:	48 8d 45 b0          	lea    -0x50(%rbp),%rax
  404dda:	48 89 c7             	mov    %rax,%rdi
  404ddd:	e8 fc fd ff ff       	callq  404bde <_ZN18transpose_accessorIf15CPU_MATHEMATICSED1Ev>
  404de2:	84 db                	test   %bl,%bl
  404de4:	74 0f                	je     404df5 <_ZNK12Tensor_QueenIf15CPU_MATHEMATICS18transpose_accessorIfS0_EE5printEv+0x111>
  404de6:	90                   	nop
  404de7:	48 8d 45 80          	lea    -0x80(%rbp),%rax
  404deb:	48 89 c7             	mov    %rax,%rdi
  404dee:	e8 eb fd ff ff       	callq  404bde <_ZN18transpose_accessorIf15CPU_MATHEMATICSED1Ev>
  404df3:	eb 39                	jmp    404e2e <_ZNK12Tensor_QueenIf15CPU_MATHEMATICS18transpose_accessorIfS0_EE5printEv+0x14a>
  404df5:	90                   	nop
  404df6:	eb 36                	jmp    404e2e <_ZNK12Tensor_QueenIf15CPU_MATHEMATICS18transpose_accessorIfS0_EE5printEv+0x14a>
  404df8:	49 89 c5             	mov    %rax,%r13
  404dfb:	45 84 e4             	test   %r12b,%r12b
  404dfe:	74 0c                	je     404e0c <_ZNK12Tensor_QueenIf15CPU_MATHEMATICS18transpose_accessorIfS0_EE5printEv+0x128>
  404e00:	48 8d 45 b0          	lea    -0x50(%rbp),%rax
  404e04:	48 89 c7             	mov    %rax,%rdi
  404e07:	e8 d2 fd ff ff       	callq  404bde <_ZN18transpose_accessorIf15CPU_MATHEMATICSED1Ev>
  404e0c:	4d 89 ec             	mov    %r13,%r12
  404e0f:	84 db                	test   %bl,%bl
  404e11:	74 0f                	je     404e22 <_ZNK12Tensor_QueenIf15CPU_MATHEMATICS18transpose_accessorIfS0_EE5printEv+0x13e>
  404e13:	90                   	nop
  404e14:	48 8d 45 80          	lea    -0x80(%rbp),%rax
  404e18:	48 89 c7             	mov    %rax,%rdi
  404e1b:	e8 be fd ff ff       	callq  404bde <_ZN18transpose_accessorIf15CPU_MATHEMATICSED1Ev>
  404e20:	eb 01                	jmp    404e23 <_ZNK12Tensor_QueenIf15CPU_MATHEMATICS18transpose_accessorIfS0_EE5printEv+0x13f>
  404e22:	90                   	nop
  404e23:	4c 89 e0             	mov    %r12,%rax
  404e26:	48 89 c7             	mov    %rax,%rdi
  404e29:	e8 62 d1 ff ff       	callq  401f90 <_Unwind_Resume@plt>
  404e2e:	48 8b 45 d8          	mov    -0x28(%rbp),%rax
  404e32:	64 48 33 04 25 28 00 	xor    %fs:0x28,%rax
  404e39:	00 00 
  404e3b:	74 05                	je     404e42 <_ZNK12Tensor_QueenIf15CPU_MATHEMATICS18transpose_accessorIfS0_EE5printEv+0x15e>
  404e3d:	e8 ee cf ff ff       	callq  401e30 <__stack_chk_fail@plt>
  404e42:	48 83 c4 70          	add    $0x70,%rsp
  404e46:	5b                   	pop    %rbx
  404e47:	41 5c                	pop    %r12
  404e49:	41 5d                	pop    %r13
  404e4b:	41 5e                	pop    %r14
  404e4d:	5d                   	pop    %rbp
  404e4e:	c3                   	retq   
  404e4f:	90                   	nop

0000000000404e50 <_ZN12Tensor_QueenId15CPU_MATHEMATICS10continuousIdS0_EED1Ev>:
  404e50:	55                   	push   %rbp
  404e51:	48 89 e5             	mov    %rsp,%rbp
  404e54:	48 83 ec 10          	sub    $0x10,%rsp
  404e58:	48 89 7d f8          	mov    %rdi,-0x8(%rbp)
  404e5c:	ba 58 cd 40 00       	mov    $0x40cd58,%edx
  404e61:	48 8b 45 f8          	mov    -0x8(%rbp),%rax
  404e65:	48 89 10             	mov    %rdx,(%rax)
  404e68:	48 8b 45 f8          	mov    -0x8(%rbp),%rax
  404e6c:	48 89 c7             	mov    %rax,%rdi
  404e6f:	e8 06 1e 00 00       	callq  406c7a <_ZN11Tensor_KingId15CPU_MATHEMATICS10continuousIdS0_EED1Ev>
  404e74:	b8 00 00 00 00       	mov    $0x0,%eax
  404e79:	85 c0                	test   %eax,%eax
  404e7b:	74 11                	je     404e8e <_ZN12Tensor_QueenId15CPU_MATHEMATICS10continuousIdS0_EED1Ev+0x3e>
  404e7d:	48 8b 45 f8          	mov    -0x8(%rbp),%rax
  404e81:	be 30 00 00 00       	mov    $0x30,%esi
  404e86:	48 89 c7             	mov    %rax,%rdi
  404e89:	e8 42 cf ff ff       	callq  401dd0 <_ZdlPvm@plt>
  404e8e:	c9                   	leaveq 
  404e8f:	c3                   	retq   

0000000000404e90 <_ZN12Tensor_QueenId15CPU_MATHEMATICS10continuousIdS0_EED0Ev>:
  404e90:	55                   	push   %rbp
  404e91:	48 89 e5             	mov    %rsp,%rbp
  404e94:	48 83 ec 10          	sub    $0x10,%rsp
  404e98:	48 89 7d f8          	mov    %rdi,-0x8(%rbp)
  404e9c:	48 8b 45 f8          	mov    -0x8(%rbp),%rax
  404ea0:	48 89 c7             	mov    %rax,%rdi
  404ea3:	e8 a8 ff ff ff       	callq  404e50 <_ZN12Tensor_QueenId15CPU_MATHEMATICS10continuousIdS0_EED1Ev>
  404ea8:	48 8b 45 f8          	mov    -0x8(%rbp),%rax
  404eac:	be 30 00 00 00       	mov    $0x30,%esi
  404eb1:	48 89 c7             	mov    %rax,%rdi
  404eb4:	e8 17 cf ff ff       	callq  401dd0 <_ZdlPvm@plt>
  404eb9:	c9                   	leaveq 
  404eba:	c3                   	retq   
  404ebb:	90                   	nop

0000000000404ebc <_ZN6MatrixId15CPU_MATHEMATICS10continuousIdS0_EEC1Eii>:
  404ebc:	55                   	push   %rbp
  404ebd:	48 89 e5             	mov    %rsp,%rbp
  404ec0:	53                   	push   %rbx
  404ec1:	48 83 ec 28          	sub    $0x28,%rsp
  404ec5:	48 89 7d d8          	mov    %rdi,-0x28(%rbp)
  404ec9:	89 75 d4             	mov    %esi,-0x2c(%rbp)
  404ecc:	89 55 d0             	mov    %edx,-0x30(%rbp)
  404ecf:	64 48 8b 04 25 28 00 	mov    %fs:0x28,%rax
  404ed6:	00 00 
  404ed8:	48 89 45 e8          	mov    %rax,-0x18(%rbp)
  404edc:	31 c0                	xor    %eax,%eax
  404ede:	8b 45 d4             	mov    -0x2c(%rbp),%eax
  404ee1:	89 45 e0             	mov    %eax,-0x20(%rbp)
  404ee4:	8b 45 d0             	mov    -0x30(%rbp),%eax
  404ee7:	89 45 e4             	mov    %eax,-0x1c(%rbp)
  404eea:	48 8d 45 e0          	lea    -0x20(%rbp),%rax
  404eee:	48 89 c1             	mov    %rax,%rcx
  404ef1:	bb 02 00 00 00       	mov    $0x2,%ebx
  404ef6:	48 8b 45 d8          	mov    -0x28(%rbp),%rax
  404efa:	48 89 ce             	mov    %rcx,%rsi
  404efd:	48 89 df             	mov    %rbx,%rdi
  404f00:	48 89 ca             	mov    %rcx,%rdx
  404f03:	48 89 d9             	mov    %rbx,%rcx
  404f06:	48 89 ca             	mov    %rcx,%rdx
  404f09:	48 89 c7             	mov    %rax,%rdi
  404f0c:	e8 19 1d 00 00       	callq  406c2a <_ZN12Tensor_QueenId15CPU_MATHEMATICS10continuousIdS0_EEC1ESt16initializer_listIiE>
  404f11:	ba 18 cd 40 00       	mov    $0x40cd18,%edx
  404f16:	48 8b 45 d8          	mov    -0x28(%rbp),%rax
  404f1a:	48 89 10             	mov    %rdx,(%rax)
  404f1d:	90                   	nop
  404f1e:	48 8b 45 e8          	mov    -0x18(%rbp),%rax
  404f22:	64 48 33 04 25 28 00 	xor    %fs:0x28,%rax
  404f29:	00 00 
  404f2b:	74 05                	je     404f32 <_ZN6MatrixId15CPU_MATHEMATICS10continuousIdS0_EEC1Eii+0x76>
  404f2d:	e8 fe ce ff ff       	callq  401e30 <__stack_chk_fail@plt>
  404f32:	48 83 c4 28          	add    $0x28,%rsp
  404f36:	5b                   	pop    %rbx
  404f37:	5d                   	pop    %rbp
  404f38:	c3                   	retq   
  404f39:	90                   	nop

0000000000404f3a <_ZN12accessor_aceId15CPU_MATHEMATICSEC1ERKS1_>:
  404f3a:	55                   	push   %rbp
  404f3b:	48 89 e5             	mov    %rsp,%rbp
  404f3e:	48 83 ec 10          	sub    $0x10,%rsp
  404f42:	48 89 7d f8          	mov    %rdi,-0x8(%rbp)
  404f46:	48 89 75 f0          	mov    %rsi,-0x10(%rbp)
  404f4a:	48 8b 55 f0          	mov    -0x10(%rbp),%rdx
  404f4e:	48 8b 45 f8          	mov    -0x8(%rbp),%rax
  404f52:	48 89 d6             	mov    %rdx,%rsi
  404f55:	48 89 c7             	mov    %rax,%rdi
  404f58:	e8 8f e6 ff ff       	callq  4035ec <_ZN10Tensor_AceC1ERKS_>
  404f5d:	ba 48 ce 40 00       	mov    $0x40ce48,%edx
  404f62:	48 8b 45 f8          	mov    -0x8(%rbp),%rax
  404f66:	48 89 10             	mov    %rdx,(%rax)
  404f69:	90                   	nop
  404f6a:	c9                   	leaveq 
  404f6b:	c3                   	retq   

0000000000404f6c <_ZN12accessor_aceId15CPU_MATHEMATICSED1Ev>:
  404f6c:	55                   	push   %rbp
  404f6d:	48 89 e5             	mov    %rsp,%rbp
  404f70:	48 83 ec 10          	sub    $0x10,%rsp
  404f74:	48 89 7d f8          	mov    %rdi,-0x8(%rbp)
  404f78:	ba 48 ce 40 00       	mov    $0x40ce48,%edx
  404f7d:	48 8b 45 f8          	mov    -0x8(%rbp),%rax
  404f81:	48 89 10             	mov    %rdx,(%rax)
  404f84:	48 8b 45 f8          	mov    -0x8(%rbp),%rax
  404f88:	48 89 c7             	mov    %rax,%rdi
  404f8b:	e8 f0 e3 ff ff       	callq  403380 <_ZN10Tensor_AceD1Ev>
  404f90:	b8 00 00 00 00       	mov    $0x0,%eax
  404f95:	85 c0                	test   %eax,%eax
  404f97:	74 11                	je     404faa <_ZN12accessor_aceId15CPU_MATHEMATICSED1Ev+0x3e>
  404f99:	48 8b 45 f8          	mov    -0x8(%rbp),%rax
  404f9d:	be 08 00 00 00       	mov    $0x8,%esi
  404fa2:	48 89 c7             	mov    %rax,%rdi
  404fa5:	e8 26 ce ff ff       	callq  401dd0 <_ZdlPvm@plt>
  404faa:	c9                   	leaveq 
  404fab:	c3                   	retq   

0000000000404fac <_ZN12accessor_aceId15CPU_MATHEMATICSED0Ev>:
  404fac:	55                   	push   %rbp
  404fad:	48 89 e5             	mov    %rsp,%rbp
  404fb0:	48 83 ec 10          	sub    $0x10,%rsp
  404fb4:	48 89 7d f8          	mov    %rdi,-0x8(%rbp)
  404fb8:	48 8b 45 f8          	mov    -0x8(%rbp),%rax
  404fbc:	48 89 c7             	mov    %rax,%rdi
  404fbf:	e8 a8 ff ff ff       	callq  404f6c <_ZN12accessor_aceId15CPU_MATHEMATICSED1Ev>
  404fc4:	48 8b 45 f8          	mov    -0x8(%rbp),%rax
  404fc8:	be 08 00 00 00       	mov    $0x8,%esi
  404fcd:	48 89 c7             	mov    %rax,%rdi
  404fd0:	e8 fb cd ff ff       	callq  401dd0 <_ZdlPvm@plt>
  404fd5:	c9                   	leaveq 
  404fd6:	c3                   	retq   
  404fd7:	90                   	nop

0000000000404fd8 <_ZN10continuousId15CPU_MATHEMATICSEC1ERKS1_>:
  404fd8:	55                   	push   %rbp
  404fd9:	48 89 e5             	mov    %rsp,%rbp
  404fdc:	48 83 ec 10          	sub    $0x10,%rsp
  404fe0:	48 89 7d f8          	mov    %rdi,-0x8(%rbp)
  404fe4:	48 89 75 f0          	mov    %rsi,-0x10(%rbp)
  404fe8:	48 8b 55 f0          	mov    -0x10(%rbp),%rdx
  404fec:	48 8b 45 f8          	mov    -0x8(%rbp),%rax
  404ff0:	48 89 d6             	mov    %rdx,%rsi
  404ff3:	48 89 c7             	mov    %rax,%rdi
  404ff6:	e8 3f ff ff ff       	callq  404f3a <_ZN12accessor_aceId15CPU_MATHEMATICSEC1ERKS1_>
  404ffb:	ba d8 cd 40 00       	mov    $0x40cdd8,%edx
  405000:	48 8b 45 f8          	mov    -0x8(%rbp),%rax
  405004:	48 89 10             	mov    %rdx,(%rax)
  405007:	48 8b 45 f0          	mov    -0x10(%rbp),%rax
  40500b:	48 8b 50 08          	mov    0x8(%rax),%rdx
  40500f:	48 8b 45 f8          	mov    -0x8(%rbp),%rax
  405013:	48 89 50 08          	mov    %rdx,0x8(%rax)
  405017:	48 8b 45 f0          	mov    -0x10(%rbp),%rax
  40501b:	48 8b 50 10          	mov    0x10(%rax),%rdx
  40501f:	48 8b 45 f8          	mov    -0x8(%rbp),%rax
  405023:	48 89 50 10          	mov    %rdx,0x10(%rax)
  405027:	48 8b 45 f0          	mov    -0x10(%rbp),%rax
  40502b:	8b 50 18             	mov    0x18(%rax),%edx
  40502e:	48 8b 45 f8          	mov    -0x8(%rbp),%rax
  405032:	89 50 18             	mov    %edx,0x18(%rax)
  405035:	90                   	nop
  405036:	c9                   	leaveq 
  405037:	c3                   	retq   

0000000000405038 <_ZN10continuousId15CPU_MATHEMATICSED1Ev>:
  405038:	55                   	push   %rbp
  405039:	48 89 e5             	mov    %rsp,%rbp
  40503c:	48 83 ec 10          	sub    $0x10,%rsp
  405040:	48 89 7d f8          	mov    %rdi,-0x8(%rbp)
  405044:	ba d8 cd 40 00       	mov    $0x40cdd8,%edx
  405049:	48 8b 45 f8          	mov    -0x8(%rbp),%rax
  40504d:	48 89 10             	mov    %rdx,(%rax)
  405050:	48 8b 45 f8          	mov    -0x8(%rbp),%rax
  405054:	48 89 c7             	mov    %rax,%rdi
  405057:	e8 10 ff ff ff       	callq  404f6c <_ZN12accessor_aceId15CPU_MATHEMATICSED1Ev>
  40505c:	b8 00 00 00 00       	mov    $0x0,%eax
  405061:	85 c0                	test   %eax,%eax
  405063:	74 11                	je     405076 <_ZN10continuousId15CPU_MATHEMATICSED1Ev+0x3e>
  405065:	48 8b 45 f8          	mov    -0x8(%rbp),%rax
  405069:	be 20 00 00 00       	mov    $0x20,%esi
  40506e:	48 89 c7             	mov    %rax,%rdi
  405071:	e8 5a cd ff ff       	callq  401dd0 <_ZdlPvm@plt>
  405076:	c9                   	leaveq 
  405077:	c3                   	retq   

0000000000405078 <_ZN10continuousId15CPU_MATHEMATICSED0Ev>:
  405078:	55                   	push   %rbp
  405079:	48 89 e5             	mov    %rsp,%rbp
  40507c:	48 83 ec 10          	sub    $0x10,%rsp
  405080:	48 89 7d f8          	mov    %rdi,-0x8(%rbp)
  405084:	48 8b 45 f8          	mov    -0x8(%rbp),%rax
  405088:	48 89 c7             	mov    %rax,%rdi
  40508b:	e8 a8 ff ff ff       	callq  405038 <_ZN10continuousId15CPU_MATHEMATICSED1Ev>
  405090:	48 8b 45 f8          	mov    -0x8(%rbp),%rax
  405094:	be 20 00 00 00       	mov    $0x20,%esi
  405099:	48 89 c7             	mov    %rax,%rdi
  40509c:	e8 2f cd ff ff       	callq  401dd0 <_ZdlPvm@plt>
  4050a1:	c9                   	leaveq 
  4050a2:	c3                   	retq   
  4050a3:	90                   	nop

00000000004050a4 <_ZN12Tensor_QueenId15CPU_MATHEMATICS10continuousIdS0_EE9randomizeEdd>:
  4050a4:	55                   	push   %rbp
  4050a5:	48 89 e5             	mov    %rsp,%rbp
  4050a8:	53                   	push   %rbx
  4050a9:	48 83 ec 58          	sub    $0x58,%rsp
  4050ad:	48 89 7d b8          	mov    %rdi,-0x48(%rbp)
  4050b1:	f2 0f 11 45 b0       	movsd  %xmm0,-0x50(%rbp)
  4050b6:	f2 0f 11 4d a8       	movsd  %xmm1,-0x58(%rbp)
  4050bb:	64 48 8b 04 25 28 00 	mov    %fs:0x28,%rax
  4050c2:	00 00 
  4050c4:	48 89 45 e8          	mov    %rax,-0x18(%rbp)
  4050c8:	31 c0                	xor    %eax,%eax
  4050ca:	48 8b 45 b8          	mov    -0x48(%rbp),%rax
  4050ce:	48 89 c7             	mov    %rax,%rdi
  4050d1:	e8 68 1c 00 00       	callq  406d3e <_ZNK11Tensor_KingId15CPU_MATHEMATICS10continuousIdS0_EE4sizeEv>
  4050d6:	89 c3                	mov    %eax,%ebx
  4050d8:	48 8b 45 b8          	mov    -0x48(%rbp),%rax
  4050dc:	48 8d 50 08          	lea    0x8(%rax),%rdx
  4050e0:	48 8d 45 c0          	lea    -0x40(%rbp),%rax
  4050e4:	48 89 d6             	mov    %rdx,%rsi
  4050e7:	48 89 c7             	mov    %rax,%rdi
  4050ea:	e8 e9 fe ff ff       	callq  404fd8 <_ZN10continuousId15CPU_MATHEMATICSEC1ERKS1_>
  4050ef:	f2 0f 10 45 a8       	movsd  -0x58(%rbp),%xmm0
  4050f4:	48 8b 55 b0          	mov    -0x50(%rbp),%rdx
  4050f8:	48 8d 45 c0          	lea    -0x40(%rbp),%rax
  4050fc:	89 de                	mov    %ebx,%esi
  4050fe:	66 0f 28 c8          	movapd %xmm0,%xmm1
  405102:	48 89 55 a0          	mov    %rdx,-0x60(%rbp)
  405106:	f2 0f 10 45 a0       	movsd  -0x60(%rbp),%xmm0
  40510b:	48 89 c7             	mov    %rax,%rdi
  40510e:	e8 49 1c 00 00       	callq  406d5c <_ZN15CPU_MATHEMATICS9randomizeI10continuousIdS_EdEEvT_T0_S4_i>
  405113:	48 8d 45 c0          	lea    -0x40(%rbp),%rax
  405117:	48 89 c7             	mov    %rax,%rdi
  40511a:	e8 19 ff ff ff       	callq  405038 <_ZN10continuousId15CPU_MATHEMATICSED1Ev>
  40511f:	90                   	nop
  405120:	48 8b 45 e8          	mov    -0x18(%rbp),%rax
  405124:	64 48 33 04 25 28 00 	xor    %fs:0x28,%rax
  40512b:	00 00 
  40512d:	74 21                	je     405150 <_ZN12Tensor_QueenId15CPU_MATHEMATICS10continuousIdS0_EE9randomizeEdd+0xac>
  40512f:	eb 1a                	jmp    40514b <_ZN12Tensor_QueenId15CPU_MATHEMATICS10continuousIdS0_EE9randomizeEdd+0xa7>
  405131:	48 89 c3             	mov    %rax,%rbx
  405134:	48 8d 45 c0          	lea    -0x40(%rbp),%rax
  405138:	48 89 c7             	mov    %rax,%rdi
  40513b:	e8 f8 fe ff ff       	callq  405038 <_ZN10continuousId15CPU_MATHEMATICSED1Ev>
  405140:	48 89 d8             	mov    %rbx,%rax
  405143:	48 89 c7             	mov    %rax,%rdi
  405146:	e8 45 ce ff ff       	callq  401f90 <_Unwind_Resume@plt>
  40514b:	e8 e0 cc ff ff       	callq  401e30 <__stack_chk_fail@plt>
  405150:	48 83 c4 58          	add    $0x58,%rsp
  405154:	5b                   	pop    %rbx
  405155:	5d                   	pop    %rbp
  405156:	c3                   	retq   
  405157:	90                   	nop

0000000000405158 <_ZN7pBufferId15CPU_MATHEMATICS10continuousIdS0_ES2_N9Operation3addIdEEED1Ev>:
  405158:	55                   	push   %rbp
  405159:	48 89 e5             	mov    %rsp,%rbp
  40515c:	48 83 ec 10          	sub    $0x10,%rsp
  405160:	48 89 7d f8          	mov    %rdi,-0x8(%rbp)
  405164:	ba a8 cc 40 00       	mov    $0x40cca8,%edx
  405169:	48 8b 45 f8          	mov    -0x8(%rbp),%rax
  40516d:	48 89 10             	mov    %rdx,(%rax)
  405170:	48 8b 45 f8          	mov    -0x8(%rbp),%rax
  405174:	48 83 c0 30          	add    $0x30,%rax
  405178:	48 89 c7             	mov    %rax,%rdi
  40517b:	e8 b8 fe ff ff       	callq  405038 <_ZN10continuousId15CPU_MATHEMATICSED1Ev>
  405180:	48 8b 45 f8          	mov    -0x8(%rbp),%rax
  405184:	48 83 c0 10          	add    $0x10,%rax
  405188:	48 89 c7             	mov    %rax,%rdi
  40518b:	e8 a8 fe ff ff       	callq  405038 <_ZN10continuousId15CPU_MATHEMATICSED1Ev>
  405190:	48 8b 45 f8          	mov    -0x8(%rbp),%rax
  405194:	48 89 c7             	mov    %rax,%rdi
  405197:	e8 d0 fd ff ff       	callq  404f6c <_ZN12accessor_aceId15CPU_MATHEMATICSED1Ev>
  40519c:	b8 00 00 00 00       	mov    $0x0,%eax
  4051a1:	85 c0                	test   %eax,%eax
  4051a3:	74 11                	je     4051b6 <_ZN7pBufferId15CPU_MATHEMATICS10continuousIdS0_ES2_N9Operation3addIdEEED1Ev+0x5e>
  4051a5:	48 8b 45 f8          	mov    -0x8(%rbp),%rax
  4051a9:	be 50 00 00 00       	mov    $0x50,%esi
  4051ae:	48 89 c7             	mov    %rax,%rdi
  4051b1:	e8 1a cc ff ff       	callq  401dd0 <_ZdlPvm@plt>
  4051b6:	c9                   	leaveq 
  4051b7:	c3                   	retq   

00000000004051b8 <_ZN7pBufferId15CPU_MATHEMATICS10continuousIdS0_ES2_N9Operation3addIdEEED0Ev>:
  4051b8:	55                   	push   %rbp
  4051b9:	48 89 e5             	mov    %rsp,%rbp
  4051bc:	48 83 ec 10          	sub    $0x10,%rsp
  4051c0:	48 89 7d f8          	mov    %rdi,-0x8(%rbp)
  4051c4:	48 8b 45 f8          	mov    -0x8(%rbp),%rax
  4051c8:	48 89 c7             	mov    %rax,%rdi
  4051cb:	e8 88 ff ff ff       	callq  405158 <_ZN7pBufferId15CPU_MATHEMATICS10continuousIdS0_ES2_N9Operation3addIdEEED1Ev>
  4051d0:	48 8b 45 f8          	mov    -0x8(%rbp),%rax
  4051d4:	be 50 00 00 00       	mov    $0x50,%esi
  4051d9:	48 89 c7             	mov    %rax,%rdi
  4051dc:	e8 ef cb ff ff       	callq  401dd0 <_ZdlPvm@plt>
  4051e1:	c9                   	leaveq 
  4051e2:	c3                   	retq   
  4051e3:	90                   	nop

00000000004051e4 <_ZN12Tensor_QueenId15CPU_MATHEMATICS10continuousIdS0_EEplIdS2_EES_IdS0_7pBufferIdS0_S2_T0_N9Operation3addIdEEEERKS_IT_S0_S6_E>:
  4051e4:	55                   	push   %rbp
  4051e5:	48 89 e5             	mov    %rsp,%rbp
  4051e8:	53                   	push   %rbx
  4051e9:	48 83 ec 78          	sub    $0x78,%rsp
  4051ed:	48 89 7d 98          	mov    %rdi,-0x68(%rbp)
  4051f1:	48 89 75 90          	mov    %rsi,-0x70(%rbp)
  4051f5:	48 89 55 88          	mov    %rdx,-0x78(%rbp)
  4051f9:	64 48 8b 04 25 28 00 	mov    %fs:0x28,%rax
  405200:	00 00 
  405202:	48 89 45 e8          	mov    %rax,-0x18(%rbp)
  405206:	31 c0                	xor    %eax,%eax
  405208:	48 8b 45 88          	mov    -0x78(%rbp),%rax
  40520c:	48 8d 50 08          	lea    0x8(%rax),%rdx
  405210:	48 8d 45 c0          	lea    -0x40(%rbp),%rax
  405214:	48 89 d6             	mov    %rdx,%rsi
  405217:	48 89 c7             	mov    %rax,%rdi
  40521a:	e8 b9 fd ff ff       	callq  404fd8 <_ZN10continuousId15CPU_MATHEMATICSEC1ERKS1_>
  40521f:	48 8b 45 90          	mov    -0x70(%rbp),%rax
  405223:	48 8d 50 08          	lea    0x8(%rax),%rdx
  405227:	48 8d 45 a0          	lea    -0x60(%rbp),%rax
  40522b:	48 89 d6             	mov    %rdx,%rsi
  40522e:	48 89 c7             	mov    %rax,%rdi
  405231:	e8 a2 fd ff ff       	callq  404fd8 <_ZN10continuousId15CPU_MATHEMATICSEC1ERKS1_>
  405236:	48 8d 4d c0          	lea    -0x40(%rbp),%rcx
  40523a:	48 8d 55 a0          	lea    -0x60(%rbp),%rdx
  40523e:	48 8b 45 98          	mov    -0x68(%rbp),%rax
  405242:	be 00 00 00 00       	mov    $0x0,%esi
  405247:	48 89 c7             	mov    %rax,%rdi
  40524a:	e8 a9 1b 00 00       	callq  406df8 <_ZN12Tensor_QueenId15CPU_MATHEMATICS7pBufferIdS0_10continuousIdS0_ES3_N9Operation3addIdEEEEC1IIS3_S3_EEEbDpT_>
  40524f:	48 8d 45 a0          	lea    -0x60(%rbp),%rax
  405253:	48 89 c7             	mov    %rax,%rdi
  405256:	e8 dd fd ff ff       	callq  405038 <_ZN10continuousId15CPU_MATHEMATICSED1Ev>
  40525b:	48 8d 45 c0          	lea    -0x40(%rbp),%rax
  40525f:	48 89 c7             	mov    %rax,%rdi
  405262:	e8 d1 fd ff ff       	callq  405038 <_ZN10continuousId15CPU_MATHEMATICSED1Ev>
  405267:	48 8b 45 98          	mov    -0x68(%rbp),%rax
  40526b:	48 8b 4d e8          	mov    -0x18(%rbp),%rcx
  40526f:	64 48 33 0c 25 28 00 	xor    %fs:0x28,%rcx
  405276:	00 00 
  405278:	74 2d                	je     4052a7 <_ZN12Tensor_QueenId15CPU_MATHEMATICS10continuousIdS0_EEplIdS2_EES_IdS0_7pBufferIdS0_S2_T0_N9Operation3addIdEEEERKS_IT_S0_S6_E+0xc3>
  40527a:	eb 26                	jmp    4052a2 <_ZN12Tensor_QueenId15CPU_MATHEMATICS10continuousIdS0_EEplIdS2_EES_IdS0_7pBufferIdS0_S2_T0_N9Operation3addIdEEEERKS_IT_S0_S6_E+0xbe>
  40527c:	48 89 c3             	mov    %rax,%rbx
  40527f:	48 8d 45 a0          	lea    -0x60(%rbp),%rax
  405283:	48 89 c7             	mov    %rax,%rdi
  405286:	e8 ad fd ff ff       	callq  405038 <_ZN10continuousId15CPU_MATHEMATICSED1Ev>
  40528b:	48 8d 45 c0          	lea    -0x40(%rbp),%rax
  40528f:	48 89 c7             	mov    %rax,%rdi
  405292:	e8 a1 fd ff ff       	callq  405038 <_ZN10continuousId15CPU_MATHEMATICSED1Ev>
  405297:	48 89 d8             	mov    %rbx,%rax
  40529a:	48 89 c7             	mov    %rax,%rdi
  40529d:	e8 ee cc ff ff       	callq  401f90 <_Unwind_Resume@plt>
  4052a2:	e8 89 cb ff ff       	callq  401e30 <__stack_chk_fail@plt>
  4052a7:	48 83 c4 78          	add    $0x78,%rsp
  4052ab:	5b                   	pop    %rbx
  4052ac:	5d                   	pop    %rbp
  4052ad:	c3                   	retq   

00000000004052ae <_ZN6MatrixId15CPU_MATHEMATICS10continuousIdS0_EEaSId7pBufferIdS0_S2_S2_N9Operation3addIdEEEEERS3_RK12Tensor_QueenIT_S0_T0_E>:
  4052ae:	55                   	push   %rbp
  4052af:	48 89 e5             	mov    %rsp,%rbp
  4052b2:	53                   	push   %rbx
  4052b3:	48 83 ec 18          	sub    $0x18,%rsp
  4052b7:	48 89 7d e8          	mov    %rdi,-0x18(%rbp)
  4052bb:	48 89 75 e0          	mov    %rsi,-0x20(%rbp)
  4052bf:	48 8b 55 e0          	mov    -0x20(%rbp),%rdx
  4052c3:	48 8b 45 e8          	mov    -0x18(%rbp),%rax
  4052c7:	48 89 d6             	mov    %rdx,%rsi
  4052ca:	48 89 c7             	mov    %rax,%rdi
  4052cd:	e8 80 cf ff ff       	callq  402252 <_ZNK10Tensor_Ace16assert_same_sizeERKS_>
  4052d2:	48 8b 45 e8          	mov    -0x18(%rbp),%rax
  4052d6:	48 89 c7             	mov    %rax,%rdi
  4052d9:	e8 60 1a 00 00       	callq  406d3e <_ZNK11Tensor_KingId15CPU_MATHEMATICS10continuousIdS0_EE4sizeEv>
  4052de:	89 c3                	mov    %eax,%ebx
  4052e0:	48 8b 45 e0          	mov    -0x20(%rbp),%rax
  4052e4:	48 89 c7             	mov    %rax,%rdi
  4052e7:	e8 a8 1c 00 00       	callq  406f94 <_ZNK11Tensor_KingId15CPU_MATHEMATICS7pBufferIdS0_10continuousIdS0_ES3_N9Operation3addIdEEEE8accessorEv>
  4052ec:	48 89 c1             	mov    %rax,%rcx
  4052ef:	48 8b 45 e8          	mov    -0x18(%rbp),%rax
  4052f3:	48 83 c0 08          	add    $0x8,%rax
  4052f7:	89 da                	mov    %ebx,%edx
  4052f9:	48 89 ce             	mov    %rcx,%rsi
  4052fc:	48 89 c7             	mov    %rax,%rdi
  4052ff:	e8 a2 1c 00 00       	callq  406fa6 <_ZN15CPU_MATHEMATICS4copyI10continuousIdS_EK7pBufferIdS_S2_S2_N9Operation3addIdEEEEEvRT_RT0_i>
  405304:	48 8b 45 e8          	mov    -0x18(%rbp),%rax
  405308:	48 83 c4 18          	add    $0x18,%rsp
  40530c:	5b                   	pop    %rbx
  40530d:	5d                   	pop    %rbp
  40530e:	c3                   	retq   
  40530f:	90                   	nop

0000000000405310 <_ZN11Tensor_KingId15CPU_MATHEMATICS10continuousIdS0_EE8accessorEv>:
  405310:	55                   	push   %rbp
  405311:	48 89 e5             	mov    %rsp,%rbp
  405314:	48 89 7d f8          	mov    %rdi,-0x8(%rbp)
  405318:	48 8b 45 f8          	mov    -0x8(%rbp),%rax
  40531c:	48 83 c0 08          	add    $0x8,%rax
  405320:	5d                   	pop    %rbp
  405321:	c3                   	retq   

0000000000405322 <_ZN10continuousId15CPU_MATHEMATICSE7getDataEv>:
  405322:	55                   	push   %rbp
  405323:	48 89 e5             	mov    %rsp,%rbp
  405326:	48 89 7d f8          	mov    %rdi,-0x8(%rbp)
  40532a:	48 8b 45 f8          	mov    -0x8(%rbp),%rax
  40532e:	48 8b 40 08          	mov    0x8(%rax),%rax
  405332:	5d                   	pop    %rbp
  405333:	c3                   	retq   

0000000000405334 <_ZNSt7__cxx1112basic_stringIcSt11char_traitsIcESaIcEEC1IPcvEET_S7_RKS3_>:
  405334:	55                   	push   %rbp
  405335:	48 89 e5             	mov    %rsp,%rbp
  405338:	53                   	push   %rbx
  405339:	48 83 ec 28          	sub    $0x28,%rsp
  40533d:	48 89 7d e8          	mov    %rdi,-0x18(%rbp)
  405341:	48 89 75 e0          	mov    %rsi,-0x20(%rbp)
  405345:	48 89 55 d8          	mov    %rdx,-0x28(%rbp)
  405349:	48 89 4d d0          	mov    %rcx,-0x30(%rbp)
  40534d:	48 8b 45 e8          	mov    -0x18(%rbp),%rax
  405351:	48 89 c7             	mov    %rax,%rdi
  405354:	e8 17 ca ff ff       	callq  401d70 <_ZNSt7__cxx1112basic_stringIcSt11char_traitsIcESaIcEE13_M_local_dataEv@plt>
  405359:	48 89 c1             	mov    %rax,%rcx
  40535c:	48 8b 45 e8          	mov    -0x18(%rbp),%rax
  405360:	48 8b 55 d0          	mov    -0x30(%rbp),%rdx
  405364:	48 89 ce             	mov    %rcx,%rsi
  405367:	48 89 c7             	mov    %rax,%rdi
  40536a:	e8 91 ca ff ff       	callq  401e00 <_ZNSt7__cxx1112basic_stringIcSt11char_traitsIcESaIcEE12_Alloc_hiderC1EPcRKS3_@plt>
  40536f:	48 8b 55 d8          	mov    -0x28(%rbp),%rdx
  405373:	48 8b 4d e0          	mov    -0x20(%rbp),%rcx
  405377:	48 8b 45 e8          	mov    -0x18(%rbp),%rax
  40537b:	48 89 ce             	mov    %rcx,%rsi
  40537e:	48 89 c7             	mov    %rax,%rdi
  405381:	e8 7e 1c 00 00       	callq  407004 <_ZNSt7__cxx1112basic_stringIcSt11char_traitsIcESaIcEE12_M_constructIPcEEvT_S7_>
  405386:	eb 1a                	jmp    4053a2 <_ZNSt7__cxx1112basic_stringIcSt11char_traitsIcESaIcEEC1IPcvEET_S7_RKS3_+0x6e>
  405388:	48 89 c3             	mov    %rax,%rbx
  40538b:	48 8b 45 e8          	mov    -0x18(%rbp),%rax
  40538f:	48 89 c7             	mov    %rax,%rdi
  405392:	e8 e9 e1 ff ff       	callq  403580 <_ZNSt7__cxx1112basic_stringIcSt11char_traitsIcESaIcEE12_Alloc_hiderD1Ev>
  405397:	48 89 d8             	mov    %rbx,%rax
  40539a:	48 89 c7             	mov    %rax,%rdi
  40539d:	e8 ee cb ff ff       	callq  401f90 <_Unwind_Resume@plt>
  4053a2:	48 83 c4 28          	add    $0x28,%rsp
  4053a6:	5b                   	pop    %rbx
  4053a7:	5d                   	pop    %rbp
  4053a8:	c3                   	retq   
  4053a9:	90                   	nop

00000000004053aa <_ZN10Tensor_AceC1Ev>:
  4053aa:	55                   	push   %rbp
  4053ab:	48 89 e5             	mov    %rsp,%rbp
  4053ae:	48 89 7d f8          	mov    %rdi,-0x8(%rbp)
  4053b2:	ba 38 da 40 00       	mov    $0x40da38,%edx
  4053b7:	48 8b 45 f8          	mov    -0x8(%rbp),%rax
  4053bb:	48 89 10             	mov    %rdx,(%rax)
  4053be:	90                   	nop
  4053bf:	5d                   	pop    %rbp
  4053c0:	c3                   	retq   
  4053c1:	90                   	nop

00000000004053c2 <_ZN11Tensor_KingIf15CPU_MATHEMATICS10continuousIfS0_EEC1IISt16initializer_listIiEEEEbbDpT_>:
  4053c2:	55                   	push   %rbp
  4053c3:	48 89 e5             	mov    %rsp,%rbp
  4053c6:	53                   	push   %rbx
  4053c7:	48 83 ec 28          	sub    $0x28,%rsp
  4053cb:	48 89 7d e8          	mov    %rdi,-0x18(%rbp)
  4053cf:	89 f7                	mov    %esi,%edi
  4053d1:	89 d6                	mov    %edx,%esi
  4053d3:	48 89 c8             	mov    %rcx,%rax
  4053d6:	4c 89 c1             	mov    %r8,%rcx
  4053d9:	48 89 ca             	mov    %rcx,%rdx
  4053dc:	48 89 45 d0          	mov    %rax,-0x30(%rbp)
  4053e0:	48 89 55 d8          	mov    %rdx,-0x28(%rbp)
  4053e4:	40 88 7d e4          	mov    %dil,-0x1c(%rbp)
  4053e8:	40 88 75 e0          	mov    %sil,-0x20(%rbp)
  4053ec:	48 8b 45 e8          	mov    -0x18(%rbp),%rax
  4053f0:	48 89 c7             	mov    %rax,%rdi
  4053f3:	e8 b2 ff ff ff       	callq  4053aa <_ZN10Tensor_AceC1Ev>
  4053f8:	ba 18 d9 40 00       	mov    $0x40d918,%edx
  4053fd:	48 8b 45 e8          	mov    -0x18(%rbp),%rax
  405401:	48 89 10             	mov    %rdx,(%rax)
  405404:	48 8b 45 e8          	mov    -0x18(%rbp),%rax
  405408:	48 8d 48 08          	lea    0x8(%rax),%rcx
  40540c:	48 8b 55 d0          	mov    -0x30(%rbp),%rdx
  405410:	48 8b 45 d8          	mov    -0x28(%rbp),%rax
  405414:	48 89 d6             	mov    %rdx,%rsi
  405417:	48 89 c2             	mov    %rax,%rdx
  40541a:	48 89 cf             	mov    %rcx,%rdi
  40541d:	e8 8a 1c 00 00       	callq  4070ac <_ZN10continuousIf15CPU_MATHEMATICSEC1ESt16initializer_listIiE>
  405422:	48 8b 45 e8          	mov    -0x18(%rbp),%rax
  405426:	0f b6 55 e4          	movzbl -0x1c(%rbp),%edx
  40542a:	88 50 28             	mov    %dl,0x28(%rax)
  40542d:	48 8b 45 e8          	mov    -0x18(%rbp),%rax
  405431:	0f b6 55 e0          	movzbl -0x20(%rbp),%edx
  405435:	88 50 29             	mov    %dl,0x29(%rax)
  405438:	eb 1a                	jmp    405454 <_ZN11Tensor_KingIf15CPU_MATHEMATICS10continuousIfS0_EEC1IISt16initializer_listIiEEEEbbDpT_+0x92>
  40543a:	48 89 c3             	mov    %rax,%rbx
  40543d:	48 8b 45 e8          	mov    -0x18(%rbp),%rax
  405441:	48 89 c7             	mov    %rax,%rdi
  405444:	e8 37 df ff ff       	callq  403380 <_ZN10Tensor_AceD1Ev>
  405449:	48 89 d8             	mov    %rbx,%rax
  40544c:	48 89 c7             	mov    %rax,%rdi
  40544f:	e8 3c cb ff ff       	callq  401f90 <_Unwind_Resume@plt>
  405454:	48 83 c4 28          	add    $0x28,%rsp
  405458:	5b                   	pop    %rbx
  405459:	5d                   	pop    %rbp
  40545a:	c3                   	retq   
  40545b:	90                   	nop

000000000040545c <_ZN11Tensor_KingIf15CPU_MATHEMATICS10continuousIfS0_EED1Ev>:
  40545c:	55                   	push   %rbp
  40545d:	48 89 e5             	mov    %rsp,%rbp
  405460:	48 83 ec 10          	sub    $0x10,%rsp
  405464:	48 89 7d f8          	mov    %rdi,-0x8(%rbp)
  405468:	ba 18 d9 40 00       	mov    $0x40d918,%edx
  40546d:	48 8b 45 f8          	mov    -0x8(%rbp),%rax
  405471:	48 89 10             	mov    %rdx,(%rax)
  405474:	48 8b 45 f8          	mov    -0x8(%rbp),%rax
  405478:	0f b6 40 28          	movzbl 0x28(%rax),%eax
  40547c:	84 c0                	test   %al,%al
  40547e:	74 18                	je     405498 <_ZN11Tensor_KingIf15CPU_MATHEMATICS10continuousIfS0_EED1Ev+0x3c>
  405480:	48 8b 45 f8          	mov    -0x8(%rbp),%rax
  405484:	48 83 c0 08          	add    $0x8,%rax
  405488:	48 89 c7             	mov    %rax,%rdi
  40548b:	e8 f4 11 00 00       	callq  406684 <_ZN10continuousIf15CPU_MATHEMATICSE7getDataEv>
  405490:	48 89 c7             	mov    %rax,%rdi
  405493:	e8 2f 1d 00 00       	callq  4071c7 <_ZN15CPU_MATHEMATICS7destroyIfEEvPT_>
  405498:	48 8b 45 f8          	mov    -0x8(%rbp),%rax
  40549c:	0f b6 40 29          	movzbl 0x29(%rax),%eax
  4054a0:	84 c0                	test   %al,%al
  4054a2:	74 18                	je     4054bc <_ZN11Tensor_KingIf15CPU_MATHEMATICS10continuousIfS0_EED1Ev+0x60>
  4054a4:	48 8b 45 f8          	mov    -0x8(%rbp),%rax
  4054a8:	48 83 c0 08          	add    $0x8,%rax
  4054ac:	48 89 c7             	mov    %rax,%rdi
  4054af:	e8 36 1d 00 00       	callq  4071ea <_ZN10continuousIf15CPU_MATHEMATICSE8getShapeEv>
  4054b4:	48 89 c7             	mov    %rax,%rdi
  4054b7:	e8 40 1d 00 00       	callq  4071fc <_ZN15CPU_MATHEMATICS7destroyIiEEvPT_>
  4054bc:	48 8b 45 f8          	mov    -0x8(%rbp),%rax
  4054c0:	48 83 c0 08          	add    $0x8,%rax
  4054c4:	48 89 c7             	mov    %rax,%rdi
  4054c7:	e8 3a e2 ff ff       	callq  403706 <_ZN10continuousIf15CPU_MATHEMATICSED1Ev>
  4054cc:	48 8b 45 f8          	mov    -0x8(%rbp),%rax
  4054d0:	48 89 c7             	mov    %rax,%rdi
  4054d3:	e8 a8 de ff ff       	callq  403380 <_ZN10Tensor_AceD1Ev>
  4054d8:	b8 00 00 00 00       	mov    $0x0,%eax
  4054dd:	85 c0                	test   %eax,%eax
  4054df:	74 11                	je     4054f2 <_ZN11Tensor_KingIf15CPU_MATHEMATICS10continuousIfS0_EED1Ev+0x96>
  4054e1:	48 8b 45 f8          	mov    -0x8(%rbp),%rax
  4054e5:	be 30 00 00 00       	mov    $0x30,%esi
  4054ea:	48 89 c7             	mov    %rax,%rdi
  4054ed:	e8 de c8 ff ff       	callq  401dd0 <_ZdlPvm@plt>
  4054f2:	c9                   	leaveq 
  4054f3:	c3                   	retq   

00000000004054f4 <_ZN11Tensor_KingIf15CPU_MATHEMATICS10continuousIfS0_EED0Ev>:
  4054f4:	55                   	push   %rbp
  4054f5:	48 89 e5             	mov    %rsp,%rbp
  4054f8:	48 83 ec 10          	sub    $0x10,%rsp
  4054fc:	48 89 7d f8          	mov    %rdi,-0x8(%rbp)
  405500:	48 8b 45 f8          	mov    -0x8(%rbp),%rax
  405504:	48 89 c7             	mov    %rax,%rdi
  405507:	e8 50 ff ff ff       	callq  40545c <_ZN11Tensor_KingIf15CPU_MATHEMATICS10continuousIfS0_EED1Ev>
  40550c:	48 8b 45 f8          	mov    -0x8(%rbp),%rax
  405510:	be 30 00 00 00       	mov    $0x30,%esi
  405515:	48 89 c7             	mov    %rax,%rdi
  405518:	e8 b3 c8 ff ff       	callq  401dd0 <_ZdlPvm@plt>
  40551d:	c9                   	leaveq 
  40551e:	c3                   	retq   

000000000040551f <_ZN15CPU_MATHEMATICS9randomizeI10continuousIfS_EfEEvT_T0_S4_i>:
  40551f:	55                   	push   %rbp
  405520:	48 89 e5             	mov    %rsp,%rbp
  405523:	48 83 ec 40          	sub    $0x40,%rsp
  405527:	48 89 7d d8          	mov    %rdi,-0x28(%rbp)
  40552b:	f3 0f 11 45 d4       	movss  %xmm0,-0x2c(%rbp)
  405530:	f3 0f 11 4d d0       	movss  %xmm1,-0x30(%rbp)
  405535:	89 75 cc             	mov    %esi,-0x34(%rbp)
  405538:	64 48 8b 04 25 28 00 	mov    %fs:0x28,%rax
  40553f:	00 00 
  405541:	48 89 45 f8          	mov    %rax,-0x8(%rbp)
  405545:	31 c0                	xor    %eax,%eax
  405547:	48 8b 45 d8          	mov    -0x28(%rbp),%rax
  40554b:	48 89 45 e0          	mov    %rax,-0x20(%rbp)
  40554f:	f3 0f 10 45 d4       	movss  -0x2c(%rbp),%xmm0
  405554:	f3 0f 11 45 e8       	movss  %xmm0,-0x18(%rbp)
  405559:	f3 0f 10 45 d0       	movss  -0x30(%rbp),%xmm0
  40555e:	f3 0f 11 45 ec       	movss  %xmm0,-0x14(%rbp)
  405563:	8b 45 cc             	mov    -0x34(%rbp),%eax
  405566:	89 45 f0             	mov    %eax,-0x10(%rbp)
  405569:	48 8d 45 e0          	lea    -0x20(%rbp),%rax
  40556d:	b9 00 00 00 00       	mov    $0x0,%ecx
  405572:	ba 00 00 00 00       	mov    $0x0,%edx
  405577:	48 89 c6             	mov    %rax,%rsi
  40557a:	bf 89 30 40 00       	mov    $0x403089,%edi
  40557f:	e8 6c c9 ff ff       	callq  401ef0 <GOMP_parallel@plt>
  405584:	f3 0f 10 45 e8       	movss  -0x18(%rbp),%xmm0
  405589:	f3 0f 11 45 d4       	movss  %xmm0,-0x2c(%rbp)
  40558e:	f3 0f 10 45 ec       	movss  -0x14(%rbp),%xmm0
  405593:	f3 0f 11 45 d0       	movss  %xmm0,-0x30(%rbp)
  405598:	8b 45 f0             	mov    -0x10(%rbp),%eax
  40559b:	89 45 cc             	mov    %eax,-0x34(%rbp)
  40559e:	e8 1d ca ff ff       	callq  401fc0 <GOMP_barrier@plt>
  4055a3:	90                   	nop
  4055a4:	48 8b 45 f8          	mov    -0x8(%rbp),%rax
  4055a8:	64 48 33 04 25 28 00 	xor    %fs:0x28,%rax
  4055af:	00 00 
  4055b1:	74 05                	je     4055b8 <_ZN15CPU_MATHEMATICS9randomizeI10continuousIfS_EfEEvT_T0_S4_i+0x99>
  4055b3:	e8 78 c8 ff ff       	callq  401e30 <__stack_chk_fail@plt>
  4055b8:	c9                   	leaveq 
  4055b9:	c3                   	retq   

00000000004055ba <_ZNK10continuousIf15CPU_MATHEMATICSE8hasShapeEv>:
  4055ba:	55                   	push   %rbp
  4055bb:	48 89 e5             	mov    %rsp,%rbp
  4055be:	48 89 7d f8          	mov    %rdi,-0x8(%rbp)
  4055c2:	b8 01 00 00 00       	mov    $0x1,%eax
  4055c7:	5d                   	pop    %rbp
  4055c8:	c3                   	retq   
  4055c9:	90                   	nop

00000000004055ca <_ZNK10continuousIf15CPU_MATHEMATICSE8getShapeEv>:
  4055ca:	55                   	push   %rbp
  4055cb:	48 89 e5             	mov    %rsp,%rbp
  4055ce:	48 89 7d f8          	mov    %rdi,-0x8(%rbp)
  4055d2:	48 8b 45 f8          	mov    -0x8(%rbp),%rax
  4055d6:	48 8b 40 10          	mov    0x10(%rax),%rax
  4055da:	5d                   	pop    %rbp
  4055db:	c3                   	retq   

00000000004055dc <_ZNK11Tensor_KingIf15CPU_MATHEMATICS10continuousIfS0_EE5orderEv>:
  4055dc:	55                   	push   %rbp
  4055dd:	48 89 e5             	mov    %rsp,%rbp
  4055e0:	48 83 ec 10          	sub    $0x10,%rsp
  4055e4:	48 89 7d f8          	mov    %rdi,-0x8(%rbp)
  4055e8:	48 8b 45 f8          	mov    -0x8(%rbp),%rax
  4055ec:	48 83 c0 08          	add    $0x8,%rax
  4055f0:	48 89 c7             	mov    %rax,%rdi
  4055f3:	e8 26 1c 00 00       	callq  40721e <_ZNK10continuousIf15CPU_MATHEMATICSE5orderEv>
  4055f8:	c9                   	leaveq 
  4055f9:	c3                   	retq   

00000000004055fa <_ZN15CPU_MATHEMATICS5printI10continuousIfS_EEEvT_PKiii>:
  4055fa:	55                   	push   %rbp
