
test:     file format elf64-x86-64


Disassembly of section .init:

0000000000401c60 <_init>:
  401c60:	48 83 ec 08          	sub    $0x8,%rsp
  401c64:	48 8b 05 8d 23 21 00 	mov    0x21238d(%rip),%rax        # 613ff8 <_DYNAMIC+0x220>
  401c6b:	48 85 c0             	test   %rax,%rax
  401c6e:	74 05                	je     401c75 <_init+0x15>
  401c70:	e8 bb 03 00 00       	callq  402030 <_ZNSt8ios_base4InitD1Ev@plt+0x10>
  401c75:	48 83 c4 08          	add    $0x8,%rsp
  401c79:	c3                   	retq   

Disassembly of section .plt:

0000000000401c80 <_Znam@plt-0x10>:
  401c80:	ff 35 82 23 21 00    	pushq  0x212382(%rip)        # 614008 <_GLOBAL_OFFSET_TABLE_+0x8>
  401c86:	ff 25 84 23 21 00    	jmpq   *0x212384(%rip)        # 614010 <_GLOBAL_OFFSET_TABLE_+0x10>
  401c8c:	0f 1f 40 00          	nopl   0x0(%rax)

0000000000401c90 <_Znam@plt>:
  401c90:	ff 25 82 23 21 00    	jmpq   *0x212382(%rip)        # 614018 <_GLOBAL_OFFSET_TABLE_+0x18>
  401c96:	68 00 00 00 00       	pushq  $0x0
  401c9b:	e9 e0 ff ff ff       	jmpq   401c80 <_init+0x20>

0000000000401ca0 <printf@plt>:
  401ca0:	ff 25 7a 23 21 00    	jmpq   *0x21237a(%rip)        # 614020 <_GLOBAL_OFFSET_TABLE_+0x20>
  401ca6:	68 01 00 00 00       	pushq  $0x1
  401cab:	e9 d0 ff ff ff       	jmpq   401c80 <_init+0x20>

0000000000401cb0 <_ZNSaIcED2Ev@plt>:
  401cb0:	ff 25 72 23 21 00    	jmpq   *0x212372(%rip)        # 614028 <_GLOBAL_OFFSET_TABLE_+0x28>
  401cb6:	68 02 00 00 00       	pushq  $0x2
  401cbb:	e9 c0 ff ff ff       	jmpq   401c80 <_init+0x20>

0000000000401cc0 <rand@plt>:
  401cc0:	ff 25 6a 23 21 00    	jmpq   *0x21236a(%rip)        # 614030 <_GLOBAL_OFFSET_TABLE_+0x30>
  401cc6:	68 03 00 00 00       	pushq  $0x3
  401ccb:	e9 b0 ff ff ff       	jmpq   401c80 <_init+0x20>

0000000000401cd0 <_ZNSt7__cxx1112basic_stringIcSt11char_traitsIcESaIcEE13_S_copy_charsEPcS5_S5_@plt>:
  401cd0:	ff 25 62 23 21 00    	jmpq   *0x212362(%rip)        # 614038 <_GLOBAL_OFFSET_TABLE_+0x38>
  401cd6:	68 04 00 00 00       	pushq  $0x4
  401cdb:	e9 a0 ff ff ff       	jmpq   401c80 <_init+0x20>

0000000000401ce0 <__cxa_begin_catch@plt>:
  401ce0:	ff 25 5a 23 21 00    	jmpq   *0x21235a(%rip)        # 614040 <_GLOBAL_OFFSET_TABLE_+0x40>
  401ce6:	68 05 00 00 00       	pushq  $0x5
  401ceb:	e9 90 ff ff ff       	jmpq   401c80 <_init+0x20>

0000000000401cf0 <_ZNSt7__cxx1112basic_stringIcSt11char_traitsIcESaIcEEC1ERKS4_@plt>:
  401cf0:	ff 25 52 23 21 00    	jmpq   *0x212352(%rip)        # 614048 <_GLOBAL_OFFSET_TABLE_+0x48>
  401cf6:	68 06 00 00 00       	pushq  $0x6
  401cfb:	e9 80 ff ff ff       	jmpq   401c80 <_init+0x20>

0000000000401d00 <_ZSt4endlIcSt11char_traitsIcEERSt13basic_ostreamIT_T0_ES6_@plt>:
  401d00:	ff 25 4a 23 21 00    	jmpq   *0x21234a(%rip)        # 614050 <_GLOBAL_OFFSET_TABLE_+0x50>
  401d06:	68 07 00 00 00       	pushq  $0x7
  401d0b:	e9 70 ff ff ff       	jmpq   401c80 <_init+0x20>

0000000000401d10 <__cxa_allocate_exception@plt>:
  401d10:	ff 25 42 23 21 00    	jmpq   *0x212342(%rip)        # 614058 <_GLOBAL_OFFSET_TABLE_+0x58>
  401d16:	68 08 00 00 00       	pushq  $0x8
  401d1b:	e9 60 ff ff ff       	jmpq   401c80 <_init+0x20>

0000000000401d20 <_ZNSt7__cxx1112basic_stringIcSt11char_traitsIcESaIcEED1Ev@plt>:
  401d20:	ff 25 3a 23 21 00    	jmpq   *0x21233a(%rip)        # 614060 <_GLOBAL_OFFSET_TABLE_+0x60>
  401d26:	68 09 00 00 00       	pushq  $0x9
  401d2b:	e9 50 ff ff ff       	jmpq   401c80 <_init+0x20>

0000000000401d30 <vsnprintf@plt>:
  401d30:	ff 25 32 23 21 00    	jmpq   *0x212332(%rip)        # 614068 <_GLOBAL_OFFSET_TABLE_+0x68>
  401d36:	68 0a 00 00 00       	pushq  $0xa
  401d3b:	e9 40 ff ff ff       	jmpq   401c80 <_init+0x20>

0000000000401d40 <_ZNSt7__cxx1112basic_stringIcSt11char_traitsIcESaIcEE13_M_set_lengthEm@plt>:
  401d40:	ff 25 2a 23 21 00    	jmpq   *0x21232a(%rip)        # 614070 <_GLOBAL_OFFSET_TABLE_+0x70>
  401d46:	68 0b 00 00 00       	pushq  $0xb
  401d4b:	e9 30 ff ff ff       	jmpq   401c80 <_init+0x20>

0000000000401d50 <_ZSt19__throw_logic_errorPKc@plt>:
  401d50:	ff 25 22 23 21 00    	jmpq   *0x212322(%rip)        # 614078 <_GLOBAL_OFFSET_TABLE_+0x78>
  401d56:	68 0c 00 00 00       	pushq  $0xc
  401d5b:	e9 20 ff ff ff       	jmpq   401c80 <_init+0x20>

0000000000401d60 <__cxa_free_exception@plt>:
  401d60:	ff 25 1a 23 21 00    	jmpq   *0x21231a(%rip)        # 614080 <_GLOBAL_OFFSET_TABLE_+0x80>
  401d66:	68 0d 00 00 00       	pushq  $0xd
  401d6b:	e9 10 ff ff ff       	jmpq   401c80 <_init+0x20>

0000000000401d70 <_ZNSt7__cxx1112basic_stringIcSt11char_traitsIcESaIcEE13_M_local_dataEv@plt>:
  401d70:	ff 25 12 23 21 00    	jmpq   *0x212312(%rip)        # 614088 <_GLOBAL_OFFSET_TABLE_+0x88>
  401d76:	68 0e 00 00 00       	pushq  $0xe
  401d7b:	e9 00 ff ff ff       	jmpq   401c80 <_init+0x20>

0000000000401d80 <_ZNSt7__cxx1112basic_stringIcSt11char_traitsIcESaIcEE7_M_dataEPc@plt>:
  401d80:	ff 25 0a 23 21 00    	jmpq   *0x21230a(%rip)        # 614090 <_GLOBAL_OFFSET_TABLE_+0x90>
  401d86:	68 0f 00 00 00       	pushq  $0xf
  401d8b:	e9 f0 fe ff ff       	jmpq   401c80 <_init+0x20>

0000000000401d90 <__cxa_atexit@plt>:
  401d90:	ff 25 02 23 21 00    	jmpq   *0x212302(%rip)        # 614098 <_GLOBAL_OFFSET_TABLE_+0x98>
  401d96:	68 10 00 00 00       	pushq  $0x10
  401d9b:	e9 e0 fe ff ff       	jmpq   401c80 <_init+0x20>

0000000000401da0 <_ZStlsIcSt11char_traitsIcESaIcEERSt13basic_ostreamIT_T0_ES7_RKNSt7__cxx1112basic_stringIS4_S5_T1_EE@plt>:
  401da0:	ff 25 fa 22 21 00    	jmpq   *0x2122fa(%rip)        # 6140a0 <_GLOBAL_OFFSET_TABLE_+0xa0>
  401da6:	68 11 00 00 00       	pushq  $0x11
  401dab:	e9 d0 fe ff ff       	jmpq   401c80 <_init+0x20>

0000000000401db0 <_ZNSt7__cxx1112basic_stringIcSt11char_traitsIcESaIcEEpLEPKc@plt>:
  401db0:	ff 25 f2 22 21 00    	jmpq   *0x2122f2(%rip)        # 6140a8 <_GLOBAL_OFFSET_TABLE_+0xa8>
  401db6:	68 12 00 00 00       	pushq  $0x12
  401dbb:	e9 c0 fe ff ff       	jmpq   401c80 <_init+0x20>

0000000000401dc0 <_ZStlsISt11char_traitsIcEERSt13basic_ostreamIcT_ES5_PKc@plt>:
  401dc0:	ff 25 ea 22 21 00    	jmpq   *0x2122ea(%rip)        # 6140b0 <_GLOBAL_OFFSET_TABLE_+0xb0>
  401dc6:	68 13 00 00 00       	pushq  $0x13
  401dcb:	e9 b0 fe ff ff       	jmpq   401c80 <_init+0x20>

0000000000401dd0 <_ZdlPvm@plt>:
  401dd0:	ff 25 e2 22 21 00    	jmpq   *0x2122e2(%rip)        # 6140b8 <_GLOBAL_OFFSET_TABLE_+0xb8>
  401dd6:	68 14 00 00 00       	pushq  $0x14
  401ddb:	e9 a0 fe ff ff       	jmpq   401c80 <_init+0x20>

0000000000401de0 <_ZNKSt7__cxx1112basic_stringIcSt11char_traitsIcESaIcEE6substrEmm@plt>:
  401de0:	ff 25 da 22 21 00    	jmpq   *0x2122da(%rip)        # 6140c0 <_GLOBAL_OFFSET_TABLE_+0xc0>
  401de6:	68 15 00 00 00       	pushq  $0x15
  401deb:	e9 90 fe ff ff       	jmpq   401c80 <_init+0x20>

0000000000401df0 <_ZNSolsEPFRSoS_E@plt>:
  401df0:	ff 25 d2 22 21 00    	jmpq   *0x2122d2(%rip)        # 6140c8 <_GLOBAL_OFFSET_TABLE_+0xc8>
  401df6:	68 16 00 00 00       	pushq  $0x16
  401dfb:	e9 80 fe ff ff       	jmpq   401c80 <_init+0x20>

0000000000401e00 <_ZNSt7__cxx1112basic_stringIcSt11char_traitsIcESaIcEE12_Alloc_hiderC1EPcRKS3_@plt>:
  401e00:	ff 25 ca 22 21 00    	jmpq   *0x2122ca(%rip)        # 6140d0 <_GLOBAL_OFFSET_TABLE_+0xd0>
  401e06:	68 17 00 00 00       	pushq  $0x17
  401e0b:	e9 70 fe ff ff       	jmpq   401c80 <_init+0x20>

0000000000401e10 <_ZNSaIcED1Ev@plt>:
  401e10:	ff 25 c2 22 21 00    	jmpq   *0x2122c2(%rip)        # 6140d8 <_GLOBAL_OFFSET_TABLE_+0xd8>
  401e16:	68 18 00 00 00       	pushq  $0x18
  401e1b:	e9 60 fe ff ff       	jmpq   401c80 <_init+0x20>

0000000000401e20 <_ZNKSt7__cxx1112basic_stringIcSt11char_traitsIcESaIcEE7_M_dataEv@plt>:
  401e20:	ff 25 ba 22 21 00    	jmpq   *0x2122ba(%rip)        # 6140e0 <_GLOBAL_OFFSET_TABLE_+0xe0>
  401e26:	68 19 00 00 00       	pushq  $0x19
  401e2b:	e9 50 fe ff ff       	jmpq   401c80 <_init+0x20>

0000000000401e30 <__stack_chk_fail@plt>:
  401e30:	ff 25 b2 22 21 00    	jmpq   *0x2122b2(%rip)        # 6140e8 <_GLOBAL_OFFSET_TABLE_+0xe8>
  401e36:	68 1a 00 00 00       	pushq  $0x1a
  401e3b:	e9 40 fe ff ff       	jmpq   401c80 <_init+0x20>

0000000000401e40 <_ZNSt7__cxx1112basic_stringIcSt11char_traitsIcESaIcEEC1EPKcmRKS3_@plt>:
  401e40:	ff 25 aa 22 21 00    	jmpq   *0x2122aa(%rip)        # 6140f0 <_GLOBAL_OFFSET_TABLE_+0xf0>
  401e46:	68 1b 00 00 00       	pushq  $0x1b
  401e4b:	e9 30 fe ff ff       	jmpq   401c80 <_init+0x20>

0000000000401e50 <_ZNSt7__cxx1112basic_stringIcSt11char_traitsIcESaIcEEaSEOS4_@plt>:
  401e50:	ff 25 a2 22 21 00    	jmpq   *0x2122a2(%rip)        # 6140f8 <_GLOBAL_OFFSET_TABLE_+0xf8>
  401e56:	68 1c 00 00 00       	pushq  $0x1c
  401e5b:	e9 20 fe ff ff       	jmpq   401c80 <_init+0x20>

0000000000401e60 <_ZNSt7__cxx1112basic_stringIcSt11char_traitsIcESaIcEE10_M_disposeEv@plt>:
  401e60:	ff 25 9a 22 21 00    	jmpq   *0x21229a(%rip)        # 614100 <_GLOBAL_OFFSET_TABLE_+0x100>
  401e66:	68 1d 00 00 00       	pushq  $0x1d
  401e6b:	e9 10 fe ff ff       	jmpq   401c80 <_init+0x20>

0000000000401e70 <_ZNSt7__cxx1112basic_stringIcSt11char_traitsIcESaIcEEpLERKS4_@plt>:
  401e70:	ff 25 92 22 21 00    	jmpq   *0x212292(%rip)        # 614108 <_GLOBAL_OFFSET_TABLE_+0x108>
  401e76:	68 1e 00 00 00       	pushq  $0x1e
  401e7b:	e9 00 fe ff ff       	jmpq   401c80 <_init+0x20>

0000000000401e80 <_ZdaPv@plt>:
  401e80:	ff 25 8a 22 21 00    	jmpq   *0x21228a(%rip)        # 614110 <_GLOBAL_OFFSET_TABLE_+0x110>
  401e86:	68 1f 00 00 00       	pushq  $0x1f
  401e8b:	e9 f0 fd ff ff       	jmpq   401c80 <_init+0x20>

0000000000401e90 <cblas_sgemm@plt>:
  401e90:	ff 25 82 22 21 00    	jmpq   *0x212282(%rip)        # 614118 <_GLOBAL_OFFSET_TABLE_+0x118>
  401e96:	68 20 00 00 00       	pushq  $0x20
  401e9b:	e9 e0 fd ff ff       	jmpq   401c80 <_init+0x20>

0000000000401ea0 <_ZNSt7__cxx1112basic_stringIcSt11char_traitsIcESaIcEEC1EPKcRKS3_@plt>:
  401ea0:	ff 25 7a 22 21 00    	jmpq   *0x21227a(%rip)        # 614120 <_GLOBAL_OFFSET_TABLE_+0x120>
  401ea6:	68 21 00 00 00       	pushq  $0x21
  401eab:	e9 d0 fd ff ff       	jmpq   401c80 <_init+0x20>

0000000000401eb0 <cblas_dgemm@plt>:
  401eb0:	ff 25 72 22 21 00    	jmpq   *0x212272(%rip)        # 614128 <_GLOBAL_OFFSET_TABLE_+0x128>
  401eb6:	68 22 00 00 00       	pushq  $0x22
  401ebb:	e9 c0 fd ff ff       	jmpq   401c80 <_init+0x20>

0000000000401ec0 <__cxa_throw_bad_array_new_length@plt>:
  401ec0:	ff 25 6a 22 21 00    	jmpq   *0x21226a(%rip)        # 614130 <_GLOBAL_OFFSET_TABLE_+0x130>
  401ec6:	68 23 00 00 00       	pushq  $0x23
  401ecb:	e9 b0 fd ff ff       	jmpq   401c80 <_init+0x20>

0000000000401ed0 <__cxa_rethrow@plt>:
  401ed0:	ff 25 62 22 21 00    	jmpq   *0x212262(%rip)        # 614138 <_GLOBAL_OFFSET_TABLE_+0x138>
  401ed6:	68 24 00 00 00       	pushq  $0x24
  401edb:	e9 a0 fd ff ff       	jmpq   401c80 <_init+0x20>

0000000000401ee0 <_ZNKSt7__cxx1112basic_stringIcSt11char_traitsIcESaIcEE6lengthEv@plt>:
  401ee0:	ff 25 5a 22 21 00    	jmpq   *0x21225a(%rip)        # 614140 <_GLOBAL_OFFSET_TABLE_+0x140>
  401ee6:	68 25 00 00 00       	pushq  $0x25
  401eeb:	e9 90 fd ff ff       	jmpq   401c80 <_init+0x20>

0000000000401ef0 <GOMP_parallel@plt>:
  401ef0:	ff 25 52 22 21 00    	jmpq   *0x212252(%rip)        # 614148 <_GLOBAL_OFFSET_TABLE_+0x148>
  401ef6:	68 26 00 00 00       	pushq  $0x26
  401efb:	e9 80 fd ff ff       	jmpq   401c80 <_init+0x20>

0000000000401f00 <_ZNSt8ios_base4InitC1Ev@plt>:
  401f00:	ff 25 4a 22 21 00    	jmpq   *0x21224a(%rip)        # 614150 <_GLOBAL_OFFSET_TABLE_+0x150>
  401f06:	68 27 00 00 00       	pushq  $0x27
  401f0b:	e9 70 fd ff ff       	jmpq   401c80 <_init+0x20>

0000000000401f10 <puts@plt>:
  401f10:	ff 25 42 22 21 00    	jmpq   *0x212242(%rip)        # 614158 <_GLOBAL_OFFSET_TABLE_+0x158>
  401f16:	68 28 00 00 00       	pushq  $0x28
  401f1b:	e9 60 fd ff ff       	jmpq   401c80 <_init+0x20>

0000000000401f20 <omp_get_thread_num@plt>:
  401f20:	ff 25 3a 22 21 00    	jmpq   *0x21223a(%rip)        # 614160 <_GLOBAL_OFFSET_TABLE_+0x160>
  401f26:	68 29 00 00 00       	pushq  $0x29
  401f2b:	e9 50 fd ff ff       	jmpq   401c80 <_init+0x20>

0000000000401f30 <__cxa_end_catch@plt>:
  401f30:	ff 25 32 22 21 00    	jmpq   *0x212232(%rip)        # 614168 <_GLOBAL_OFFSET_TABLE_+0x168>
  401f36:	68 2a 00 00 00       	pushq  $0x2a
  401f3b:	e9 40 fd ff ff       	jmpq   401c80 <_init+0x20>

0000000000401f40 <__gxx_personality_v0@plt>:
  401f40:	ff 25 2a 22 21 00    	jmpq   *0x21222a(%rip)        # 614170 <_GLOBAL_OFFSET_TABLE_+0x170>
  401f46:	68 2b 00 00 00       	pushq  $0x2b
  401f4b:	e9 30 fd ff ff       	jmpq   401c80 <_init+0x20>

0000000000401f50 <_ZNSt16invalid_argumentD1Ev@plt>:
  401f50:	ff 25 22 22 21 00    	jmpq   *0x212222(%rip)        # 614178 <_GLOBAL_OFFSET_TABLE_+0x178>
  401f56:	68 2c 00 00 00       	pushq  $0x2c
  401f5b:	e9 20 fd ff ff       	jmpq   401c80 <_init+0x20>

0000000000401f60 <floor@plt>:
  401f60:	ff 25 1a 22 21 00    	jmpq   *0x21221a(%rip)        # 614180 <_GLOBAL_OFFSET_TABLE_+0x180>
  401f66:	68 2d 00 00 00       	pushq  $0x2d
  401f6b:	e9 10 fd ff ff       	jmpq   401c80 <_init+0x20>

0000000000401f70 <__cxa_throw@plt>:
  401f70:	ff 25 12 22 21 00    	jmpq   *0x212212(%rip)        # 614188 <_GLOBAL_OFFSET_TABLE_+0x188>
  401f76:	68 2e 00 00 00       	pushq  $0x2e
  401f7b:	e9 00 fd ff ff       	jmpq   401c80 <_init+0x20>

0000000000401f80 <_ZNSolsEi@plt>:
  401f80:	ff 25 0a 22 21 00    	jmpq   *0x21220a(%rip)        # 614190 <_GLOBAL_OFFSET_TABLE_+0x190>
  401f86:	68 2f 00 00 00       	pushq  $0x2f
  401f8b:	e9 f0 fc ff ff       	jmpq   401c80 <_init+0x20>

0000000000401f90 <_Unwind_Resume@plt>:
  401f90:	ff 25 02 22 21 00    	jmpq   *0x212202(%rip)        # 614198 <_GLOBAL_OFFSET_TABLE_+0x198>
  401f96:	68 30 00 00 00       	pushq  $0x30
  401f9b:	e9 e0 fc ff ff       	jmpq   401c80 <_init+0x20>

0000000000401fa0 <_ZNSaIcEC1Ev@plt>:
  401fa0:	ff 25 fa 21 21 00    	jmpq   *0x2121fa(%rip)        # 6141a0 <_GLOBAL_OFFSET_TABLE_+0x1a0>
  401fa6:	68 31 00 00 00       	pushq  $0x31
  401fab:	e9 d0 fc ff ff       	jmpq   401c80 <_init+0x20>

0000000000401fb0 <_ZNSt7__cxx1112basic_stringIcSt11char_traitsIcESaIcEE9_M_createERmm@plt>:
  401fb0:	ff 25 f2 21 21 00    	jmpq   *0x2121f2(%rip)        # 6141a8 <_GLOBAL_OFFSET_TABLE_+0x1a8>
  401fb6:	68 32 00 00 00       	pushq  $0x32
  401fbb:	e9 c0 fc ff ff       	jmpq   401c80 <_init+0x20>

0000000000401fc0 <GOMP_barrier@plt>:
  401fc0:	ff 25 ea 21 21 00    	jmpq   *0x2121ea(%rip)        # 6141b0 <_GLOBAL_OFFSET_TABLE_+0x1b0>
  401fc6:	68 33 00 00 00       	pushq  $0x33
  401fcb:	e9 b0 fc ff ff       	jmpq   401c80 <_init+0x20>

0000000000401fd0 <__libc_start_main@plt>:
  401fd0:	ff 25 e2 21 21 00    	jmpq   *0x2121e2(%rip)        # 6141b8 <_GLOBAL_OFFSET_TABLE_+0x1b8>
  401fd6:	68 34 00 00 00       	pushq  $0x34
  401fdb:	e9 a0 fc ff ff       	jmpq   401c80 <_init+0x20>

0000000000401fe0 <omp_get_num_threads@plt>:
  401fe0:	ff 25 da 21 21 00    	jmpq   *0x2121da(%rip)        # 6141c0 <_GLOBAL_OFFSET_TABLE_+0x1c0>
  401fe6:	68 35 00 00 00       	pushq  $0x35
  401feb:	e9 90 fc ff ff       	jmpq   401c80 <_init+0x20>

0000000000401ff0 <_ZNSt16invalid_argumentC1EPKc@plt>:
  401ff0:	ff 25 d2 21 21 00    	jmpq   *0x2121d2(%rip)        # 6141c8 <_GLOBAL_OFFSET_TABLE_+0x1c8>
  401ff6:	68 36 00 00 00       	pushq  $0x36
  401ffb:	e9 80 fc ff ff       	jmpq   401c80 <_init+0x20>

0000000000402000 <__cxa_pure_virtual@plt>:
  402000:	ff 25 ca 21 21 00    	jmpq   *0x2121ca(%rip)        # 6141d0 <_GLOBAL_OFFSET_TABLE_+0x1d0>
  402006:	68 37 00 00 00       	pushq  $0x37
  40200b:	e9 70 fc ff ff       	jmpq   401c80 <_init+0x20>

0000000000402010 <_ZNSt7__cxx1112basic_stringIcSt11char_traitsIcESaIcEE11_M_capacityEm@plt>:
  402010:	ff 25 c2 21 21 00    	jmpq   *0x2121c2(%rip)        # 6141d8 <_GLOBAL_OFFSET_TABLE_+0x1d8>
  402016:	68 38 00 00 00       	pushq  $0x38
  40201b:	e9 60 fc ff ff       	jmpq   401c80 <_init+0x20>

0000000000402020 <_ZNSt8ios_base4InitD1Ev@plt>:
  402020:	ff 25 ba 21 21 00    	jmpq   *0x2121ba(%rip)        # 6141e0 <_GLOBAL_OFFSET_TABLE_+0x1e0>
  402026:	68 39 00 00 00       	pushq  $0x39
  40202b:	e9 50 fc ff ff       	jmpq   401c80 <_init+0x20>

Disassembly of section .plt.got:

0000000000402030 <.plt.got>:
  402030:	ff 25 c2 1f 21 00    	jmpq   *0x211fc2(%rip)        # 613ff8 <_DYNAMIC+0x220>
  402036:	66 90                	xchg   %ax,%ax

Disassembly of section .text:

0000000000402040 <_start>:
  402040:	31 ed                	xor    %ebp,%ebp
  402042:	49 89 d1             	mov    %rdx,%r9
  402045:	5e                   	pop    %rsi
  402046:	48 89 e2             	mov    %rsp,%rdx
  402049:	48 83 e4 f0          	and    $0xfffffffffffffff0,%rsp
  40204d:	50                   	push   %rax
  40204e:	54                   	push   %rsp
  40204f:	49 c7 c0 60 c6 40 00 	mov    $0x40c660,%r8
  402056:	48 c7 c1 f0 c5 40 00 	mov    $0x40c5f0,%rcx
  40205d:	48 c7 c7 bd 2c 40 00 	mov    $0x402cbd,%rdi
  402064:	e8 67 ff ff ff       	callq  401fd0 <__libc_start_main@plt>
  402069:	f4                   	hlt    
  40206a:	66 0f 1f 44 00 00    	nopw   0x0(%rax,%rax,1)

0000000000402070 <deregister_tm_clones>:
  402070:	b8 ff 41 61 00       	mov    $0x6141ff,%eax
  402075:	55                   	push   %rbp
  402076:	48 2d f8 41 61 00    	sub    $0x6141f8,%rax
  40207c:	48 83 f8 0e          	cmp    $0xe,%rax
  402080:	48 89 e5             	mov    %rsp,%rbp
  402083:	76 1b                	jbe    4020a0 <deregister_tm_clones+0x30>
  402085:	b8 00 00 00 00       	mov    $0x0,%eax
  40208a:	48 85 c0             	test   %rax,%rax
  40208d:	74 11                	je     4020a0 <deregister_tm_clones+0x30>
  40208f:	5d                   	pop    %rbp
  402090:	bf f8 41 61 00       	mov    $0x6141f8,%edi
  402095:	ff e0                	jmpq   *%rax
  402097:	66 0f 1f 84 00 00 00 	nopw   0x0(%rax,%rax,1)
  40209e:	00 00 
  4020a0:	5d                   	pop    %rbp
  4020a1:	c3                   	retq   
  4020a2:	0f 1f 40 00          	nopl   0x0(%rax)
  4020a6:	66 2e 0f 1f 84 00 00 	nopw   %cs:0x0(%rax,%rax,1)
  4020ad:	00 00 00 

00000000004020b0 <register_tm_clones>:
  4020b0:	be f8 41 61 00       	mov    $0x6141f8,%esi
  4020b5:	55                   	push   %rbp
  4020b6:	48 81 ee f8 41 61 00 	sub    $0x6141f8,%rsi
  4020bd:	48 c1 fe 03          	sar    $0x3,%rsi
  4020c1:	48 89 e5             	mov    %rsp,%rbp
  4020c4:	48 89 f0             	mov    %rsi,%rax
  4020c7:	48 c1 e8 3f          	shr    $0x3f,%rax
  4020cb:	48 01 c6             	add    %rax,%rsi
  4020ce:	48 d1 fe             	sar    %rsi
  4020d1:	74 15                	je     4020e8 <register_tm_clones+0x38>
  4020d3:	b8 00 00 00 00       	mov    $0x0,%eax
  4020d8:	48 85 c0             	test   %rax,%rax
  4020db:	74 0b                	je     4020e8 <register_tm_clones+0x38>
  4020dd:	5d                   	pop    %rbp
  4020de:	bf f8 41 61 00       	mov    $0x6141f8,%edi
  4020e3:	ff e0                	jmpq   *%rax
  4020e5:	0f 1f 00             	nopl   (%rax)
  4020e8:	5d                   	pop    %rbp
  4020e9:	c3                   	retq   
  4020ea:	66 0f 1f 44 00 00    	nopw   0x0(%rax,%rax,1)

00000000004020f0 <__do_global_dtors_aux>:
  4020f0:	80 3d 41 23 21 00 00 	cmpb   $0x0,0x212341(%rip)        # 614438 <completed.7585>
  4020f7:	75 11                	jne    40210a <__do_global_dtors_aux+0x1a>
  4020f9:	55                   	push   %rbp
  4020fa:	48 89 e5             	mov    %rsp,%rbp
  4020fd:	e8 6e ff ff ff       	callq  402070 <deregister_tm_clones>
  402102:	5d                   	pop    %rbp
  402103:	c6 05 2e 23 21 00 01 	movb   $0x1,0x21232e(%rip)        # 614438 <completed.7585>
  40210a:	f3 c3                	repz retq 
  40210c:	0f 1f 40 00          	nopl   0x0(%rax)

0000000000402110 <frame_dummy>:
  402110:	bf d0 3d 61 00       	mov    $0x613dd0,%edi
  402115:	48 83 3f 00          	cmpq   $0x0,(%rdi)
  402119:	75 05                	jne    402120 <frame_dummy+0x10>
  40211b:	eb 93                	jmp    4020b0 <register_tm_clones>
  40211d:	0f 1f 00             	nopl   (%rax)
  402120:	b8 00 00 00 00       	mov    $0x0,%eax
  402125:	48 85 c0             	test   %rax,%rax
  402128:	74 f1                	je     40211b <frame_dummy+0xb>
  40212a:	55                   	push   %rbp
  40212b:	48 89 e5             	mov    %rsp,%rbp
  40212e:	ff d0                	callq  *%rax
  402130:	5d                   	pop    %rbp
  402131:	e9 7a ff ff ff       	jmpq   4020b0 <register_tm_clones>

0000000000402136 <_Z3maxii>:
  402136:	55                   	push   %rbp
  402137:	48 89 e5             	mov    %rsp,%rbp
  40213a:	89 7d fc             	mov    %edi,-0x4(%rbp)
  40213d:	89 75 f8             	mov    %esi,-0x8(%rbp)
  402140:	8b 45 fc             	mov    -0x4(%rbp),%eax
  402143:	3b 45 f8             	cmp    -0x8(%rbp),%eax
  402146:	7e 05                	jle    40214d <_Z3maxii+0x17>
  402148:	8b 45 fc             	mov    -0x4(%rbp),%eax
  40214b:	eb 03                	jmp    402150 <_Z3maxii+0x1a>
  40214d:	8b 45 f8             	mov    -0x8(%rbp),%eax
  402150:	5d                   	pop    %rbp
  402151:	c3                   	retq   

0000000000402152 <_ZNK10Tensor_Ace9same_sizeERKS_>:
  402152:	55                   	push   %rbp
  402153:	48 89 e5             	mov    %rsp,%rbp
  402156:	53                   	push   %rbx
  402157:	48 83 ec 18          	sub    $0x18,%rsp
  40215b:	48 89 7d e8          	mov    %rdi,-0x18(%rbp)
  40215f:	48 89 75 e0          	mov    %rsi,-0x20(%rbp)
  402163:	48 8b 45 e8          	mov    -0x18(%rbp),%rax
  402167:	48 8b 00             	mov    (%rax),%rax
  40216a:	48 8b 00             	mov    (%rax),%rax
  40216d:	48 8b 55 e8          	mov    -0x18(%rbp),%rdx
  402171:	48 89 d7             	mov    %rdx,%rdi
  402174:	ff d0                	callq  *%rax
  402176:	89 c3                	mov    %eax,%ebx
  402178:	48 8b 45 e0          	mov    -0x20(%rbp),%rax
  40217c:	48 8b 00             	mov    (%rax),%rax
  40217f:	48 8b 00             	mov    (%rax),%rax
  402182:	48 8b 55 e0          	mov    -0x20(%rbp),%rdx
  402186:	48 89 d7             	mov    %rdx,%rdi
  402189:	ff d0                	callq  *%rax
  40218b:	39 c3                	cmp    %eax,%ebx
  40218d:	0f 94 c0             	sete   %al
  402190:	48 83 c4 18          	add    $0x18,%rsp
  402194:	5b                   	pop    %rbx
  402195:	5d                   	pop    %rbp
  402196:	c3                   	retq   
  402197:	90                   	nop

0000000000402198 <_ZNK10Tensor_Ace15same_dimensionsERKS_>:
  402198:	55                   	push   %rbp
  402199:	48 89 e5             	mov    %rsp,%rbp
  40219c:	53                   	push   %rbx
  40219d:	48 83 ec 28          	sub    $0x28,%rsp
  4021a1:	48 89 7d d8          	mov    %rdi,-0x28(%rbp)
  4021a5:	48 89 75 d0          	mov    %rsi,-0x30(%rbp)
  4021a9:	c7 45 ec 00 00 00 00 	movl   $0x0,-0x14(%rbp)
  4021b0:	48 8b 45 d8          	mov    -0x28(%rbp),%rax
  4021b4:	48 8b 00             	mov    (%rax),%rax
  4021b7:	48 83 c0 18          	add    $0x18,%rax
  4021bb:	48 8b 00             	mov    (%rax),%rax
  4021be:	48 8b 55 d8          	mov    -0x28(%rbp),%rdx
  4021c2:	48 89 d7             	mov    %rdx,%rdi
  4021c5:	ff d0                	callq  *%rax
  4021c7:	89 c3                	mov    %eax,%ebx
  4021c9:	48 8b 45 d0          	mov    -0x30(%rbp),%rax
  4021cd:	48 8b 00             	mov    (%rax),%rax
  4021d0:	48 83 c0 18          	add    $0x18,%rax
  4021d4:	48 8b 00             	mov    (%rax),%rax
  4021d7:	48 8b 55 d0          	mov    -0x30(%rbp),%rdx
  4021db:	48 89 d7             	mov    %rdx,%rdi
  4021de:	ff d0                	callq  *%rax
  4021e0:	89 de                	mov    %ebx,%esi
  4021e2:	89 c7                	mov    %eax,%edi
  4021e4:	e8 4d ff ff ff       	callq  402136 <_Z3maxii>
  4021e9:	3b 45 ec             	cmp    -0x14(%rbp),%eax
  4021ec:	0f 9f c0             	setg   %al
  4021ef:	84 c0                	test   %al,%al
  4021f1:	74 53                	je     402246 <_ZNK10Tensor_Ace15same_dimensionsERKS_+0xae>
  4021f3:	48 8b 45 d8          	mov    -0x28(%rbp),%rax
  4021f7:	48 8b 00             	mov    (%rax),%rax
  4021fa:	48 83 c0 08          	add    $0x8,%rax
  4021fe:	48 8b 00             	mov    (%rax),%rax
  402201:	8b 4d ec             	mov    -0x14(%rbp),%ecx
  402204:	48 8b 55 d8          	mov    -0x28(%rbp),%rdx
  402208:	89 ce                	mov    %ecx,%esi
  40220a:	48 89 d7             	mov    %rdx,%rdi
  40220d:	ff d0                	callq  *%rax
  40220f:	89 c3                	mov    %eax,%ebx
  402211:	48 8b 45 d0          	mov    -0x30(%rbp),%rax
  402215:	48 8b 00             	mov    (%rax),%rax
  402218:	48 83 c0 08          	add    $0x8,%rax
  40221c:	48 8b 00             	mov    (%rax),%rax
  40221f:	8b 4d ec             	mov    -0x14(%rbp),%ecx
  402222:	48 8b 55 d0          	mov    -0x30(%rbp),%rdx
  402226:	89 ce                	mov    %ecx,%esi
  402228:	48 89 d7             	mov    %rdx,%rdi
  40222b:	ff d0                	callq  *%rax
  40222d:	39 c3                	cmp    %eax,%ebx
  40222f:	0f 95 c0             	setne  %al
  402232:	84 c0                	test   %al,%al
  402234:	74 07                	je     40223d <_ZNK10Tensor_Ace15same_dimensionsERKS_+0xa5>
  402236:	b8 00 00 00 00       	mov    $0x0,%eax
  40223b:	eb 0e                	jmp    40224b <_ZNK10Tensor_Ace15same_dimensionsERKS_+0xb3>
  40223d:	83 45 ec 01          	addl   $0x1,-0x14(%rbp)
  402241:	e9 6a ff ff ff       	jmpq   4021b0 <_ZNK10Tensor_Ace15same_dimensionsERKS_+0x18>
  402246:	b8 01 00 00 00       	mov    $0x1,%eax
  40224b:	48 83 c4 28          	add    $0x28,%rsp
  40224f:	5b                   	pop    %rbx
  402250:	5d                   	pop    %rbp
  402251:	c3                   	retq   

0000000000402252 <_ZNK10Tensor_Ace16assert_same_sizeERKS_>:
  402252:	55                   	push   %rbp
  402253:	48 89 e5             	mov    %rsp,%rbp
  402256:	41 54                	push   %r12
  402258:	53                   	push   %rbx
  402259:	48 83 ec 10          	sub    $0x10,%rsp
  40225d:	48 89 7d e8          	mov    %rdi,-0x18(%rbp)
  402261:	48 89 75 e0          	mov    %rsi,-0x20(%rbp)
  402265:	48 8b 55 e0          	mov    -0x20(%rbp),%rdx
  402269:	48 8b 45 e8          	mov    -0x18(%rbp),%rax
  40226d:	48 89 d6             	mov    %rdx,%rsi
  402270:	48 89 c7             	mov    %rax,%rdi
  402273:	e8 da fe ff ff       	callq  402152 <_ZNK10Tensor_Ace9same_sizeERKS_>
  402278:	83 f0 01             	xor    $0x1,%eax
  40227b:	84 c0                	test   %al,%al
  40227d:	74 42                	je     4022c1 <_ZNK10Tensor_Ace16assert_same_sizeERKS_+0x6f>
  40227f:	bf 10 00 00 00       	mov    $0x10,%edi
  402284:	e8 87 fa ff ff       	callq  401d10 <__cxa_allocate_exception@plt>
  402289:	48 89 c3             	mov    %rax,%rbx
  40228c:	be 8f c6 40 00       	mov    $0x40c68f,%esi
  402291:	48 89 df             	mov    %rbx,%rdi
  402294:	e8 57 fd ff ff       	callq  401ff0 <_ZNSt16invalid_argumentC1EPKc@plt>
  402299:	ba 50 1f 40 00       	mov    $0x401f50,%edx
  40229e:	be 20 44 61 00       	mov    $0x614420,%esi
  4022a3:	48 89 df             	mov    %rbx,%rdi
  4022a6:	e8 c5 fc ff ff       	callq  401f70 <__cxa_throw@plt>
  4022ab:	49 89 c4             	mov    %rax,%r12
  4022ae:	48 89 df             	mov    %rbx,%rdi
  4022b1:	e8 aa fa ff ff       	callq  401d60 <__cxa_free_exception@plt>
  4022b6:	4c 89 e0             	mov    %r12,%rax
  4022b9:	48 89 c7             	mov    %rax,%rdi
  4022bc:	e8 cf fc ff ff       	callq  401f90 <_Unwind_Resume@plt>
  4022c1:	90                   	nop
  4022c2:	48 83 c4 10          	add    $0x10,%rsp
  4022c6:	5b                   	pop    %rbx
  4022c7:	41 5c                	pop    %r12
  4022c9:	5d                   	pop    %rbp
  4022ca:	c3                   	retq   
  4022cb:	90                   	nop

00000000004022cc <_ZNK10Tensor_Ace22assert_same_dimensionsERKS_>:
  4022cc:	55                   	push   %rbp
  4022cd:	48 89 e5             	mov    %rsp,%rbp
  4022d0:	41 54                	push   %r12
  4022d2:	53                   	push   %rbx
  4022d3:	48 83 ec 10          	sub    $0x10,%rsp
  4022d7:	48 89 7d e8          	mov    %rdi,-0x18(%rbp)
  4022db:	48 89 75 e0          	mov    %rsi,-0x20(%rbp)
  4022df:	48 8b 55 e0          	mov    -0x20(%rbp),%rdx
  4022e3:	48 8b 45 e8          	mov    -0x18(%rbp),%rax
  4022e7:	48 89 d6             	mov    %rdx,%rsi
  4022ea:	48 89 c7             	mov    %rax,%rdi
  4022ed:	e8 a6 fe ff ff       	callq  402198 <_ZNK10Tensor_Ace15same_dimensionsERKS_>
  4022f2:	83 f0 01             	xor    $0x1,%eax
  4022f5:	84 c0                	test   %al,%al
  4022f7:	74 42                	je     40233b <_ZNK10Tensor_Ace22assert_same_dimensionsERKS_+0x6f>
  4022f9:	bf 10 00 00 00       	mov    $0x10,%edi
  4022fe:	e8 0d fa ff ff       	callq  401d10 <__cxa_allocate_exception@plt>
  402303:	48 89 c3             	mov    %rax,%rbx
  402306:	be 9d c6 40 00       	mov    $0x40c69d,%esi
  40230b:	48 89 df             	mov    %rbx,%rdi
  40230e:	e8 dd fc ff ff       	callq  401ff0 <_ZNSt16invalid_argumentC1EPKc@plt>
  402313:	ba 50 1f 40 00       	mov    $0x401f50,%edx
  402318:	be 20 44 61 00       	mov    $0x614420,%esi
  40231d:	48 89 df             	mov    %rbx,%rdi
  402320:	e8 4b fc ff ff       	callq  401f70 <__cxa_throw@plt>
  402325:	49 89 c4             	mov    %rax,%r12
  402328:	48 89 df             	mov    %rbx,%rdi
  40232b:	e8 30 fa ff ff       	callq  401d60 <__cxa_free_exception@plt>
  402330:	4c 89 e0             	mov    %r12,%rax
  402333:	48 89 c7             	mov    %rax,%rdi
  402336:	e8 55 fc ff ff       	callq  401f90 <_Unwind_Resume@plt>
  40233b:	90                   	nop
  40233c:	48 83 c4 10          	add    $0x10,%rsp
  402340:	5b                   	pop    %rbx
  402341:	41 5c                	pop    %r12
  402343:	5d                   	pop    %rbp
  402344:	c3                   	retq   

0000000000402345 <_Z7tq_testv>:
  402345:	55                   	push   %rbp
  402346:	48 89 e5             	mov    %rsp,%rbp
  402349:	41 57                	push   %r15
  40234b:	41 56                	push   %r14
  40234d:	41 55                	push   %r13
  40234f:	41 54                	push   %r12
  402351:	53                   	push   %rbx
  402352:	48 81 ec 78 02 00 00 	sub    $0x278,%rsp
  402359:	64 48 8b 04 25 28 00 	mov    %fs:0x28,%rax
  402360:	00 00 
  402362:	48 89 45 c8          	mov    %rax,-0x38(%rbp)
  402366:	31 c0                	xor    %eax,%eax
  402368:	be b0 c6 40 00       	mov    $0x40c6b0,%esi
  40236d:	bf 60 42 61 00       	mov    $0x614260,%edi
  402372:	e8 49 fa ff ff       	callq  401dc0 <_ZStlsISt11char_traitsIcEERSt13basic_ostreamIcT_ES5_PKc@plt>
  402377:	be 00 1d 40 00       	mov    $0x401d00,%esi
  40237c:	48 89 c7             	mov    %rax,%rdi
  40237f:	e8 6c fa ff ff       	callq  401df0 <_ZNSolsEPFRSoS_E@plt>
  402384:	48 c7 85 60 fd ff ff 	movq   $0x40ca90,-0x2a0(%rbp)
  40238b:	90 ca 40 00 
  40238f:	48 c7 85 68 fd ff ff 	movq   $0x2,-0x298(%rbp)
  402396:	02 00 00 00 
  40239a:	48 8b 85 60 fd ff ff 	mov    -0x2a0(%rbp),%rax
  4023a1:	48 8b 95 68 fd ff ff 	mov    -0x298(%rbp),%rdx
  4023a8:	48 89 c1             	mov    %rax,%rcx
  4023ab:	48 89 d3             	mov    %rdx,%rbx
  4023ae:	48 8d 85 b0 fd ff ff 	lea    -0x250(%rbp),%rax
  4023b5:	48 89 ce             	mov    %rcx,%rsi
  4023b8:	48 89 c7             	mov    %rax,%rdi
  4023bb:	e8 dc 11 00 00       	callq  40359c <_ZN12Tensor_QueenIf15CPU_MATHEMATICS10continuousIfS0_EEC1ESt16initializer_listIiE>
  4023c0:	48 c7 85 70 fd ff ff 	movq   $0x40ca98,-0x290(%rbp)
  4023c7:	98 ca 40 00 
  4023cb:	48 c7 85 78 fd ff ff 	movq   $0x2,-0x288(%rbp)
  4023d2:	02 00 00 00 
  4023d6:	48 8b 85 70 fd ff ff 	mov    -0x290(%rbp),%rax
  4023dd:	48 8b 95 78 fd ff ff 	mov    -0x288(%rbp),%rdx
  4023e4:	48 89 c1             	mov    %rax,%rcx
  4023e7:	48 89 d3             	mov    %rdx,%rbx
  4023ea:	48 8d 85 e0 fd ff ff 	lea    -0x220(%rbp),%rax
  4023f1:	48 89 ce             	mov    %rcx,%rsi
  4023f4:	48 89 c7             	mov    %rax,%rdi
  4023f7:	e8 a0 11 00 00       	callq  40359c <_ZN12Tensor_QueenIf15CPU_MATHEMATICS10continuousIfS0_EEC1ESt16initializer_listIiE>
  4023fc:	41 be a0 ca 40 00    	mov    $0x40caa0,%r14d
  402402:	41 bf 02 00 00 00    	mov    $0x2,%r15d
  402408:	4c 89 f1             	mov    %r14,%rcx
  40240b:	4c 89 fb             	mov    %r15,%rbx
  40240e:	4c 89 f0             	mov    %r14,%rax
  402411:	4c 89 fa             	mov    %r15,%rdx
  402414:	48 8d 85 10 fe ff ff 	lea    -0x1f0(%rbp),%rax
  40241b:	48 89 ce             	mov    %rcx,%rsi
  40241e:	48 89 c7             	mov    %rax,%rdi
  402421:	e8 76 11 00 00       	callq  40359c <_ZN12Tensor_QueenIf15CPU_MATHEMATICS10continuousIfS0_EEC1ESt16initializer_listIiE>
  402426:	41 bc a8 ca 40 00    	mov    $0x40caa8,%r12d
  40242c:	41 bd 02 00 00 00    	mov    $0x2,%r13d
  402432:	4c 89 e1             	mov    %r12,%rcx
  402435:	4c 89 eb             	mov    %r13,%rbx
  402438:	4c 89 e0             	mov    %r12,%rax
  40243b:	4c 89 ea             	mov    %r13,%rdx
  40243e:	48 8d 85 40 fe ff ff 	lea    -0x1c0(%rbp),%rax
  402445:	48 89 ce             	mov    %rcx,%rsi
  402448:	48 89 c7             	mov    %rax,%rdi
  40244b:	e8 4c 11 00 00       	callq  40359c <_ZN12Tensor_QueenIf15CPU_MATHEMATICS10continuousIfS0_EEC1ESt16initializer_listIiE>
  402450:	48 8d 85 e0 fd ff ff 	lea    -0x220(%rbp),%rax
  402457:	f3 0f 10 0d 91 a7 00 	movss  0xa791(%rip),%xmm1        # 40cbf0 <._93+0x148>
  40245e:	00 
  40245f:	f3 0f 10 05 8d a7 00 	movss  0xa78d(%rip),%xmm0        # 40cbf4 <._93+0x14c>
  402466:	00 
  402467:	48 89 c7             	mov    %rax,%rdi
  40246a:	e8 03 13 00 00       	callq  403772 <_ZN12Tensor_QueenIf15CPU_MATHEMATICS10continuousIfS0_EE9randomizeEff>
  40246f:	48 8d 85 10 fe ff ff 	lea    -0x1f0(%rbp),%rax
  402476:	f3 0f 10 0d 72 a7 00 	movss  0xa772(%rip),%xmm1        # 40cbf0 <._93+0x148>
  40247d:	00 
  40247e:	f3 0f 10 05 6e a7 00 	movss  0xa76e(%rip),%xmm0        # 40cbf4 <._93+0x14c>
  402485:	00 
  402486:	48 89 c7             	mov    %rax,%rdi
  402489:	e8 e4 12 00 00       	callq  403772 <_ZN12Tensor_QueenIf15CPU_MATHEMATICS10continuousIfS0_EE9randomizeEff>
  40248e:	48 8d 85 e0 fd ff ff 	lea    -0x220(%rbp),%rax
  402495:	48 89 c7             	mov    %rax,%rdi
  402498:	e8 69 13 00 00       	callq  403806 <_ZNK12Tensor_QueenIf15CPU_MATHEMATICS10continuousIfS0_EE5printEv>
  40249d:	48 8d 85 10 fe ff ff 	lea    -0x1f0(%rbp),%rax
  4024a4:	48 89 c7             	mov    %rax,%rdi
  4024a7:	e8 5a 13 00 00       	callq  403806 <_ZNK12Tensor_QueenIf15CPU_MATHEMATICS10continuousIfS0_EE5printEv>
  4024ac:	48 8d 85 d0 fe ff ff 	lea    -0x130(%rbp),%rax
  4024b3:	48 8d 95 10 fe ff ff 	lea    -0x1f0(%rbp),%rdx
  4024ba:	48 8d 8d 10 fe ff ff 	lea    -0x1f0(%rbp),%rcx
  4024c1:	48 89 ce             	mov    %rcx,%rsi
  4024c4:	48 89 c7             	mov    %rax,%rdi
  4024c7:	e8 84 15 00 00       	callq  403a50 <_ZN12Tensor_QueenIf15CPU_MATHEMATICS10continuousIfS0_EErmIfS2_EES_IfS0_7pBufferIfS0_S2_T0_N9Operation3mulIfEEEERKS_IT_S0_S6_E>
  4024cc:	48 8d 85 30 ff ff ff 	lea    -0xd0(%rbp),%rax
  4024d3:	48 8d 95 d0 fe ff ff 	lea    -0x130(%rbp),%rdx
  4024da:	48 8d 8d e0 fd ff ff 	lea    -0x220(%rbp),%rcx
  4024e1:	48 89 ce             	mov    %rcx,%rsi
  4024e4:	48 89 c7             	mov    %rax,%rdi
  4024e7:	e8 ba 16 00 00       	callq  403ba6 <_ZN12Tensor_QueenIf15CPU_MATHEMATICS10continuousIfS0_EEplIf7pBufferIfS0_S2_S2_N9Operation3mulIfEEEEES_IfS0_S5_IfS0_S2_T0_NS6_3addIfEEEERKS_IT_S0_SA_E>
  4024ec:	48 8d 95 30 ff ff ff 	lea    -0xd0(%rbp),%rdx
  4024f3:	48 8d 85 40 fe ff ff 	lea    -0x1c0(%rbp),%rax
  4024fa:	48 89 d6             	mov    %rdx,%rsi
  4024fd:	48 89 c7             	mov    %rax,%rdi
  402500:	e8 93 17 00 00       	callq  403c98 <_ZN12Tensor_QueenIf15CPU_MATHEMATICS10continuousIfS0_EEaSIf7pBufferIfS0_S2_S5_IfS0_S2_S2_N9Operation3mulIfEEENS6_3addIfEEEEERS3_RKS_IT_S0_T0_E>
  402505:	48 8d 85 30 ff ff ff 	lea    -0xd0(%rbp),%rax
  40250c:	48 89 c7             	mov    %rax,%rdi
  40250f:	e8 5e 89 00 00       	callq  40ae72 <_ZN12Tensor_QueenIf15CPU_MATHEMATICS7pBufferIfS0_10continuousIfS0_ES1_IfS0_S3_S3_N9Operation3mulIfEEENS4_3addIfEEEED1Ev>
  402514:	48 8d 85 d0 fe ff ff 	lea    -0x130(%rbp),%rax
  40251b:	48 89 c7             	mov    %rax,%rdi
  40251e:	e8 bb 89 00 00       	callq  40aede <_ZN12Tensor_QueenIf15CPU_MATHEMATICS7pBufferIfS0_10continuousIfS0_ES3_N9Operation3mulIfEEEED1Ev>
  402523:	48 8d 85 40 fe ff ff 	lea    -0x1c0(%rbp),%rax
  40252a:	48 89 c7             	mov    %rax,%rdi
  40252d:	e8 d4 12 00 00       	callq  403806 <_ZNK12Tensor_QueenIf15CPU_MATHEMATICS10continuousIfS0_EE5printEv>
  402532:	48 8d 85 80 fd ff ff 	lea    -0x280(%rbp),%rax
  402539:	f3 0f 10 05 b7 a6 00 	movss  0xa6b7(%rip),%xmm0        # 40cbf8 <._93+0x150>
  402540:	00 
  402541:	48 89 c7             	mov    %rax,%rdi
  402544:	e8 1d 18 00 00       	callq  403d66 <_ZN6ScalarIf15CPU_MATHEMATICSEC1Ef>
  402549:	48 8d 85 70 fe ff ff 	lea    -0x190(%rbp),%rax
  402550:	48 8d 95 40 fe ff ff 	lea    -0x1c0(%rbp),%rdx
  402557:	48 8d 8d 80 fd ff ff 	lea    -0x280(%rbp),%rcx
  40255e:	48 89 ce             	mov    %rcx,%rsi
  402561:	48 89 c7             	mov    %rax,%rdi
  402564:	e8 03 1b 00 00       	callq  40406c <_ZN12Tensor_QueenIf15CPU_MATHEMATICS19StackScalarAccessorIfS0_EEmiIf10continuousIfS0_EEES_IfS0_7pBufferIfS0_S2_T0_N9Operation3subIfEEEERKS_IT_S0_S8_E>
  402569:	48 8d 95 70 fe ff ff 	lea    -0x190(%rbp),%rdx
  402570:	48 8d 85 b0 fd ff ff 	lea    -0x250(%rbp),%rax
  402577:	48 89 d6             	mov    %rdx,%rsi
  40257a:	48 89 c7             	mov    %rax,%rdi
  40257d:	e8 b4 1b 00 00       	callq  404136 <_ZN12Tensor_QueenIf15CPU_MATHEMATICS10continuousIfS0_EEaSIf7pBufferIfS0_19StackScalarAccessorIfS0_ES2_N9Operation3subIfEEEEERS3_RKS_IT_S0_T0_E>
  402582:	48 8d 85 70 fe ff ff 	lea    -0x190(%rbp),%rax
  402589:	48 89 c7             	mov    %rax,%rdi
  40258c:	e8 09 88 00 00       	callq  40ad9a <_ZN12Tensor_QueenIf15CPU_MATHEMATICS7pBufferIfS0_19StackScalarAccessorIfS0_E10continuousIfS0_EN9Operation3subIfEEEED1Ev>
  402591:	48 8d 85 80 fd ff ff 	lea    -0x280(%rbp),%rax
  402598:	48 89 c7             	mov    %rax,%rdi
  40259b:	e8 66 88 00 00       	callq  40ae06 <_ZN6ScalarIf15CPU_MATHEMATICSED1Ev>
  4025a0:	48 8d 85 b0 fd ff ff 	lea    -0x250(%rbp),%rax
  4025a7:	48 89 c7             	mov    %rax,%rdi
  4025aa:	e8 57 12 00 00       	callq  403806 <_ZNK12Tensor_QueenIf15CPU_MATHEMATICS10continuousIfS0_EE5printEv>
  4025af:	be b7 c6 40 00       	mov    $0x40c6b7,%esi
  4025b4:	bf 60 42 61 00       	mov    $0x614260,%edi
  4025b9:	e8 02 f8 ff ff       	callq  401dc0 <_ZStlsISt11char_traitsIcEERSt13basic_ostreamIcT_ES5_PKc@plt>
  4025be:	be 00 1d 40 00       	mov    $0x401d00,%esi
  4025c3:	48 89 c7             	mov    %rax,%rdi
  4025c6:	e8 25 f8 ff ff       	callq  401df0 <_ZNSolsEPFRSoS_E@plt>
  4025cb:	bb 00 00 00 00       	mov    $0x0,%ebx
  4025d0:	48 8d 85 40 fe ff ff 	lea    -0x1c0(%rbp),%rax
  4025d7:	48 89 c7             	mov    %rax,%rdi
  4025da:	e8 b9 1b 00 00       	callq  404198 <_ZN12Tensor_QueenIf15CPU_MATHEMATICS10continuousIfS0_EED1Ev>
  4025df:	48 8d 85 10 fe ff ff 	lea    -0x1f0(%rbp),%rax
  4025e6:	48 89 c7             	mov    %rax,%rdi
  4025e9:	e8 aa 1b 00 00       	callq  404198 <_ZN12Tensor_QueenIf15CPU_MATHEMATICS10continuousIfS0_EED1Ev>
  4025ee:	48 8d 85 e0 fd ff ff 	lea    -0x220(%rbp),%rax
  4025f5:	48 89 c7             	mov    %rax,%rdi
  4025f8:	e8 9b 1b 00 00       	callq  404198 <_ZN12Tensor_QueenIf15CPU_MATHEMATICS10continuousIfS0_EED1Ev>
  4025fd:	48 8d 85 b0 fd ff ff 	lea    -0x250(%rbp),%rax
  402604:	48 89 c7             	mov    %rax,%rdi
  402607:	e8 8c 1b 00 00       	callq  404198 <_ZN12Tensor_QueenIf15CPU_MATHEMATICS10continuousIfS0_EED1Ev>
  40260c:	89 d8                	mov    %ebx,%eax
  40260e:	48 8b 75 c8          	mov    -0x38(%rbp),%rsi
  402612:	64 48 33 34 25 28 00 	xor    %fs:0x28,%rsi
  402619:	00 00 
  40261b:	0f 84 b3 00 00 00    	je     4026d4 <_Z7tq_testv+0x38f>
  402621:	e9 a9 00 00 00       	jmpq   4026cf <_Z7tq_testv+0x38a>
  402626:	48 89 c3             	mov    %rax,%rbx
  402629:	48 8d 85 30 ff ff ff 	lea    -0xd0(%rbp),%rax
  402630:	48 89 c7             	mov    %rax,%rdi
  402633:	e8 3a 88 00 00       	callq  40ae72 <_ZN12Tensor_QueenIf15CPU_MATHEMATICS7pBufferIfS0_10continuousIfS0_ES1_IfS0_S3_S3_N9Operation3mulIfEEENS4_3addIfEEEED1Ev>
  402638:	eb 03                	jmp    40263d <_Z7tq_testv+0x2f8>
  40263a:	48 89 c3             	mov    %rax,%rbx
  40263d:	48 8d 85 d0 fe ff ff 	lea    -0x130(%rbp),%rax
  402644:	48 89 c7             	mov    %rax,%rdi
  402647:	e8 92 88 00 00       	callq  40aede <_ZN12Tensor_QueenIf15CPU_MATHEMATICS7pBufferIfS0_10continuousIfS0_ES3_N9Operation3mulIfEEEED1Ev>
  40264c:	eb 2b                	jmp    402679 <_Z7tq_testv+0x334>
  40264e:	48 89 c3             	mov    %rax,%rbx
  402651:	48 8d 85 70 fe ff ff 	lea    -0x190(%rbp),%rax
  402658:	48 89 c7             	mov    %rax,%rdi
  40265b:	e8 3a 87 00 00       	callq  40ad9a <_ZN12Tensor_QueenIf15CPU_MATHEMATICS7pBufferIfS0_19StackScalarAccessorIfS0_E10continuousIfS0_EN9Operation3subIfEEEED1Ev>
  402660:	eb 03                	jmp    402665 <_Z7tq_testv+0x320>
  402662:	48 89 c3             	mov    %rax,%rbx
  402665:	48 8d 85 80 fd ff ff 	lea    -0x280(%rbp),%rax
  40266c:	48 89 c7             	mov    %rax,%rdi
  40266f:	e8 92 87 00 00       	callq  40ae06 <_ZN6ScalarIf15CPU_MATHEMATICSED1Ev>
  402674:	eb 03                	jmp    402679 <_Z7tq_testv+0x334>
  402676:	48 89 c3             	mov    %rax,%rbx
  402679:	48 8d 85 40 fe ff ff 	lea    -0x1c0(%rbp),%rax
  402680:	48 89 c7             	mov    %rax,%rdi
  402683:	e8 10 1b 00 00       	callq  404198 <_ZN12Tensor_QueenIf15CPU_MATHEMATICS10continuousIfS0_EED1Ev>
  402688:	eb 03                	jmp    40268d <_Z7tq_testv+0x348>
  40268a:	48 89 c3             	mov    %rax,%rbx
  40268d:	48 8d 85 10 fe ff ff 	lea    -0x1f0(%rbp),%rax
  402694:	48 89 c7             	mov    %rax,%rdi
  402697:	e8 fc 1a 00 00       	callq  404198 <_ZN12Tensor_QueenIf15CPU_MATHEMATICS10continuousIfS0_EED1Ev>
  40269c:	eb 03                	jmp    4026a1 <_Z7tq_testv+0x35c>
  40269e:	48 89 c3             	mov    %rax,%rbx
  4026a1:	48 8d 85 e0 fd ff ff 	lea    -0x220(%rbp),%rax
  4026a8:	48 89 c7             	mov    %rax,%rdi
  4026ab:	e8 e8 1a 00 00       	callq  404198 <_ZN12Tensor_QueenIf15CPU_MATHEMATICS10continuousIfS0_EED1Ev>
  4026b0:	eb 03                	jmp    4026b5 <_Z7tq_testv+0x370>
  4026b2:	48 89 c3             	mov    %rax,%rbx
  4026b5:	48 8d 85 b0 fd ff ff 	lea    -0x250(%rbp),%rax
  4026bc:	48 89 c7             	mov    %rax,%rdi
  4026bf:	e8 d4 1a 00 00       	callq  404198 <_ZN12Tensor_QueenIf15CPU_MATHEMATICS10continuousIfS0_EED1Ev>
  4026c4:	48 89 d8             	mov    %rbx,%rax
  4026c7:	48 89 c7             	mov    %rax,%rdi
  4026ca:	e8 c1 f8 ff ff       	callq  401f90 <_Unwind_Resume@plt>
  4026cf:	e8 5c f7 ff ff       	callq  401e30 <__stack_chk_fail@plt>
  4026d4:	48 81 c4 78 02 00 00 	add    $0x278,%rsp
  4026db:	5b                   	pop    %rbx
  4026dc:	41 5c                	pop    %r12
  4026de:	41 5d                	pop    %r13
  4026e0:	41 5e                	pop    %r14
  4026e2:	41 5f                	pop    %r15
  4026e4:	5d                   	pop    %rbp
  4026e5:	c3                   	retq   

00000000004026e6 <_Z12matrix_testsv>:
  4026e6:	55                   	push   %rbp
  4026e7:	48 89 e5             	mov    %rsp,%rbp
  4026ea:	53                   	push   %rbx
  4026eb:	48 81 ec f8 02 00 00 	sub    $0x2f8,%rsp
  4026f2:	64 48 8b 04 25 28 00 	mov    %fs:0x28,%rax
  4026f9:	00 00 
  4026fb:	48 89 45 e8          	mov    %rax,-0x18(%rbp)
  4026ff:	31 c0                	xor    %eax,%eax
  402701:	e8 3f fc ff ff       	callq  402345 <_Z7tq_testv>
  402706:	48 8d 85 d0 fd ff ff 	lea    -0x230(%rbp),%rax
  40270d:	be 05 00 00 00       	mov    $0x5,%esi
  402712:	48 89 c7             	mov    %rax,%rdi
  402715:	e8 ea 1a 00 00       	callq  404204 <_ZN6VectorIf15CPU_MATHEMATICS10continuousIfS0_EEC1Ei>
  40271a:	48 8d 85 d0 fd ff ff 	lea    -0x230(%rbp),%rax
  402721:	f3 0f 10 0d d3 a4 00 	movss  0xa4d3(%rip),%xmm1        # 40cbfc <._93+0x154>
  402728:	00 
  402729:	f3 0f 10 05 cf a4 00 	movss  0xa4cf(%rip),%xmm0        # 40cc00 <._93+0x158>
  402730:	00 
  402731:	48 89 c7             	mov    %rax,%rdi
  402734:	e8 39 10 00 00       	callq  403772 <_ZN12Tensor_QueenIf15CPU_MATHEMATICS10continuousIfS0_EE9randomizeEff>
  402739:	48 8d 85 d0 fd ff ff 	lea    -0x230(%rbp),%rax
  402740:	48 89 c7             	mov    %rax,%rdi
  402743:	e8 be 10 00 00       	callq  403806 <_ZNK12Tensor_QueenIf15CPU_MATHEMATICS10continuousIfS0_EE5printEv>
  402748:	48 8d 85 10 fd ff ff 	lea    -0x2f0(%rbp),%rax
  40274f:	48 8d 8d d0 fd ff ff 	lea    -0x230(%rbp),%rcx
  402756:	ba 00 00 00 00       	mov    $0x0,%edx
  40275b:	48 89 ce             	mov    %rcx,%rsi
  40275e:	48 89 c7             	mov    %rax,%rdi
  402761:	e8 14 1d 00 00       	callq  40447a <_ZN6VectorIf15CPU_MATHEMATICS10continuousIfS0_EEixEi>
  402766:	48 8d 85 10 fd ff ff 	lea    -0x2f0(%rbp),%rax
  40276d:	48 89 c7             	mov    %rax,%rdi
  402770:	e8 45 1d 00 00       	callq  4044ba <_ZNK12Tensor_QueenIf15CPU_MATHEMATICS23ReferenceScalarAccessorIfS0_EE5printEv>
  402775:	48 8d 85 10 fd ff ff 	lea    -0x2f0(%rbp),%rax
  40277c:	48 89 c7             	mov    %rax,%rdi
  40277f:	e8 3e 85 00 00       	callq  40acc2 <_ZN9Id_ScalarIf15CPU_MATHEMATICSED1Ev>
  402784:	48 8d 85 40 fd ff ff 	lea    -0x2c0(%rbp),%rax
  40278b:	48 8d 8d d0 fd ff ff 	lea    -0x230(%rbp),%rcx
  402792:	ba 03 00 00 00       	mov    $0x3,%edx
  402797:	48 89 ce             	mov    %rcx,%rsi
  40279a:	48 89 c7             	mov    %rax,%rdi
  40279d:	e8 d8 1c 00 00       	callq  40447a <_ZN6VectorIf15CPU_MATHEMATICS10continuousIfS0_EEixEi>
  4027a2:	48 8d 85 40 fd ff ff 	lea    -0x2c0(%rbp),%rax
  4027a9:	48 89 c7             	mov    %rax,%rdi
  4027ac:	e8 09 1d 00 00       	callq  4044ba <_ZNK12Tensor_QueenIf15CPU_MATHEMATICS23ReferenceScalarAccessorIfS0_EE5printEv>
  4027b1:	48 8d 85 40 fd ff ff 	lea    -0x2c0(%rbp),%rax
  4027b8:	48 89 c7             	mov    %rax,%rdi
  4027bb:	e8 02 85 00 00       	callq  40acc2 <_ZN9Id_ScalarIf15CPU_MATHEMATICSED1Ev>
  4027c0:	48 8d 85 70 fd ff ff 	lea    -0x290(%rbp),%rax
  4027c7:	48 8d 8d d0 fd ff ff 	lea    -0x230(%rbp),%rcx
  4027ce:	ba 03 00 00 00       	mov    $0x3,%edx
  4027d3:	48 89 ce             	mov    %rcx,%rsi
  4027d6:	48 89 c7             	mov    %rax,%rdi
  4027d9:	e8 9c 1c 00 00       	callq  40447a <_ZN6VectorIf15CPU_MATHEMATICS10continuousIfS0_EEixEi>
  4027de:	48 8d 85 30 ff ff ff 	lea    -0xd0(%rbp),%rax
  4027e5:	48 8d 95 70 fd ff ff 	lea    -0x290(%rbp),%rdx
  4027ec:	48 8d 8d d0 fd ff ff 	lea    -0x230(%rbp),%rcx
  4027f3:	48 89 ce             	mov    %rcx,%rsi
  4027f6:	48 89 c7             	mov    %rax,%rdi
  4027f9:	e8 9e 1e 00 00       	callq  40469c <_ZN12Tensor_QueenIf15CPU_MATHEMATICS10continuousIfS0_EEplIf23ReferenceScalarAccessorIfS0_EEES_IfS0_7pBufferIfS0_S2_T0_N9Operation3addIfEEEERKS_IT_S0_S8_E>
  4027fe:	48 8d 95 30 ff ff ff 	lea    -0xd0(%rbp),%rdx
  402805:	48 8d 85 d0 fd ff ff 	lea    -0x230(%rbp),%rax
  40280c:	48 89 d6             	mov    %rdx,%rsi
  40280f:	48 89 c7             	mov    %rax,%rdi
  402812:	e8 4f 1f 00 00       	callq  404766 <_ZN6VectorIf15CPU_MATHEMATICS10continuousIfS0_EEaSIf7pBufferIfS0_S2_23ReferenceScalarAccessorIfS0_EN9Operation3addIfEEEEERS3_RK12Tensor_QueenIT_S0_T0_E>
  402817:	48 8d 85 30 ff ff ff 	lea    -0xd0(%rbp),%rax
  40281e:	48 89 c7             	mov    %rax,%rdi
  402821:	e8 30 84 00 00       	callq  40ac56 <_ZN12Tensor_QueenIf15CPU_MATHEMATICS7pBufferIfS0_10continuousIfS0_E23ReferenceScalarAccessorIfS0_EN9Operation3addIfEEEED1Ev>
  402826:	48 8d 85 70 fd ff ff 	lea    -0x290(%rbp),%rax
  40282d:	48 89 c7             	mov    %rax,%rdi
  402830:	e8 8d 84 00 00       	callq  40acc2 <_ZN9Id_ScalarIf15CPU_MATHEMATICSED1Ev>
  402835:	48 8d 85 d0 fd ff ff 	lea    -0x230(%rbp),%rax
  40283c:	48 89 c7             	mov    %rax,%rdi
  40283f:	e8 c2 0f 00 00       	callq  403806 <_ZNK12Tensor_QueenIf15CPU_MATHEMATICS10continuousIfS0_EE5printEv>
  402844:	be 00 1d 40 00       	mov    $0x401d00,%esi
  402849:	bf 60 42 61 00       	mov    $0x614260,%edi
  40284e:	e8 9d f5 ff ff       	callq  401df0 <_ZNSolsEPFRSoS_E@plt>
  402853:	48 8d 85 00 fe ff ff 	lea    -0x200(%rbp),%rax
  40285a:	ba 03 00 00 00       	mov    $0x3,%edx
  40285f:	be 02 00 00 00       	mov    $0x2,%esi
  402864:	48 89 c7             	mov    %rax,%rdi
  402867:	e8 48 1f 00 00       	callq  4047b4 <_ZN6MatrixIf15CPU_MATHEMATICS10continuousIfS0_EEC1Eii>
  40286c:	48 8d 85 30 fe ff ff 	lea    -0x1d0(%rbp),%rax
  402873:	ba 02 00 00 00       	mov    $0x2,%edx
  402878:	be 03 00 00 00       	mov    $0x3,%esi
  40287d:	48 89 c7             	mov    %rax,%rdi
  402880:	e8 2f 1f 00 00       	callq  4047b4 <_ZN6MatrixIf15CPU_MATHEMATICS10continuousIfS0_EEC1Eii>
  402885:	48 8d 85 60 fe ff ff 	lea    -0x1a0(%rbp),%rax
  40288c:	ba 02 00 00 00       	mov    $0x2,%edx
  402891:	be 02 00 00 00       	mov    $0x2,%esi
  402896:	48 89 c7             	mov    %rax,%rdi
  402899:	e8 16 1f 00 00       	callq  4047b4 <_ZN6MatrixIf15CPU_MATHEMATICS10continuousIfS0_EEC1Eii>
  40289e:	c7 85 0c fd ff ff 00 	movl   $0x0,-0x2f4(%rbp)
  4028a5:	00 00 00 
  4028a8:	48 8d 85 00 fe ff ff 	lea    -0x200(%rbp),%rax
  4028af:	48 89 c7             	mov    %rax,%rdi
  4028b2:	e8 7b 1f 00 00       	callq  404832 <_ZNK11Tensor_KingIf15CPU_MATHEMATICS10continuousIfS0_EE4sizeEv>
  4028b7:	3b 85 0c fd ff ff    	cmp    -0x2f4(%rbp),%eax
  4028bd:	0f 9f c0             	setg   %al
  4028c0:	84 c0                	test   %al,%al
  4028c2:	0f 84 80 00 00 00    	je     402948 <_Z12matrix_testsv+0x262>
  4028c8:	48 8d 85 00 fe ff ff 	lea    -0x200(%rbp),%rax
  4028cf:	48 89 c7             	mov    %rax,%rdi
  4028d2:	e8 79 1f 00 00       	callq  404850 <_ZN11Tensor_KingIf15CPU_MATHEMATICS10continuousIfS0_EE8accessorEv>
  4028d7:	48 89 c2             	mov    %rax,%rdx
  4028da:	8b 85 0c fd ff ff    	mov    -0x2f4(%rbp),%eax
  4028e0:	89 c6                	mov    %eax,%esi
  4028e2:	48 89 d7             	mov    %rdx,%rdi
  4028e5:	e8 78 1f 00 00       	callq  404862 <_ZN10continuousIf15CPU_MATHEMATICSEixEi>
  4028ea:	48 89 c2             	mov    %rax,%rdx
  4028ed:	8b 85 0c fd ff ff    	mov    -0x2f4(%rbp),%eax
  4028f3:	83 c0 01             	add    $0x1,%eax
  4028f6:	66 0f ef c0          	pxor   %xmm0,%xmm0
  4028fa:	f3 0f 2a c0          	cvtsi2ss %eax,%xmm0
  4028fe:	f3 0f 11 02          	movss  %xmm0,(%rdx)
  402902:	48 8d 85 30 fe ff ff 	lea    -0x1d0(%rbp),%rax
  402909:	48 89 c7             	mov    %rax,%rdi
  40290c:	e8 3f 1f 00 00       	callq  404850 <_ZN11Tensor_KingIf15CPU_MATHEMATICS10continuousIfS0_EE8accessorEv>
  402911:	48 89 c2             	mov    %rax,%rdx
  402914:	8b 85 0c fd ff ff    	mov    -0x2f4(%rbp),%eax
  40291a:	89 c6                	mov    %eax,%esi
  40291c:	48 89 d7             	mov    %rdx,%rdi
  40291f:	e8 3e 1f 00 00       	callq  404862 <_ZN10continuousIf15CPU_MATHEMATICSEixEi>
  402924:	48 89 c2             	mov    %rax,%rdx
  402927:	8b 85 0c fd ff ff    	mov    -0x2f4(%rbp),%eax
  40292d:	83 c0 07             	add    $0x7,%eax
  402930:	66 0f ef c0          	pxor   %xmm0,%xmm0
  402934:	f3 0f 2a c0          	cvtsi2ss %eax,%xmm0
  402938:	f3 0f 11 02          	movss  %xmm0,(%rdx)
  40293c:	83 85 0c fd ff ff 01 	addl   $0x1,-0x2f4(%rbp)
  402943:	e9 60 ff ff ff       	jmpq   4028a8 <_Z12matrix_testsv+0x1c2>
  402948:	48 8d 85 60 fe ff ff 	lea    -0x1a0(%rbp),%rax
  40294f:	f3 0f 10 0d a5 a2 00 	movss  0xa2a5(%rip),%xmm1        # 40cbfc <._93+0x154>
  402956:	00 
  402957:	f3 0f 10 05 a1 a2 00 	movss  0xa2a1(%rip),%xmm0        # 40cc00 <._93+0x158>
  40295e:	00 
  40295f:	48 89 c7             	mov    %rax,%rdi
  402962:	e8 0b 0e 00 00       	callq  403772 <_ZN12Tensor_QueenIf15CPU_MATHEMATICS10continuousIfS0_EE9randomizeEff>
  402967:	48 8d 85 60 fe ff ff 	lea    -0x1a0(%rbp),%rax
  40296e:	48 89 c7             	mov    %rax,%rdi
  402971:	e8 90 0e 00 00       	callq  403806 <_ZNK12Tensor_QueenIf15CPU_MATHEMATICS10continuousIfS0_EE5printEv>
  402976:	48 8d 85 00 fe ff ff 	lea    -0x200(%rbp),%rax
  40297d:	48 89 c7             	mov    %rax,%rdi
  402980:	e8 81 0e 00 00       	callq  403806 <_ZNK12Tensor_QueenIf15CPU_MATHEMATICS10continuousIfS0_EE5printEv>
  402985:	48 8d 85 30 fe ff ff 	lea    -0x1d0(%rbp),%rax
  40298c:	48 89 c7             	mov    %rax,%rdi
  40298f:	e8 72 0e 00 00       	callq  403806 <_ZNK12Tensor_QueenIf15CPU_MATHEMATICS10continuousIfS0_EE5printEv>
  402994:	48 8d 85 c0 fe ff ff 	lea    -0x140(%rbp),%rax
  40299b:	48 8d 8d 00 fe ff ff 	lea    -0x200(%rbp),%rcx
  4029a2:	ba 01 00 00 00       	mov    $0x1,%edx
  4029a7:	48 89 ce             	mov    %rcx,%rsi
  4029aa:	48 89 c7             	mov    %rax,%rdi
  4029ad:	e8 2a 21 00 00       	callq  404adc <_ZN6MatrixIf15CPU_MATHEMATICS10continuousIfS0_EEixEi>
  4029b2:	48 8d 85 a0 fd ff ff 	lea    -0x260(%rbp),%rax
  4029b9:	48 8d 8d c0 fe ff ff 	lea    -0x140(%rbp),%rcx
  4029c0:	ba 01 00 00 00       	mov    $0x1,%edx
  4029c5:	48 89 ce             	mov    %rcx,%rsi
  4029c8:	48 89 c7             	mov    %rax,%rdi
  4029cb:	e8 aa 1a 00 00       	callq  40447a <_ZN6VectorIf15CPU_MATHEMATICS10continuousIfS0_EEixEi>
  4029d0:	48 8d 85 90 fe ff ff 	lea    -0x170(%rbp),%rax
  4029d7:	48 8d 95 30 fe ff ff 	lea    -0x1d0(%rbp),%rdx
  4029de:	48 8d 8d 00 fe ff ff 	lea    -0x200(%rbp),%rcx
  4029e5:	48 89 ce             	mov    %rcx,%rsi
  4029e8:	48 89 c7             	mov    %rax,%rdi
  4029eb:	e8 94 1e 00 00       	callq  404884 <_ZN12Tensor_QueenIf15CPU_MATHEMATICS10continuousIfS0_EEmlIS2_EES3_RKS_IfS0_T_E>
  4029f0:	48 8d 45 90          	lea    -0x70(%rbp),%rax
  4029f4:	48 8d 95 a0 fd ff ff 	lea    -0x260(%rbp),%rdx
  4029fb:	48 8d 8d 90 fe ff ff 	lea    -0x170(%rbp),%rcx
  402a02:	48 89 ce             	mov    %rcx,%rsi
  402a05:	48 89 c7             	mov    %rax,%rdi
  402a08:	e8 8f 1c 00 00       	callq  40469c <_ZN12Tensor_QueenIf15CPU_MATHEMATICS10continuousIfS0_EEplIf23ReferenceScalarAccessorIfS0_EEES_IfS0_7pBufferIfS0_S2_T0_N9Operation3addIfEEEERKS_IT_S0_S8_E>
  402a0d:	48 8d 55 90          	lea    -0x70(%rbp),%rdx
  402a11:	48 8d 85 60 fe ff ff 	lea    -0x1a0(%rbp),%rax
  402a18:	48 89 d6             	mov    %rdx,%rsi
  402a1b:	48 89 c7             	mov    %rax,%rdi
  402a1e:	e8 e9 20 00 00       	callq  404b0c <_ZN6MatrixIf15CPU_MATHEMATICS10continuousIfS0_EEaSIf7pBufferIfS0_S2_23ReferenceScalarAccessorIfS0_EN9Operation3addIfEEEEERS3_RK12Tensor_QueenIT_S0_T0_E>
  402a23:	48 8d 45 90          	lea    -0x70(%rbp),%rax
  402a27:	48 89 c7             	mov    %rax,%rdi
  402a2a:	e8 27 82 00 00       	callq  40ac56 <_ZN12Tensor_QueenIf15CPU_MATHEMATICS7pBufferIfS0_10continuousIfS0_E23ReferenceScalarAccessorIfS0_EN9Operation3addIfEEEED1Ev>
  402a2f:	48 8d 85 90 fe ff ff 	lea    -0x170(%rbp),%rax
  402a36:	48 89 c7             	mov    %rax,%rdi
  402a39:	e8 5a 17 00 00       	callq  404198 <_ZN12Tensor_QueenIf15CPU_MATHEMATICS10continuousIfS0_EED1Ev>
  402a3e:	48 8d 85 a0 fd ff ff 	lea    -0x260(%rbp),%rax
  402a45:	48 89 c7             	mov    %rax,%rdi
  402a48:	e8 75 82 00 00       	callq  40acc2 <_ZN9Id_ScalarIf15CPU_MATHEMATICSED1Ev>
  402a4d:	48 8d 85 c0 fe ff ff 	lea    -0x140(%rbp),%rax
  402a54:	48 89 c7             	mov    %rax,%rdi
  402a57:	e8 d2 82 00 00       	callq  40ad2e <_ZN6VectorIf15CPU_MATHEMATICS10continuousIfS0_EED1Ev>
  402a5c:	48 8d 85 60 fe ff ff 	lea    -0x1a0(%rbp),%rax
  402a63:	48 89 c7             	mov    %rax,%rdi
  402a66:	e8 9b 0d 00 00       	callq  403806 <_ZNK12Tensor_QueenIf15CPU_MATHEMATICS10continuousIfS0_EE5printEv>
  402a6b:	48 8d 85 30 fe ff ff 	lea    -0x1d0(%rbp),%rax
  402a72:	48 89 c7             	mov    %rax,%rdi
  402a75:	e8 8c 0d 00 00       	callq  403806 <_ZNK12Tensor_QueenIf15CPU_MATHEMATICS10continuousIfS0_EE5printEv>
  402a7a:	48 8d 85 f0 fe ff ff 	lea    -0x110(%rbp),%rax
  402a81:	48 8d 95 30 fe ff ff 	lea    -0x1d0(%rbp),%rdx
  402a88:	48 89 d6             	mov    %rdx,%rsi
  402a8b:	48 89 c7             	mov    %rax,%rdi
  402a8e:	e8 b7 21 00 00       	callq  404c4a <_ZN12Tensor_QueenIf15CPU_MATHEMATICS10continuousIfS0_EE1tEv>
  402a93:	48 8d 85 f0 fe ff ff 	lea    -0x110(%rbp),%rax
  402a9a:	48 89 c7             	mov    %rax,%rdi
  402a9d:	e8 42 22 00 00       	callq  404ce4 <_ZNK12Tensor_QueenIf15CPU_MATHEMATICS18transpose_accessorIfS0_EE5printEv>
  402aa2:	48 8d 85 f0 fe ff ff 	lea    -0x110(%rbp),%rax
  402aa9:	48 89 c7             	mov    %rax,%rdi
  402aac:	e8 cd 80 00 00       	callq  40ab7e <_ZN12Tensor_QueenIf15CPU_MATHEMATICS18transpose_accessorIfS0_EED1Ev>
  402ab1:	be c0 c6 40 00       	mov    $0x40c6c0,%esi
  402ab6:	bf 60 42 61 00       	mov    $0x614260,%edi
  402abb:	e8 00 f3 ff ff       	callq  401dc0 <_ZStlsISt11char_traitsIcEERSt13basic_ostreamIcT_ES5_PKc@plt>
  402ac0:	be 00 1d 40 00       	mov    $0x401d00,%esi
  402ac5:	48 89 c7             	mov    %rax,%rdi
  402ac8:	e8 23 f3 ff ff       	callq  401df0 <_ZNSolsEPFRSoS_E@plt>
  402acd:	48 8d 85 60 fe ff ff 	lea    -0x1a0(%rbp),%rax
  402ad4:	48 89 c7             	mov    %rax,%rdi
  402ad7:	e8 0e 81 00 00       	callq  40abea <_ZN6MatrixIf15CPU_MATHEMATICS10continuousIfS0_EED1Ev>
  402adc:	48 8d 85 30 fe ff ff 	lea    -0x1d0(%rbp),%rax
  402ae3:	48 89 c7             	mov    %rax,%rdi
  402ae6:	e8 ff 80 00 00       	callq  40abea <_ZN6MatrixIf15CPU_MATHEMATICS10continuousIfS0_EED1Ev>
  402aeb:	48 8d 85 00 fe ff ff 	lea    -0x200(%rbp),%rax
  402af2:	48 89 c7             	mov    %rax,%rdi
  402af5:	e8 f0 80 00 00       	callq  40abea <_ZN6MatrixIf15CPU_MATHEMATICS10continuousIfS0_EED1Ev>
  402afa:	48 8d 85 d0 fd ff ff 	lea    -0x230(%rbp),%rax
  402b01:	48 89 c7             	mov    %rax,%rdi
  402b04:	e8 25 82 00 00       	callq  40ad2e <_ZN6VectorIf15CPU_MATHEMATICS10continuousIfS0_EED1Ev>
  402b09:	90                   	nop
  402b0a:	48 8b 45 e8          	mov    -0x18(%rbp),%rax
  402b0e:	64 48 33 04 25 28 00 	xor    %fs:0x28,%rax
  402b15:	00 00 
  402b17:	0f 84 1d 01 00 00    	je     402c3a <_Z12matrix_testsv+0x554>
  402b1d:	e9 13 01 00 00       	jmpq   402c35 <_Z12matrix_testsv+0x54f>
  402b22:	48 89 c3             	mov    %rax,%rbx
  402b25:	48 8d 85 10 fd ff ff 	lea    -0x2f0(%rbp),%rax
  402b2c:	48 89 c7             	mov    %rax,%rdi
  402b2f:	e8 8e 81 00 00       	callq  40acc2 <_ZN9Id_ScalarIf15CPU_MATHEMATICSED1Ev>
  402b34:	e9 e2 00 00 00       	jmpq   402c1b <_Z12matrix_testsv+0x535>
  402b39:	48 89 c3             	mov    %rax,%rbx
  402b3c:	48 8d 85 40 fd ff ff 	lea    -0x2c0(%rbp),%rax
  402b43:	48 89 c7             	mov    %rax,%rdi
  402b46:	e8 77 81 00 00       	callq  40acc2 <_ZN9Id_ScalarIf15CPU_MATHEMATICSED1Ev>
  402b4b:	e9 cb 00 00 00       	jmpq   402c1b <_Z12matrix_testsv+0x535>
  402b50:	48 89 c3             	mov    %rax,%rbx
  402b53:	48 8d 85 30 ff ff ff 	lea    -0xd0(%rbp),%rax
  402b5a:	48 89 c7             	mov    %rax,%rdi
  402b5d:	e8 f4 80 00 00       	callq  40ac56 <_ZN12Tensor_QueenIf15CPU_MATHEMATICS7pBufferIfS0_10continuousIfS0_E23ReferenceScalarAccessorIfS0_EN9Operation3addIfEEEED1Ev>
  402b62:	eb 03                	jmp    402b67 <_Z12matrix_testsv+0x481>
  402b64:	48 89 c3             	mov    %rax,%rbx
  402b67:	48 8d 85 70 fd ff ff 	lea    -0x290(%rbp),%rax
  402b6e:	48 89 c7             	mov    %rax,%rdi
  402b71:	e8 4c 81 00 00       	callq  40acc2 <_ZN9Id_ScalarIf15CPU_MATHEMATICSED1Ev>
  402b76:	e9 a0 00 00 00       	jmpq   402c1b <_Z12matrix_testsv+0x535>
  402b7b:	48 89 c3             	mov    %rax,%rbx
  402b7e:	48 8d 45 90          	lea    -0x70(%rbp),%rax
  402b82:	48 89 c7             	mov    %rax,%rdi
  402b85:	e8 cc 80 00 00       	callq  40ac56 <_ZN12Tensor_QueenIf15CPU_MATHEMATICS7pBufferIfS0_10continuousIfS0_E23ReferenceScalarAccessorIfS0_EN9Operation3addIfEEEED1Ev>
  402b8a:	eb 03                	jmp    402b8f <_Z12matrix_testsv+0x4a9>
  402b8c:	48 89 c3             	mov    %rax,%rbx
  402b8f:	48 8d 85 90 fe ff ff 	lea    -0x170(%rbp),%rax
  402b96:	48 89 c7             	mov    %rax,%rdi
  402b99:	e8 fa 15 00 00       	callq  404198 <_ZN12Tensor_QueenIf15CPU_MATHEMATICS10continuousIfS0_EED1Ev>
  402b9e:	eb 03                	jmp    402ba3 <_Z12matrix_testsv+0x4bd>
  402ba0:	48 89 c3             	mov    %rax,%rbx
  402ba3:	48 8d 85 a0 fd ff ff 	lea    -0x260(%rbp),%rax
  402baa:	48 89 c7             	mov    %rax,%rdi
  402bad:	e8 10 81 00 00       	callq  40acc2 <_ZN9Id_ScalarIf15CPU_MATHEMATICSED1Ev>
  402bb2:	eb 03                	jmp    402bb7 <_Z12matrix_testsv+0x4d1>
  402bb4:	48 89 c3             	mov    %rax,%rbx
  402bb7:	48 8d 85 c0 fe ff ff 	lea    -0x140(%rbp),%rax
  402bbe:	48 89 c7             	mov    %rax,%rdi
  402bc1:	e8 68 81 00 00       	callq  40ad2e <_ZN6VectorIf15CPU_MATHEMATICS10continuousIfS0_EED1Ev>
  402bc6:	eb 17                	jmp    402bdf <_Z12matrix_testsv+0x4f9>
  402bc8:	48 89 c3             	mov    %rax,%rbx
  402bcb:	48 8d 85 f0 fe ff ff 	lea    -0x110(%rbp),%rax
  402bd2:	48 89 c7             	mov    %rax,%rdi
  402bd5:	e8 a4 7f 00 00       	callq  40ab7e <_ZN12Tensor_QueenIf15CPU_MATHEMATICS18transpose_accessorIfS0_EED1Ev>
  402bda:	eb 03                	jmp    402bdf <_Z12matrix_testsv+0x4f9>
  402bdc:	48 89 c3             	mov    %rax,%rbx
  402bdf:	48 8d 85 60 fe ff ff 	lea    -0x1a0(%rbp),%rax
  402be6:	48 89 c7             	mov    %rax,%rdi
  402be9:	e8 fc 7f 00 00       	callq  40abea <_ZN6MatrixIf15CPU_MATHEMATICS10continuousIfS0_EED1Ev>
  402bee:	eb 03                	jmp    402bf3 <_Z12matrix_testsv+0x50d>
  402bf0:	48 89 c3             	mov    %rax,%rbx
  402bf3:	48 8d 85 30 fe ff ff 	lea    -0x1d0(%rbp),%rax
  402bfa:	48 89 c7             	mov    %rax,%rdi
  402bfd:	e8 e8 7f 00 00       	callq  40abea <_ZN6MatrixIf15CPU_MATHEMATICS10continuousIfS0_EED1Ev>
  402c02:	eb 03                	jmp    402c07 <_Z12matrix_testsv+0x521>
  402c04:	48 89 c3             	mov    %rax,%rbx
  402c07:	48 8d 85 00 fe ff ff 	lea    -0x200(%rbp),%rax
  402c0e:	48 89 c7             	mov    %rax,%rdi
  402c11:	e8 d4 7f 00 00       	callq  40abea <_ZN6MatrixIf15CPU_MATHEMATICS10continuousIfS0_EED1Ev>
  402c16:	eb 03                	jmp    402c1b <_Z12matrix_testsv+0x535>
  402c18:	48 89 c3             	mov    %rax,%rbx
  402c1b:	48 8d 85 d0 fd ff ff 	lea    -0x230(%rbp),%rax
  402c22:	48 89 c7             	mov    %rax,%rdi
  402c25:	e8 04 81 00 00       	callq  40ad2e <_ZN6VectorIf15CPU_MATHEMATICS10continuousIfS0_EED1Ev>
  402c2a:	48 89 d8             	mov    %rbx,%rax
  402c2d:	48 89 c7             	mov    %rax,%rdi
  402c30:	e8 5b f3 ff ff       	callq  401f90 <_Unwind_Resume@plt>
  402c35:	e8 f6 f1 ff ff       	callq  401e30 <__stack_chk_fail@plt>
  402c3a:	48 81 c4 f8 02 00 00 	add    $0x2f8,%rsp
  402c41:	5b                   	pop    %rbx
  402c42:	5d                   	pop    %rbp
  402c43:	c3                   	retq   

0000000000402c44 <_Z3addPdS_S_i>:
  402c44:	55                   	push   %rbp
  402c45:	48 89 e5             	mov    %rsp,%rbp
  402c48:	48 89 7d e8          	mov    %rdi,-0x18(%rbp)
  402c4c:	48 89 75 e0          	mov    %rsi,-0x20(%rbp)
  402c50:	48 89 55 d8          	mov    %rdx,-0x28(%rbp)
  402c54:	89 4d d4             	mov    %ecx,-0x2c(%rbp)
  402c57:	c7 45 fc 00 00 00 00 	movl   $0x0,-0x4(%rbp)
  402c5e:	8b 45 fc             	mov    -0x4(%rbp),%eax
  402c61:	3b 45 d4             	cmp    -0x2c(%rbp),%eax
  402c64:	7d 54                	jge    402cba <_Z3addPdS_S_i+0x76>
  402c66:	8b 45 fc             	mov    -0x4(%rbp),%eax
  402c69:	48 98                	cltq   
  402c6b:	48 8d 14 c5 00 00 00 	lea    0x0(,%rax,8),%rdx
  402c72:	00 
  402c73:	48 8b 45 e8          	mov    -0x18(%rbp),%rax
  402c77:	48 01 d0             	add    %rdx,%rax
  402c7a:	8b 55 fc             	mov    -0x4(%rbp),%edx
  402c7d:	48 63 d2             	movslq %edx,%rdx
  402c80:	48 8d 0c d5 00 00 00 	lea    0x0(,%rdx,8),%rcx
  402c87:	00 
  402c88:	48 8b 55 e0          	mov    -0x20(%rbp),%rdx
  402c8c:	48 01 ca             	add    %rcx,%rdx
  402c8f:	f2 0f 10 0a          	movsd  (%rdx),%xmm1
  402c93:	8b 55 fc             	mov    -0x4(%rbp),%edx
  402c96:	48 63 d2             	movslq %edx,%rdx
  402c99:	48 8d 0c d5 00 00 00 	lea    0x0(,%rdx,8),%rcx
  402ca0:	00 
  402ca1:	48 8b 55 d8          	mov    -0x28(%rbp),%rdx
  402ca5:	48 01 ca             	add    %rcx,%rdx
  402ca8:	f2 0f 10 02          	movsd  (%rdx),%xmm0
  402cac:	f2 0f 58 c1          	addsd  %xmm1,%xmm0
  402cb0:	f2 0f 11 00          	movsd  %xmm0,(%rax)
  402cb4:	83 45 fc 01          	addl   $0x1,-0x4(%rbp)
  402cb8:	eb a4                	jmp    402c5e <_Z3addPdS_S_i+0x1a>
  402cba:	90                   	nop
  402cbb:	5d                   	pop    %rbp
  402cbc:	c3                   	retq   

0000000000402cbd <main>:
  402cbd:	55                   	push   %rbp
  402cbe:	48 89 e5             	mov    %rsp,%rbp
  402cc1:	41 54                	push   %r12
  402cc3:	53                   	push   %rbx
  402cc4:	48 81 ec 20 01 00 00 	sub    $0x120,%rsp
  402ccb:	64 48 8b 04 25 28 00 	mov    %fs:0x28,%rax
  402cd2:	00 00 
  402cd4:	48 89 45 e8          	mov    %rax,-0x18(%rbp)
  402cd8:	31 c0                	xor    %eax,%eax
  402cda:	48 8d 85 f0 fe ff ff 	lea    -0x110(%rbp),%rax
  402ce1:	ba e8 03 00 00       	mov    $0x3e8,%edx
  402ce6:	be e8 03 00 00       	mov    $0x3e8,%esi
  402ceb:	48 89 c7             	mov    %rax,%rdi
  402cee:	e8 c9 21 00 00       	callq  404ebc <_ZN6MatrixId15CPU_MATHEMATICS10continuousIdS0_EEC1Eii>
  402cf3:	48 8d 85 20 ff ff ff 	lea    -0xe0(%rbp),%rax
  402cfa:	ba e8 03 00 00       	mov    $0x3e8,%edx
  402cff:	be e8 03 00 00       	mov    $0x3e8,%esi
  402d04:	48 89 c7             	mov    %rax,%rdi
  402d07:	e8 b0 21 00 00       	callq  404ebc <_ZN6MatrixId15CPU_MATHEMATICS10continuousIdS0_EEC1Eii>
  402d0c:	48 8d 85 50 ff ff ff 	lea    -0xb0(%rbp),%rax
  402d13:	ba e8 03 00 00       	mov    $0x3e8,%edx
  402d18:	be e8 03 00 00       	mov    $0x3e8,%esi
  402d1d:	48 89 c7             	mov    %rax,%rdi
  402d20:	e8 97 21 00 00       	callq  404ebc <_ZN6MatrixId15CPU_MATHEMATICS10continuousIdS0_EEC1Eii>
  402d25:	f2 0f 10 05 db 9e 00 	movsd  0x9edb(%rip),%xmm0        # 40cc08 <._93+0x160>
  402d2c:	00 
  402d2d:	48 ba 00 00 00 00 00 	movabs $0xc059000000000000,%rdx
  402d34:	00 59 c0 
  402d37:	48 8d 85 f0 fe ff ff 	lea    -0x110(%rbp),%rax
  402d3e:	66 0f 28 c8          	movapd %xmm0,%xmm1
  402d42:	48 89 95 d8 fe ff ff 	mov    %rdx,-0x128(%rbp)
  402d49:	f2 0f 10 85 d8 fe ff 	movsd  -0x128(%rbp),%xmm0
  402d50:	ff 
  402d51:	48 89 c7             	mov    %rax,%rdi
  402d54:	e8 4b 23 00 00       	callq  4050a4 <_ZN12Tensor_QueenId15CPU_MATHEMATICS10continuousIdS0_EE9randomizeEdd>
  402d59:	f2 0f 10 05 a7 9e 00 	movsd  0x9ea7(%rip),%xmm0        # 40cc08 <._93+0x160>
  402d60:	00 
  402d61:	48 ba 00 00 00 00 00 	movabs $0xc059000000000000,%rdx
  402d68:	00 59 c0 
  402d6b:	48 8d 85 20 ff ff ff 	lea    -0xe0(%rbp),%rax
  402d72:	66 0f 28 c8          	movapd %xmm0,%xmm1
  402d76:	48 89 95 d8 fe ff ff 	mov    %rdx,-0x128(%rbp)
  402d7d:	f2 0f 10 85 d8 fe ff 	movsd  -0x128(%rbp),%xmm0
  402d84:	ff 
  402d85:	48 89 c7             	mov    %rax,%rdi
  402d88:	e8 17 23 00 00       	callq  4050a4 <_ZN12Tensor_QueenId15CPU_MATHEMATICS10continuousIdS0_EE9randomizeEdd>
  402d8d:	bf ca c6 40 00       	mov    $0x40c6ca,%edi
  402d92:	e8 79 f1 ff ff       	callq  401f10 <puts@plt>
  402d97:	48 8d 45 80          	lea    -0x80(%rbp),%rax
  402d9b:	48 8d 95 20 ff ff ff 	lea    -0xe0(%rbp),%rdx
  402da2:	48 8d 8d f0 fe ff ff 	lea    -0x110(%rbp),%rcx
  402da9:	48 89 ce             	mov    %rcx,%rsi
  402dac:	48 89 c7             	mov    %rax,%rdi
  402daf:	e8 30 24 00 00       	callq  4051e4 <_ZN12Tensor_QueenId15CPU_MATHEMATICS10continuousIdS0_EEplIdS2_EES_IdS0_7pBufferIdS0_S2_T0_N9Operation3addIdEEEERKS_IT_S0_S6_E>
  402db4:	48 8d 55 80          	lea    -0x80(%rbp),%rdx
  402db8:	48 8d 85 50 ff ff ff 	lea    -0xb0(%rbp),%rax
  402dbf:	48 89 d6             	mov    %rdx,%rsi
  402dc2:	48 89 c7             	mov    %rax,%rdi
  402dc5:	e8 e4 24 00 00       	callq  4052ae <_ZN6MatrixId15CPU_MATHEMATICS10continuousIdS0_EEaSId7pBufferIdS0_S2_S2_N9Operation3addIdEEEEERS3_RK12Tensor_QueenIT_S0_T0_E>
  402dca:	48 8d 45 80          	lea    -0x80(%rbp),%rax
  402dce:	48 89 c7             	mov    %rax,%rdi
  402dd1:	e8 d0 7c 00 00       	callq  40aaa6 <_ZN12Tensor_QueenId15CPU_MATHEMATICS7pBufferIdS0_10continuousIdS0_ES3_N9Operation3addIdEEEED1Ev>
  402dd6:	8b 85 e4 fe ff ff    	mov    -0x11c(%rbp),%eax
  402ddc:	89 c6                	mov    %eax,%esi
  402dde:	bf e4 c6 40 00       	mov    $0x40c6e4,%edi
  402de3:	b8 00 00 00 00       	mov    $0x0,%eax
  402de8:	e8 b3 ee ff ff       	callq  401ca0 <printf@plt>
  402ded:	66 0f ef c0          	pxor   %xmm0,%xmm0
  402df1:	f3 48 0f 2a 85 e8 fe 	cvtsi2ssq -0x118(%rbp),%xmm0
  402df8:	ff ff 
  402dfa:	f3 0f 5a c0          	cvtss2sd %xmm0,%xmm0
  402dfe:	48 8b 85 e8 fe ff ff 	mov    -0x118(%rbp),%rax
  402e05:	48 89 c6             	mov    %rax,%rsi
  402e08:	bf 00 c7 40 00       	mov    $0x40c700,%edi
  402e0d:	b8 01 00 00 00       	mov    $0x1,%eax
  402e12:	e8 89 ee ff ff       	callq  401ca0 <printf@plt>
  402e17:	bf 24 c7 40 00       	mov    $0x40c724,%edi
  402e1c:	e8 ef f0 ff ff       	callq  401f10 <puts@plt>
  402e21:	48 8d 85 20 ff ff ff 	lea    -0xe0(%rbp),%rax
  402e28:	48 89 c7             	mov    %rax,%rdi
  402e2b:	e8 e0 24 00 00       	callq  405310 <_ZN11Tensor_KingId15CPU_MATHEMATICS10continuousIdS0_EE8accessorEv>
  402e30:	48 8b 10             	mov    (%rax),%rdx
  402e33:	48 83 c2 48          	add    $0x48,%rdx
  402e37:	48 8b 12             	mov    (%rdx),%rdx
  402e3a:	48 89 c7             	mov    %rax,%rdi
  402e3d:	ff d2                	callq  *%rdx
  402e3f:	49 89 c4             	mov    %rax,%r12
  402e42:	48 8d 85 f0 fe ff ff 	lea    -0x110(%rbp),%rax
  402e49:	48 89 c7             	mov    %rax,%rdi
  402e4c:	e8 bf 24 00 00       	callq  405310 <_ZN11Tensor_KingId15CPU_MATHEMATICS10continuousIdS0_EE8accessorEv>
  402e51:	48 8b 10             	mov    (%rax),%rdx
  402e54:	48 83 c2 48          	add    $0x48,%rdx
  402e58:	48 8b 12             	mov    (%rdx),%rdx
  402e5b:	48 89 c7             	mov    %rax,%rdi
  402e5e:	ff d2                	callq  *%rdx
  402e60:	48 89 c3             	mov    %rax,%rbx
  402e63:	48 8d 85 50 ff ff ff 	lea    -0xb0(%rbp),%rax
  402e6a:	48 89 c7             	mov    %rax,%rdi
  402e6d:	e8 9e 24 00 00       	callq  405310 <_ZN11Tensor_KingId15CPU_MATHEMATICS10continuousIdS0_EE8accessorEv>
  402e72:	48 8b 10             	mov    (%rax),%rdx
  402e75:	48 83 c2 48          	add    $0x48,%rdx
  402e79:	48 8b 12             	mov    (%rdx),%rdx
  402e7c:	48 89 c7             	mov    %rax,%rdi
  402e7f:	ff d2                	callq  *%rdx
  402e81:	b9 40 42 0f 00       	mov    $0xf4240,%ecx
  402e86:	4c 89 e2             	mov    %r12,%rdx
  402e89:	48 89 de             	mov    %rbx,%rsi
  402e8c:	48 89 c7             	mov    %rax,%rdi
  402e8f:	e8 b0 fd ff ff       	callq  402c44 <_Z3addPdS_S_i>
  402e94:	8b 85 e4 fe ff ff    	mov    -0x11c(%rbp),%eax
  402e9a:	89 c6                	mov    %eax,%esi
  402e9c:	bf e4 c6 40 00       	mov    $0x40c6e4,%edi
  402ea1:	b8 00 00 00 00       	mov    $0x0,%eax
  402ea6:	e8 f5 ed ff ff       	callq  401ca0 <printf@plt>
  402eab:	66 0f ef c0          	pxor   %xmm0,%xmm0
  402eaf:	f3 48 0f 2a 85 e8 fe 	cvtsi2ssq -0x118(%rbp),%xmm0
  402eb6:	ff ff 
  402eb8:	f3 0f 5a c0          	cvtss2sd %xmm0,%xmm0
  402ebc:	48 8b 85 e8 fe ff ff 	mov    -0x118(%rbp),%rax
  402ec3:	48 89 c6             	mov    %rax,%rsi
  402ec6:	bf 00 c7 40 00       	mov    $0x40c700,%edi
  402ecb:	b8 01 00 00 00       	mov    $0x1,%eax
  402ed0:	e8 cb ed ff ff       	callq  401ca0 <printf@plt>
  402ed5:	be b7 c6 40 00       	mov    $0x40c6b7,%esi
  402eda:	bf 60 42 61 00       	mov    $0x614260,%edi
  402edf:	e8 dc ee ff ff       	callq  401dc0 <_ZStlsISt11char_traitsIcEERSt13basic_ostreamIcT_ES5_PKc@plt>
  402ee4:	be 00 1d 40 00       	mov    $0x401d00,%esi
  402ee9:	48 89 c7             	mov    %rax,%rdi
  402eec:	e8 ff ee ff ff       	callq  401df0 <_ZNSolsEPFRSoS_E@plt>
  402ef1:	48 8d 85 50 ff ff ff 	lea    -0xb0(%rbp),%rax
  402ef8:	48 89 c7             	mov    %rax,%rdi
  402efb:	e8 12 7c 00 00       	callq  40ab12 <_ZN6MatrixId15CPU_MATHEMATICS10continuousIdS0_EED1Ev>
  402f00:	48 8d 85 20 ff ff ff 	lea    -0xe0(%rbp),%rax
  402f07:	48 89 c7             	mov    %rax,%rdi
  402f0a:	e8 03 7c 00 00       	callq  40ab12 <_ZN6MatrixId15CPU_MATHEMATICS10continuousIdS0_EED1Ev>
  402f0f:	48 8d 85 f0 fe ff ff 	lea    -0x110(%rbp),%rax
  402f16:	48 89 c7             	mov    %rax,%rdi
  402f19:	e8 f4 7b 00 00       	callq  40ab12 <_ZN6MatrixId15CPU_MATHEMATICS10continuousIdS0_EED1Ev>
  402f1e:	b8 00 00 00 00       	mov    $0x0,%eax
  402f23:	48 8b 4d e8          	mov    -0x18(%rbp),%rcx
  402f27:	64 48 33 0c 25 28 00 	xor    %fs:0x28,%rcx
  402f2e:	00 00 
  402f30:	74 5d                	je     402f8f <main+0x2d2>
  402f32:	eb 56                	jmp    402f8a <main+0x2cd>
  402f34:	48 89 c3             	mov    %rax,%rbx
  402f37:	48 8d 45 80          	lea    -0x80(%rbp),%rax
  402f3b:	48 89 c7             	mov    %rax,%rdi
  402f3e:	e8 63 7b 00 00       	callq  40aaa6 <_ZN12Tensor_QueenId15CPU_MATHEMATICS7pBufferIdS0_10continuousIdS0_ES3_N9Operation3addIdEEEED1Ev>
  402f43:	eb 03                	jmp    402f48 <main+0x28b>
  402f45:	48 89 c3             	mov    %rax,%rbx
  402f48:	48 8d 85 50 ff ff ff 	lea    -0xb0(%rbp),%rax
  402f4f:	48 89 c7             	mov    %rax,%rdi
  402f52:	e8 bb 7b 00 00       	callq  40ab12 <_ZN6MatrixId15CPU_MATHEMATICS10continuousIdS0_EED1Ev>
  402f57:	eb 03                	jmp    402f5c <main+0x29f>
  402f59:	48 89 c3             	mov    %rax,%rbx
  402f5c:	48 8d 85 20 ff ff ff 	lea    -0xe0(%rbp),%rax
  402f63:	48 89 c7             	mov    %rax,%rdi
  402f66:	e8 a7 7b 00 00       	callq  40ab12 <_ZN6MatrixId15CPU_MATHEMATICS10continuousIdS0_EED1Ev>
  402f6b:	eb 03                	jmp    402f70 <main+0x2b3>
  402f6d:	48 89 c3             	mov    %rax,%rbx
  402f70:	48 8d 85 f0 fe ff ff 	lea    -0x110(%rbp),%rax
  402f77:	48 89 c7             	mov    %rax,%rdi
  402f7a:	e8 93 7b 00 00       	callq  40ab12 <_ZN6MatrixId15CPU_MATHEMATICS10continuousIdS0_EED1Ev>
  402f7f:	48 89 d8             	mov    %rbx,%rax
  402f82:	48 89 c7             	mov    %rax,%rdi
  402f85:	e8 06 f0 ff ff       	callq  401f90 <_Unwind_Resume@plt>
  402f8a:	e8 a1 ee ff ff       	callq  401e30 <__stack_chk_fail@plt>
  402f8f:	48 81 c4 20 01 00 00 	add    $0x120,%rsp
  402f96:	5b                   	pop    %rbx
  402f97:	41 5c                	pop    %r12
  402f99:	5d                   	pop    %rbp
  402f9a:	c3                   	retq   

0000000000402f9b <_Z41__static_initialization_and_destruction_0ii>:
  402f9b:	55                   	push   %rbp
  402f9c:	48 89 e5             	mov    %rsp,%rbp
  402f9f:	48 83 ec 10          	sub    $0x10,%rsp
  402fa3:	89 7d fc             	mov    %edi,-0x4(%rbp)
  402fa6:	89 75 f8             	mov    %esi,-0x8(%rbp)
  402fa9:	83 7d fc 01          	cmpl   $0x1,-0x4(%rbp)
  402fad:	75 27                	jne    402fd6 <_Z41__static_initialization_and_destruction_0ii+0x3b>
  402faf:	81 7d f8 ff ff 00 00 	cmpl   $0xffff,-0x8(%rbp)
  402fb6:	75 1e                	jne    402fd6 <_Z41__static_initialization_and_destruction_0ii+0x3b>
  402fb8:	bf 39 44 61 00       	mov    $0x614439,%edi
  402fbd:	e8 3e ef ff ff       	callq  401f00 <_ZNSt8ios_base4InitC1Ev@plt>
  402fc2:	ba f0 41 61 00       	mov    $0x6141f0,%edx
  402fc7:	be 39 44 61 00       	mov    $0x614439,%esi
  402fcc:	bf 20 20 40 00       	mov    $0x402020,%edi
  402fd1:	e8 ba ed ff ff       	callq  401d90 <__cxa_atexit@plt>
  402fd6:	90                   	nop
  402fd7:	c9                   	leaveq 
  402fd8:	c3                   	retq   

0000000000402fd9 <_GLOBAL__sub_I__Z3maxii>:
  402fd9:	55                   	push   %rbp
  402fda:	48 89 e5             	mov    %rsp,%rbp
  402fdd:	be ff ff 00 00       	mov    $0xffff,%esi
  402fe2:	bf 01 00 00 00       	mov    $0x1,%edi
  402fe7:	e8 af ff ff ff       	callq  402f9b <_Z41__static_initialization_and_destruction_0ii>
  402fec:	5d                   	pop    %rbp
  402fed:	c3                   	retq   

0000000000402fee <_ZN15CPU_MATHEMATICS10copy_stackIPiPKiEEvRT_T0_i._omp_fn.0>:
  402fee:	55                   	push   %rbp
  402fef:	48 89 e5             	mov    %rsp,%rbp
  402ff2:	41 54                	push   %r12
  402ff4:	53                   	push   %rbx
  402ff5:	48 83 ec 20          	sub    $0x20,%rsp
  402ff9:	48 89 7d d8          	mov    %rdi,-0x28(%rbp)
  402ffd:	48 8b 45 d8          	mov    -0x28(%rbp),%rax
  403001:	8b 58 10             	mov    0x10(%rax),%ebx
  403004:	e8 d7 ef ff ff       	callq  401fe0 <omp_get_num_threads@plt>
  403009:	41 89 c4             	mov    %eax,%r12d
  40300c:	e8 0f ef ff ff       	callq  401f20 <omp_get_thread_num@plt>
  403011:	89 c6                	mov    %eax,%esi
  403013:	89 d8                	mov    %ebx,%eax
  403015:	99                   	cltd   
  403016:	41 f7 fc             	idiv   %r12d
  403019:	89 c1                	mov    %eax,%ecx
  40301b:	89 d8                	mov    %ebx,%eax
  40301d:	99                   	cltd   
  40301e:	41 f7 fc             	idiv   %r12d
  403021:	89 d0                	mov    %edx,%eax
  403023:	39 c6                	cmp    %eax,%esi
  403025:	7c 4f                	jl     403076 <_ZN15CPU_MATHEMATICS10copy_stackIPiPKiEEvRT_T0_i._omp_fn.0+0x88>
  403027:	0f af f1             	imul   %ecx,%esi
  40302a:	89 f2                	mov    %esi,%edx
  40302c:	01 d0                	add    %edx,%eax
  40302e:	8d 14 08             	lea    (%rax,%rcx,1),%edx
  403031:	39 d0                	cmp    %edx,%eax
  403033:	7d 4b                	jge    403080 <_ZN15CPU_MATHEMATICS10copy_stackIPiPKiEEvRT_T0_i._omp_fn.0+0x92>
  403035:	89 45 ec             	mov    %eax,-0x14(%rbp)
  403038:	48 8b 45 d8          	mov    -0x28(%rbp),%rax
  40303c:	48 8b 00             	mov    (%rax),%rax
  40303f:	48 8b 00             	mov    (%rax),%rax
  403042:	8b 4d ec             	mov    -0x14(%rbp),%ecx
  403045:	48 63 c9             	movslq %ecx,%rcx
  403048:	48 c1 e1 02          	shl    $0x2,%rcx
  40304c:	48 01 c1             	add    %rax,%rcx
  40304f:	8b 45 ec             	mov    -0x14(%rbp),%eax
  403052:	48 98                	cltq   
  403054:	48 8d 34 85 00 00 00 	lea    0x0(,%rax,4),%rsi
  40305b:	00 
  40305c:	48 8b 45 d8          	mov    -0x28(%rbp),%rax
  403060:	48 8b 40 08          	mov    0x8(%rax),%rax
  403064:	48 01 f0             	add    %rsi,%rax
  403067:	8b 00                	mov    (%rax),%eax
  403069:	89 01                	mov    %eax,(%rcx)
  40306b:	83 45 ec 01          	addl   $0x1,-0x14(%rbp)
  40306f:	39 55 ec             	cmp    %edx,-0x14(%rbp)
  403072:	7c c4                	jl     403038 <_ZN15CPU_MATHEMATICS10copy_stackIPiPKiEEvRT_T0_i._omp_fn.0+0x4a>
  403074:	eb 0a                	jmp    403080 <_ZN15CPU_MATHEMATICS10copy_stackIPiPKiEEvRT_T0_i._omp_fn.0+0x92>
  403076:	b8 00 00 00 00       	mov    $0x0,%eax
  40307b:	83 c1 01             	add    $0x1,%ecx
  40307e:	eb a7                	jmp    403027 <_ZN15CPU_MATHEMATICS10copy_stackIPiPKiEEvRT_T0_i._omp_fn.0+0x39>
  403080:	48 83 c4 20          	add    $0x20,%rsp
  403084:	5b                   	pop    %rbx
  403085:	41 5c                	pop    %r12
  403087:	5d                   	pop    %rbp
  403088:	c3                   	retq   

0000000000403089 <_ZN15CPU_MATHEMATICS9randomizeI10continuousIfS_EfEEvT_T0_S4_i._omp_fn.1>:
  403089:	55                   	push   %rbp
  40308a:	48 89 e5             	mov    %rsp,%rbp
  40308d:	41 54                	push   %r12
  40308f:	53                   	push   %rbx
  403090:	48 83 ec 20          	sub    $0x20,%rsp
  403094:	48 89 7d d8          	mov    %rdi,-0x28(%rbp)
  403098:	48 8b 45 d8          	mov    -0x28(%rbp),%rax
  40309c:	8b 58 10             	mov    0x10(%rax),%ebx
  40309f:	e8 3c ef ff ff       	callq  401fe0 <omp_get_num_threads@plt>
  4030a4:	41 89 c4             	mov    %eax,%r12d
  4030a7:	e8 74 ee ff ff       	callq  401f20 <omp_get_thread_num@plt>
  4030ac:	89 c6                	mov    %eax,%esi
  4030ae:	89 d8                	mov    %ebx,%eax
  4030b0:	99                   	cltd   
  4030b1:	41 f7 fc             	idiv   %r12d
  4030b4:	89 c1                	mov    %eax,%ecx
  4030b6:	89 d8                	mov    %ebx,%eax
  4030b8:	99                   	cltd   
  4030b9:	41 f7 fc             	idiv   %r12d
  4030bc:	89 d0                	mov    %edx,%eax
  4030be:	39 c6                	cmp    %eax,%esi
  4030c0:	0f 8c 8d 00 00 00    	jl     403153 <_ZN15CPU_MATHEMATICS9randomizeI10continuousIfS_EfEEvT_T0_S4_i._omp_fn.1+0xca>
  4030c6:	0f af f1             	imul   %ecx,%esi
  4030c9:	89 f2                	mov    %esi,%edx
  4030cb:	01 d0                	add    %edx,%eax
  4030cd:	8d 1c 08             	lea    (%rax,%rcx,1),%ebx
  4030d0:	39 d8                	cmp    %ebx,%eax
  4030d2:	0f 8d 88 00 00 00    	jge    403160 <_ZN15CPU_MATHEMATICS9randomizeI10continuousIfS_EfEEvT_T0_S4_i._omp_fn.1+0xd7>
  4030d8:	89 45 ec             	mov    %eax,-0x14(%rbp)
  4030db:	48 8b 45 d8          	mov    -0x28(%rbp),%rax
  4030df:	48 8b 00             	mov    (%rax),%rax
  4030e2:	8b 55 ec             	mov    -0x14(%rbp),%edx
  4030e5:	89 d6                	mov    %edx,%esi
  4030e7:	48 89 c7             	mov    %rax,%rdi
  4030ea:	e8 73 17 00 00       	callq  404862 <_ZN10continuousIf15CPU_MATHEMATICSEixEi>
  4030ef:	49 89 c4             	mov    %rax,%r12
  4030f2:	e8 c9 eb ff ff       	callq  401cc0 <rand@plt>
  4030f7:	66 0f ef c0          	pxor   %xmm0,%xmm0
  4030fb:	f2 0f 2a c0          	cvtsi2sd %eax,%xmm0
  4030ff:	f2 0f 10 0d 09 9b 00 	movsd  0x9b09(%rip),%xmm1        # 40cc10 <._93+0x168>
  403106:	00 
  403107:	f2 0f 5e c1          	divsd  %xmm1,%xmm0
  40310b:	66 0f 28 c8          	movapd %xmm0,%xmm1
  40310f:	48 8b 45 d8          	mov    -0x28(%rbp),%rax
  403113:	f3 0f 10 50 08       	movss  0x8(%rax),%xmm2
  403118:	48 8b 45 d8          	mov    -0x28(%rbp),%rax
  40311c:	f3 0f 10 40 0c       	movss  0xc(%rax),%xmm0
  403121:	f3 0f 5c c2          	subss  %xmm2,%xmm0
  403125:	f3 0f 5a c0          	cvtss2sd %xmm0,%xmm0
  403129:	f2 0f 59 c8          	mulsd  %xmm0,%xmm1
  40312d:	48 8b 45 d8          	mov    -0x28(%rbp),%rax
  403131:	f3 0f 10 40 08       	movss  0x8(%rax),%xmm0
  403136:	f3 0f 5a c0          	cvtss2sd %xmm0,%xmm0
  40313a:	f2 0f 58 c1          	addsd  %xmm1,%xmm0
  40313e:	f2 0f 5a c0          	cvtsd2ss %xmm0,%xmm0
  403142:	f3 41 0f 11 04 24    	movss  %xmm0,(%r12)
  403148:	83 45 ec 01          	addl   $0x1,-0x14(%rbp)
  40314c:	39 5d ec             	cmp    %ebx,-0x14(%rbp)
  40314f:	7c 8a                	jl     4030db <_ZN15CPU_MATHEMATICS9randomizeI10continuousIfS_EfEEvT_T0_S4_i._omp_fn.1+0x52>
  403151:	eb 0d                	jmp    403160 <_ZN15CPU_MATHEMATICS9randomizeI10continuousIfS_EfEEvT_T0_S4_i._omp_fn.1+0xd7>
  403153:	b8 00 00 00 00       	mov    $0x0,%eax
  403158:	83 c1 01             	add    $0x1,%ecx
  40315b:	e9 66 ff ff ff       	jmpq   4030c6 <_ZN15CPU_MATHEMATICS9randomizeI10continuousIfS_EfEEvT_T0_S4_i._omp_fn.1+0x3d>
  403160:	48 83 c4 20          	add    $0x20,%rsp
  403164:	5b                   	pop    %rbx
  403165:	41 5c                	pop    %r12
  403167:	5d                   	pop    %rbp
  403168:	c3                   	retq   

0000000000403169 <_ZN15CPU_MATHEMATICS4zeroI10continuousIfS_EEEvRT_i._omp_fn.2>:
  403169:	55                   	push   %rbp
  40316a:	48 89 e5             	mov    %rsp,%rbp
  40316d:	41 54                	push   %r12
  40316f:	53                   	push   %rbx
  403170:	48 83 ec 20          	sub    $0x20,%rsp
  403174:	48 89 7d d8          	mov    %rdi,-0x28(%rbp)
  403178:	48 8b 45 d8          	mov    -0x28(%rbp),%rax
  40317c:	8b 58 08             	mov    0x8(%rax),%ebx
  40317f:	e8 5c ee ff ff       	callq  401fe0 <omp_get_num_threads@plt>
  403184:	41 89 c4             	mov    %eax,%r12d
  403187:	e8 94 ed ff ff       	callq  401f20 <omp_get_thread_num@plt>
  40318c:	89 c6                	mov    %eax,%esi
  40318e:	89 d8                	mov    %ebx,%eax
  403190:	99                   	cltd   
  403191:	41 f7 fc             	idiv   %r12d
  403194:	89 c1                	mov    %eax,%ecx
  403196:	89 d8                	mov    %ebx,%eax
  403198:	99                   	cltd   
  403199:	41 f7 fc             	idiv   %r12d
  40319c:	89 d0                	mov    %edx,%eax
  40319e:	39 c6                	cmp    %eax,%esi
  4031a0:	7c 38                	jl     4031da <_ZN15CPU_MATHEMATICS4zeroI10continuousIfS_EEEvRT_i._omp_fn.2+0x71>
  4031a2:	0f af f1             	imul   %ecx,%esi
  4031a5:	89 f2                	mov    %esi,%edx
  4031a7:	01 d0                	add    %edx,%eax
  4031a9:	8d 1c 08             	lea    (%rax,%rcx,1),%ebx
  4031ac:	39 d8                	cmp    %ebx,%eax
  4031ae:	7d 34                	jge    4031e4 <_ZN15CPU_MATHEMATICS4zeroI10continuousIfS_EEEvRT_i._omp_fn.2+0x7b>
  4031b0:	89 45 ec             	mov    %eax,-0x14(%rbp)
  4031b3:	48 8b 45 d8          	mov    -0x28(%rbp),%rax
  4031b7:	48 8b 00             	mov    (%rax),%rax
  4031ba:	8b 55 ec             	mov    -0x14(%rbp),%edx
  4031bd:	89 d6                	mov    %edx,%esi
  4031bf:	48 89 c7             	mov    %rax,%rdi
  4031c2:	e8 9b 16 00 00       	callq  404862 <_ZN10continuousIf15CPU_MATHEMATICSEixEi>
  4031c7:	66 0f ef c0          	pxor   %xmm0,%xmm0
  4031cb:	f3 0f 11 00          	movss  %xmm0,(%rax)
  4031cf:	83 45 ec 01          	addl   $0x1,-0x14(%rbp)
  4031d3:	39 5d ec             	cmp    %ebx,-0x14(%rbp)
  4031d6:	7c db                	jl     4031b3 <_ZN15CPU_MATHEMATICS4zeroI10continuousIfS_EEEvRT_i._omp_fn.2+0x4a>
  4031d8:	eb 0a                	jmp    4031e4 <_ZN15CPU_MATHEMATICS4zeroI10continuousIfS_EEEvRT_i._omp_fn.2+0x7b>
  4031da:	b8 00 00 00 00       	mov    $0x0,%eax
  4031df:	83 c1 01             	add    $0x1,%ecx
  4031e2:	eb be                	jmp    4031a2 <_ZN15CPU_MATHEMATICS4zeroI10continuousIfS_EEEvRT_i._omp_fn.2+0x39>
  4031e4:	48 83 c4 20          	add    $0x20,%rsp
  4031e8:	5b                   	pop    %rbx
  4031e9:	41 5c                	pop    %r12
  4031eb:	5d                   	pop    %rbp
  4031ec:	c3                   	retq   

00000000004031ed <_ZN15CPU_MATHEMATICS9randomizeI10continuousIdS_EdEEvT_T0_S4_i._omp_fn.3>:
  4031ed:	55                   	push   %rbp
  4031ee:	48 89 e5             	mov    %rsp,%rbp
  4031f1:	41 54                	push   %r12
  4031f3:	53                   	push   %rbx
  4031f4:	48 83 ec 20          	sub    $0x20,%rsp
  4031f8:	48 89 7d d8          	mov    %rdi,-0x28(%rbp)
  4031fc:	48 8b 45 d8          	mov    -0x28(%rbp),%rax
  403200:	8b 58 18             	mov    0x18(%rax),%ebx
  403203:	e8 d8 ed ff ff       	callq  401fe0 <omp_get_num_threads@plt>
  403208:	41 89 c4             	mov    %eax,%r12d
  40320b:	e8 10 ed ff ff       	callq  401f20 <omp_get_thread_num@plt>
  403210:	89 c6                	mov    %eax,%esi
  403212:	89 d8                	mov    %ebx,%eax
  403214:	99                   	cltd   
  403215:	41 f7 fc             	idiv   %r12d
  403218:	89 c1                	mov    %eax,%ecx
  40321a:	89 d8                	mov    %ebx,%eax
  40321c:	99                   	cltd   
  40321d:	41 f7 fc             	idiv   %r12d
  403220:	89 d0                	mov    %edx,%eax
  403222:	39 c6                	cmp    %eax,%esi
  403224:	7c 7d                	jl     4032a3 <_ZN15CPU_MATHEMATICS9randomizeI10continuousIdS_EdEEvT_T0_S4_i._omp_fn.3+0xb6>
  403226:	0f af f1             	imul   %ecx,%esi
  403229:	89 f2                	mov    %esi,%edx
  40322b:	01 d0                	add    %edx,%eax
  40322d:	8d 1c 08             	lea    (%rax,%rcx,1),%ebx
  403230:	39 d8                	cmp    %ebx,%eax
  403232:	7d 7c                	jge    4032b0 <_ZN15CPU_MATHEMATICS9randomizeI10continuousIdS_EdEEvT_T0_S4_i._omp_fn.3+0xc3>
  403234:	89 45 ec             	mov    %eax,-0x14(%rbp)
  403237:	48 8b 45 d8          	mov    -0x28(%rbp),%rax
  40323b:	48 8b 00             	mov    (%rax),%rax
  40323e:	8b 55 ec             	mov    -0x14(%rbp),%edx
  403241:	89 d6                	mov    %edx,%esi
  403243:	48 89 c7             	mov    %rax,%rdi
  403246:	e8 33 63 00 00       	callq  40957e <_ZN10continuousId15CPU_MATHEMATICSEixEi>
  40324b:	49 89 c4             	mov    %rax,%r12
  40324e:	e8 6d ea ff ff       	callq  401cc0 <rand@plt>
  403253:	66 0f ef c0          	pxor   %xmm0,%xmm0
  403257:	f2 0f 2a c0          	cvtsi2sd %eax,%xmm0
  40325b:	f2 0f 10 0d ad 99 00 	movsd  0x99ad(%rip),%xmm1        # 40cc10 <._93+0x168>
  403262:	00 
  403263:	f2 0f 5e c1          	divsd  %xmm1,%xmm0
  403267:	66 0f 28 c8          	movapd %xmm0,%xmm1
  40326b:	48 8b 45 d8          	mov    -0x28(%rbp),%rax
  40326f:	f2 0f 10 50 08       	movsd  0x8(%rax),%xmm2
  403274:	48 8b 45 d8          	mov    -0x28(%rbp),%rax
  403278:	f2 0f 10 40 10       	movsd  0x10(%rax),%xmm0
  40327d:	f2 0f 5c c2          	subsd  %xmm2,%xmm0
  403281:	f2 0f 59 c1          	mulsd  %xmm1,%xmm0
  403285:	48 8b 45 d8          	mov    -0x28(%rbp),%rax
  403289:	f2 0f 10 48 08       	movsd  0x8(%rax),%xmm1
  40328e:	f2 0f 58 c1          	addsd  %xmm1,%xmm0
  403292:	f2 41 0f 11 04 24    	movsd  %xmm0,(%r12)
  403298:	83 45 ec 01          	addl   $0x1,-0x14(%rbp)
  40329c:	39 5d ec             	cmp    %ebx,-0x14(%rbp)
  40329f:	7c 96                	jl     403237 <_ZN15CPU_MATHEMATICS9randomizeI10continuousIdS_EdEEvT_T0_S4_i._omp_fn.3+0x4a>
  4032a1:	eb 0d                	jmp    4032b0 <_ZN15CPU_MATHEMATICS9randomizeI10continuousIdS_EdEEvT_T0_S4_i._omp_fn.3+0xc3>
  4032a3:	b8 00 00 00 00       	mov    $0x0,%eax
  4032a8:	83 c1 01             	add    $0x1,%ecx
  4032ab:	e9 76 ff ff ff       	jmpq   403226 <_ZN15CPU_MATHEMATICS9randomizeI10continuousIdS_EdEEvT_T0_S4_i._omp_fn.3+0x39>
  4032b0:	48 83 c4 20          	add    $0x20,%rsp
  4032b4:	5b                   	pop    %rbx
  4032b5:	41 5c                	pop    %r12
  4032b7:	5d                   	pop    %rbp
  4032b8:	c3                   	retq   

00000000004032b9 <_ZNSt7__cxx119to_stringEi>:
  4032b9:	55                   	push   %rbp
  4032ba:	48 89 e5             	mov    %rsp,%rbp
  4032bd:	48 83 ec 20          	sub    $0x20,%rsp
  4032c1:	48 89 7d e8          	mov    %rdi,-0x18(%rbp)
  4032c5:	89 75 e4             	mov    %esi,-0x1c(%rbp)
  4032c8:	64 48 8b 04 25 28 00 	mov    %fs:0x28,%rax
  4032cf:	00 00 
  4032d1:	48 89 45 f8          	mov    %rax,-0x8(%rbp)
  4032d5:	31 c0                	xor    %eax,%eax
  4032d7:	be 10 00 00 00       	mov    $0x10,%esi
  4032dc:	48 8b 45 e8          	mov    -0x18(%rbp),%rax
  4032e0:	8b 55 e4             	mov    -0x1c(%rbp),%edx
  4032e3:	41 89 d0             	mov    %edx,%r8d
  4032e6:	b9 89 c6 40 00       	mov    $0x40c689,%ecx
  4032eb:	48 89 f2             	mov    %rsi,%rdx
  4032ee:	be 30 1d 40 00       	mov    $0x401d30,%esi
  4032f3:	48 89 c7             	mov    %rax,%rdi
  4032f6:	b8 00 00 00 00       	mov    $0x0,%eax
  4032fb:	e8 df 00 00 00       	callq  4033df <_ZN9__gnu_cxx12__to_xstringINSt7__cxx1112basic_stringIcSt11char_traitsIcESaIcEEEcEET_PFiPT0_mPKS8_P13__va_list_tagEmSB_z>
  403300:	48 8b 45 e8          	mov    -0x18(%rbp),%rax
  403304:	48 8b 4d f8          	mov    -0x8(%rbp),%rcx
  403308:	64 48 33 0c 25 28 00 	xor    %fs:0x28,%rcx
  40330f:	00 00 
  403311:	74 05                	je     403318 <_ZNSt7__cxx119to_stringEi+0x5f>
  403313:	e8 18 eb ff ff       	callq  401e30 <__stack_chk_fail@plt>
  403318:	c9                   	leaveq 
  403319:	c3                   	retq   

000000000040331a <_ZNSt7__cxx119to_stringEf>:
  40331a:	55                   	push   %rbp
  40331b:	48 89 e5             	mov    %rsp,%rbp
  40331e:	48 83 ec 20          	sub    $0x20,%rsp
  403322:	48 89 7d e8          	mov    %rdi,-0x18(%rbp)
  403326:	f3 0f 11 45 e4       	movss  %xmm0,-0x1c(%rbp)
  40332b:	64 48 8b 04 25 28 00 	mov    %fs:0x28,%rax
  403332:	00 00 
  403334:	48 89 45 f8          	mov    %rax,-0x8(%rbp)
  403338:	31 c0                	xor    %eax,%eax
  40333a:	c7 45 f4 3a 00 00 00 	movl   $0x3a,-0xc(%rbp)
  403341:	f3 0f 5a 45 e4       	cvtss2sd -0x1c(%rbp),%xmm0
  403346:	48 8b 45 e8          	mov    -0x18(%rbp),%rax
  40334a:	b9 8c c6 40 00       	mov    $0x40c68c,%ecx
  40334f:	ba 3a 00 00 00       	mov    $0x3a,%edx
  403354:	be 30 1d 40 00       	mov    $0x401d30,%esi
  403359:	48 89 c7             	mov    %rax,%rdi
  40335c:	b8 01 00 00 00       	mov    $0x1,%eax
  403361:	e8 79 00 00 00       	callq  4033df <_ZN9__gnu_cxx12__to_xstringINSt7__cxx1112basic_stringIcSt11char_traitsIcESaIcEEEcEET_PFiPT0_mPKS8_P13__va_list_tagEmSB_z>
  403366:	48 8b 45 e8          	mov    -0x18(%rbp),%rax
  40336a:	48 8b 55 f8          	mov    -0x8(%rbp),%rdx
  40336e:	64 48 33 14 25 28 00 	xor    %fs:0x28,%rdx
  403375:	00 00 
  403377:	74 05                	je     40337e <_ZNSt7__cxx119to_stringEf+0x64>
  403379:	e8 b2 ea ff ff       	callq  401e30 <__stack_chk_fail@plt>
  40337e:	c9                   	leaveq 
  40337f:	c3                   	retq   

0000000000403380 <_ZN10Tensor_AceD1Ev>:
  403380:	55                   	push   %rbp
  403381:	48 89 e5             	mov    %rsp,%rbp
  403384:	48 83 ec 10          	sub    $0x10,%rsp
  403388:	48 89 7d f8          	mov    %rdi,-0x8(%rbp)
  40338c:	ba 38 da 40 00       	mov    $0x40da38,%edx
  403391:	48 8b 45 f8          	mov    -0x8(%rbp),%rax
  403395:	48 89 10             	mov    %rdx,(%rax)
  403398:	b8 00 00 00 00       	mov    $0x0,%eax
  40339d:	85 c0                	test   %eax,%eax
  40339f:	74 11                	je     4033b2 <_ZN10Tensor_AceD1Ev+0x32>
  4033a1:	48 8b 45 f8          	mov    -0x8(%rbp),%rax
  4033a5:	be 08 00 00 00       	mov    $0x8,%esi
  4033aa:	48 89 c7             	mov    %rax,%rdi
  4033ad:	e8 1e ea ff ff       	callq  401dd0 <_ZdlPvm@plt>
  4033b2:	c9                   	leaveq 
  4033b3:	c3                   	retq   

00000000004033b4 <_ZN10Tensor_AceD0Ev>:
  4033b4:	55                   	push   %rbp
  4033b5:	48 89 e5             	mov    %rsp,%rbp
  4033b8:	48 83 ec 10          	sub    $0x10,%rsp
  4033bc:	48 89 7d f8          	mov    %rdi,-0x8(%rbp)
  4033c0:	48 8b 45 f8          	mov    -0x8(%rbp),%rax
  4033c4:	48 89 c7             	mov    %rax,%rdi
  4033c7:	e8 b4 ff ff ff       	callq  403380 <_ZN10Tensor_AceD1Ev>
  4033cc:	48 8b 45 f8          	mov    -0x8(%rbp),%rax
  4033d0:	be 08 00 00 00       	mov    $0x8,%esi
  4033d5:	48 89 c7             	mov    %rax,%rdi
  4033d8:	e8 f3 e9 ff ff       	callq  401dd0 <_ZdlPvm@plt>
  4033dd:	c9                   	leaveq 
  4033de:	c3                   	retq   

00000000004033df <_ZN9__gnu_cxx12__to_xstringINSt7__cxx1112basic_stringIcSt11char_traitsIcESaIcEEEcEET_PFiPT0_mPKS8_P13__va_list_tagEmSB_z>:
  4033df:	55                   	push   %rbp
  4033e0:	48 89 e5             	mov    %rsp,%rbp
  4033e3:	53                   	push   %rbx
  4033e4:	48 81 ec 08 01 00 00 	sub    $0x108,%rsp
  4033eb:	48 89 bd 08 ff ff ff 	mov    %rdi,-0xf8(%rbp)
  4033f2:	48 89 b5 00 ff ff ff 	mov    %rsi,-0x100(%rbp)
  4033f9:	48 89 95 f8 fe ff ff 	mov    %rdx,-0x108(%rbp)
  403400:	48 89 8d f0 fe ff ff 	mov    %rcx,-0x110(%rbp)
  403407:	4c 89 85 60 ff ff ff 	mov    %r8,-0xa0(%rbp)
  40340e:	4c 89 8d 68 ff ff ff 	mov    %r9,-0x98(%rbp)
  403415:	84 c0                	test   %al,%al
  403417:	74 23                	je     40343c <_ZN9__gnu_cxx12__to_xstringINSt7__cxx1112basic_stringIcSt11char_traitsIcESaIcEEEcEET_PFiPT0_mPKS8_P13__va_list_tagEmSB_z+0x5d>
  403419:	0f 29 85 70 ff ff ff 	movaps %xmm0,-0x90(%rbp)
  403420:	0f 29 4d 80          	movaps %xmm1,-0x80(%rbp)
  403424:	0f 29 55 90          	movaps %xmm2,-0x70(%rbp)
  403428:	0f 29 5d a0          	movaps %xmm3,-0x60(%rbp)
  40342c:	0f 29 65 b0          	movaps %xmm4,-0x50(%rbp)
  403430:	0f 29 6d c0          	movaps %xmm5,-0x40(%rbp)
  403434:	0f 29 75 d0          	movaps %xmm6,-0x30(%rbp)
  403438:	0f 29 7d e0          	movaps %xmm7,-0x20(%rbp)
  40343c:	64 48 8b 04 25 28 00 	mov    %fs:0x28,%rax
  403443:	00 00 
  403445:	48 89 85 38 ff ff ff 	mov    %rax,-0xc8(%rbp)
  40344c:	31 c0                	xor    %eax,%eax
  40344e:	48 8b 85 f8 fe ff ff 	mov    -0x108(%rbp),%rax
  403455:	48 8d 50 0f          	lea    0xf(%rax),%rdx
  403459:	b8 10 00 00 00       	mov    $0x10,%eax
  40345e:	48 83 e8 01          	sub    $0x1,%rax
  403462:	48 01 d0             	add    %rdx,%rax
  403465:	bb 10 00 00 00       	mov    $0x10,%ebx
  40346a:	ba 00 00 00 00       	mov    $0x0,%edx
  40346f:	48 f7 f3             	div    %rbx
  403472:	48 6b c0 10          	imul   $0x10,%rax,%rax
  403476:	48 29 c4             	sub    %rax,%rsp
  403479:	48 89 e0             	mov    %rsp,%rax
  40347c:	48 83 c0 0f          	add    $0xf,%rax
  403480:	48 c1 e8 04          	shr    $0x4,%rax
  403484:	48 c1 e0 04          	shl    $0x4,%rax
  403488:	48 89 85 18 ff ff ff 	mov    %rax,-0xe8(%rbp)
  40348f:	c7 85 20 ff ff ff 20 	movl   $0x20,-0xe0(%rbp)
  403496:	00 00 00 
  403499:	c7 85 24 ff ff ff 30 	movl   $0x30,-0xdc(%rbp)
  4034a0:	00 00 00 
  4034a3:	48 8d 45 10          	lea    0x10(%rbp),%rax
  4034a7:	48 89 85 28 ff ff ff 	mov    %rax,-0xd8(%rbp)
  4034ae:	48 8d 85 40 ff ff ff 	lea    -0xc0(%rbp),%rax
  4034b5:	48 89 85 30 ff ff ff 	mov    %rax,-0xd0(%rbp)
  4034bc:	48 8d 8d 20 ff ff ff 	lea    -0xe0(%rbp),%rcx
  4034c3:	48 8b 95 f0 fe ff ff 	mov    -0x110(%rbp),%rdx
  4034ca:	48 8b b5 f8 fe ff ff 	mov    -0x108(%rbp),%rsi
  4034d1:	48 8b bd 18 ff ff ff 	mov    -0xe8(%rbp),%rdi
  4034d8:	48 8b 85 00 ff ff ff 	mov    -0x100(%rbp),%rax
  4034df:	ff d0                	callq  *%rax
  4034e1:	89 85 14 ff ff ff    	mov    %eax,-0xec(%rbp)
  4034e7:	48 8d 85 13 ff ff ff 	lea    -0xed(%rbp),%rax
  4034ee:	48 89 c7             	mov    %rax,%rdi
  4034f1:	e8 aa ea ff ff       	callq  401fa0 <_ZNSaIcEC1Ev@plt>
  4034f6:	8b 85 14 ff ff ff    	mov    -0xec(%rbp),%eax
  4034fc:	48 63 d0             	movslq %eax,%rdx
  4034ff:	48 8b 85 18 ff ff ff 	mov    -0xe8(%rbp),%rax
  403506:	48 8d 3c 02          	lea    (%rdx,%rax,1),%rdi
  40350a:	48 8d 95 13 ff ff ff 	lea    -0xed(%rbp),%rdx
  403511:	48 8b b5 18 ff ff ff 	mov    -0xe8(%rbp),%rsi
  403518:	48 8b 85 08 ff ff ff 	mov    -0xf8(%rbp),%rax
  40351f:	48 89 d1             	mov    %rdx,%rcx
  403522:	48 89 fa             	mov    %rdi,%rdx
  403525:	48 89 c7             	mov    %rax,%rdi
  403528:	e8 07 1e 00 00       	callq  405334 <_ZNSt7__cxx1112basic_stringIcSt11char_traitsIcESaIcEEC1IPcvEET_S7_RKS3_>
  40352d:	48 8d 85 13 ff ff ff 	lea    -0xed(%rbp),%rax
  403534:	48 89 c7             	mov    %rax,%rdi
  403537:	e8 d4 e8 ff ff       	callq  401e10 <_ZNSaIcED1Ev@plt>
  40353c:	48 8b 85 08 ff ff ff 	mov    -0xf8(%rbp),%rax
  403543:	48 8b 9d 38 ff ff ff 	mov    -0xc8(%rbp),%rbx
  40354a:	64 48 33 1c 25 28 00 	xor    %fs:0x28,%rbx
  403551:	00 00 
  403553:	74 24                	je     403579 <_ZN9__gnu_cxx12__to_xstringINSt7__cxx1112basic_stringIcSt11char_traitsIcESaIcEEEcEET_PFiPT0_mPKS8_P13__va_list_tagEmSB_z+0x19a>
  403555:	eb 1d                	jmp    403574 <_ZN9__gnu_cxx12__to_xstringINSt7__cxx1112basic_stringIcSt11char_traitsIcESaIcEEEcEET_PFiPT0_mPKS8_P13__va_list_tagEmSB_z+0x195>
  403557:	48 89 c3             	mov    %rax,%rbx
  40355a:	48 8d 85 13 ff ff ff 	lea    -0xed(%rbp),%rax
  403561:	48 89 c7             	mov    %rax,%rdi
  403564:	e8 a7 e8 ff ff       	callq  401e10 <_ZNSaIcED1Ev@plt>
  403569:	48 89 d8             	mov    %rbx,%rax
  40356c:	48 89 c7             	mov    %rax,%rdi
  40356f:	e8 1c ea ff ff       	callq  401f90 <_Unwind_Resume@plt>
  403574:	e8 b7 e8 ff ff       	callq  401e30 <__stack_chk_fail@plt>
  403579:	48 8b 5d f8          	mov    -0x8(%rbp),%rbx
  40357d:	c9                   	leaveq 
  40357e:	c3                   	retq   
  40357f:	90                   	nop

0000000000403580 <_ZNSt7__cxx1112basic_stringIcSt11char_traitsIcESaIcEE12_Alloc_hiderD1Ev>:
  403580:	55                   	push   %rbp
  403581:	48 89 e5             	mov    %rsp,%rbp
  403584:	48 83 ec 10          	sub    $0x10,%rsp
  403588:	48 89 7d f8          	mov    %rdi,-0x8(%rbp)
  40358c:	48 8b 45 f8          	mov    -0x8(%rbp),%rax
  403590:	48 89 c7             	mov    %rax,%rdi
  403593:	e8 18 e7 ff ff       	callq  401cb0 <_ZNSaIcED2Ev@plt>
  403598:	90                   	nop
  403599:	c9                   	leaveq 
  40359a:	c3                   	retq   
  40359b:	90                   	nop

000000000040359c <_ZN12Tensor_QueenIf15CPU_MATHEMATICS10continuousIfS0_EEC1ESt16initializer_listIiE>:
  40359c:	55                   	push   %rbp
  40359d:	48 89 e5             	mov    %rsp,%rbp
  4035a0:	48 83 ec 20          	sub    $0x20,%rsp
  4035a4:	48 89 7d f8          	mov    %rdi,-0x8(%rbp)
  4035a8:	48 89 f0             	mov    %rsi,%rax
  4035ab:	48 89 d1             	mov    %rdx,%rcx
  4035ae:	48 89 ca             	mov    %rcx,%rdx
  4035b1:	48 89 45 e0          	mov    %rax,-0x20(%rbp)
  4035b5:	48 89 55 e8          	mov    %rdx,-0x18(%rbp)
  4035b9:	48 8b 45 f8          	mov    -0x8(%rbp),%rax
  4035bd:	48 8b 55 e0          	mov    -0x20(%rbp),%rdx
  4035c1:	48 8b 75 e8          	mov    -0x18(%rbp),%rsi
  4035c5:	48 89 d1             	mov    %rdx,%rcx
  4035c8:	49 89 f0             	mov    %rsi,%r8
  4035cb:	ba 01 00 00 00       	mov    $0x1,%edx
  4035d0:	be 01 00 00 00       	mov    $0x1,%esi
  4035d5:	48 89 c7             	mov    %rax,%rdi
  4035d8:	e8 e5 1d 00 00       	callq  4053c2 <_ZN11Tensor_KingIf15CPU_MATHEMATICS10continuousIfS0_EEC1IISt16initializer_listIiEEEEbbDpT_>
  4035dd:	ba d8 d8 40 00       	mov    $0x40d8d8,%edx
  4035e2:	48 8b 45 f8          	mov    -0x8(%rbp),%rax
  4035e6:	48 89 10             	mov    %rdx,(%rax)
  4035e9:	90                   	nop
  4035ea:	c9                   	leaveq 
  4035eb:	c3                   	retq   

00000000004035ec <_ZN10Tensor_AceC1ERKS_>:
  4035ec:	55                   	push   %rbp
  4035ed:	48 89 e5             	mov    %rsp,%rbp
  4035f0:	48 89 7d f8          	mov    %rdi,-0x8(%rbp)
  4035f4:	48 89 75 f0          	mov    %rsi,-0x10(%rbp)
  4035f8:	ba 38 da 40 00       	mov    $0x40da38,%edx
  4035fd:	48 8b 45 f8          	mov    -0x8(%rbp),%rax
  403601:	48 89 10             	mov    %rdx,(%rax)
  403604:	90                   	nop
  403605:	5d                   	pop    %rbp
  403606:	c3                   	retq   
  403607:	90                   	nop

0000000000403608 <_ZN12accessor_aceIf15CPU_MATHEMATICSEC1ERKS1_>:
  403608:	55                   	push   %rbp
  403609:	48 89 e5             	mov    %rsp,%rbp
  40360c:	48 83 ec 10          	sub    $0x10,%rsp
  403610:	48 89 7d f8          	mov    %rdi,-0x8(%rbp)
  403614:	48 89 75 f0          	mov    %rsi,-0x10(%rbp)
  403618:	48 8b 55 f0          	mov    -0x10(%rbp),%rdx
  40361c:	48 8b 45 f8          	mov    -0x8(%rbp),%rax
  403620:	48 89 d6             	mov    %rdx,%rsi
  403623:	48 89 c7             	mov    %rax,%rdi
  403626:	e8 c1 ff ff ff       	callq  4035ec <_ZN10Tensor_AceC1ERKS_>
  40362b:	ba c8 d9 40 00       	mov    $0x40d9c8,%edx
  403630:	48 8b 45 f8          	mov    -0x8(%rbp),%rax
  403634:	48 89 10             	mov    %rdx,(%rax)
  403637:	90                   	nop
  403638:	c9                   	leaveq 
  403639:	c3                   	retq   

000000000040363a <_ZN12accessor_aceIf15CPU_MATHEMATICSED1Ev>:
  40363a:	55                   	push   %rbp
  40363b:	48 89 e5             	mov    %rsp,%rbp
  40363e:	48 83 ec 10          	sub    $0x10,%rsp
  403642:	48 89 7d f8          	mov    %rdi,-0x8(%rbp)
  403646:	ba c8 d9 40 00       	mov    $0x40d9c8,%edx
  40364b:	48 8b 45 f8          	mov    -0x8(%rbp),%rax
  40364f:	48 89 10             	mov    %rdx,(%rax)
  403652:	48 8b 45 f8          	mov    -0x8(%rbp),%rax
  403656:	48 89 c7             	mov    %rax,%rdi
  403659:	e8 22 fd ff ff       	callq  403380 <_ZN10Tensor_AceD1Ev>
  40365e:	b8 00 00 00 00       	mov    $0x0,%eax
  403663:	85 c0                	test   %eax,%eax
  403665:	74 11                	je     403678 <_ZN12accessor_aceIf15CPU_MATHEMATICSED1Ev+0x3e>
  403667:	48 8b 45 f8          	mov    -0x8(%rbp),%rax
  40366b:	be 08 00 00 00       	mov    $0x8,%esi
  403670:	48 89 c7             	mov    %rax,%rdi
  403673:	e8 58 e7 ff ff       	callq  401dd0 <_ZdlPvm@plt>
  403678:	c9                   	leaveq 
  403679:	c3                   	retq   

000000000040367a <_ZN12accessor_aceIf15CPU_MATHEMATICSED0Ev>:
  40367a:	55                   	push   %rbp
  40367b:	48 89 e5             	mov    %rsp,%rbp
  40367e:	48 83 ec 10          	sub    $0x10,%rsp
  403682:	48 89 7d f8          	mov    %rdi,-0x8(%rbp)
  403686:	48 8b 45 f8          	mov    -0x8(%rbp),%rax
  40368a:	48 89 c7             	mov    %rax,%rdi
  40368d:	e8 a8 ff ff ff       	callq  40363a <_ZN12accessor_aceIf15CPU_MATHEMATICSED1Ev>
  403692:	48 8b 45 f8          	mov    -0x8(%rbp),%rax
  403696:	be 08 00 00 00       	mov    $0x8,%esi
  40369b:	48 89 c7             	mov    %rax,%rdi
  40369e:	e8 2d e7 ff ff       	callq  401dd0 <_ZdlPvm@plt>
  4036a3:	c9                   	leaveq 
  4036a4:	c3                   	retq   
  4036a5:	90                   	nop

00000000004036a6 <_ZN10continuousIf15CPU_MATHEMATICSEC1ERKS1_>:
  4036a6:	55                   	push   %rbp
  4036a7:	48 89 e5             	mov    %rsp,%rbp
  4036aa:	48 83 ec 10          	sub    $0x10,%rsp
  4036ae:	48 89 7d f8          	mov    %rdi,-0x8(%rbp)
  4036b2:	48 89 75 f0          	mov    %rsi,-0x10(%rbp)
  4036b6:	48 8b 55 f0          	mov    -0x10(%rbp),%rdx
  4036ba:	48 8b 45 f8          	mov    -0x8(%rbp),%rax
  4036be:	48 89 d6             	mov    %rdx,%rsi
  4036c1:	48 89 c7             	mov    %rax,%rdi
  4036c4:	e8 3f ff ff ff       	callq  403608 <_ZN12accessor_aceIf15CPU_MATHEMATICSEC1ERKS1_>
  4036c9:	ba 58 d9 40 00       	mov    $0x40d958,%edx
  4036ce:	48 8b 45 f8          	mov    -0x8(%rbp),%rax
  4036d2:	48 89 10             	mov    %rdx,(%rax)
  4036d5:	48 8b 45 f0          	mov    -0x10(%rbp),%rax
  4036d9:	48 8b 50 08          	mov    0x8(%rax),%rdx
  4036dd:	48 8b 45 f8          	mov    -0x8(%rbp),%rax
  4036e1:	48 89 50 08          	mov    %rdx,0x8(%rax)
  4036e5:	48 8b 45 f0          	mov    -0x10(%rbp),%rax
  4036e9:	48 8b 50 10          	mov    0x10(%rax),%rdx
  4036ed:	48 8b 45 f8          	mov    -0x8(%rbp),%rax
  4036f1:	48 89 50 10          	mov    %rdx,0x10(%rax)
  4036f5:	48 8b 45 f0          	mov    -0x10(%rbp),%rax
  4036f9:	8b 50 18             	mov    0x18(%rax),%edx
  4036fc:	48 8b 45 f8          	mov    -0x8(%rbp),%rax
  403700:	89 50 18             	mov    %edx,0x18(%rax)
  403703:	90                   	nop
  403704:	c9                   	leaveq 
  403705:	c3                   	retq   

0000000000403706 <_ZN10continuousIf15CPU_MATHEMATICSED1Ev>:
  403706:	55                   	push   %rbp
  403707:	48 89 e5             	mov    %rsp,%rbp
  40370a:	48 83 ec 10          	sub    $0x10,%rsp
  40370e:	48 89 7d f8          	mov    %rdi,-0x8(%rbp)
  403712:	ba 58 d9 40 00       	mov    $0x40d958,%edx
  403717:	48 8b 45 f8          	mov    -0x8(%rbp),%rax
  40371b:	48 89 10             	mov    %rdx,(%rax)
  40371e:	48 8b 45 f8          	mov    -0x8(%rbp),%rax
  403722:	48 89 c7             	mov    %rax,%rdi
  403725:	e8 10 ff ff ff       	callq  40363a <_ZN12accessor_aceIf15CPU_MATHEMATICSED1Ev>
  40372a:	b8 00 00 00 00       	mov    $0x0,%eax
  40372f:	85 c0                	test   %eax,%eax
  403731:	74 11                	je     403744 <_ZN10continuousIf15CPU_MATHEMATICSED1Ev+0x3e>
  403733:	48 8b 45 f8          	mov    -0x8(%rbp),%rax
  403737:	be 20 00 00 00       	mov    $0x20,%esi
  40373c:	48 89 c7             	mov    %rax,%rdi
  40373f:	e8 8c e6 ff ff       	callq  401dd0 <_ZdlPvm@plt>
  403744:	c9                   	leaveq 
  403745:	c3                   	retq   

0000000000403746 <_ZN10continuousIf15CPU_MATHEMATICSED0Ev>:
  403746:	55                   	push   %rbp
  403747:	48 89 e5             	mov    %rsp,%rbp
  40374a:	48 83 ec 10          	sub    $0x10,%rsp
  40374e:	48 89 7d f8          	mov    %rdi,-0x8(%rbp)
  403752:	48 8b 45 f8          	mov    -0x8(%rbp),%rax
  403756:	48 89 c7             	mov    %rax,%rdi
  403759:	e8 a8 ff ff ff       	callq  403706 <_ZN10continuousIf15CPU_MATHEMATICSED1Ev>
  40375e:	48 8b 45 f8          	mov    -0x8(%rbp),%rax
  403762:	be 20 00 00 00       	mov    $0x20,%esi
  403767:	48 89 c7             	mov    %rax,%rdi
  40376a:	e8 61 e6 ff ff       	callq  401dd0 <_ZdlPvm@plt>
  40376f:	c9                   	leaveq 
  403770:	c3                   	retq   
  403771:	90                   	nop

0000000000403772 <_ZN12Tensor_QueenIf15CPU_MATHEMATICS10continuousIfS0_EE9randomizeEff>:
  403772:	55                   	push   %rbp
  403773:	48 89 e5             	mov    %rsp,%rbp
  403776:	53                   	push   %rbx
  403777:	48 83 ec 58          	sub    $0x58,%rsp
  40377b:	48 89 7d b8          	mov    %rdi,-0x48(%rbp)
  40377f:	f3 0f 11 45 b4       	movss  %xmm0,-0x4c(%rbp)
  403784:	f3 0f 11 4d b0       	movss  %xmm1,-0x50(%rbp)
  403789:	64 48 8b 04 25 28 00 	mov    %fs:0x28,%rax
  403790:	00 00 
  403792:	48 89 45 e8          	mov    %rax,-0x18(%rbp)
  403796:	31 c0                	xor    %eax,%eax
  403798:	48 8b 45 b8          	mov    -0x48(%rbp),%rax
  40379c:	48 89 c7             	mov    %rax,%rdi
  40379f:	e8 8e 10 00 00       	callq  404832 <_ZNK11Tensor_KingIf15CPU_MATHEMATICS10continuousIfS0_EE4sizeEv>
  4037a4:	89 c3                	mov    %eax,%ebx
  4037a6:	48 8b 45 b8          	mov    -0x48(%rbp),%rax
  4037aa:	48 8d 50 08          	lea    0x8(%rax),%rdx
  4037ae:	48 8d 45 c0          	lea    -0x40(%rbp),%rax
  4037b2:	48 89 d6             	mov    %rdx,%rsi
  4037b5:	48 89 c7             	mov    %rax,%rdi
  4037b8:	e8 e9 fe ff ff       	callq  4036a6 <_ZN10continuousIf15CPU_MATHEMATICSEC1ERKS1_>
  4037bd:	f3 0f 10 45 b0       	movss  -0x50(%rbp),%xmm0
  4037c2:	8b 55 b4             	mov    -0x4c(%rbp),%edx
  4037c5:	48 8d 45 c0          	lea    -0x40(%rbp),%rax
  4037c9:	89 de                	mov    %ebx,%esi
  4037cb:	0f 28 c8             	movaps %xmm0,%xmm1
  4037ce:	89 55 ac             	mov    %edx,-0x54(%rbp)
  4037d1:	f3 0f 10 45 ac       	movss  -0x54(%rbp),%xmm0
  4037d6:	48 89 c7             	mov    %rax,%rdi
  4037d9:	e8 41 1d 00 00       	callq  40551f <_ZN15CPU_MATHEMATICS9randomizeI10continuousIfS_EfEEvT_T0_S4_i>
  4037de:	48 8d 45 c0          	lea    -0x40(%rbp),%rax
  4037e2:	48 89 c7             	mov    %rax,%rdi
  4037e5:	e8 1c ff ff ff       	callq  403706 <_ZN10continuousIf15CPU_MATHEMATICSED1Ev>
  4037ea:	90                   	nop
  4037eb:	48 8b 45 e8          	mov    -0x18(%rbp),%rax
  4037ef:	64 48 33 04 25 28 00 	xor    %fs:0x28,%rax
  4037f6:	00 00 
  4037f8:	74 05                	je     4037ff <_ZN12Tensor_QueenIf15CPU_MATHEMATICS10continuousIfS0_EE9randomizeEff+0x8d>
  4037fa:	e8 31 e6 ff ff       	callq  401e30 <__stack_chk_fail@plt>
  4037ff:	48 83 c4 58          	add    $0x58,%rsp
  403803:	5b                   	pop    %rbx
  403804:	5d                   	pop    %rbp
  403805:	c3                   	retq   

0000000000403806 <_ZNK12Tensor_QueenIf15CPU_MATHEMATICS10continuousIfS0_EE5printEv>:
  403806:	55                   	push   %rbp
  403807:	48 89 e5             	mov    %rsp,%rbp
  40380a:	41 56                	push   %r14
  40380c:	41 55                	push   %r13
  40380e:	41 54                	push   %r12
  403810:	53                   	push   %rbx
  403811:	48 83 ec 60          	sub    $0x60,%rsp
  403815:	48 89 7d 88          	mov    %rdi,-0x78(%rbp)
  403819:	64 48 8b 04 25 28 00 	mov    %fs:0x28,%rax
  403820:	00 00 
  403822:	48 89 45 d8          	mov    %rax,-0x28(%rbp)
  403826:	31 c0                	xor    %eax,%eax
  403828:	48 8b 45 88          	mov    -0x78(%rbp),%rax
  40382c:	48 83 c0 08          	add    $0x8,%rax
  403830:	48 89 c7             	mov    %rax,%rdi
  403833:	e8 82 1d 00 00       	callq  4055ba <_ZNK10continuousIf15CPU_MATHEMATICSE8hasShapeEv>
  403838:	bb 00 00 00 00       	mov    $0x0,%ebx
  40383d:	41 bc 00 00 00 00    	mov    $0x0,%r12d
  403843:	84 c0                	test   %al,%al
  403845:	74 57                	je     40389e <_ZNK12Tensor_QueenIf15CPU_MATHEMATICS10continuousIfS0_EE5printEv+0x98>
  403847:	48 8b 45 88          	mov    -0x78(%rbp),%rax
  40384b:	48 89 c7             	mov    %rax,%rdi
  40384e:	e8 89 1d 00 00       	callq  4055dc <_ZNK11Tensor_KingIf15CPU_MATHEMATICS10continuousIfS0_EE5orderEv>
  403853:	41 89 c6             	mov    %eax,%r14d
  403856:	48 8b 45 88          	mov    -0x78(%rbp),%rax
  40385a:	48 83 c0 08          	add    $0x8,%rax
  40385e:	48 89 c7             	mov    %rax,%rdi
  403861:	e8 64 1d 00 00       	callq  4055ca <_ZNK10continuousIf15CPU_MATHEMATICSE8getShapeEv>
  403866:	49 89 c5             	mov    %rax,%r13
  403869:	48 8b 45 88          	mov    -0x78(%rbp),%rax
  40386d:	48 8d 50 08          	lea    0x8(%rax),%rdx
  403871:	48 8d 45 90          	lea    -0x70(%rbp),%rax
  403875:	48 89 d6             	mov    %rdx,%rsi
  403878:	48 89 c7             	mov    %rax,%rdi
  40387b:	e8 26 fe ff ff       	callq  4036a6 <_ZN10continuousIf15CPU_MATHEMATICSEC1ERKS1_>
  403880:	bb 01 00 00 00       	mov    $0x1,%ebx
  403885:	48 8d 45 90          	lea    -0x70(%rbp),%rax
  403889:	b9 05 00 00 00       	mov    $0x5,%ecx
  40388e:	44 89 f2             	mov    %r14d,%edx
  403891:	4c 89 ee             	mov    %r13,%rsi
  403894:	48 89 c7             	mov    %rax,%rdi
  403897:	e8 5e 1d 00 00       	callq  4055fa <_ZN15CPU_MATHEMATICS5printI10continuousIfS_EEEvT_PKiii>
  40389c:	eb 40                	jmp    4038de <_ZNK12Tensor_QueenIf15CPU_MATHEMATICS10continuousIfS0_EE5printEv+0xd8>
  40389e:	48 8b 45 88          	mov    -0x78(%rbp),%rax
  4038a2:	48 89 c7             	mov    %rax,%rdi
  4038a5:	e8 88 0f 00 00       	callq  404832 <_ZNK11Tensor_KingIf15CPU_MATHEMATICS10continuousIfS0_EE4sizeEv>
  4038aa:	41 89 c5             	mov    %eax,%r13d
  4038ad:	48 8b 45 88          	mov    -0x78(%rbp),%rax
  4038b1:	48 8d 50 08          	lea    0x8(%rax),%rdx
  4038b5:	48 8d 45 b0          	lea    -0x50(%rbp),%rax
  4038b9:	48 89 d6             	mov    %rdx,%rsi
  4038bc:	48 89 c7             	mov    %rax,%rdi
  4038bf:	e8 e2 fd ff ff       	callq  4036a6 <_ZN10continuousIf15CPU_MATHEMATICSEC1ERKS1_>
  4038c4:	41 bc 01 00 00 00    	mov    $0x1,%r12d
  4038ca:	48 8d 45 b0          	lea    -0x50(%rbp),%rax
  4038ce:	ba 05 00 00 00       	mov    $0x5,%edx
  4038d3:	44 89 ee             	mov    %r13d,%esi
  4038d6:	48 89 c7             	mov    %rax,%rdi
  4038d9:	e8 72 1e 00 00       	callq  405750 <_ZN15CPU_MATHEMATICS5printI10continuousIfS_EEEvT_ii>
  4038de:	45 84 e4             	test   %r12b,%r12b
  4038e1:	74 0c                	je     4038ef <_ZNK12Tensor_QueenIf15CPU_MATHEMATICS10continuousIfS0_EE5printEv+0xe9>
  4038e3:	48 8d 45 b0          	lea    -0x50(%rbp),%rax
  4038e7:	48 89 c7             	mov    %rax,%rdi
  4038ea:	e8 17 fe ff ff       	callq  403706 <_ZN10continuousIf15CPU_MATHEMATICSED1Ev>
  4038ef:	84 db                	test   %bl,%bl
  4038f1:	74 0f                	je     403902 <_ZNK12Tensor_QueenIf15CPU_MATHEMATICS10continuousIfS0_EE5printEv+0xfc>
  4038f3:	90                   	nop
  4038f4:	48 8d 45 90          	lea    -0x70(%rbp),%rax
  4038f8:	48 89 c7             	mov    %rax,%rdi
  4038fb:	e8 06 fe ff ff       	callq  403706 <_ZN10continuousIf15CPU_MATHEMATICSED1Ev>
  403900:	eb 39                	jmp    40393b <_ZNK12Tensor_QueenIf15CPU_MATHEMATICS10continuousIfS0_EE5printEv+0x135>
  403902:	90                   	nop
  403903:	eb 36                	jmp    40393b <_ZNK12Tensor_QueenIf15CPU_MATHEMATICS10continuousIfS0_EE5printEv+0x135>
  403905:	49 89 c5             	mov    %rax,%r13
  403908:	45 84 e4             	test   %r12b,%r12b
  40390b:	74 0c                	je     403919 <_ZNK12Tensor_QueenIf15CPU_MATHEMATICS10continuousIfS0_EE5printEv+0x113>
  40390d:	48 8d 45 b0          	lea    -0x50(%rbp),%rax
  403911:	48 89 c7             	mov    %rax,%rdi
  403914:	e8 ed fd ff ff       	callq  403706 <_ZN10continuousIf15CPU_MATHEMATICSED1Ev>
  403919:	4d 89 ec             	mov    %r13,%r12
  40391c:	84 db                	test   %bl,%bl
  40391e:	74 0f                	je     40392f <_ZNK12Tensor_QueenIf15CPU_MATHEMATICS10continuousIfS0_EE5printEv+0x129>
  403920:	90                   	nop
  403921:	48 8d 45 90          	lea    -0x70(%rbp),%rax
  403925:	48 89 c7             	mov    %rax,%rdi
  403928:	e8 d9 fd ff ff       	callq  403706 <_ZN10continuousIf15CPU_MATHEMATICSED1Ev>
  40392d:	eb 01                	jmp    403930 <_ZNK12Tensor_QueenIf15CPU_MATHEMATICS10continuousIfS0_EE5printEv+0x12a>
  40392f:	90                   	nop
  403930:	4c 89 e0             	mov    %r12,%rax
  403933:	48 89 c7             	mov    %rax,%rdi
  403936:	e8 55 e6 ff ff       	callq  401f90 <_Unwind_Resume@plt>
  40393b:	48 8b 45 d8          	mov    -0x28(%rbp),%rax
  40393f:	64 48 33 04 25 28 00 	xor    %fs:0x28,%rax
  403946:	00 00 
  403948:	74 05                	je     40394f <_ZNK12Tensor_QueenIf15CPU_MATHEMATICS10continuousIfS0_EE5printEv+0x149>
  40394a:	e8 e1 e4 ff ff       	callq  401e30 <__stack_chk_fail@plt>
  40394f:	48 83 c4 60          	add    $0x60,%rsp
  403953:	5b                   	pop    %rbx
  403954:	41 5c                	pop    %r12
  403956:	41 5d                	pop    %r13
  403958:	41 5e                	pop    %r14
  40395a:	5d                   	pop    %rbp
  40395b:	c3                   	retq   

000000000040395c <_ZN7pBufferIf15CPU_MATHEMATICS10continuousIfS0_ES2_N9Operation3mulIfEEEC1ERKS6_>:
  40395c:	55                   	push   %rbp
  40395d:	48 89 e5             	mov    %rsp,%rbp
  403960:	48 83 ec 10          	sub    $0x10,%rsp
  403964:	48 89 7d f8          	mov    %rdi,-0x8(%rbp)
  403968:	48 89 75 f0          	mov    %rsi,-0x10(%rbp)
  40396c:	48 8b 55 f0          	mov    -0x10(%rbp),%rdx
  403970:	48 8b 45 f8          	mov    -0x8(%rbp),%rax
  403974:	48 89 d6             	mov    %rdx,%rsi
  403977:	48 89 c7             	mov    %rax,%rdi
  40397a:	e8 89 fc ff ff       	callq  403608 <_ZN12accessor_aceIf15CPU_MATHEMATICSEC1ERKS1_>
  40397f:	ba 68 d8 40 00       	mov    $0x40d868,%edx
  403984:	48 8b 45 f8          	mov    -0x8(%rbp),%rax
  403988:	48 89 10             	mov    %rdx,(%rax)
  40398b:	48 8b 45 f0          	mov    -0x10(%rbp),%rax
  40398f:	48 8d 50 10          	lea    0x10(%rax),%rdx
  403993:	48 8b 45 f8          	mov    -0x8(%rbp),%rax
  403997:	48 83 c0 10          	add    $0x10,%rax
  40399b:	48 89 d6             	mov    %rdx,%rsi
  40399e:	48 89 c7             	mov    %rax,%rdi
  4039a1:	e8 00 fd ff ff       	callq  4036a6 <_ZN10continuousIf15CPU_MATHEMATICSEC1ERKS1_>
  4039a6:	48 8b 45 f0          	mov    -0x10(%rbp),%rax
  4039aa:	48 8d 50 30          	lea    0x30(%rax),%rdx
  4039ae:	48 8b 45 f8          	mov    -0x8(%rbp),%rax
  4039b2:	48 83 c0 30          	add    $0x30,%rax
  4039b6:	48 89 d6             	mov    %rdx,%rsi
  4039b9:	48 89 c7             	mov    %rax,%rdi
  4039bc:	e8 e5 fc ff ff       	callq  4036a6 <_ZN10continuousIf15CPU_MATHEMATICSEC1ERKS1_>
  4039c1:	90                   	nop
  4039c2:	c9                   	leaveq 
  4039c3:	c3                   	retq   

00000000004039c4 <_ZN7pBufferIf15CPU_MATHEMATICS10continuousIfS0_ES2_N9Operation3mulIfEEED1Ev>:
  4039c4:	55                   	push   %rbp
  4039c5:	48 89 e5             	mov    %rsp,%rbp
  4039c8:	48 83 ec 10          	sub    $0x10,%rsp
  4039cc:	48 89 7d f8          	mov    %rdi,-0x8(%rbp)
  4039d0:	ba 68 d8 40 00       	mov    $0x40d868,%edx
  4039d5:	48 8b 45 f8          	mov    -0x8(%rbp),%rax
  4039d9:	48 89 10             	mov    %rdx,(%rax)
  4039dc:	48 8b 45 f8          	mov    -0x8(%rbp),%rax
  4039e0:	48 83 c0 30          	add    $0x30,%rax
  4039e4:	48 89 c7             	mov    %rax,%rdi
  4039e7:	e8 1a fd ff ff       	callq  403706 <_ZN10continuousIf15CPU_MATHEMATICSED1Ev>
  4039ec:	48 8b 45 f8          	mov    -0x8(%rbp),%rax
  4039f0:	48 83 c0 10          	add    $0x10,%rax
  4039f4:	48 89 c7             	mov    %rax,%rdi
  4039f7:	e8 0a fd ff ff       	callq  403706 <_ZN10continuousIf15CPU_MATHEMATICSED1Ev>
  4039fc:	48 8b 45 f8          	mov    -0x8(%rbp),%rax
  403a00:	48 89 c7             	mov    %rax,%rdi
  403a03:	e8 32 fc ff ff       	callq  40363a <_ZN12accessor_aceIf15CPU_MATHEMATICSED1Ev>
  403a08:	b8 00 00 00 00       	mov    $0x0,%eax
  403a0d:	85 c0                	test   %eax,%eax
  403a0f:	74 11                	je     403a22 <_ZN7pBufferIf15CPU_MATHEMATICS10continuousIfS0_ES2_N9Operation3mulIfEEED1Ev+0x5e>
  403a11:	48 8b 45 f8          	mov    -0x8(%rbp),%rax
  403a15:	be 50 00 00 00       	mov    $0x50,%esi
  403a1a:	48 89 c7             	mov    %rax,%rdi
  403a1d:	e8 ae e3 ff ff       	callq  401dd0 <_ZdlPvm@plt>
  403a22:	c9                   	leaveq 
  403a23:	c3                   	retq   

0000000000403a24 <_ZN7pBufferIf15CPU_MATHEMATICS10continuousIfS0_ES2_N9Operation3mulIfEEED0Ev>:
  403a24:	55                   	push   %rbp
  403a25:	48 89 e5             	mov    %rsp,%rbp
  403a28:	48 83 ec 10          	sub    $0x10,%rsp
  403a2c:	48 89 7d f8          	mov    %rdi,-0x8(%rbp)
  403a30:	48 8b 45 f8          	mov    -0x8(%rbp),%rax
  403a34:	48 89 c7             	mov    %rax,%rdi
  403a37:	e8 88 ff ff ff       	callq  4039c4 <_ZN7pBufferIf15CPU_MATHEMATICS10continuousIfS0_ES2_N9Operation3mulIfEEED1Ev>
  403a3c:	48 8b 45 f8          	mov    -0x8(%rbp),%rax
  403a40:	be 50 00 00 00       	mov    $0x50,%esi
  403a45:	48 89 c7             	mov    %rax,%rdi
  403a48:	e8 83 e3 ff ff       	callq  401dd0 <_ZdlPvm@plt>
  403a4d:	c9                   	leaveq 
  403a4e:	c3                   	retq   
  403a4f:	90                   	nop

0000000000403a50 <_ZN12Tensor_QueenIf15CPU_MATHEMATICS10continuousIfS0_EErmIfS2_EES_IfS0_7pBufferIfS0_S2_T0_N9Operation3mulIfEEEERKS_IT_S0_S6_E>:
  403a50:	55                   	push   %rbp
  403a51:	48 89 e5             	mov    %rsp,%rbp
  403a54:	53                   	push   %rbx
  403a55:	48 83 ec 78          	sub    $0x78,%rsp
  403a59:	48 89 7d 98          	mov    %rdi,-0x68(%rbp)
  403a5d:	48 89 75 90          	mov    %rsi,-0x70(%rbp)
  403a61:	48 89 55 88          	mov    %rdx,-0x78(%rbp)
  403a65:	64 48 8b 04 25 28 00 	mov    %fs:0x28,%rax
  403a6c:	00 00 
  403a6e:	48 89 45 e8          	mov    %rax,-0x18(%rbp)
  403a72:	31 c0                	xor    %eax,%eax
  403a74:	48 8b 45 88          	mov    -0x78(%rbp),%rax
  403a78:	48 8d 50 08          	lea    0x8(%rax),%rdx
  403a7c:	48 8d 45 c0          	lea    -0x40(%rbp),%rax
  403a80:	48 89 d6             	mov    %rdx,%rsi
  403a83:	48 89 c7             	mov    %rax,%rdi
  403a86:	e8 1b fc ff ff       	callq  4036a6 <_ZN10continuousIf15CPU_MATHEMATICSEC1ERKS1_>
  403a8b:	48 8b 45 90          	mov    -0x70(%rbp),%rax
  403a8f:	48 8d 50 08          	lea    0x8(%rax),%rdx
  403a93:	48 8d 45 a0          	lea    -0x60(%rbp),%rax
  403a97:	48 89 d6             	mov    %rdx,%rsi
  403a9a:	48 89 c7             	mov    %rax,%rdi
  403a9d:	e8 04 fc ff ff       	callq  4036a6 <_ZN10continuousIf15CPU_MATHEMATICSEC1ERKS1_>
  403aa2:	48 8d 4d c0          	lea    -0x40(%rbp),%rcx
  403aa6:	48 8d 55 a0          	lea    -0x60(%rbp),%rdx
  403aaa:	48 8b 45 98          	mov    -0x68(%rbp),%rax
  403aae:	be 00 00 00 00       	mov    $0x0,%esi
  403ab3:	48 89 c7             	mov    %rax,%rdi
  403ab6:	e8 11 1e 00 00       	callq  4058cc <_ZN12Tensor_QueenIf15CPU_MATHEMATICS7pBufferIfS0_10continuousIfS0_ES3_N9Operation3mulIfEEEEC1IIS3_S3_EEEbDpT_>
  403abb:	48 8d 45 a0          	lea    -0x60(%rbp),%rax
  403abf:	48 89 c7             	mov    %rax,%rdi
  403ac2:	e8 3f fc ff ff       	callq  403706 <_ZN10continuousIf15CPU_MATHEMATICSED1Ev>
  403ac7:	48 8d 45 c0          	lea    -0x40(%rbp),%rax
  403acb:	48 89 c7             	mov    %rax,%rdi
  403ace:	e8 33 fc ff ff       	callq  403706 <_ZN10continuousIf15CPU_MATHEMATICSED1Ev>
  403ad3:	48 8b 45 98          	mov    -0x68(%rbp),%rax
  403ad7:	48 8b 4d e8          	mov    -0x18(%rbp),%rcx
  403adb:	64 48 33 0c 25 28 00 	xor    %fs:0x28,%rcx
  403ae2:	00 00 
  403ae4:	74 2d                	je     403b13 <_ZN12Tensor_QueenIf15CPU_MATHEMATICS10continuousIfS0_EErmIfS2_EES_IfS0_7pBufferIfS0_S2_T0_N9Operation3mulIfEEEERKS_IT_S0_S6_E+0xc3>
  403ae6:	eb 26                	jmp    403b0e <_ZN12Tensor_QueenIf15CPU_MATHEMATICS10continuousIfS0_EErmIfS2_EES_IfS0_7pBufferIfS0_S2_T0_N9Operation3mulIfEEEERKS_IT_S0_S6_E+0xbe>
  403ae8:	48 89 c3             	mov    %rax,%rbx
  403aeb:	48 8d 45 a0          	lea    -0x60(%rbp),%rax
  403aef:	48 89 c7             	mov    %rax,%rdi
  403af2:	e8 0f fc ff ff       	callq  403706 <_ZN10continuousIf15CPU_MATHEMATICSED1Ev>
  403af7:	48 8d 45 c0          	lea    -0x40(%rbp),%rax
  403afb:	48 89 c7             	mov    %rax,%rdi
  403afe:	e8 03 fc ff ff       	callq  403706 <_ZN10continuousIf15CPU_MATHEMATICSED1Ev>
  403b03:	48 89 d8             	mov    %rbx,%rax
  403b06:	48 89 c7             	mov    %rax,%rdi
  403b09:	e8 82 e4 ff ff       	callq  401f90 <_Unwind_Resume@plt>
  403b0e:	e8 1d e3 ff ff       	callq  401e30 <__stack_chk_fail@plt>
  403b13:	48 83 c4 78          	add    $0x78,%rsp
  403b17:	5b                   	pop    %rbx
  403b18:	5d                   	pop    %rbp
  403b19:	c3                   	retq   

0000000000403b1a <_ZN7pBufferIf15CPU_MATHEMATICS10continuousIfS0_ES_IfS0_S2_S2_N9Operation3mulIfEEENS3_3addIfEEED1Ev>:
  403b1a:	55                   	push   %rbp
  403b1b:	48 89 e5             	mov    %rsp,%rbp
  403b1e:	48 83 ec 10          	sub    $0x10,%rsp
  403b22:	48 89 7d f8          	mov    %rdi,-0x8(%rbp)
  403b26:	ba 78 d7 40 00       	mov    $0x40d778,%edx
  403b2b:	48 8b 45 f8          	mov    -0x8(%rbp),%rax
  403b2f:	48 89 10             	mov    %rdx,(%rax)
  403b32:	48 8b 45 f8          	mov    -0x8(%rbp),%rax
  403b36:	48 83 c0 30          	add    $0x30,%rax
  403b3a:	48 89 c7             	mov    %rax,%rdi
  403b3d:	e8 82 fe ff ff       	callq  4039c4 <_ZN7pBufferIf15CPU_MATHEMATICS10continuousIfS0_ES2_N9Operation3mulIfEEED1Ev>
  403b42:	48 8b 45 f8          	mov    -0x8(%rbp),%rax
  403b46:	48 83 c0 10          	add    $0x10,%rax
  403b4a:	48 89 c7             	mov    %rax,%rdi
  403b4d:	e8 b4 fb ff ff       	callq  403706 <_ZN10continuousIf15CPU_MATHEMATICSED1Ev>
  403b52:	48 8b 45 f8          	mov    -0x8(%rbp),%rax
  403b56:	48 89 c7             	mov    %rax,%rdi
  403b59:	e8 dc fa ff ff       	callq  40363a <_ZN12accessor_aceIf15CPU_MATHEMATICSED1Ev>
  403b5e:	b8 00 00 00 00       	mov    $0x0,%eax
  403b63:	85 c0                	test   %eax,%eax
  403b65:	74 11                	je     403b78 <_ZN7pBufferIf15CPU_MATHEMATICS10continuousIfS0_ES_IfS0_S2_S2_N9Operation3mulIfEEENS3_3addIfEEED1Ev+0x5e>
  403b67:	48 8b 45 f8          	mov    -0x8(%rbp),%rax
  403b6b:	be 80 00 00 00       	mov    $0x80,%esi
  403b70:	48 89 c7             	mov    %rax,%rdi
  403b73:	e8 58 e2 ff ff       	callq  401dd0 <_ZdlPvm@plt>
  403b78:	c9                   	leaveq 
  403b79:	c3                   	retq   

0000000000403b7a <_ZN7pBufferIf15CPU_MATHEMATICS10continuousIfS0_ES_IfS0_S2_S2_N9Operation3mulIfEEENS3_3addIfEEED0Ev>:
  403b7a:	55                   	push   %rbp
  403b7b:	48 89 e5             	mov    %rsp,%rbp
  403b7e:	48 83 ec 10          	sub    $0x10,%rsp
  403b82:	48 89 7d f8          	mov    %rdi,-0x8(%rbp)
  403b86:	48 8b 45 f8          	mov    -0x8(%rbp),%rax
  403b8a:	48 89 c7             	mov    %rax,%rdi
  403b8d:	e8 88 ff ff ff       	callq  403b1a <_ZN7pBufferIf15CPU_MATHEMATICS10continuousIfS0_ES_IfS0_S2_S2_N9Operation3mulIfEEENS3_3addIfEEED1Ev>
  403b92:	48 8b 45 f8          	mov    -0x8(%rbp),%rax
  403b96:	be 80 00 00 00       	mov    $0x80,%esi
  403b9b:	48 89 c7             	mov    %rax,%rdi
  403b9e:	e8 2d e2 ff ff       	callq  401dd0 <_ZdlPvm@plt>
  403ba3:	c9                   	leaveq 
  403ba4:	c3                   	retq   
  403ba5:	90                   	nop

0000000000403ba6 <_ZN12Tensor_QueenIf15CPU_MATHEMATICS10continuousIfS0_EEplIf7pBufferIfS0_S2_S2_N9Operation3mulIfEEEEES_IfS0_S5_IfS0_S2_T0_NS6_3addIfEEEERKS_IT_S0_SA_E>:
  403ba6:	55                   	push   %rbp
  403ba7:	48 89 e5             	mov    %rsp,%rbp
  403baa:	53                   	push   %rbx
  403bab:	48 81 ec a8 00 00 00 	sub    $0xa8,%rsp
  403bb2:	48 89 bd 68 ff ff ff 	mov    %rdi,-0x98(%rbp)
  403bb9:	48 89 b5 60 ff ff ff 	mov    %rsi,-0xa0(%rbp)
  403bc0:	48 89 95 58 ff ff ff 	mov    %rdx,-0xa8(%rbp)
  403bc7:	64 48 8b 04 25 28 00 	mov    %fs:0x28,%rax
  403bce:	00 00 
  403bd0:	48 89 45 e8          	mov    %rax,-0x18(%rbp)
  403bd4:	31 c0                	xor    %eax,%eax
  403bd6:	48 8b 85 58 ff ff ff 	mov    -0xa8(%rbp),%rax
  403bdd:	48 8d 50 08          	lea    0x8(%rax),%rdx
  403be1:	48 8d 45 90          	lea    -0x70(%rbp),%rax
  403be5:	48 89 d6             	mov    %rdx,%rsi
  403be8:	48 89 c7             	mov    %rax,%rdi
  403beb:	e8 6c fd ff ff       	callq  40395c <_ZN7pBufferIf15CPU_MATHEMATICS10continuousIfS0_ES2_N9Operation3mulIfEEEC1ERKS6_>
  403bf0:	48 8b 85 60 ff ff ff 	mov    -0xa0(%rbp),%rax
  403bf7:	48 8d 50 08          	lea    0x8(%rax),%rdx
  403bfb:	48 8d 85 70 ff ff ff 	lea    -0x90(%rbp),%rax
  403c02:	48 89 d6             	mov    %rdx,%rsi
  403c05:	48 89 c7             	mov    %rax,%rdi
  403c08:	e8 99 fa ff ff       	callq  4036a6 <_ZN10continuousIf15CPU_MATHEMATICSEC1ERKS1_>
  403c0d:	48 8d 4d 90          	lea    -0x70(%rbp),%rcx
  403c11:	48 8d 95 70 ff ff ff 	lea    -0x90(%rbp),%rdx
  403c18:	48 8b 85 68 ff ff ff 	mov    -0x98(%rbp),%rax
  403c1f:	be 00 00 00 00       	mov    $0x0,%esi
  403c24:	48 89 c7             	mov    %rax,%rdi
  403c27:	e8 3c 1e 00 00       	callq  405a68 <_ZN12Tensor_QueenIf15CPU_MATHEMATICS7pBufferIfS0_10continuousIfS0_ES1_IfS0_S3_S3_N9Operation3mulIfEEENS4_3addIfEEEEC1IIS3_S7_EEEbDpT_>
  403c2c:	48 8d 85 70 ff ff ff 	lea    -0x90(%rbp),%rax
  403c33:	48 89 c7             	mov    %rax,%rdi
  403c36:	e8 cb fa ff ff       	callq  403706 <_ZN10continuousIf15CPU_MATHEMATICSED1Ev>
  403c3b:	48 8d 45 90          	lea    -0x70(%rbp),%rax
  403c3f:	48 89 c7             	mov    %rax,%rdi
  403c42:	e8 7d fd ff ff       	callq  4039c4 <_ZN7pBufferIf15CPU_MATHEMATICS10continuousIfS0_ES2_N9Operation3mulIfEEED1Ev>
  403c47:	48 8b 85 68 ff ff ff 	mov    -0x98(%rbp),%rax
  403c4e:	48 8b 4d e8          	mov    -0x18(%rbp),%rcx
  403c52:	64 48 33 0c 25 28 00 	xor    %fs:0x28,%rcx
  403c59:	00 00 
  403c5b:	74 30                	je     403c8d <_ZN12Tensor_QueenIf15CPU_MATHEMATICS10continuousIfS0_EEplIf7pBufferIfS0_S2_S2_N9Operation3mulIfEEEEES_IfS0_S5_IfS0_S2_T0_NS6_3addIfEEEERKS_IT_S0_SA_E+0xe7>
  403c5d:	eb 29                	jmp    403c88 <_ZN12Tensor_QueenIf15CPU_MATHEMATICS10continuousIfS0_EEplIf7pBufferIfS0_S2_S2_N9Operation3mulIfEEEEES_IfS0_S5_IfS0_S2_T0_NS6_3addIfEEEERKS_IT_S0_SA_E+0xe2>
  403c5f:	48 89 c3             	mov    %rax,%rbx
  403c62:	48 8d 85 70 ff ff ff 	lea    -0x90(%rbp),%rax
  403c69:	48 89 c7             	mov    %rax,%rdi
  403c6c:	e8 95 fa ff ff       	callq  403706 <_ZN10continuousIf15CPU_MATHEMATICSED1Ev>
  403c71:	48 8d 45 90          	lea    -0x70(%rbp),%rax
  403c75:	48 89 c7             	mov    %rax,%rdi
  403c78:	e8 47 fd ff ff       	callq  4039c4 <_ZN7pBufferIf15CPU_MATHEMATICS10continuousIfS0_ES2_N9Operation3mulIfEEED1Ev>
  403c7d:	48 89 d8             	mov    %rbx,%rax
  403c80:	48 89 c7             	mov    %rax,%rdi
  403c83:	e8 08 e3 ff ff       	callq  401f90 <_Unwind_Resume@plt>
  403c88:	e8 a3 e1 ff ff       	callq  401e30 <__stack_chk_fail@plt>
  403c8d:	48 81 c4 a8 00 00 00 	add    $0xa8,%rsp
  403c94:	5b                   	pop    %rbx
  403c95:	5d                   	pop    %rbp
  403c96:	c3                   	retq   
  403c97:	90                   	nop

0000000000403c98 <_ZN12Tensor_QueenIf15CPU_MATHEMATICS10continuousIfS0_EEaSIf7pBufferIfS0_S2_S5_IfS0_S2_S2_N9Operation3mulIfEEENS6_3addIfEEEEERS3_RKS_IT_S0_T0_E>:
  403c98:	55                   	push   %rbp
  403c99:	48 89 e5             	mov    %rsp,%rbp
  403c9c:	53                   	push   %rbx
  403c9d:	48 83 ec 18          	sub    $0x18,%rsp
  403ca1:	48 89 7d e8          	mov    %rdi,-0x18(%rbp)
  403ca5:	48 89 75 e0          	mov    %rsi,-0x20(%rbp)
  403ca9:	48 8b 55 e0          	mov    -0x20(%rbp),%rdx
  403cad:	48 8b 45 e8          	mov    -0x18(%rbp),%rax
  403cb1:	48 89 d6             	mov    %rdx,%rsi
  403cb4:	48 89 c7             	mov    %rax,%rdi
  403cb7:	e8 96 e5 ff ff       	callq  402252 <_ZNK10Tensor_Ace16assert_same_sizeERKS_>
  403cbc:	48 8b 45 e8          	mov    -0x18(%rbp),%rax
  403cc0:	48 89 c7             	mov    %rax,%rdi
  403cc3:	e8 6a 0b 00 00       	callq  404832 <_ZNK11Tensor_KingIf15CPU_MATHEMATICS10continuousIfS0_EE4sizeEv>
  403cc8:	89 c3                	mov    %eax,%ebx
  403cca:	48 8b 45 e0          	mov    -0x20(%rbp),%rax
  403cce:	48 89 c7             	mov    %rax,%rdi
  403cd1:	e8 60 1f 00 00       	callq  405c36 <_ZNK11Tensor_KingIf15CPU_MATHEMATICS7pBufferIfS0_10continuousIfS0_ES1_IfS0_S3_S3_N9Operation3mulIfEEENS4_3addIfEEEE8accessorEv>
  403cd6:	48 89 c1             	mov    %rax,%rcx
  403cd9:	48 8b 45 e8          	mov    -0x18(%rbp),%rax
  403cdd:	48 83 c0 08          	add    $0x8,%rax
  403ce1:	89 da                	mov    %ebx,%edx
  403ce3:	48 89 ce             	mov    %rcx,%rsi
  403ce6:	48 89 c7             	mov    %rax,%rdi
  403ce9:	e8 5a 1f 00 00       	callq  405c48 <_ZN15CPU_MATHEMATICS4copyI10continuousIfS_EK7pBufferIfS_S2_S3_IfS_S2_S2_N9Operation3mulIfEEENS4_3addIfEEEEEvRT_RT0_i>
  403cee:	48 8b 45 e8          	mov    -0x18(%rbp),%rax
  403cf2:	48 83 c4 18          	add    $0x18,%rsp
  403cf6:	5b                   	pop    %rbx
  403cf7:	5d                   	pop    %rbp
  403cf8:	c3                   	retq   
  403cf9:	90                   	nop

0000000000403cfa <_ZN12Tensor_QueenIf15CPU_MATHEMATICS19StackScalarAccessorIfS0_EED1Ev>:
  403cfa:	55                   	push   %rbp
  403cfb:	48 89 e5             	mov    %rsp,%rbp
  403cfe:	48 83 ec 10          	sub    $0x10,%rsp
  403d02:	48 89 7d f8          	mov    %rdi,-0x8(%rbp)
  403d06:	ba 88 d4 40 00       	mov    $0x40d488,%edx
  403d0b:	48 8b 45 f8          	mov    -0x8(%rbp),%rax
  403d0f:	48 89 10             	mov    %rdx,(%rax)
  403d12:	48 8b 45 f8          	mov    -0x8(%rbp),%rax
  403d16:	48 89 c7             	mov    %rax,%rdi
  403d19:	e8 cc 1f 00 00       	callq  405cea <_ZN11Tensor_KingIf15CPU_MATHEMATICS19StackScalarAccessorIfS0_EED1Ev>
  403d1e:	b8 00 00 00 00       	mov    $0x0,%eax
  403d23:	85 c0                	test   %eax,%eax
  403d25:	74 11                	je     403d38 <_ZN12Tensor_QueenIf15CPU_MATHEMATICS19StackScalarAccessorIfS0_EED1Ev+0x3e>
  403d27:	48 8b 45 f8          	mov    -0x8(%rbp),%rax
  403d2b:	be 28 00 00 00       	mov    $0x28,%esi
  403d30:	48 89 c7             	mov    %rax,%rdi
  403d33:	e8 98 e0 ff ff       	callq  401dd0 <_ZdlPvm@plt>
  403d38:	c9                   	leaveq 
  403d39:	c3                   	retq   

0000000000403d3a <_ZN12Tensor_QueenIf15CPU_MATHEMATICS19StackScalarAccessorIfS0_EED0Ev>:
  403d3a:	55                   	push   %rbp
  403d3b:	48 89 e5             	mov    %rsp,%rbp
  403d3e:	48 83 ec 10          	sub    $0x10,%rsp
  403d42:	48 89 7d f8          	mov    %rdi,-0x8(%rbp)
  403d46:	48 8b 45 f8          	mov    -0x8(%rbp),%rax
  403d4a:	48 89 c7             	mov    %rax,%rdi
  403d4d:	e8 a8 ff ff ff       	callq  403cfa <_ZN12Tensor_QueenIf15CPU_MATHEMATICS19StackScalarAccessorIfS0_EED1Ev>
  403d52:	48 8b 45 f8          	mov    -0x8(%rbp),%rax
  403d56:	be 28 00 00 00       	mov    $0x28,%esi
  403d5b:	48 89 c7             	mov    %rax,%rdi
  403d5e:	e8 6d e0 ff ff       	callq  401dd0 <_ZdlPvm@plt>
  403d63:	c9                   	leaveq 
  403d64:	c3                   	retq   
  403d65:	90                   	nop

0000000000403d66 <_ZN6ScalarIf15CPU_MATHEMATICSEC1Ef>:
  403d66:	55                   	push   %rbp
  403d67:	48 89 e5             	mov    %rsp,%rbp
  403d6a:	48 83 ec 10          	sub    $0x10,%rsp
  403d6e:	48 89 7d f8          	mov    %rdi,-0x8(%rbp)
  403d72:	f3 0f 11 45 f4       	movss  %xmm0,-0xc(%rbp)
  403d77:	48 8b 45 f8          	mov    -0x8(%rbp),%rax
  403d7b:	8b 55 f4             	mov    -0xc(%rbp),%edx
  403d7e:	89 55 f0             	mov    %edx,-0x10(%rbp)
  403d81:	f3 0f 10 45 f0       	movss  -0x10(%rbp),%xmm0
  403d86:	be 00 00 00 00       	mov    $0x0,%esi
  403d8b:	48 89 c7             	mov    %rax,%rdi
  403d8e:	e8 11 1f 00 00       	callq  405ca4 <_ZN12Tensor_QueenIf15CPU_MATHEMATICS19StackScalarAccessorIfS0_EEC1IIfEEEbDpT_>
  403d93:	ba 48 d4 40 00       	mov    $0x40d448,%edx
  403d98:	48 8b 45 f8          	mov    -0x8(%rbp),%rax
  403d9c:	48 89 10             	mov    %rdx,(%rax)
  403d9f:	90                   	nop
  403da0:	c9                   	leaveq 
  403da1:	c3                   	retq   

0000000000403da2 <_ZN15Scalar_AccessorIf15CPU_MATHEMATICSEC1ERKS1_>:
  403da2:	55                   	push   %rbp
  403da3:	48 89 e5             	mov    %rsp,%rbp
  403da6:	48 83 ec 10          	sub    $0x10,%rsp
  403daa:	48 89 7d f8          	mov    %rdi,-0x8(%rbp)
  403dae:	48 89 75 f0          	mov    %rsi,-0x10(%rbp)
  403db2:	48 8b 55 f0          	mov    -0x10(%rbp),%rdx
  403db6:	48 8b 45 f8          	mov    -0x8(%rbp),%rax
  403dba:	48 89 d6             	mov    %rdx,%rsi
  403dbd:	48 89 c7             	mov    %rax,%rdi
  403dc0:	e8 43 f8 ff ff       	callq  403608 <_ZN12accessor_aceIf15CPU_MATHEMATICSEC1ERKS1_>
  403dc5:	ba 88 d6 40 00       	mov    $0x40d688,%edx
  403dca:	48 8b 45 f8          	mov    -0x8(%rbp),%rax
  403dce:	48 89 10             	mov    %rdx,(%rax)
  403dd1:	90                   	nop
  403dd2:	c9                   	leaveq 
  403dd3:	c3                   	retq   

0000000000403dd4 <_ZN15Scalar_AccessorIf15CPU_MATHEMATICSED1Ev>:
  403dd4:	55                   	push   %rbp
  403dd5:	48 89 e5             	mov    %rsp,%rbp
  403dd8:	48 83 ec 10          	sub    $0x10,%rsp
  403ddc:	48 89 7d f8          	mov    %rdi,-0x8(%rbp)
  403de0:	ba 88 d6 40 00       	mov    $0x40d688,%edx
  403de5:	48 8b 45 f8          	mov    -0x8(%rbp),%rax
  403de9:	48 89 10             	mov    %rdx,(%rax)
  403dec:	48 8b 45 f8          	mov    -0x8(%rbp),%rax
  403df0:	48 89 c7             	mov    %rax,%rdi
  403df3:	e8 42 f8 ff ff       	callq  40363a <_ZN12accessor_aceIf15CPU_MATHEMATICSED1Ev>
  403df8:	b8 00 00 00 00       	mov    $0x0,%eax
  403dfd:	85 c0                	test   %eax,%eax
  403dff:	74 11                	je     403e12 <_ZN15Scalar_AccessorIf15CPU_MATHEMATICSED1Ev+0x3e>
  403e01:	48 8b 45 f8          	mov    -0x8(%rbp),%rax
  403e05:	be 08 00 00 00       	mov    $0x8,%esi
  403e0a:	48 89 c7             	mov    %rax,%rdi
  403e0d:	e8 be df ff ff       	callq  401dd0 <_ZdlPvm@plt>
  403e12:	c9                   	leaveq 
  403e13:	c3                   	retq   

0000000000403e14 <_ZN15Scalar_AccessorIf15CPU_MATHEMATICSED0Ev>:
  403e14:	55                   	push   %rbp
  403e15:	48 89 e5             	mov    %rsp,%rbp
  403e18:	48 83 ec 10          	sub    $0x10,%rsp
  403e1c:	48 89 7d f8          	mov    %rdi,-0x8(%rbp)
  403e20:	48 8b 45 f8          	mov    -0x8(%rbp),%rax
  403e24:	48 89 c7             	mov    %rax,%rdi
  403e27:	e8 a8 ff ff ff       	callq  403dd4 <_ZN15Scalar_AccessorIf15CPU_MATHEMATICSED1Ev>
  403e2c:	48 8b 45 f8          	mov    -0x8(%rbp),%rax
  403e30:	be 08 00 00 00       	mov    $0x8,%esi
  403e35:	48 89 c7             	mov    %rax,%rdi
  403e38:	e8 93 df ff ff       	callq  401dd0 <_ZdlPvm@plt>
  403e3d:	c9                   	leaveq 
  403e3e:	c3                   	retq   
  403e3f:	90                   	nop

0000000000403e40 <_ZN14value_accessorIf15CPU_MATHEMATICSEC1ERKS1_>:
  403e40:	55                   	push   %rbp
  403e41:	48 89 e5             	mov    %rsp,%rbp
  403e44:	48 83 ec 10          	sub    $0x10,%rsp
  403e48:	48 89 7d f8          	mov    %rdi,-0x8(%rbp)
  403e4c:	48 89 75 f0          	mov    %rsi,-0x10(%rbp)
  403e50:	48 8b 55 f0          	mov    -0x10(%rbp),%rdx
  403e54:	48 8b 45 f8          	mov    -0x8(%rbp),%rax
  403e58:	48 89 d6             	mov    %rdx,%rsi
  403e5b:	48 89 c7             	mov    %rax,%rdi
  403e5e:	e8 a5 f7 ff ff       	callq  403608 <_ZN12accessor_aceIf15CPU_MATHEMATICSEC1ERKS1_>
  403e63:	ba 08 d6 40 00       	mov    $0x40d608,%edx
  403e68:	48 8b 45 f8          	mov    -0x8(%rbp),%rax
  403e6c:	48 89 10             	mov    %rdx,(%rax)
  403e6f:	90                   	nop
  403e70:	c9                   	leaveq 
  403e71:	c3                   	retq   

0000000000403e72 <_ZN14value_accessorIf15CPU_MATHEMATICSED1Ev>:
  403e72:	55                   	push   %rbp
  403e73:	48 89 e5             	mov    %rsp,%rbp
  403e76:	48 83 ec 10          	sub    $0x10,%rsp
  403e7a:	48 89 7d f8          	mov    %rdi,-0x8(%rbp)
  403e7e:	ba 08 d6 40 00       	mov    $0x40d608,%edx
  403e83:	48 8b 45 f8          	mov    -0x8(%rbp),%rax
  403e87:	48 89 10             	mov    %rdx,(%rax)
  403e8a:	48 8b 45 f8          	mov    -0x8(%rbp),%rax
  403e8e:	48 89 c7             	mov    %rax,%rdi
  403e91:	e8 a4 f7 ff ff       	callq  40363a <_ZN12accessor_aceIf15CPU_MATHEMATICSED1Ev>
  403e96:	b8 00 00 00 00       	mov    $0x0,%eax
  403e9b:	85 c0                	test   %eax,%eax
  403e9d:	74 11                	je     403eb0 <_ZN14value_accessorIf15CPU_MATHEMATICSED1Ev+0x3e>
  403e9f:	48 8b 45 f8          	mov    -0x8(%rbp),%rax
  403ea3:	be 08 00 00 00       	mov    $0x8,%esi
  403ea8:	48 89 c7             	mov    %rax,%rdi
  403eab:	e8 20 df ff ff       	callq  401dd0 <_ZdlPvm@plt>
  403eb0:	c9                   	leaveq 
  403eb1:	c3                   	retq   

0000000000403eb2 <_ZN14value_accessorIf15CPU_MATHEMATICSED0Ev>:
  403eb2:	55                   	push   %rbp
  403eb3:	48 89 e5             	mov    %rsp,%rbp
  403eb6:	48 83 ec 10          	sub    $0x10,%rsp
  403eba:	48 89 7d f8          	mov    %rdi,-0x8(%rbp)
  403ebe:	48 8b 45 f8          	mov    -0x8(%rbp),%rax
  403ec2:	48 89 c7             	mov    %rax,%rdi
  403ec5:	e8 a8 ff ff ff       	callq  403e72 <_ZN14value_accessorIf15CPU_MATHEMATICSED1Ev>
  403eca:	48 8b 45 f8          	mov    -0x8(%rbp),%rax
  403ece:	be 08 00 00 00       	mov    $0x8,%esi
  403ed3:	48 89 c7             	mov    %rax,%rdi
  403ed6:	e8 f5 de ff ff       	callq  401dd0 <_ZdlPvm@plt>
  403edb:	c9                   	leaveq 
  403edc:	c3                   	retq   
  403edd:	90                   	nop

0000000000403ede <_ZN19StackScalarAccessorIf15CPU_MATHEMATICSEC1ERKS1_>:
  403ede:	55                   	push   %rbp
  403edf:	48 89 e5             	mov    %rsp,%rbp
  403ee2:	48 83 ec 10          	sub    $0x10,%rsp
  403ee6:	48 89 7d f8          	mov    %rdi,-0x8(%rbp)
  403eea:	48 89 75 f0          	mov    %rsi,-0x10(%rbp)
  403eee:	48 8b 55 f0          	mov    -0x10(%rbp),%rdx
  403ef2:	48 8b 45 f8          	mov    -0x8(%rbp),%rax
  403ef6:	48 89 d6             	mov    %rdx,%rsi
  403ef9:	48 89 c7             	mov    %rax,%rdi
  403efc:	e8 a1 fe ff ff       	callq  403da2 <_ZN15Scalar_AccessorIf15CPU_MATHEMATICSEC1ERKS1_>
  403f01:	48 8b 45 f0          	mov    -0x10(%rbp),%rax
  403f05:	48 8d 50 08          	lea    0x8(%rax),%rdx
  403f09:	48 8b 45 f8          	mov    -0x8(%rbp),%rax
  403f0d:	48 83 c0 08          	add    $0x8,%rax
  403f11:	48 89 d6             	mov    %rdx,%rsi
  403f14:	48 89 c7             	mov    %rax,%rdi
  403f17:	e8 24 ff ff ff       	callq  403e40 <_ZN14value_accessorIf15CPU_MATHEMATICSEC1ERKS1_>
  403f1c:	ba 08 d5 40 00       	mov    $0x40d508,%edx
  403f21:	48 8b 45 f8          	mov    -0x8(%rbp),%rax
  403f25:	48 89 10             	mov    %rdx,(%rax)
  403f28:	ba 88 d5 40 00       	mov    $0x40d588,%edx
  403f2d:	48 8b 45 f8          	mov    -0x8(%rbp),%rax
  403f31:	48 89 50 08          	mov    %rdx,0x8(%rax)
  403f35:	48 8b 45 f0          	mov    -0x10(%rbp),%rax
  403f39:	f3 0f 10 40 10       	movss  0x10(%rax),%xmm0
  403f3e:	48 8b 45 f8          	mov    -0x8(%rbp),%rax
  403f42:	f3 0f 11 40 10       	movss  %xmm0,0x10(%rax)
  403f47:	90                   	nop
  403f48:	c9                   	leaveq 
  403f49:	c3                   	retq   

0000000000403f4a <_ZN19StackScalarAccessorIf15CPU_MATHEMATICSED1Ev>:
  403f4a:	55                   	push   %rbp
  403f4b:	48 89 e5             	mov    %rsp,%rbp
  403f4e:	48 83 ec 10          	sub    $0x10,%rsp
  403f52:	48 89 7d f8          	mov    %rdi,-0x8(%rbp)
  403f56:	ba 08 d5 40 00       	mov    $0x40d508,%edx
  403f5b:	48 8b 45 f8          	mov    -0x8(%rbp),%rax
  403f5f:	48 89 10             	mov    %rdx,(%rax)
  403f62:	ba 88 d5 40 00       	mov    $0x40d588,%edx
  403f67:	48 8b 45 f8          	mov    -0x8(%rbp),%rax
  403f6b:	48 89 50 08          	mov    %rdx,0x8(%rax)
  403f6f:	48 8b 45 f8          	mov    -0x8(%rbp),%rax
  403f73:	48 83 c0 08          	add    $0x8,%rax
  403f77:	48 89 c7             	mov    %rax,%rdi
  403f7a:	e8 f3 fe ff ff       	callq  403e72 <_ZN14value_accessorIf15CPU_MATHEMATICSED1Ev>
  403f7f:	48 8b 45 f8          	mov    -0x8(%rbp),%rax
  403f83:	48 89 c7             	mov    %rax,%rdi
  403f86:	e8 49 fe ff ff       	callq  403dd4 <_ZN15Scalar_AccessorIf15CPU_MATHEMATICSED1Ev>
  403f8b:	b8 00 00 00 00       	mov    $0x0,%eax
  403f90:	85 c0                	test   %eax,%eax
  403f92:	74 11                	je     403fa5 <_ZN19StackScalarAccessorIf15CPU_MATHEMATICSED1Ev+0x5b>
  403f94:	48 8b 45 f8          	mov    -0x8(%rbp),%rax
  403f98:	be 18 00 00 00       	mov    $0x18,%esi
  403f9d:	48 89 c7             	mov    %rax,%rdi
  403fa0:	e8 2b de ff ff       	callq  401dd0 <_ZdlPvm@plt>
  403fa5:	c9                   	leaveq 
  403fa6:	c3                   	retq   

0000000000403fa7 <_ZThn8_N19StackScalarAccessorIf15CPU_MATHEMATICSED1Ev>:
  403fa7:	48 83 ef 08          	sub    $0x8,%rdi
  403fab:	eb 9d                	jmp    403f4a <_ZN19StackScalarAccessorIf15CPU_MATHEMATICSED1Ev>
  403fad:	90                   	nop

0000000000403fae <_ZN19StackScalarAccessorIf15CPU_MATHEMATICSED0Ev>:
  403fae:	55                   	push   %rbp
  403faf:	48 89 e5             	mov    %rsp,%rbp
  403fb2:	48 83 ec 10          	sub    $0x10,%rsp
  403fb6:	48 89 7d f8          	mov    %rdi,-0x8(%rbp)
  403fba:	48 8b 45 f8          	mov    -0x8(%rbp),%rax
  403fbe:	48 89 c7             	mov    %rax,%rdi
  403fc1:	e8 84 ff ff ff       	callq  403f4a <_ZN19StackScalarAccessorIf15CPU_MATHEMATICSED1Ev>
  403fc6:	48 8b 45 f8          	mov    -0x8(%rbp),%rax
  403fca:	be 18 00 00 00       	mov    $0x18,%esi
  403fcf:	48 89 c7             	mov    %rax,%rdi
  403fd2:	e8 f9 dd ff ff       	callq  401dd0 <_ZdlPvm@plt>
  403fd7:	c9                   	leaveq 
  403fd8:	c3                   	retq   

0000000000403fd9 <_ZThn8_N19StackScalarAccessorIf15CPU_MATHEMATICSED0Ev>:
  403fd9:	48 83 ef 08          	sub    $0x8,%rdi
  403fdd:	eb cf                	jmp    403fae <_ZN19StackScalarAccessorIf15CPU_MATHEMATICSED0Ev>
  403fdf:	90                   	nop

0000000000403fe0 <_ZN7pBufferIf15CPU_MATHEMATICS19StackScalarAccessorIfS0_E10continuousIfS0_EN9Operation3subIfEEED1Ev>:
  403fe0:	55                   	push   %rbp
  403fe1:	48 89 e5             	mov    %rsp,%rbp
  403fe4:	48 83 ec 10          	sub    $0x10,%rsp
  403fe8:	48 89 7d f8          	mov    %rdi,-0x8(%rbp)
  403fec:	ba d8 d3 40 00       	mov    $0x40d3d8,%edx
  403ff1:	48 8b 45 f8          	mov    -0x8(%rbp),%rax
  403ff5:	48 89 10             	mov    %rdx,(%rax)
  403ff8:	48 8b 45 f8          	mov    -0x8(%rbp),%rax
  403ffc:	48 83 c0 28          	add    $0x28,%rax
  404000:	48 89 c7             	mov    %rax,%rdi
  404003:	e8 fe f6 ff ff       	callq  403706 <_ZN10continuousIf15CPU_MATHEMATICSED1Ev>
  404008:	48 8b 45 f8          	mov    -0x8(%rbp),%rax
  40400c:	48 83 c0 10          	add    $0x10,%rax
  404010:	48 89 c7             	mov    %rax,%rdi
  404013:	e8 32 ff ff ff       	callq  403f4a <_ZN19StackScalarAccessorIf15CPU_MATHEMATICSED1Ev>
  404018:	48 8b 45 f8          	mov    -0x8(%rbp),%rax
  40401c:	48 89 c7             	mov    %rax,%rdi
  40401f:	e8 16 f6 ff ff       	callq  40363a <_ZN12accessor_aceIf15CPU_MATHEMATICSED1Ev>
  404024:	b8 00 00 00 00       	mov    $0x0,%eax
  404029:	85 c0                	test   %eax,%eax
  40402b:	74 11                	je     40403e <_ZN7pBufferIf15CPU_MATHEMATICS19StackScalarAccessorIfS0_E10continuousIfS0_EN9Operation3subIfEEED1Ev+0x5e>
  40402d:	48 8b 45 f8          	mov    -0x8(%rbp),%rax
  404031:	be 48 00 00 00       	mov    $0x48,%esi
  404036:	48 89 c7             	mov    %rax,%rdi
  404039:	e8 92 dd ff ff       	callq  401dd0 <_ZdlPvm@plt>
  40403e:	c9                   	leaveq 
  40403f:	c3                   	retq   

0000000000404040 <_ZN7pBufferIf15CPU_MATHEMATICS19StackScalarAccessorIfS0_E10continuousIfS0_EN9Operation3subIfEEED0Ev>:
  404040:	55                   	push   %rbp
  404041:	48 89 e5             	mov    %rsp,%rbp
  404044:	48 83 ec 10          	sub    $0x10,%rsp
  404048:	48 89 7d f8          	mov    %rdi,-0x8(%rbp)
  40404c:	48 8b 45 f8          	mov    -0x8(%rbp),%rax
  404050:	48 89 c7             	mov    %rax,%rdi
  404053:	e8 88 ff ff ff       	callq  403fe0 <_ZN7pBufferIf15CPU_MATHEMATICS19StackScalarAccessorIfS0_E10continuousIfS0_EN9Operation3subIfEEED1Ev>
  404058:	48 8b 45 f8          	mov    -0x8(%rbp),%rax
  40405c:	be 48 00 00 00       	mov    $0x48,%esi
  404061:	48 89 c7             	mov    %rax,%rdi
  404064:	e8 67 dd ff ff       	callq  401dd0 <_ZdlPvm@plt>
  404069:	c9                   	leaveq 
  40406a:	c3                   	retq   
  40406b:	90                   	nop

000000000040406c <_ZN12Tensor_QueenIf15CPU_MATHEMATICS19StackScalarAccessorIfS0_EEmiIf10continuousIfS0_EEES_IfS0_7pBufferIfS0_S2_T0_N9Operation3subIfEEEERKS_IT_S0_S8_E>:
  40406c:	55                   	push   %rbp
  40406d:	48 89 e5             	mov    %rsp,%rbp
  404070:	53                   	push   %rbx
  404071:	48 83 ec 78          	sub    $0x78,%rsp
  404075:	48 89 7d 98          	mov    %rdi,-0x68(%rbp)
  404079:	48 89 75 90          	mov    %rsi,-0x70(%rbp)
  40407d:	48 89 55 88          	mov    %rdx,-0x78(%rbp)
  404081:	64 48 8b 04 25 28 00 	mov    %fs:0x28,%rax
  404088:	00 00 
  40408a:	48 89 45 e8          	mov    %rax,-0x18(%rbp)
  40408e:	31 c0                	xor    %eax,%eax
  404090:	48 8b 45 88          	mov    -0x78(%rbp),%rax
  404094:	48 8d 50 08          	lea    0x8(%rax),%rdx
  404098:	48 8d 45 c0          	lea    -0x40(%rbp),%rax
  40409c:	48 89 d6             	mov    %rdx,%rsi
  40409f:	48 89 c7             	mov    %rax,%rdi
  4040a2:	e8 ff f5 ff ff       	callq  4036a6 <_ZN10continuousIf15CPU_MATHEMATICSEC1ERKS1_>
  4040a7:	48 8b 45 90          	mov    -0x70(%rbp),%rax
  4040ab:	48 8d 50 08          	lea    0x8(%rax),%rdx
  4040af:	48 8d 45 a0          	lea    -0x60(%rbp),%rax
  4040b3:	48 89 d6             	mov    %rdx,%rsi
  4040b6:	48 89 c7             	mov    %rax,%rdi
  4040b9:	e8 20 fe ff ff       	callq  403ede <_ZN19StackScalarAccessorIf15CPU_MATHEMATICSEC1ERKS1_>
  4040be:	48 8d 4d c0          	lea    -0x40(%rbp),%rcx
  4040c2:	48 8d 55 a0          	lea    -0x60(%rbp),%rdx
  4040c6:	48 8b 45 98          	mov    -0x68(%rbp),%rax
  4040ca:	be 00 00 00 00       	mov    $0x0,%esi
  4040cf:	48 89 c7             	mov    %rax,%rdi
  4040d2:	e8 d7 1c 00 00       	callq  405dae <_ZN12Tensor_QueenIf15CPU_MATHEMATICS7pBufferIfS0_19StackScalarAccessorIfS0_E10continuousIfS0_EN9Operation3subIfEEEEC1IIS3_S5_EEEbDpT_>
  4040d7:	48 8d 45 a0          	lea    -0x60(%rbp),%rax
  4040db:	48 89 c7             	mov    %rax,%rdi
  4040de:	e8 67 fe ff ff       	callq  403f4a <_ZN19StackScalarAccessorIf15CPU_MATHEMATICSED1Ev>
  4040e3:	48 8d 45 c0          	lea    -0x40(%rbp),%rax
  4040e7:	48 89 c7             	mov    %rax,%rdi
  4040ea:	e8 17 f6 ff ff       	callq  403706 <_ZN10continuousIf15CPU_MATHEMATICSED1Ev>
  4040ef:	48 8b 45 98          	mov    -0x68(%rbp),%rax
  4040f3:	48 8b 4d e8          	mov    -0x18(%rbp),%rcx
  4040f7:	64 48 33 0c 25 28 00 	xor    %fs:0x28,%rcx
  4040fe:	00 00 
  404100:	74 2d                	je     40412f <_ZN12Tensor_QueenIf15CPU_MATHEMATICS19StackScalarAccessorIfS0_EEmiIf10continuousIfS0_EEES_IfS0_7pBufferIfS0_S2_T0_N9Operation3subIfEEEERKS_IT_S0_S8_E+0xc3>
  404102:	eb 26                	jmp    40412a <_ZN12Tensor_QueenIf15CPU_MATHEMATICS19StackScalarAccessorIfS0_EEmiIf10continuousIfS0_EEES_IfS0_7pBufferIfS0_S2_T0_N9Operation3subIfEEEERKS_IT_S0_S8_E+0xbe>
  404104:	48 89 c3             	mov    %rax,%rbx
  404107:	48 8d 45 a0          	lea    -0x60(%rbp),%rax
  40410b:	48 89 c7             	mov    %rax,%rdi
  40410e:	e8 37 fe ff ff       	callq  403f4a <_ZN19StackScalarAccessorIf15CPU_MATHEMATICSED1Ev>
  404113:	48 8d 45 c0          	lea    -0x40(%rbp),%rax
  404117:	48 89 c7             	mov    %rax,%rdi
  40411a:	e8 e7 f5 ff ff       	callq  403706 <_ZN10continuousIf15CPU_MATHEMATICSED1Ev>
  40411f:	48 89 d8             	mov    %rbx,%rax
  404122:	48 89 c7             	mov    %rax,%rdi
  404125:	e8 66 de ff ff       	callq  401f90 <_Unwind_Resume@plt>
  40412a:	e8 01 dd ff ff       	callq  401e30 <__stack_chk_fail@plt>
  40412f:	48 83 c4 78          	add    $0x78,%rsp
  404133:	5b                   	pop    %rbx
  404134:	5d                   	pop    %rbp
  404135:	c3                   	retq   

0000000000404136 <_ZN12Tensor_QueenIf15CPU_MATHEMATICS10continuousIfS0_EEaSIf7pBufferIfS0_19StackScalarAccessorIfS0_ES2_N9Operation3subIfEEEEERS3_RKS_IT_S0_T0_E>:
  404136:	55                   	push   %rbp
  404137:	48 89 e5             	mov    %rsp,%rbp
  40413a:	53                   	push   %rbx
  40413b:	48 83 ec 18          	sub    $0x18,%rsp
  40413f:	48 89 7d e8          	mov    %rdi,-0x18(%rbp)
  404143:	48 89 75 e0          	mov    %rsi,-0x20(%rbp)
  404147:	48 8b 55 e0          	mov    -0x20(%rbp),%rdx
  40414b:	48 8b 45 e8          	mov    -0x18(%rbp),%rax
  40414f:	48 89 d6             	mov    %rdx,%rsi
  404152:	48 89 c7             	mov    %rax,%rdi
  404155:	e8 f8 e0 ff ff       	callq  402252 <_ZNK10Tensor_Ace16assert_same_sizeERKS_>
  40415a:	48 8b 45 e8          	mov    -0x18(%rbp),%rax
  40415e:	48 89 c7             	mov    %rax,%rdi
  404161:	e8 cc 06 00 00       	callq  404832 <_ZNK11Tensor_KingIf15CPU_MATHEMATICS10continuousIfS0_EE4sizeEv>
  404166:	89 c3                	mov    %eax,%ebx
  404168:	48 8b 45 e0          	mov    -0x20(%rbp),%rax
  40416c:	48 89 c7             	mov    %rax,%rdi
  40416f:	e8 d6 1d 00 00       	callq  405f4a <_ZNK11Tensor_KingIf15CPU_MATHEMATICS7pBufferIfS0_19StackScalarAccessorIfS0_E10continuousIfS0_EN9Operation3subIfEEEE8accessorEv>
  404174:	48 89 c1             	mov    %rax,%rcx
  404177:	48 8b 45 e8          	mov    -0x18(%rbp),%rax
  40417b:	48 83 c0 08          	add    $0x8,%rax
  40417f:	89 da                	mov    %ebx,%edx
  404181:	48 89 ce             	mov    %rcx,%rsi
  404184:	48 89 c7             	mov    %rax,%rdi
  404187:	e8 d0 1d 00 00       	callq  405f5c <_ZN15CPU_MATHEMATICS4copyI10continuousIfS_EK7pBufferIfS_19StackScalarAccessorIfS_ES2_N9Operation3subIfEEEEEvRT_RT0_i>
  40418c:	48 8b 45 e8          	mov    -0x18(%rbp),%rax
  404190:	48 83 c4 18          	add    $0x18,%rsp
  404194:	5b                   	pop    %rbx
  404195:	5d                   	pop    %rbp
  404196:	c3                   	retq   
  404197:	90                   	nop

0000000000404198 <_ZN12Tensor_QueenIf15CPU_MATHEMATICS10continuousIfS0_EED1Ev>:
  404198:	55                   	push   %rbp
  404199:	48 89 e5             	mov    %rsp,%rbp
  40419c:	48 83 ec 10          	sub    $0x10,%rsp
  4041a0:	48 89 7d f8          	mov    %rdi,-0x8(%rbp)
  4041a4:	ba d8 d8 40 00       	mov    $0x40d8d8,%edx
  4041a9:	48 8b 45 f8          	mov    -0x8(%rbp),%rax
  4041ad:	48 89 10             	mov    %rdx,(%rax)
  4041b0:	48 8b 45 f8          	mov    -0x8(%rbp),%rax
  4041b4:	48 89 c7             	mov    %rax,%rdi
  4041b7:	e8 a0 12 00 00       	callq  40545c <_ZN11Tensor_KingIf15CPU_MATHEMATICS10continuousIfS0_EED1Ev>
  4041bc:	b8 00 00 00 00       	mov    $0x0,%eax
  4041c1:	85 c0                	test   %eax,%eax
  4041c3:	74 11                	je     4041d6 <_ZN12Tensor_QueenIf15CPU_MATHEMATICS10continuousIfS0_EED1Ev+0x3e>
  4041c5:	48 8b 45 f8          	mov    -0x8(%rbp),%rax
  4041c9:	be 30 00 00 00       	mov    $0x30,%esi
  4041ce:	48 89 c7             	mov    %rax,%rdi
  4041d1:	e8 fa db ff ff       	callq  401dd0 <_ZdlPvm@plt>
  4041d6:	c9                   	leaveq 
  4041d7:	c3                   	retq   

00000000004041d8 <_ZN12Tensor_QueenIf15CPU_MATHEMATICS10continuousIfS0_EED0Ev>:
  4041d8:	55                   	push   %rbp
  4041d9:	48 89 e5             	mov    %rsp,%rbp
  4041dc:	48 83 ec 10          	sub    $0x10,%rsp
  4041e0:	48 89 7d f8          	mov    %rdi,-0x8(%rbp)
  4041e4:	48 8b 45 f8          	mov    -0x8(%rbp),%rax
  4041e8:	48 89 c7             	mov    %rax,%rdi
  4041eb:	e8 a8 ff ff ff       	callq  404198 <_ZN12Tensor_QueenIf15CPU_MATHEMATICS10continuousIfS0_EED1Ev>
  4041f0:	48 8b 45 f8          	mov    -0x8(%rbp),%rax
  4041f4:	be 30 00 00 00       	mov    $0x30,%esi
  4041f9:	48 89 c7             	mov    %rax,%rdi
  4041fc:	e8 cf db ff ff       	callq  401dd0 <_ZdlPvm@plt>
  404201:	c9                   	leaveq 
  404202:	c3                   	retq   
  404203:	90                   	nop

0000000000404204 <_ZN6VectorIf15CPU_MATHEMATICS10continuousIfS0_EEC1Ei>:
  404204:	55                   	push   %rbp
  404205:	48 89 e5             	mov    %rsp,%rbp
  404208:	48 83 ec 20          	sub    $0x20,%rsp
  40420c:	48 89 7d e8          	mov    %rdi,-0x18(%rbp)
  404210:	89 75 e4             	mov    %esi,-0x1c(%rbp)
  404213:	64 48 8b 3c 25 28 00 	mov    %fs:0x28,%rdi
  40421a:	00 00 
  40421c:	48 89 7d f8          	mov    %rdi,-0x8(%rbp)
  404220:	31 ff                	xor    %edi,%edi
  404222:	8b 4d e4             	mov    -0x1c(%rbp),%ecx
  404225:	89 4d f0             	mov    %ecx,-0x10(%rbp)
  404228:	48 8d 4d f0          	lea    -0x10(%rbp),%rcx
  40422c:	48 89 c8             	mov    %rcx,%rax
  40422f:	ba 01 00 00 00       	mov    $0x1,%edx
  404234:	48 8b 4d e8          	mov    -0x18(%rbp),%rcx
  404238:	48 89 c6             	mov    %rax,%rsi
  40423b:	48 89 d7             	mov    %rdx,%rdi
  40423e:	48 89 d0             	mov    %rdx,%rax
  404241:	48 89 c2             	mov    %rax,%rdx
  404244:	48 89 cf             	mov    %rcx,%rdi
  404247:	e8 50 f3 ff ff       	callq  40359c <_ZN12Tensor_QueenIf15CPU_MATHEMATICS10continuousIfS0_EEC1ESt16initializer_listIiE>
  40424c:	ba 18 d3 40 00       	mov    $0x40d318,%edx
  404251:	48 8b 45 e8          	mov    -0x18(%rbp),%rax
  404255:	48 89 10             	mov    %rdx,(%rax)
  404258:	90                   	nop
  404259:	48 8b 45 f8          	mov    -0x8(%rbp),%rax
  40425d:	64 48 33 04 25 28 00 	xor    %fs:0x28,%rax
  404264:	00 00 
  404266:	74 05                	je     40426d <_ZN6VectorIf15CPU_MATHEMATICS10continuousIfS0_EEC1Ei+0x69>
  404268:	e8 c3 db ff ff       	callq  401e30 <__stack_chk_fail@plt>
  40426d:	c9                   	leaveq 
  40426e:	c3                   	retq   
  40426f:	90                   	nop

0000000000404270 <_ZN18reference_accessorIf15CPU_MATHEMATICSEC1ERKS1_>:
  404270:	55                   	push   %rbp
  404271:	48 89 e5             	mov    %rsp,%rbp
  404274:	48 83 ec 10          	sub    $0x10,%rsp
  404278:	48 89 7d f8          	mov    %rdi,-0x8(%rbp)
  40427c:	48 89 75 f0          	mov    %rsi,-0x10(%rbp)
  404280:	48 8b 55 f0          	mov    -0x10(%rbp),%rdx
  404284:	48 8b 45 f8          	mov    -0x8(%rbp),%rax
  404288:	48 89 d6             	mov    %rdx,%rsi
  40428b:	48 89 c7             	mov    %rax,%rdi
  40428e:	e8 75 f3 ff ff       	callq  403608 <_ZN12accessor_aceIf15CPU_MATHEMATICSEC1ERKS1_>
  404293:	ba 98 d2 40 00       	mov    $0x40d298,%edx
  404298:	48 8b 45 f8          	mov    -0x8(%rbp),%rax
  40429c:	48 89 10             	mov    %rdx,(%rax)
  40429f:	90                   	nop
  4042a0:	c9                   	leaveq 
  4042a1:	c3                   	retq   

00000000004042a2 <_ZN18reference_accessorIf15CPU_MATHEMATICSED1Ev>:
  4042a2:	55                   	push   %rbp
  4042a3:	48 89 e5             	mov    %rsp,%rbp
  4042a6:	48 83 ec 10          	sub    $0x10,%rsp
  4042aa:	48 89 7d f8          	mov    %rdi,-0x8(%rbp)
  4042ae:	ba 98 d2 40 00       	mov    $0x40d298,%edx
  4042b3:	48 8b 45 f8          	mov    -0x8(%rbp),%rax
  4042b7:	48 89 10             	mov    %rdx,(%rax)
  4042ba:	48 8b 45 f8          	mov    -0x8(%rbp),%rax
  4042be:	48 89 c7             	mov    %rax,%rdi
  4042c1:	e8 74 f3 ff ff       	callq  40363a <_ZN12accessor_aceIf15CPU_MATHEMATICSED1Ev>
  4042c6:	b8 00 00 00 00       	mov    $0x0,%eax
  4042cb:	85 c0                	test   %eax,%eax
  4042cd:	74 11                	je     4042e0 <_ZN18reference_accessorIf15CPU_MATHEMATICSED1Ev+0x3e>
  4042cf:	48 8b 45 f8          	mov    -0x8(%rbp),%rax
  4042d3:	be 08 00 00 00       	mov    $0x8,%esi
  4042d8:	48 89 c7             	mov    %rax,%rdi
  4042db:	e8 f0 da ff ff       	callq  401dd0 <_ZdlPvm@plt>
  4042e0:	c9                   	leaveq 
  4042e1:	c3                   	retq   

00000000004042e2 <_ZN18reference_accessorIf15CPU_MATHEMATICSED0Ev>:
  4042e2:	55                   	push   %rbp
  4042e3:	48 89 e5             	mov    %rsp,%rbp
  4042e6:	48 83 ec 10          	sub    $0x10,%rsp
  4042ea:	48 89 7d f8          	mov    %rdi,-0x8(%rbp)
  4042ee:	48 8b 45 f8          	mov    -0x8(%rbp),%rax
  4042f2:	48 89 c7             	mov    %rax,%rdi
  4042f5:	e8 a8 ff ff ff       	callq  4042a2 <_ZN18reference_accessorIf15CPU_MATHEMATICSED1Ev>
  4042fa:	48 8b 45 f8          	mov    -0x8(%rbp),%rax
  4042fe:	be 08 00 00 00       	mov    $0x8,%esi
  404303:	48 89 c7             	mov    %rax,%rdi
  404306:	e8 c5 da ff ff       	callq  401dd0 <_ZdlPvm@plt>
  40430b:	c9                   	leaveq 
  40430c:	c3                   	retq   
  40430d:	90                   	nop

000000000040430e <_ZN23ReferenceScalarAccessorIf15CPU_MATHEMATICSEC1ERKS1_>:
  40430e:	55                   	push   %rbp
  40430f:	48 89 e5             	mov    %rsp,%rbp
  404312:	48 83 ec 10          	sub    $0x10,%rsp
  404316:	48 89 7d f8          	mov    %rdi,-0x8(%rbp)
  40431a:	48 89 75 f0          	mov    %rsi,-0x10(%rbp)
  40431e:	48 8b 55 f0          	mov    -0x10(%rbp),%rdx
  404322:	48 8b 45 f8          	mov    -0x8(%rbp),%rax
  404326:	48 89 d6             	mov    %rdx,%rsi
  404329:	48 89 c7             	mov    %rax,%rdi
  40432c:	e8 71 fa ff ff       	callq  403da2 <_ZN15Scalar_AccessorIf15CPU_MATHEMATICSEC1ERKS1_>
  404331:	48 8b 45 f0          	mov    -0x10(%rbp),%rax
  404335:	48 8d 50 08          	lea    0x8(%rax),%rdx
  404339:	48 8b 45 f8          	mov    -0x8(%rbp),%rax
  40433d:	48 83 c0 08          	add    $0x8,%rax
  404341:	48 89 d6             	mov    %rdx,%rsi
  404344:	48 89 c7             	mov    %rax,%rdi
  404347:	e8 24 ff ff ff       	callq  404270 <_ZN18reference_accessorIf15CPU_MATHEMATICSEC1ERKS1_>
  40434c:	ba 98 d1 40 00       	mov    $0x40d198,%edx
  404351:	48 8b 45 f8          	mov    -0x8(%rbp),%rax
  404355:	48 89 10             	mov    %rdx,(%rax)
  404358:	ba 18 d2 40 00       	mov    $0x40d218,%edx
  40435d:	48 8b 45 f8          	mov    -0x8(%rbp),%rax
  404361:	48 89 50 08          	mov    %rdx,0x8(%rax)
  404365:	48 8b 45 f0          	mov    -0x10(%rbp),%rax
  404369:	48 8b 50 10          	mov    0x10(%rax),%rdx
  40436d:	48 8b 45 f8          	mov    -0x8(%rbp),%rax
  404371:	48 89 50 10          	mov    %rdx,0x10(%rax)
  404375:	90                   	nop
  404376:	c9                   	leaveq 
  404377:	c3                   	retq   

0000000000404378 <_ZN23ReferenceScalarAccessorIf15CPU_MATHEMATICSED1Ev>:
  404378:	55                   	push   %rbp
  404379:	48 89 e5             	mov    %rsp,%rbp
  40437c:	48 83 ec 10          	sub    $0x10,%rsp
  404380:	48 89 7d f8          	mov    %rdi,-0x8(%rbp)
  404384:	ba 98 d1 40 00       	mov    $0x40d198,%edx
  404389:	48 8b 45 f8          	mov    -0x8(%rbp),%rax
  40438d:	48 89 10             	mov    %rdx,(%rax)
  404390:	ba 18 d2 40 00       	mov    $0x40d218,%edx
  404395:	48 8b 45 f8          	mov    -0x8(%rbp),%rax
  404399:	48 89 50 08          	mov    %rdx,0x8(%rax)
  40439d:	48 8b 45 f8          	mov    -0x8(%rbp),%rax
  4043a1:	48 83 c0 08          	add    $0x8,%rax
  4043a5:	48 89 c7             	mov    %rax,%rdi
  4043a8:	e8 f5 fe ff ff       	callq  4042a2 <_ZN18reference_accessorIf15CPU_MATHEMATICSED1Ev>
  4043ad:	48 8b 45 f8          	mov    -0x8(%rbp),%rax
  4043b1:	48 89 c7             	mov    %rax,%rdi
  4043b4:	e8 1b fa ff ff       	callq  403dd4 <_ZN15Scalar_AccessorIf15CPU_MATHEMATICSED1Ev>
  4043b9:	b8 00 00 00 00       	mov    $0x0,%eax
  4043be:	85 c0                	test   %eax,%eax
  4043c0:	74 11                	je     4043d3 <_ZN23ReferenceScalarAccessorIf15CPU_MATHEMATICSED1Ev+0x5b>
  4043c2:	48 8b 45 f8          	mov    -0x8(%rbp),%rax
  4043c6:	be 18 00 00 00       	mov    $0x18,%esi
  4043cb:	48 89 c7             	mov    %rax,%rdi
  4043ce:	e8 fd d9 ff ff       	callq  401dd0 <_ZdlPvm@plt>
  4043d3:	c9                   	leaveq 
  4043d4:	c3                   	retq   

00000000004043d5 <_ZThn8_N23ReferenceScalarAccessorIf15CPU_MATHEMATICSED1Ev>:
  4043d5:	48 83 ef 08          	sub    $0x8,%rdi
  4043d9:	eb 9d                	jmp    404378 <_ZN23ReferenceScalarAccessorIf15CPU_MATHEMATICSED1Ev>
  4043db:	90                   	nop

00000000004043dc <_ZN23ReferenceScalarAccessorIf15CPU_MATHEMATICSED0Ev>:
  4043dc:	55                   	push   %rbp
  4043dd:	48 89 e5             	mov    %rsp,%rbp
  4043e0:	48 83 ec 10          	sub    $0x10,%rsp
  4043e4:	48 89 7d f8          	mov    %rdi,-0x8(%rbp)
  4043e8:	48 8b 45 f8          	mov    -0x8(%rbp),%rax
  4043ec:	48 89 c7             	mov    %rax,%rdi
  4043ef:	e8 84 ff ff ff       	callq  404378 <_ZN23ReferenceScalarAccessorIf15CPU_MATHEMATICSED1Ev>
  4043f4:	48 8b 45 f8          	mov    -0x8(%rbp),%rax
  4043f8:	be 18 00 00 00       	mov    $0x18,%esi
  4043fd:	48 89 c7             	mov    %rax,%rdi
  404400:	e8 cb d9 ff ff       	callq  401dd0 <_ZdlPvm@plt>
  404405:	c9                   	leaveq 
  404406:	c3                   	retq   

0000000000404407 <_ZThn8_N23ReferenceScalarAccessorIf15CPU_MATHEMATICSED0Ev>:
  404407:	48 83 ef 08          	sub    $0x8,%rdi
  40440b:	eb cf                	jmp    4043dc <_ZN23ReferenceScalarAccessorIf15CPU_MATHEMATICSED0Ev>
  40440d:	90                   	nop

000000000040440e <_ZN12Tensor_QueenIf15CPU_MATHEMATICS23ReferenceScalarAccessorIfS0_EED1Ev>:
  40440e:	55                   	push   %rbp
  40440f:	48 89 e5             	mov    %rsp,%rbp
  404412:	48 83 ec 10          	sub    $0x10,%rsp
  404416:	48 89 7d f8          	mov    %rdi,-0x8(%rbp)
  40441a:	ba 18 d1 40 00       	mov    $0x40d118,%edx
  40441f:	48 8b 45 f8          	mov    -0x8(%rbp),%rax
  404423:	48 89 10             	mov    %rdx,(%rax)
  404426:	48 8b 45 f8          	mov    -0x8(%rbp),%rax
  40442a:	48 89 c7             	mov    %rax,%rdi
  40442d:	e8 ba 1b 00 00       	callq  405fec <_ZN11Tensor_KingIf15CPU_MATHEMATICS23ReferenceScalarAccessorIfS0_EED1Ev>
  404432:	b8 00 00 00 00       	mov    $0x0,%eax
  404437:	85 c0                	test   %eax,%eax
  404439:	74 11                	je     40444c <_ZN12Tensor_QueenIf15CPU_MATHEMATICS23ReferenceScalarAccessorIfS0_EED1Ev+0x3e>
  40443b:	48 8b 45 f8          	mov    -0x8(%rbp),%rax
  40443f:	be 28 00 00 00       	mov    $0x28,%esi
  404444:	48 89 c7             	mov    %rax,%rdi
  404447:	e8 84 d9 ff ff       	callq  401dd0 <_ZdlPvm@plt>
  40444c:	c9                   	leaveq 
  40444d:	c3                   	retq   

000000000040444e <_ZN12Tensor_QueenIf15CPU_MATHEMATICS23ReferenceScalarAccessorIfS0_EED0Ev>:
  40444e:	55                   	push   %rbp
  40444f:	48 89 e5             	mov    %rsp,%rbp
  404452:	48 83 ec 10          	sub    $0x10,%rsp
  404456:	48 89 7d f8          	mov    %rdi,-0x8(%rbp)
  40445a:	48 8b 45 f8          	mov    -0x8(%rbp),%rax
  40445e:	48 89 c7             	mov    %rax,%rdi
  404461:	e8 a8 ff ff ff       	callq  40440e <_ZN12Tensor_QueenIf15CPU_MATHEMATICS23ReferenceScalarAccessorIfS0_EED1Ev>
  404466:	48 8b 45 f8          	mov    -0x8(%rbp),%rax
  40446a:	be 28 00 00 00       	mov    $0x28,%esi
  40446f:	48 89 c7             	mov    %rax,%rdi
  404472:	e8 59 d9 ff ff       	callq  401dd0 <_ZdlPvm@plt>
  404477:	c9                   	leaveq 
  404478:	c3                   	retq   
  404479:	90                   	nop

000000000040447a <_ZN6VectorIf15CPU_MATHEMATICS10continuousIfS0_EEixEi>:
  40447a:	55                   	push   %rbp
  40447b:	48 89 e5             	mov    %rsp,%rbp
  40447e:	48 83 ec 20          	sub    $0x20,%rsp
  404482:	48 89 7d f8          	mov    %rdi,-0x8(%rbp)
  404486:	48 89 75 f0          	mov    %rsi,-0x10(%rbp)
  40448a:	89 55 ec             	mov    %edx,-0x14(%rbp)
  40448d:	48 8b 45 f0          	mov    -0x10(%rbp),%rax
  404491:	48 8d 50 08          	lea    0x8(%rax),%rdx
  404495:	8b 45 ec             	mov    -0x14(%rbp),%eax
  404498:	89 c6                	mov    %eax,%esi
  40449a:	48 89 d7             	mov    %rdx,%rdi
  40449d:	e8 c0 03 00 00       	callq  404862 <_ZN10continuousIf15CPU_MATHEMATICSEixEi>
  4044a2:	48 89 c2             	mov    %rax,%rdx
  4044a5:	48 8b 45 f8          	mov    -0x8(%rbp),%rax
  4044a9:	48 89 d6             	mov    %rdx,%rsi
  4044ac:	48 89 c7             	mov    %rax,%rdi
  4044af:	e8 04 1b 00 00       	callq  405fb8 <_ZN9Id_ScalarIf15CPU_MATHEMATICSEC1EPf>
  4044b4:	48 8b 45 f8          	mov    -0x8(%rbp),%rax
  4044b8:	c9                   	leaveq 
  4044b9:	c3                   	retq   

00000000004044ba <_ZNK12Tensor_QueenIf15CPU_MATHEMATICS23ReferenceScalarAccessorIfS0_EE5printEv>:
  4044ba:	55                   	push   %rbp
  4044bb:	48 89 e5             	mov    %rsp,%rbp
  4044be:	41 56                	push   %r14
  4044c0:	41 55                	push   %r13
  4044c2:	41 54                	push   %r12
  4044c4:	53                   	push   %rbx
  4044c5:	48 83 ec 50          	sub    $0x50,%rsp
  4044c9:	48 89 7d 98          	mov    %rdi,-0x68(%rbp)
  4044cd:	64 48 8b 04 25 28 00 	mov    %fs:0x28,%rax
  4044d4:	00 00 
  4044d6:	48 89 45 d8          	mov    %rax,-0x28(%rbp)
  4044da:	31 c0                	xor    %eax,%eax
  4044dc:	48 8b 45 98          	mov    -0x68(%rbp),%rax
  4044e0:	48 83 c0 08          	add    $0x8,%rax
  4044e4:	48 89 c7             	mov    %rax,%rdi
  4044e7:	e8 c4 1b 00 00       	callq  4060b0 <_ZNK23ReferenceScalarAccessorIf15CPU_MATHEMATICSE8hasShapeEv>
  4044ec:	bb 00 00 00 00       	mov    $0x0,%ebx
  4044f1:	41 bc 00 00 00 00    	mov    $0x0,%r12d
  4044f7:	84 c0                	test   %al,%al
  4044f9:	74 57                	je     404552 <_ZNK12Tensor_QueenIf15CPU_MATHEMATICS23ReferenceScalarAccessorIfS0_EE5printEv+0x98>
  4044fb:	48 8b 45 98          	mov    -0x68(%rbp),%rax
  4044ff:	48 89 c7             	mov    %rax,%rdi
  404502:	e8 cf 1b 00 00       	callq  4060d6 <_ZNK11Tensor_KingIf15CPU_MATHEMATICS23ReferenceScalarAccessorIfS0_EE5orderEv>
  404507:	41 89 c6             	mov    %eax,%r14d
  40450a:	48 8b 45 98          	mov    -0x68(%rbp),%rax
  40450e:	48 83 c0 08          	add    $0x8,%rax
  404512:	48 89 c7             	mov    %rax,%rdi
  404515:	e8 a6 1b 00 00       	callq  4060c0 <_ZNK23ReferenceScalarAccessorIf15CPU_MATHEMATICSE8getShapeEv>
  40451a:	49 89 c5             	mov    %rax,%r13
  40451d:	48 8b 45 98          	mov    -0x68(%rbp),%rax
  404521:	48 8d 50 08          	lea    0x8(%rax),%rdx
  404525:	48 8d 45 a0          	lea    -0x60(%rbp),%rax
  404529:	48 89 d6             	mov    %rdx,%rsi
  40452c:	48 89 c7             	mov    %rax,%rdi
  40452f:	e8 da fd ff ff       	callq  40430e <_ZN23ReferenceScalarAccessorIf15CPU_MATHEMATICSEC1ERKS1_>
  404534:	bb 01 00 00 00       	mov    $0x1,%ebx
  404539:	48 8d 45 a0          	lea    -0x60(%rbp),%rax
  40453d:	b9 05 00 00 00       	mov    $0x5,%ecx
  404542:	44 89 f2             	mov    %r14d,%edx
  404545:	4c 89 ee             	mov    %r13,%rsi
  404548:	48 89 c7             	mov    %rax,%rdi
  40454b:	e8 a4 1b 00 00       	callq  4060f4 <_ZN15CPU_MATHEMATICS5printI23ReferenceScalarAccessorIfS_EEEvT_PKiii>
  404550:	eb 40                	jmp    404592 <_ZNK12Tensor_QueenIf15CPU_MATHEMATICS23ReferenceScalarAccessorIfS0_EE5printEv+0xd8>
  404552:	48 8b 45 98          	mov    -0x68(%rbp),%rax
  404556:	48 89 c7             	mov    %rax,%rdi
  404559:	e8 ec 1c 00 00       	callq  40624a <_ZNK11Tensor_KingIf15CPU_MATHEMATICS23ReferenceScalarAccessorIfS0_EE4sizeEv>
  40455e:	41 89 c5             	mov    %eax,%r13d
  404561:	48 8b 45 98          	mov    -0x68(%rbp),%rax
  404565:	48 8d 50 08          	lea    0x8(%rax),%rdx
  404569:	48 8d 45 c0          	lea    -0x40(%rbp),%rax
  40456d:	48 89 d6             	mov    %rdx,%rsi
  404570:	48 89 c7             	mov    %rax,%rdi
  404573:	e8 96 fd ff ff       	callq  40430e <_ZN23ReferenceScalarAccessorIf15CPU_MATHEMATICSEC1ERKS1_>
  404578:	41 bc 01 00 00 00    	mov    $0x1,%r12d
  40457e:	48 8d 45 c0          	lea    -0x40(%rbp),%rax
  404582:	ba 05 00 00 00       	mov    $0x5,%edx
  404587:	44 89 ee             	mov    %r13d,%esi
  40458a:	48 89 c7             	mov    %rax,%rdi
  40458d:	e8 d6 1c 00 00       	callq  406268 <_ZN15CPU_MATHEMATICS5printI23ReferenceScalarAccessorIfS_EEEvT_ii>
  404592:	45 84 e4             	test   %r12b,%r12b
  404595:	74 0c                	je     4045a3 <_ZNK12Tensor_QueenIf15CPU_MATHEMATICS23ReferenceScalarAccessorIfS0_EE5printEv+0xe9>
  404597:	48 8d 45 c0          	lea    -0x40(%rbp),%rax
  40459b:	48 89 c7             	mov    %rax,%rdi
  40459e:	e8 d5 fd ff ff       	callq  404378 <_ZN23ReferenceScalarAccessorIf15CPU_MATHEMATICSED1Ev>
  4045a3:	84 db                	test   %bl,%bl
  4045a5:	74 0f                	je     4045b6 <_ZNK12Tensor_QueenIf15CPU_MATHEMATICS23ReferenceScalarAccessorIfS0_EE5printEv+0xfc>
  4045a7:	90                   	nop
  4045a8:	48 8d 45 a0          	lea    -0x60(%rbp),%rax
  4045ac:	48 89 c7             	mov    %rax,%rdi
  4045af:	e8 c4 fd ff ff       	callq  404378 <_ZN23ReferenceScalarAccessorIf15CPU_MATHEMATICSED1Ev>
  4045b4:	eb 39                	jmp    4045ef <_ZNK12Tensor_QueenIf15CPU_MATHEMATICS23ReferenceScalarAccessorIfS0_EE5printEv+0x135>
  4045b6:	90                   	nop
  4045b7:	eb 36                	jmp    4045ef <_ZNK12Tensor_QueenIf15CPU_MATHEMATICS23ReferenceScalarAccessorIfS0_EE5printEv+0x135>
  4045b9:	49 89 c5             	mov    %rax,%r13
  4045bc:	45 84 e4             	test   %r12b,%r12b
  4045bf:	74 0c                	je     4045cd <_ZNK12Tensor_QueenIf15CPU_MATHEMATICS23ReferenceScalarAccessorIfS0_EE5printEv+0x113>
  4045c1:	48 8d 45 c0          	lea    -0x40(%rbp),%rax
  4045c5:	48 89 c7             	mov    %rax,%rdi
  4045c8:	e8 ab fd ff ff       	callq  404378 <_ZN23ReferenceScalarAccessorIf15CPU_MATHEMATICSED1Ev>
  4045cd:	4d 89 ec             	mov    %r13,%r12
  4045d0:	84 db                	test   %bl,%bl
  4045d2:	74 0f                	je     4045e3 <_ZNK12Tensor_QueenIf15CPU_MATHEMATICS23ReferenceScalarAccessorIfS0_EE5printEv+0x129>
  4045d4:	90                   	nop
  4045d5:	48 8d 45 a0          	lea    -0x60(%rbp),%rax
  4045d9:	48 89 c7             	mov    %rax,%rdi
  4045dc:	e8 97 fd ff ff       	callq  404378 <_ZN23ReferenceScalarAccessorIf15CPU_MATHEMATICSED1Ev>
  4045e1:	eb 01                	jmp    4045e4 <_ZNK12Tensor_QueenIf15CPU_MATHEMATICS23ReferenceScalarAccessorIfS0_EE5printEv+0x12a>
  4045e3:	90                   	nop
  4045e4:	4c 89 e0             	mov    %r12,%rax
  4045e7:	48 89 c7             	mov    %rax,%rdi
  4045ea:	e8 a1 d9 ff ff       	callq  401f90 <_Unwind_Resume@plt>
  4045ef:	48 8b 45 d8          	mov    -0x28(%rbp),%rax
  4045f3:	64 48 33 04 25 28 00 	xor    %fs:0x28,%rax
  4045fa:	00 00 
  4045fc:	74 05                	je     404603 <_ZNK12Tensor_QueenIf15CPU_MATHEMATICS23ReferenceScalarAccessorIfS0_EE5printEv+0x149>
  4045fe:	e8 2d d8 ff ff       	callq  401e30 <__stack_chk_fail@plt>
  404603:	48 83 c4 50          	add    $0x50,%rsp
  404607:	5b                   	pop    %rbx
  404608:	41 5c                	pop    %r12
  40460a:	41 5d                	pop    %r13
  40460c:	41 5e                	pop    %r14
  40460e:	5d                   	pop    %rbp
  40460f:	c3                   	retq   

0000000000404610 <_ZN7pBufferIf15CPU_MATHEMATICS10continuousIfS0_E23ReferenceScalarAccessorIfS0_EN9Operation3addIfEEED1Ev>:
  404610:	55                   	push   %rbp
  404611:	48 89 e5             	mov    %rsp,%rbp
  404614:	48 83 ec 10          	sub    $0x10,%rsp
  404618:	48 89 7d f8          	mov    %rdi,-0x8(%rbp)
  40461c:	ba 68 d0 40 00       	mov    $0x40d068,%edx
  404621:	48 8b 45 f8          	mov    -0x8(%rbp),%rax
  404625:	48 89 10             	mov    %rdx,(%rax)
  404628:	48 8b 45 f8          	mov    -0x8(%rbp),%rax
  40462c:	48 83 c0 30          	add    $0x30,%rax
  404630:	48 89 c7             	mov    %rax,%rdi
  404633:	e8 40 fd ff ff       	callq  404378 <_ZN23ReferenceScalarAccessorIf15CPU_MATHEMATICSED1Ev>
  404638:	48 8b 45 f8          	mov    -0x8(%rbp),%rax
  40463c:	48 83 c0 10          	add    $0x10,%rax
  404640:	48 89 c7             	mov    %rax,%rdi
  404643:	e8 be f0 ff ff       	callq  403706 <_ZN10continuousIf15CPU_MATHEMATICSED1Ev>
  404648:	48 8b 45 f8          	mov    -0x8(%rbp),%rax
  40464c:	48 89 c7             	mov    %rax,%rdi
  40464f:	e8 e6 ef ff ff       	callq  40363a <_ZN12accessor_aceIf15CPU_MATHEMATICSED1Ev>
  404654:	b8 00 00 00 00       	mov    $0x0,%eax
  404659:	85 c0                	test   %eax,%eax
  40465b:	74 11                	je     40466e <_ZN7pBufferIf15CPU_MATHEMATICS10continuousIfS0_E23ReferenceScalarAccessorIfS0_EN9Operation3addIfEEED1Ev+0x5e>
  40465d:	48 8b 45 f8          	mov    -0x8(%rbp),%rax
  404661:	be 48 00 00 00       	mov    $0x48,%esi
  404666:	48 89 c7             	mov    %rax,%rdi
  404669:	e8 62 d7 ff ff       	callq  401dd0 <_ZdlPvm@plt>
  40466e:	c9                   	leaveq 
  40466f:	c3                   	retq   

0000000000404670 <_ZN7pBufferIf15CPU_MATHEMATICS10continuousIfS0_E23ReferenceScalarAccessorIfS0_EN9Operation3addIfEEED0Ev>:
  404670:	55                   	push   %rbp
  404671:	48 89 e5             	mov    %rsp,%rbp
  404674:	48 83 ec 10          	sub    $0x10,%rsp
  404678:	48 89 7d f8          	mov    %rdi,-0x8(%rbp)
  40467c:	48 8b 45 f8          	mov    -0x8(%rbp),%rax
  404680:	48 89 c7             	mov    %rax,%rdi
  404683:	e8 88 ff ff ff       	callq  404610 <_ZN7pBufferIf15CPU_MATHEMATICS10continuousIfS0_E23ReferenceScalarAccessorIfS0_EN9Operation3addIfEEED1Ev>
  404688:	48 8b 45 f8          	mov    -0x8(%rbp),%rax
  40468c:	be 48 00 00 00       	mov    $0x48,%esi
  404691:	48 89 c7             	mov    %rax,%rdi
  404694:	e8 37 d7 ff ff       	callq  401dd0 <_ZdlPvm@plt>
  404699:	c9                   	leaveq 
  40469a:	c3                   	retq   
  40469b:	90                   	nop

000000000040469c <_ZN12Tensor_QueenIf15CPU_MATHEMATICS10continuousIfS0_EEplIf23ReferenceScalarAccessorIfS0_EEES_IfS0_7pBufferIfS0_S2_T0_N9Operation3addIfEEEERKS_IT_S0_S8_E>:
  40469c:	55                   	push   %rbp
  40469d:	48 89 e5             	mov    %rsp,%rbp
  4046a0:	53                   	push   %rbx
  4046a1:	48 83 ec 78          	sub    $0x78,%rsp
  4046a5:	48 89 7d 98          	mov    %rdi,-0x68(%rbp)
  4046a9:	48 89 75 90          	mov    %rsi,-0x70(%rbp)
  4046ad:	48 89 55 88          	mov    %rdx,-0x78(%rbp)
  4046b1:	64 48 8b 04 25 28 00 	mov    %fs:0x28,%rax
  4046b8:	00 00 
  4046ba:	48 89 45 e8          	mov    %rax,-0x18(%rbp)
  4046be:	31 c0                	xor    %eax,%eax
  4046c0:	48 8b 45 88          	mov    -0x78(%rbp),%rax
  4046c4:	48 8d 50 08          	lea    0x8(%rax),%rdx
  4046c8:	48 8d 45 a0          	lea    -0x60(%rbp),%rax
  4046cc:	48 89 d6             	mov    %rdx,%rsi
  4046cf:	48 89 c7             	mov    %rax,%rdi
  4046d2:	e8 37 fc ff ff       	callq  40430e <_ZN23ReferenceScalarAccessorIf15CPU_MATHEMATICSEC1ERKS1_>
  4046d7:	48 8b 45 90          	mov    -0x70(%rbp),%rax
  4046db:	48 8d 50 08          	lea    0x8(%rax),%rdx
  4046df:	48 8d 45 c0          	lea    -0x40(%rbp),%rax
  4046e3:	48 89 d6             	mov    %rdx,%rsi
  4046e6:	48 89 c7             	mov    %rax,%rdi
  4046e9:	e8 b8 ef ff ff       	callq  4036a6 <_ZN10continuousIf15CPU_MATHEMATICSEC1ERKS1_>
  4046ee:	48 8d 4d a0          	lea    -0x60(%rbp),%rcx
  4046f2:	48 8d 55 c0          	lea    -0x40(%rbp),%rdx
  4046f6:	48 8b 45 98          	mov    -0x68(%rbp),%rax
  4046fa:	be 00 00 00 00       	mov    $0x0,%esi
  4046ff:	48 89 c7             	mov    %rax,%rdi
  404702:	e8 df 1c 00 00       	callq  4063e6 <_ZN12Tensor_QueenIf15CPU_MATHEMATICS7pBufferIfS0_10continuousIfS0_E23ReferenceScalarAccessorIfS0_EN9Operation3addIfEEEEC1IIS3_S5_EEEbDpT_>
  404707:	48 8d 45 c0          	lea    -0x40(%rbp),%rax
  40470b:	48 89 c7             	mov    %rax,%rdi
  40470e:	e8 f3 ef ff ff       	callq  403706 <_ZN10continuousIf15CPU_MATHEMATICSED1Ev>
  404713:	48 8d 45 a0          	lea    -0x60(%rbp),%rax
  404717:	48 89 c7             	mov    %rax,%rdi
  40471a:	e8 59 fc ff ff       	callq  404378 <_ZN23ReferenceScalarAccessorIf15CPU_MATHEMATICSED1Ev>
  40471f:	48 8b 45 98          	mov    -0x68(%rbp),%rax
  404723:	48 8b 4d e8          	mov    -0x18(%rbp),%rcx
  404727:	64 48 33 0c 25 28 00 	xor    %fs:0x28,%rcx
  40472e:	00 00 
  404730:	74 2d                	je     40475f <_ZN12Tensor_QueenIf15CPU_MATHEMATICS10continuousIfS0_EEplIf23ReferenceScalarAccessorIfS0_EEES_IfS0_7pBufferIfS0_S2_T0_N9Operation3addIfEEEERKS_IT_S0_S8_E+0xc3>
  404732:	eb 26                	jmp    40475a <_ZN12Tensor_QueenIf15CPU_MATHEMATICS10continuousIfS0_EEplIf23ReferenceScalarAccessorIfS0_EEES_IfS0_7pBufferIfS0_S2_T0_N9Operation3addIfEEEERKS_IT_S0_S8_E+0xbe>
  404734:	48 89 c3             	mov    %rax,%rbx
  404737:	48 8d 45 c0          	lea    -0x40(%rbp),%rax
  40473b:	48 89 c7             	mov    %rax,%rdi
  40473e:	e8 c3 ef ff ff       	callq  403706 <_ZN10continuousIf15CPU_MATHEMATICSED1Ev>
  404743:	48 8d 45 a0          	lea    -0x60(%rbp),%rax
  404747:	48 89 c7             	mov    %rax,%rdi
  40474a:	e8 29 fc ff ff       	callq  404378 <_ZN23ReferenceScalarAccessorIf15CPU_MATHEMATICSED1Ev>
  40474f:	48 89 d8             	mov    %rbx,%rax
  404752:	48 89 c7             	mov    %rax,%rdi
  404755:	e8 36 d8 ff ff       	callq  401f90 <_Unwind_Resume@plt>
  40475a:	e8 d1 d6 ff ff       	callq  401e30 <__stack_chk_fail@plt>
  40475f:	48 83 c4 78          	add    $0x78,%rsp
  404763:	5b                   	pop    %rbx
  404764:	5d                   	pop    %rbp
  404765:	c3                   	retq   

0000000000404766 <_ZN6VectorIf15CPU_MATHEMATICS10continuousIfS0_EEaSIf7pBufferIfS0_S2_23ReferenceScalarAccessorIfS0_EN9Operation3addIfEEEEERS3_RK12Tensor_QueenIT_S0_T0_E>:
  404766:	55                   	push   %rbp
  404767:	48 89 e5             	mov    %rsp,%rbp
  40476a:	53                   	push   %rbx
  40476b:	48 83 ec 18          	sub    $0x18,%rsp
  40476f:	48 89 7d e8          	mov    %rdi,-0x18(%rbp)
  404773:	48 89 75 e0          	mov    %rsi,-0x20(%rbp)
  404777:	48 8b 45 e8          	mov    -0x18(%rbp),%rax
  40477b:	48 89 c7             	mov    %rax,%rdi
  40477e:	e8 af 00 00 00       	callq  404832 <_ZNK11Tensor_KingIf15CPU_MATHEMATICS10continuousIfS0_EE4sizeEv>
  404783:	89 c3                	mov    %eax,%ebx
  404785:	48 8b 45 e0          	mov    -0x20(%rbp),%rax
  404789:	48 89 c7             	mov    %rax,%rdi
  40478c:	e8 f1 1d 00 00       	callq  406582 <_ZNK11Tensor_KingIf15CPU_MATHEMATICS7pBufferIfS0_10continuousIfS0_E23ReferenceScalarAccessorIfS0_EN9Operation3addIfEEEE8accessorEv>
  404791:	48 89 c1             	mov    %rax,%rcx
  404794:	48 8b 45 e8          	mov    -0x18(%rbp),%rax
  404798:	48 83 c0 08          	add    $0x8,%rax
  40479c:	89 da                	mov    %ebx,%edx
  40479e:	48 89 ce             	mov    %rcx,%rsi
  4047a1:	48 89 c7             	mov    %rax,%rdi
  4047a4:	e8 eb 1d 00 00       	callq  406594 <_ZN15CPU_MATHEMATICS4copyI10continuousIfS_EK7pBufferIfS_S2_23ReferenceScalarAccessorIfS_EN9Operation3addIfEEEEEvRT_RT0_i>
  4047a9:	48 8b 45 e8          	mov    -0x18(%rbp),%rax
  4047ad:	48 83 c4 18          	add    $0x18,%rsp
  4047b1:	5b                   	pop    %rbx
  4047b2:	5d                   	pop    %rbp
  4047b3:	c3                   	retq   

00000000004047b4 <_ZN6MatrixIf15CPU_MATHEMATICS10continuousIfS0_EEC1Eii>:
  4047b4:	55                   	push   %rbp
  4047b5:	48 89 e5             	mov    %rsp,%rbp
  4047b8:	53                   	push   %rbx
  4047b9:	48 83 ec 28          	sub    $0x28,%rsp
  4047bd:	48 89 7d d8          	mov    %rdi,-0x28(%rbp)
  4047c1:	89 75 d4             	mov    %esi,-0x2c(%rbp)
  4047c4:	89 55 d0             	mov    %edx,-0x30(%rbp)
  4047c7:	64 48 8b 04 25 28 00 	mov    %fs:0x28,%rax
  4047ce:	00 00 
  4047d0:	48 89 45 e8          	mov    %rax,-0x18(%rbp)
  4047d4:	31 c0                	xor    %eax,%eax
  4047d6:	8b 45 d4             	mov    -0x2c(%rbp),%eax
  4047d9:	89 45 e0             	mov    %eax,-0x20(%rbp)
  4047dc:	8b 45 d0             	mov    -0x30(%rbp),%eax
  4047df:	89 45 e4             	mov    %eax,-0x1c(%rbp)
  4047e2:	48 8d 45 e0          	lea    -0x20(%rbp),%rax
  4047e6:	48 89 c1             	mov    %rax,%rcx
  4047e9:	bb 02 00 00 00       	mov    $0x2,%ebx
  4047ee:	48 8b 45 d8          	mov    -0x28(%rbp),%rax
  4047f2:	48 89 ce             	mov    %rcx,%rsi
  4047f5:	48 89 df             	mov    %rbx,%rdi
  4047f8:	48 89 ca             	mov    %rcx,%rdx
  4047fb:	48 89 d9             	mov    %rbx,%rcx
  4047fe:	48 89 ca             	mov    %rcx,%rdx
  404801:	48 89 c7             	mov    %rax,%rdi
  404804:	e8 93 ed ff ff       	callq  40359c <_ZN12Tensor_QueenIf15CPU_MATHEMATICS10continuousIfS0_EEC1ESt16initializer_listIiE>
  404809:	ba a8 cf 40 00       	mov    $0x40cfa8,%edx
  40480e:	48 8b 45 d8          	mov    -0x28(%rbp),%rax
  404812:	48 89 10             	mov    %rdx,(%rax)
  404815:	90                   	nop
  404816:	48 8b 45 e8          	mov    -0x18(%rbp),%rax
  40481a:	64 48 33 04 25 28 00 	xor    %fs:0x28,%rax
  404821:	00 00 
  404823:	74 05                	je     40482a <_ZN6MatrixIf15CPU_MATHEMATICS10continuousIfS0_EEC1Eii+0x76>
  404825:	e8 06 d6 ff ff       	callq  401e30 <__stack_chk_fail@plt>
  40482a:	48 83 c4 28          	add    $0x28,%rsp
  40482e:	5b                   	pop    %rbx
  40482f:	5d                   	pop    %rbp
  404830:	c3                   	retq   
  404831:	90                   	nop

0000000000404832 <_ZNK11Tensor_KingIf15CPU_MATHEMATICS10continuousIfS0_EE4sizeEv>:
  404832:	55                   	push   %rbp
  404833:	48 89 e5             	mov    %rsp,%rbp
  404836:	48 83 ec 10          	sub    $0x10,%rsp
  40483a:	48 89 7d f8          	mov    %rdi,-0x8(%rbp)
  40483e:	48 8b 45 f8          	mov    -0x8(%rbp),%rax
  404842:	48 83 c0 08          	add    $0x8,%rax
  404846:	48 89 c7             	mov    %rax,%rdi
  404849:	e8 a2 1d 00 00       	callq  4065f0 <_ZNK10continuousIf15CPU_MATHEMATICSE4sizeEv>
  40484e:	c9                   	leaveq 
  40484f:	c3                   	retq   

0000000000404850 <_ZN11Tensor_KingIf15CPU_MATHEMATICS10continuousIfS0_EE8accessorEv>:
  404850:	55                   	push   %rbp
  404851:	48 89 e5             	mov    %rsp,%rbp
  404854:	48 89 7d f8          	mov    %rdi,-0x8(%rbp)
  404858:	48 8b 45 f8          	mov    -0x8(%rbp),%rax
  40485c:	48 83 c0 08          	add    $0x8,%rax
  404860:	5d                   	pop    %rbp
  404861:	c3                   	retq   

0000000000404862 <_ZN10continuousIf15CPU_MATHEMATICSEixEi>:
  404862:	55                   	push   %rbp
  404863:	48 89 e5             	mov    %rsp,%rbp
  404866:	48 89 7d f8          	mov    %rdi,-0x8(%rbp)
  40486a:	89 75 f4             	mov    %esi,-0xc(%rbp)
  40486d:	48 8b 45 f8          	mov    -0x8(%rbp),%rax
  404871:	48 8b 40 08          	mov    0x8(%rax),%rax
  404875:	8b 55 f4             	mov    -0xc(%rbp),%edx
  404878:	48 63 d2             	movslq %edx,%rdx
  40487b:	48 c1 e2 02          	shl    $0x2,%rdx
  40487f:	48 01 d0             	add    %rdx,%rax
  404882:	5d                   	pop    %rbp
  404883:	c3                   	retq   

0000000000404884 <_ZN12Tensor_QueenIf15CPU_MATHEMATICS10continuousIfS0_EEmlIS2_EES3_RKS_IfS0_T_E>:
  404884:	55                   	push   %rbp
  404885:	48 89 e5             	mov    %rsp,%rbp
  404888:	41 57                	push   %r15
  40488a:	41 56                	push   %r14
  40488c:	41 55                	push   %r13
  40488e:	41 54                	push   %r12
  404890:	53                   	push   %rbx
  404891:	48 83 ec 38          	sub    $0x38,%rsp
  404895:	48 89 7d b8          	mov    %rdi,-0x48(%rbp)
  404899:	48 89 75 b0          	mov    %rsi,-0x50(%rbp)
  40489d:	48 89 55 a8          	mov    %rdx,-0x58(%rbp)
  4048a1:	64 48 8b 04 25 28 00 	mov    %fs:0x28,%rax
  4048a8:	00 00 
  4048aa:	48 89 45 c8          	mov    %rax,-0x38(%rbp)
  4048ae:	31 c0                	xor    %eax,%eax
  4048b0:	48 8b 45 b0          	mov    -0x50(%rbp),%rax
  4048b4:	48 89 c7             	mov    %rax,%rdi
  4048b7:	e8 20 0d 00 00       	callq  4055dc <_ZNK11Tensor_KingIf15CPU_MATHEMATICS10continuousIfS0_EE5orderEv>
  4048bc:	83 f8 02             	cmp    $0x2,%eax
  4048bf:	7f 11                	jg     4048d2 <_ZN12Tensor_QueenIf15CPU_MATHEMATICS10continuousIfS0_EEmlIS2_EES3_RKS_IfS0_T_E+0x4e>
  4048c1:	48 8b 45 a8          	mov    -0x58(%rbp),%rax
  4048c5:	48 89 c7             	mov    %rax,%rdi
  4048c8:	e8 0f 0d 00 00       	callq  4055dc <_ZNK11Tensor_KingIf15CPU_MATHEMATICS10continuousIfS0_EE5orderEv>
  4048cd:	83 f8 02             	cmp    $0x2,%eax
  4048d0:	7e 07                	jle    4048d9 <_ZN12Tensor_QueenIf15CPU_MATHEMATICS10continuousIfS0_EEmlIS2_EES3_RKS_IfS0_T_E+0x55>
  4048d2:	b8 01 00 00 00       	mov    $0x1,%eax
  4048d7:	eb 05                	jmp    4048de <_ZN12Tensor_QueenIf15CPU_MATHEMATICS10continuousIfS0_EEmlIS2_EES3_RKS_IfS0_T_E+0x5a>
  4048d9:	b8 00 00 00 00       	mov    $0x0,%eax
  4048de:	84 c0                	test   %al,%al
  4048e0:	74 2c                	je     40490e <_ZN12Tensor_QueenIf15CPU_MATHEMATICS10continuousIfS0_EEmlIS2_EES3_RKS_IfS0_T_E+0x8a>
  4048e2:	bf 10 00 00 00       	mov    $0x10,%edi
  4048e7:	e8 24 d4 ff ff       	callq  401d10 <__cxa_allocate_exception@plt>
  4048ec:	48 89 c3             	mov    %rax,%rbx
  4048ef:	be 40 c7 40 00       	mov    $0x40c740,%esi
  4048f4:	48 89 df             	mov    %rbx,%rdi
  4048f7:	e8 f4 d6 ff ff       	callq  401ff0 <_ZNSt16invalid_argumentC1EPKc@plt>
  4048fc:	ba 50 1f 40 00       	mov    $0x401f50,%edx
  404901:	be 20 44 61 00       	mov    $0x614420,%esi
  404906:	48 89 df             	mov    %rbx,%rdi
  404909:	e8 62 d6 ff ff       	callq  401f70 <__cxa_throw@plt>
  40490e:	48 8b 45 b0          	mov    -0x50(%rbp),%rax
  404912:	be 01 00 00 00       	mov    $0x1,%esi
  404917:	48 89 c7             	mov    %rax,%rdi
  40491a:	e8 0f 1d 00 00       	callq  40662e <_ZNK11Tensor_KingIf15CPU_MATHEMATICS10continuousIfS0_EE9dimensionEi>
  40491f:	89 c3                	mov    %eax,%ebx
  404921:	48 8b 45 a8          	mov    -0x58(%rbp),%rax
  404925:	be 00 00 00 00       	mov    $0x0,%esi
  40492a:	48 89 c7             	mov    %rax,%rdi
  40492d:	e8 fc 1c 00 00       	callq  40662e <_ZNK11Tensor_KingIf15CPU_MATHEMATICS10continuousIfS0_EE9dimensionEi>
  404932:	39 c3                	cmp    %eax,%ebx
  404934:	0f 95 c0             	setne  %al
  404937:	84 c0                	test   %al,%al
  404939:	74 2c                	je     404967 <_ZN12Tensor_QueenIf15CPU_MATHEMATICS10continuousIfS0_EEmlIS2_EES3_RKS_IfS0_T_E+0xe3>
  40493b:	bf 10 00 00 00       	mov    $0x10,%edi
  404940:	e8 cb d3 ff ff       	callq  401d10 <__cxa_allocate_exception@plt>
  404945:	48 89 c3             	mov    %rax,%rbx
  404948:	be 78 c7 40 00       	mov    $0x40c778,%esi
  40494d:	48 89 df             	mov    %rbx,%rdi
  404950:	e8 9b d6 ff ff       	callq  401ff0 <_ZNSt16invalid_argumentC1EPKc@plt>
  404955:	ba 50 1f 40 00       	mov    $0x401f50,%edx
  40495a:	be 20 44 61 00       	mov    $0x614420,%esi
  40495f:	48 89 df             	mov    %rbx,%rdi
  404962:	e8 09 d6 ff ff       	callq  401f70 <__cxa_throw@plt>
  404967:	48 8b 45 b0          	mov    -0x50(%rbp),%rax
  40496b:	be 00 00 00 00       	mov    $0x0,%esi
  404970:	48 89 c7             	mov    %rax,%rdi
  404973:	e8 b6 1c 00 00       	callq  40662e <_ZNK11Tensor_KingIf15CPU_MATHEMATICS10continuousIfS0_EE9dimensionEi>
  404978:	89 45 c0             	mov    %eax,-0x40(%rbp)
  40497b:	48 8b 45 a8          	mov    -0x58(%rbp),%rax
  40497f:	be 01 00 00 00       	mov    $0x1,%esi
  404984:	48 89 c7             	mov    %rax,%rdi
  404987:	e8 a2 1c 00 00       	callq  40662e <_ZNK11Tensor_KingIf15CPU_MATHEMATICS10continuousIfS0_EE9dimensionEi>
  40498c:	89 45 c4             	mov    %eax,-0x3c(%rbp)
  40498f:	48 8d 45 c0          	lea    -0x40(%rbp),%rax
  404993:	49 89 c4             	mov    %rax,%r12
  404996:	41 bd 02 00 00 00    	mov    $0x2,%r13d
  40499c:	4c 89 e1             	mov    %r12,%rcx
  40499f:	4c 89 eb             	mov    %r13,%rbx
  4049a2:	4c 89 e0             	mov    %r12,%rax
  4049a5:	4c 89 ea             	mov    %r13,%rdx
  4049a8:	48 8b 45 b8          	mov    -0x48(%rbp),%rax
  4049ac:	48 89 ce             	mov    %rcx,%rsi
  4049af:	48 89 c7             	mov    %rax,%rdi
  4049b2:	e8 e5 eb ff ff       	callq  40359c <_ZN12Tensor_QueenIf15CPU_MATHEMATICS10continuousIfS0_EEC1ESt16initializer_listIiE>
  4049b7:	48 8b 45 b8          	mov    -0x48(%rbp),%rax
  4049bb:	48 89 c7             	mov    %rax,%rdi
  4049be:	e8 91 1c 00 00       	callq  406654 <_ZN12Tensor_QueenIf15CPU_MATHEMATICS10continuousIfS0_EE4zeroEv>
  4049c3:	48 8b 45 a8          	mov    -0x58(%rbp),%rax
  4049c7:	be 01 00 00 00       	mov    $0x1,%esi
  4049cc:	48 89 c7             	mov    %rax,%rdi
  4049cf:	e8 5a 1c 00 00       	callq  40662e <_ZNK11Tensor_KingIf15CPU_MATHEMATICS10continuousIfS0_EE9dimensionEi>
  4049d4:	41 89 c7             	mov    %eax,%r15d
  4049d7:	48 8b 45 a8          	mov    -0x58(%rbp),%rax
  4049db:	48 89 c7             	mov    %rax,%rdi
  4049de:	e8 b3 1c 00 00       	callq  406696 <_ZNK11Tensor_KingIf15CPU_MATHEMATICS10continuousIfS0_EE8accessorEv>
  4049e3:	48 8b 10             	mov    (%rax),%rdx
  4049e6:	48 83 c2 30          	add    $0x30,%rdx
  4049ea:	48 8b 12             	mov    (%rdx),%rdx
  4049ed:	48 89 c7             	mov    %rax,%rdi
  4049f0:	ff d2                	callq  *%rdx
  4049f2:	49 89 c6             	mov    %rax,%r14
  4049f5:	48 8b 45 b0          	mov    -0x50(%rbp),%rax
  4049f9:	be 01 00 00 00       	mov    $0x1,%esi
  4049fe:	48 89 c7             	mov    %rax,%rdi
  404a01:	e8 28 1c 00 00       	callq  40662e <_ZNK11Tensor_KingIf15CPU_MATHEMATICS10continuousIfS0_EE9dimensionEi>
  404a06:	41 89 c5             	mov    %eax,%r13d
  404a09:	48 8b 45 b0          	mov    -0x50(%rbp),%rax
  404a0d:	be 00 00 00 00       	mov    $0x0,%esi
  404a12:	48 89 c7             	mov    %rax,%rdi
  404a15:	e8 14 1c 00 00       	callq  40662e <_ZNK11Tensor_KingIf15CPU_MATHEMATICS10continuousIfS0_EE9dimensionEi>
  404a1a:	41 89 c4             	mov    %eax,%r12d
  404a1d:	48 8b 45 b0          	mov    -0x50(%rbp),%rax
  404a21:	48 89 c7             	mov    %rax,%rdi
  404a24:	e8 27 fe ff ff       	callq  404850 <_ZN11Tensor_KingIf15CPU_MATHEMATICS10continuousIfS0_EE8accessorEv>
  404a29:	48 8b 10             	mov    (%rax),%rdx
  404a2c:	48 83 c2 48          	add    $0x48,%rdx
  404a30:	48 8b 12             	mov    (%rdx),%rdx
  404a33:	48 89 c7             	mov    %rax,%rdi
  404a36:	ff d2                	callq  *%rdx
  404a38:	48 89 c3             	mov    %rax,%rbx
  404a3b:	48 8b 45 b8          	mov    -0x48(%rbp),%rax
  404a3f:	48 89 c7             	mov    %rax,%rdi
  404a42:	e8 09 fe ff ff       	callq  404850 <_ZN11Tensor_KingIf15CPU_MATHEMATICS10continuousIfS0_EE8accessorEv>
  404a47:	48 8b 10             	mov    (%rax),%rdx
  404a4a:	48 83 c2 48          	add    $0x48,%rdx
  404a4e:	48 8b 12             	mov    (%rdx),%rdx
  404a51:	48 89 c7             	mov    %rax,%rdi
  404a54:	ff d2                	callq  *%rdx
  404a56:	45 89 f9             	mov    %r15d,%r9d
  404a59:	4d 89 f0             	mov    %r14,%r8
  404a5c:	44 89 e9             	mov    %r13d,%ecx
  404a5f:	44 89 e2             	mov    %r12d,%edx
  404a62:	48 89 de             	mov    %rbx,%rsi
  404a65:	48 89 c7             	mov    %rax,%rdi
  404a68:	e8 b7 7a 00 00       	callq  40c524 <_ZN15CPU_MATHEMATICS10matmulBLASEPfPKfiiS2_i>
  404a6d:	eb 46                	jmp    404ab5 <_ZN12Tensor_QueenIf15CPU_MATHEMATICS10continuousIfS0_EEmlIS2_EES3_RKS_IfS0_T_E+0x231>
  404a6f:	49 89 c4             	mov    %rax,%r12
  404a72:	48 89 df             	mov    %rbx,%rdi
  404a75:	e8 e6 d2 ff ff       	callq  401d60 <__cxa_free_exception@plt>
  404a7a:	4c 89 e0             	mov    %r12,%rax
  404a7d:	48 89 c7             	mov    %rax,%rdi
  404a80:	e8 0b d5 ff ff       	callq  401f90 <_Unwind_Resume@plt>
  404a85:	49 89 c4             	mov    %rax,%r12
  404a88:	48 89 df             	mov    %rbx,%rdi
  404a8b:	e8 d0 d2 ff ff       	callq  401d60 <__cxa_free_exception@plt>
  404a90:	4c 89 e0             	mov    %r12,%rax
  404a93:	48 89 c7             	mov    %rax,%rdi
  404a96:	e8 f5 d4 ff ff       	callq  401f90 <_Unwind_Resume@plt>
  404a9b:	48 89 c3             	mov    %rax,%rbx
  404a9e:	48 8b 45 b8          	mov    -0x48(%rbp),%rax
  404aa2:	48 89 c7             	mov    %rax,%rdi
  404aa5:	e8 ee f6 ff ff       	callq  404198 <_ZN12Tensor_QueenIf15CPU_MATHEMATICS10continuousIfS0_EED1Ev>
  404aaa:	48 89 d8             	mov    %rbx,%rax
  404aad:	48 89 c7             	mov    %rax,%rdi
  404ab0:	e8 db d4 ff ff       	callq  401f90 <_Unwind_Resume@plt>
  404ab5:	48 8b 45 b8          	mov    -0x48(%rbp),%rax
  404ab9:	48 8b 4d c8          	mov    -0x38(%rbp),%rcx
  404abd:	64 48 33 0c 25 28 00 	xor    %fs:0x28,%rcx
  404ac4:	00 00 
  404ac6:	74 05                	je     404acd <_ZN12Tensor_QueenIf15CPU_MATHEMATICS10continuousIfS0_EEmlIS2_EES3_RKS_IfS0_T_E+0x249>
  404ac8:	e8 63 d3 ff ff       	callq  401e30 <__stack_chk_fail@plt>
  404acd:	48 83 c4 38          	add    $0x38,%rsp
  404ad1:	5b                   	pop    %rbx
  404ad2:	41 5c                	pop    %r12
  404ad4:	41 5d                	pop    %r13
  404ad6:	41 5e                	pop    %r14
  404ad8:	41 5f                	pop    %r15
  404ada:	5d                   	pop    %rbp
  404adb:	c3                   	retq   

0000000000404adc <_ZN6MatrixIf15CPU_MATHEMATICS10continuousIfS0_EEixEi>:
  404adc:	55                   	push   %rbp
  404add:	48 89 e5             	mov    %rsp,%rbp
  404ae0:	48 83 ec 20          	sub    $0x20,%rsp
  404ae4:	48 89 7d f8          	mov    %rdi,-0x8(%rbp)
  404ae8:	48 89 75 f0          	mov    %rsi,-0x10(%rbp)
  404aec:	89 55 ec             	mov    %edx,-0x14(%rbp)
  404aef:	48 8b 4d f0          	mov    -0x10(%rbp),%rcx
  404af3:	8b 55 ec             	mov    -0x14(%rbp),%edx
  404af6:	48 8b 45 f8          	mov    -0x8(%rbp),%rax
  404afa:	48 89 ce             	mov    %rcx,%rsi
  404afd:	48 89 c7             	mov    %rax,%rdi
  404b00:	e8 b5 1b 00 00       	callq  4066ba <_ZN6VectorIf15CPU_MATHEMATICS10continuousIfS0_EEC1IS2_EERK12Tensor_QueenIfS0_T_Ei>
  404b05:	48 8b 45 f8          	mov    -0x8(%rbp),%rax
  404b09:	c9                   	leaveq 
  404b0a:	c3                   	retq   
  404b0b:	90                   	nop

0000000000404b0c <_ZN6MatrixIf15CPU_MATHEMATICS10continuousIfS0_EEaSIf7pBufferIfS0_S2_23ReferenceScalarAccessorIfS0_EN9Operation3addIfEEEEERS3_RK12Tensor_QueenIT_S0_T0_E>:
  404b0c:	55                   	push   %rbp
  404b0d:	48 89 e5             	mov    %rsp,%rbp
  404b10:	53                   	push   %rbx
  404b11:	48 83 ec 18          	sub    $0x18,%rsp
  404b15:	48 89 7d e8          	mov    %rdi,-0x18(%rbp)
  404b19:	48 89 75 e0          	mov    %rsi,-0x20(%rbp)
  404b1d:	48 8b 55 e0          	mov    -0x20(%rbp),%rdx
  404b21:	48 8b 45 e8          	mov    -0x18(%rbp),%rax
  404b25:	48 89 d6             	mov    %rdx,%rsi
  404b28:	48 89 c7             	mov    %rax,%rdi
  404b2b:	e8 22 d7 ff ff       	callq  402252 <_ZNK10Tensor_Ace16assert_same_sizeERKS_>
  404b30:	48 8b 45 e8          	mov    -0x18(%rbp),%rax
  404b34:	48 89 c7             	mov    %rax,%rdi
  404b37:	e8 f6 fc ff ff       	callq  404832 <_ZNK11Tensor_KingIf15CPU_MATHEMATICS10continuousIfS0_EE4sizeEv>
  404b3c:	89 c3                	mov    %eax,%ebx
  404b3e:	48 8b 45 e0          	mov    -0x20(%rbp),%rax
  404b42:	48 89 c7             	mov    %rax,%rdi
  404b45:	e8 38 1a 00 00       	callq  406582 <_ZNK11Tensor_KingIf15CPU_MATHEMATICS7pBufferIfS0_10continuousIfS0_E23ReferenceScalarAccessorIfS0_EN9Operation3addIfEEEE8accessorEv>
  404b4a:	48 89 c1             	mov    %rax,%rcx
  404b4d:	48 8b 45 e8          	mov    -0x18(%rbp),%rax
  404b51:	48 83 c0 08          	add    $0x8,%rax
  404b55:	89 da                	mov    %ebx,%edx
  404b57:	48 89 ce             	mov    %rcx,%rsi
  404b5a:	48 89 c7             	mov    %rax,%rdi
  404b5d:	e8 32 1a 00 00       	callq  406594 <_ZN15CPU_MATHEMATICS4copyI10continuousIfS_EK7pBufferIfS_S2_23ReferenceScalarAccessorIfS_EN9Operation3addIfEEEEEvRT_RT0_i>
  404b62:	48 8b 45 e8          	mov    -0x18(%rbp),%rax
  404b66:	48 83 c4 18          	add    $0x18,%rsp
  404b6a:	5b                   	pop    %rbx
  404b6b:	5d                   	pop    %rbp
  404b6c:	c3                   	retq   
  404b6d:	90                   	nop

0000000000404b6e <_ZN18transpose_accessorIf15CPU_MATHEMATICSEC1ERKS1_>:
  404b6e:	55                   	push   %rbp
  404b6f:	48 89 e5             	mov    %rsp,%rbp
  404b72:	48 83 ec 10          	sub    $0x10,%rsp
  404b76:	48 89 7d f8          	mov    %rdi,-0x8(%rbp)
  404b7a:	48 89 75 f0          	mov    %rsi,-0x10(%rbp)
  404b7e:	48 8b 55 f0          	mov    -0x10(%rbp),%rdx
  404b82:	48 8b 45 f8          	mov    -0x8(%rbp),%rax
  404b86:	48 89 d6             	mov    %rdx,%rsi
  404b89:	48 89 c7             	mov    %rax,%rdi
  404b8c:	e8 77 ea ff ff       	callq  403608 <_ZN12accessor_aceIf15CPU_MATHEMATICSEC1ERKS1_>
  404b91:	ba 38 cf 40 00       	mov    $0x40cf38,%edx
  404b96:	48 8b 45 f8          	mov    -0x8(%rbp),%rax
  404b9a:	48 89 10             	mov    %rdx,(%rax)
  404b9d:	48 8b 45 f0          	mov    -0x10(%rbp),%rax
  404ba1:	48 8b 50 08          	mov    0x8(%rax),%rdx
  404ba5:	48 8b 45 f8          	mov    -0x8(%rbp),%rax
  404ba9:	48 89 50 08          	mov    %rdx,0x8(%rax)
  404bad:	48 8b 45 f0          	mov    -0x10(%rbp),%rax
  404bb1:	48 8b 50 10          	mov    0x10(%rax),%rdx
  404bb5:	48 8b 45 f8          	mov    -0x8(%rbp),%rax
  404bb9:	48 89 50 10          	mov    %rdx,0x10(%rax)
  404bbd:	48 8b 45 f0          	mov    -0x10(%rbp),%rax
  404bc1:	48 8b 50 18          	mov    0x18(%rax),%rdx
  404bc5:	48 8b 45 f8          	mov    -0x8(%rbp),%rax
  404bc9:	48 89 50 18          	mov    %rdx,0x18(%rax)
  404bcd:	48 8b 45 f0          	mov    -0x10(%rbp),%rax
  404bd1:	8b 50 20             	mov    0x20(%rax),%edx
  404bd4:	48 8b 45 f8          	mov    -0x8(%rbp),%rax
  404bd8:	89 50 20             	mov    %edx,0x20(%rax)
  404bdb:	90                   	nop
  404bdc:	c9                   	leaveq 
  404bdd:	c3                   	retq   

0000000000404bde <_ZN18transpose_accessorIf15CPU_MATHEMATICSED1Ev>:
  404bde:	55                   	push   %rbp
  404bdf:	48 89 e5             	mov    %rsp,%rbp
  404be2:	48 83 ec 10          	sub    $0x10,%rsp
  404be6:	48 89 7d f8          	mov    %rdi,-0x8(%rbp)
  404bea:	ba 38 cf 40 00       	mov    $0x40cf38,%edx
  404bef:	48 8b 45 f8          	mov    -0x8(%rbp),%rax
  404bf3:	48 89 10             	mov    %rdx,(%rax)
  404bf6:	48 8b 45 f8          	mov    -0x8(%rbp),%rax
  404bfa:	48 89 c7             	mov    %rax,%rdi
  404bfd:	e8 38 ea ff ff       	callq  40363a <_ZN12accessor_aceIf15CPU_MATHEMATICSED1Ev>
  404c02:	b8 00 00 00 00       	mov    $0x0,%eax
  404c07:	85 c0                	test   %eax,%eax
  404c09:	74 11                	je     404c1c <_ZN18transpose_accessorIf15CPU_MATHEMATICSED1Ev+0x3e>
  404c0b:	48 8b 45 f8          	mov    -0x8(%rbp),%rax
  404c0f:	be 28 00 00 00       	mov    $0x28,%esi
  404c14:	48 89 c7             	mov    %rax,%rdi
  404c17:	e8 b4 d1 ff ff       	callq  401dd0 <_ZdlPvm@plt>
  404c1c:	c9                   	leaveq 
  404c1d:	c3                   	retq   

0000000000404c1e <_ZN18transpose_accessorIf15CPU_MATHEMATICSED0Ev>:
  404c1e:	55                   	push   %rbp
  404c1f:	48 89 e5             	mov    %rsp,%rbp
  404c22:	48 83 ec 10          	sub    $0x10,%rsp
  404c26:	48 89 7d f8          	mov    %rdi,-0x8(%rbp)
  404c2a:	48 8b 45 f8          	mov    -0x8(%rbp),%rax
  404c2e:	48 89 c7             	mov    %rax,%rdi
  404c31:	e8 a8 ff ff ff       	callq  404bde <_ZN18transpose_accessorIf15CPU_MATHEMATICSED1Ev>
  404c36:	48 8b 45 f8          	mov    -0x8(%rbp),%rax
  404c3a:	be 28 00 00 00       	mov    $0x28,%esi
  404c3f:	48 89 c7             	mov    %rax,%rdi
  404c42:	e8 89 d1 ff ff       	callq  401dd0 <_ZdlPvm@plt>
  404c47:	c9                   	leaveq 
  404c48:	c3                   	retq   
  404c49:	90                   	nop

0000000000404c4a <_ZN12Tensor_QueenIf15CPU_MATHEMATICS10continuousIfS0_EE1tEv>:
  404c4a:	55                   	push   %rbp
  404c4b:	48 89 e5             	mov    %rsp,%rbp
  404c4e:	53                   	push   %rbx
  404c4f:	48 83 ec 48          	sub    $0x48,%rsp
  404c53:	48 89 7d b8          	mov    %rdi,-0x48(%rbp)
  404c57:	48 89 75 b0          	mov    %rsi,-0x50(%rbp)
  404c5b:	64 48 8b 04 25 28 00 	mov    %fs:0x28,%rax
  404c62:	00 00 
  404c64:	48 89 45 e8          	mov    %rax,-0x18(%rbp)
  404c68:	31 c0                	xor    %eax,%eax
  404c6a:	48 8b 45 b0          	mov    -0x50(%rbp),%rax
  404c6e:	48 89 c7             	mov    %rax,%rdi
  404c71:	e8 da fb ff ff       	callq  404850 <_ZN11Tensor_KingIf15CPU_MATHEMATICS10continuousIfS0_EE8accessorEv>
  404c76:	48 89 c2             	mov    %rax,%rdx
  404c79:	48 8d 45 c0          	lea    -0x40(%rbp),%rax
  404c7d:	48 89 d6             	mov    %rdx,%rsi
  404c80:	48 89 c7             	mov    %rax,%rdi
  404c83:	e8 1e ea ff ff       	callq  4036a6 <_ZN10continuousIf15CPU_MATHEMATICSEC1ERKS1_>
  404c88:	48 8d 55 c0          	lea    -0x40(%rbp),%rdx
  404c8c:	48 8b 45 b8          	mov    -0x48(%rbp),%rax
  404c90:	be 00 00 00 00       	mov    $0x0,%esi
  404c95:	48 89 c7             	mov    %rax,%rdi
  404c98:	e8 b1 1a 00 00       	callq  40674e <_ZN12Tensor_QueenIf15CPU_MATHEMATICS18transpose_accessorIfS0_EEC1II10continuousIfS0_EEEEbDpT_>
  404c9d:	48 8d 45 c0          	lea    -0x40(%rbp),%rax
  404ca1:	48 89 c7             	mov    %rax,%rdi
  404ca4:	e8 5d ea ff ff       	callq  403706 <_ZN10continuousIf15CPU_MATHEMATICSED1Ev>
  404ca9:	48 8b 45 b8          	mov    -0x48(%rbp),%rax
  404cad:	48 8b 4d e8          	mov    -0x18(%rbp),%rcx
  404cb1:	64 48 33 0c 25 28 00 	xor    %fs:0x28,%rcx
  404cb8:	00 00 
  404cba:	74 21                	je     404cdd <_ZN12Tensor_QueenIf15CPU_MATHEMATICS10continuousIfS0_EE1tEv+0x93>
  404cbc:	eb 1a                	jmp    404cd8 <_ZN12Tensor_QueenIf15CPU_MATHEMATICS10continuousIfS0_EE1tEv+0x8e>
  404cbe:	48 89 c3             	mov    %rax,%rbx
  404cc1:	48 8d 45 c0          	lea    -0x40(%rbp),%rax
  404cc5:	48 89 c7             	mov    %rax,%rdi
  404cc8:	e8 39 ea ff ff       	callq  403706 <_ZN10continuousIf15CPU_MATHEMATICSED1Ev>
  404ccd:	48 89 d8             	mov    %rbx,%rax
  404cd0:	48 89 c7             	mov    %rax,%rdi
  404cd3:	e8 b8 d2 ff ff       	callq  401f90 <_Unwind_Resume@plt>
  404cd8:	e8 53 d1 ff ff       	callq  401e30 <__stack_chk_fail@plt>
  404cdd:	48 83 c4 48          	add    $0x48,%rsp
  404ce1:	5b                   	pop    %rbx
  404ce2:	5d                   	pop    %rbp
  404ce3:	c3                   	retq   

0000000000404ce4 <_ZNK12Tensor_QueenIf15CPU_MATHEMATICS18transpose_accessorIfS0_EE5printEv>:
  404ce4:	55                   	push   %rbp
  404ce5:	48 89 e5             	mov    %rsp,%rbp
  404ce8:	41 56                	push   %r14
  404cea:	41 55                	push   %r13
  404cec:	41 54                	push   %r12
  404cee:	53                   	push   %rbx
  404cef:	48 83 ec 70          	sub    $0x70,%rsp
  404cf3:	48 89 bd 78 ff ff ff 	mov    %rdi,-0x88(%rbp)
  404cfa:	64 48 8b 04 25 28 00 	mov    %fs:0x28,%rax
  404d01:	00 00 
  404d03:	48 89 45 d8          	mov    %rax,-0x28(%rbp)
  404d07:	31 c0                	xor    %eax,%eax
  404d09:	48 8b 85 78 ff ff ff 	mov    -0x88(%rbp),%rax
  404d10:	48 83 c0 08          	add    $0x8,%rax
  404d14:	48 89 c7             	mov    %rax,%rdi
  404d17:	e8 98 1b 00 00       	callq  4068b4 <_ZNK18transpose_accessorIf15CPU_MATHEMATICSE8hasShapeEv>
  404d1c:	bb 00 00 00 00       	mov    $0x0,%ebx
  404d21:	41 bc 00 00 00 00    	mov    $0x0,%r12d
  404d27:	84 c0                	test   %al,%al
  404d29:	74 60                	je     404d8b <_ZNK12Tensor_QueenIf15CPU_MATHEMATICS18transpose_accessorIfS0_EE5printEv+0xa7>
  404d2b:	48 8b 85 78 ff ff ff 	mov    -0x88(%rbp),%rax
  404d32:	48 89 c7             	mov    %rax,%rdi
  404d35:	e8 ca 1b 00 00       	callq  406904 <_ZNK11Tensor_KingIf15CPU_MATHEMATICS18transpose_accessorIfS0_EE5orderEv>
  404d3a:	41 89 c6             	mov    %eax,%r14d
  404d3d:	48 8b 85 78 ff ff ff 	mov    -0x88(%rbp),%rax
  404d44:	48 83 c0 08          	add    $0x8,%rax
  404d48:	48 89 c7             	mov    %rax,%rdi
  404d4b:	e8 74 1b 00 00       	callq  4068c4 <_ZNK18transpose_accessorIf15CPU_MATHEMATICSE8getShapeEv>
  404d50:	49 89 c5             	mov    %rax,%r13
  404d53:	48 8b 85 78 ff ff ff 	mov    -0x88(%rbp),%rax
  404d5a:	48 8d 50 08          	lea    0x8(%rax),%rdx
  404d5e:	48 8d 45 80          	lea    -0x80(%rbp),%rax
  404d62:	48 89 d6             	mov    %rdx,%rsi
  404d65:	48 89 c7             	mov    %rax,%rdi
  404d68:	e8 01 fe ff ff       	callq  404b6e <_ZN18transpose_accessorIf15CPU_MATHEMATICSEC1ERKS1_>
  404d6d:	bb 01 00 00 00       	mov    $0x1,%ebx
  404d72:	48 8d 45 80          	lea    -0x80(%rbp),%rax
  404d76:	b9 05 00 00 00       	mov    $0x5,%ecx
  404d7b:	44 89 f2             	mov    %r14d,%edx
  404d7e:	4c 89 ee             	mov    %r13,%rsi
  404d81:	48 89 c7             	mov    %rax,%rdi
  404d84:	e8 99 1b 00 00       	callq  406922 <_ZN15CPU_MATHEMATICS5printI18transpose_accessorIfS_EEEvT_PKiii>
  404d89:	eb 46                	jmp    404dd1 <_ZNK12Tensor_QueenIf15CPU_MATHEMATICS18transpose_accessorIfS0_EE5printEv+0xed>
  404d8b:	48 8b 85 78 ff ff ff 	mov    -0x88(%rbp),%rax
  404d92:	48 89 c7             	mov    %rax,%rdi
  404d95:	e8 f6 1c 00 00       	callq  406a90 <_ZNK11Tensor_KingIf15CPU_MATHEMATICS18transpose_accessorIfS0_EE4sizeEv>
  404d9a:	41 89 c5             	mov    %eax,%r13d
  404d9d:	48 8b 85 78 ff ff ff 	mov    -0x88(%rbp),%rax
  404da4:	48 8d 50 08          	lea    0x8(%rax),%rdx
  404da8:	48 8d 45 b0          	lea    -0x50(%rbp),%rax
  404dac:	48 89 d6             	mov    %rdx,%rsi
  404daf:	48 89 c7             	mov    %rax,%rdi
  404db2:	e8 b7 fd ff ff       	callq  404b6e <_ZN18transpose_accessorIf15CPU_MATHEMATICSEC1ERKS1_>
  404db7:	41 bc 01 00 00 00    	mov    $0x1,%r12d
  404dbd:	48 8d 45 b0          	lea    -0x50(%rbp),%rax
  404dc1:	ba 05 00 00 00       	mov    $0x5,%edx
  404dc6:	44 89 ee             	mov    %r13d,%esi
  404dc9:	48 89 c7             	mov    %rax,%rdi
  404dcc:	e8 dd 1c 00 00       	callq  406aae <_ZN15CPU_MATHEMATICS5printI18transpose_accessorIfS_EEEvT_ii>
  404dd1:	45 84 e4             	test   %r12b,%r12b
  404dd4:	74 0c                	je     404de2 <_ZNK12Tensor_QueenIf15CPU_MATHEMATICS18transpose_accessorIfS0_EE5printEv+0xfe>
  404dd6:	48 8d 45 b0          	lea    -0x50(%rbp),%rax
  404dda:	48 89 c7             	mov    %rax,%rdi
  404ddd:	e8 fc fd ff ff       	callq  404bde <_ZN18transpose_accessorIf15CPU_MATHEMATICSED1Ev>
  404de2:	84 db                	test   %bl,%bl
  404de4:	74 0f                	je     404df5 <_ZNK12Tensor_QueenIf15CPU_MATHEMATICS18transpose_accessorIfS0_EE5printEv+0x111>
  404de6:	90                   	nop
  404de7:	48 8d 45 80          	lea    -0x80(%rbp),%rax
  404deb:	48 89 c7             	mov    %rax,%rdi
  404dee:	e8 eb fd ff ff       	callq  404bde <_ZN18transpose_accessorIf15CPU_MATHEMATICSED1Ev>
  404df3:	eb 39                	jmp    404e2e <_ZNK12Tensor_QueenIf15CPU_MATHEMATICS18transpose_accessorIfS0_EE5printEv+0x14a>
  404df5:	90                   	nop
  404df6:	eb 36                	jmp    404e2e <_ZNK12Tensor_QueenIf15CPU_MATHEMATICS18transpose_accessorIfS0_EE5printEv+0x14a>
  404df8:	49 89 c5             	mov    %rax,%r13
  404dfb:	45 84 e4             	test   %r12b,%r12b
  404dfe:	74 0c                	je     404e0c <_ZNK12Tensor_QueenIf15CPU_MATHEMATICS18transpose_accessorIfS0_EE5printEv+0x128>
  404e00:	48 8d 45 b0          	lea    -0x50(%rbp),%rax
  404e04:	48 89 c7             	mov    %rax,%rdi
  404e07:	e8 d2 fd ff ff       	callq  404bde <_ZN18transpose_accessorIf15CPU_MATHEMATICSED1Ev>
  404e0c:	4d 89 ec             	mov    %r13,%r12
  404e0f:	84 db                	test   %bl,%bl
  404e11:	74 0f                	je     404e22 <_ZNK12Tensor_QueenIf15CPU_MATHEMATICS18transpose_accessorIfS0_EE5printEv+0x13e>
  404e13:	90                   	nop
  404e14:	48 8d 45 80          	lea    -0x80(%rbp),%rax
  404e18:	48 89 c7             	mov    %rax,%rdi
  404e1b:	e8 be fd ff ff       	callq  404bde <_ZN18transpose_accessorIf15CPU_MATHEMATICSED1Ev>
  404e20:	eb 01                	jmp    404e23 <_ZNK12Tensor_QueenIf15CPU_MATHEMATICS18transpose_accessorIfS0_EE5printEv+0x13f>
  404e22:	90                   	nop
  404e23:	4c 89 e0             	mov    %r12,%rax
  404e26:	48 89 c7             	mov    %rax,%rdi
  404e29:	e8 62 d1 ff ff       	callq  401f90 <_Unwind_Resume@plt>
  404e2e:	48 8b 45 d8          	mov    -0x28(%rbp),%rax
  404e32:	64 48 33 04 25 28 00 	xor    %fs:0x28,%rax
  404e39:	00 00 
  404e3b:	74 05                	je     404e42 <_ZNK12Tensor_QueenIf15CPU_MATHEMATICS18transpose_accessorIfS0_EE5printEv+0x15e>
  404e3d:	e8 ee cf ff ff       	callq  401e30 <__stack_chk_fail@plt>
  404e42:	48 83 c4 70          	add    $0x70,%rsp
  404e46:	5b                   	pop    %rbx
  404e47:	41 5c                	pop    %r12
  404e49:	41 5d                	pop    %r13
  404e4b:	41 5e                	pop    %r14
  404e4d:	5d                   	pop    %rbp
  404e4e:	c3                   	retq   
  404e4f:	90                   	nop

0000000000404e50 <_ZN12Tensor_QueenId15CPU_MATHEMATICS10continuousIdS0_EED1Ev>:
  404e50:	55                   	push   %rbp
  404e51:	48 89 e5             	mov    %rsp,%rbp
  404e54:	48 83 ec 10          	sub    $0x10,%rsp
  404e58:	48 89 7d f8          	mov    %rdi,-0x8(%rbp)
  404e5c:	ba 58 cd 40 00       	mov    $0x40cd58,%edx
  404e61:	48 8b 45 f8          	mov    -0x8(%rbp),%rax
  404e65:	48 89 10             	mov    %rdx,(%rax)
  404e68:	48 8b 45 f8          	mov    -0x8(%rbp),%rax
  404e6c:	48 89 c7             	mov    %rax,%rdi
  404e6f:	e8 06 1e 00 00       	callq  406c7a <_ZN11Tensor_KingId15CPU_MATHEMATICS10continuousIdS0_EED1Ev>
  404e74:	b8 00 00 00 00       	mov    $0x0,%eax
  404e79:	85 c0                	test   %eax,%eax
  404e7b:	74 11                	je     404e8e <_ZN12Tensor_QueenId15CPU_MATHEMATICS10continuousIdS0_EED1Ev+0x3e>
  404e7d:	48 8b 45 f8          	mov    -0x8(%rbp),%rax
  404e81:	be 30 00 00 00       	mov    $0x30,%esi
  404e86:	48 89 c7             	mov    %rax,%rdi
  404e89:	e8 42 cf ff ff       	callq  401dd0 <_ZdlPvm@plt>
  404e8e:	c9                   	leaveq 
  404e8f:	c3                   	retq   

0000000000404e90 <_ZN12Tensor_QueenId15CPU_MATHEMATICS10continuousIdS0_EED0Ev>:
  404e90:	55                   	push   %rbp
  404e91:	48 89 e5             	mov    %rsp,%rbp
  404e94:	48 83 ec 10          	sub    $0x10,%rsp
  404e98:	48 89 7d f8          	mov    %rdi,-0x8(%rbp)
  404e9c:	48 8b 45 f8          	mov    -0x8(%rbp),%rax
  404ea0:	48 89 c7             	mov    %rax,%rdi
  404ea3:	e8 a8 ff ff ff       	callq  404e50 <_ZN12Tensor_QueenId15CPU_MATHEMATICS10continuousIdS0_EED1Ev>
  404ea8:	48 8b 45 f8          	mov    -0x8(%rbp),%rax
  404eac:	be 30 00 00 00       	mov    $0x30,%esi
  404eb1:	48 89 c7             	mov    %rax,%rdi
  404eb4:	e8 17 cf ff ff       	callq  401dd0 <_ZdlPvm@plt>
  404eb9:	c9                   	leaveq 
  404eba:	c3                   	retq   
  404ebb:	90                   	nop

0000000000404ebc <_ZN6MatrixId15CPU_MATHEMATICS10continuousIdS0_EEC1Eii>:
  404ebc:	55                   	push   %rbp
  404ebd:	48 89 e5             	mov    %rsp,%rbp
  404ec0:	53                   	push   %rbx
  404ec1:	48 83 ec 28          	sub    $0x28,%rsp
  404ec5:	48 89 7d d8          	mov    %rdi,-0x28(%rbp)
  404ec9:	89 75 d4             	mov    %esi,-0x2c(%rbp)
  404ecc:	89 55 d0             	mov    %edx,-0x30(%rbp)
  404ecf:	64 48 8b 04 25 28 00 	mov    %fs:0x28,%rax
  404ed6:	00 00 
  404ed8:	48 89 45 e8          	mov    %rax,-0x18(%rbp)
  404edc:	31 c0                	xor    %eax,%eax
  404ede:	8b 45 d4             	mov    -0x2c(%rbp),%eax
  404ee1:	89 45 e0             	mov    %eax,-0x20(%rbp)
  404ee4:	8b 45 d0             	mov    -0x30(%rbp),%eax
  404ee7:	89 45 e4             	mov    %eax,-0x1c(%rbp)
  404eea:	48 8d 45 e0          	lea    -0x20(%rbp),%rax
  404eee:	48 89 c1             	mov    %rax,%rcx
  404ef1:	bb 02 00 00 00       	mov    $0x2,%ebx
  404ef6:	48 8b 45 d8          	mov    -0x28(%rbp),%rax
  404efa:	48 89 ce             	mov    %rcx,%rsi
  404efd:	48 89 df             	mov    %rbx,%rdi
  404f00:	48 89 ca             	mov    %rcx,%rdx
  404f03:	48 89 d9             	mov    %rbx,%rcx
  404f06:	48 89 ca             	mov    %rcx,%rdx
  404f09:	48 89 c7             	mov    %rax,%rdi
  404f0c:	e8 19 1d 00 00       	callq  406c2a <_ZN12Tensor_QueenId15CPU_MATHEMATICS10continuousIdS0_EEC1ESt16initializer_listIiE>
  404f11:	ba 18 cd 40 00       	mov    $0x40cd18,%edx
  404f16:	48 8b 45 d8          	mov    -0x28(%rbp),%rax
  404f1a:	48 89 10             	mov    %rdx,(%rax)
  404f1d:	90                   	nop
  404f1e:	48 8b 45 e8          	mov    -0x18(%rbp),%rax
  404f22:	64 48 33 04 25 28 00 	xor    %fs:0x28,%rax
  404f29:	00 00 
  404f2b:	74 05                	je     404f32 <_ZN6MatrixId15CPU_MATHEMATICS10continuousIdS0_EEC1Eii+0x76>
  404f2d:	e8 fe ce ff ff       	callq  401e30 <__stack_chk_fail@plt>
  404f32:	48 83 c4 28          	add    $0x28,%rsp
  404f36:	5b                   	pop    %rbx
  404f37:	5d                   	pop    %rbp
  404f38:	c3                   	retq   
  404f39:	90                   	nop

0000000000404f3a <_ZN12accessor_aceId15CPU_MATHEMATICSEC1ERKS1_>:
  404f3a:	55                   	push   %rbp
  404f3b:	48 89 e5             	mov    %rsp,%rbp
  404f3e:	48 83 ec 10          	sub    $0x10,%rsp
  404f42:	48 89 7d f8          	mov    %rdi,-0x8(%rbp)
  404f46:	48 89 75 f0          	mov    %rsi,-0x10(%rbp)
  404f4a:	48 8b 55 f0          	mov    -0x10(%rbp),%rdx
  404f4e:	48 8b 45 f8          	mov    -0x8(%rbp),%rax
  404f52:	48 89 d6             	mov    %rdx,%rsi
  404f55:	48 89 c7             	mov    %rax,%rdi
  404f58:	e8 8f e6 ff ff       	callq  4035ec <_ZN10Tensor_AceC1ERKS_>
  404f5d:	ba 48 ce 40 00       	mov    $0x40ce48,%edx
  404f62:	48 8b 45 f8          	mov    -0x8(%rbp),%rax
  404f66:	48 89 10             	mov    %rdx,(%rax)
  404f69:	90                   	nop
  404f6a:	c9                   	leaveq 
  404f6b:	c3                   	retq   

0000000000404f6c <_ZN12accessor_aceId15CPU_MATHEMATICSED1Ev>:
  404f6c:	55                   	push   %rbp
  404f6d:	48 89 e5             	mov    %rsp,%rbp
  404f70:	48 83 ec 10          	sub    $0x10,%rsp
  404f74:	48 89 7d f8          	mov    %rdi,-0x8(%rbp)
  404f78:	ba 48 ce 40 00       	mov    $0x40ce48,%edx
  404f7d:	48 8b 45 f8          	mov    -0x8(%rbp),%rax
  404f81:	48 89 10             	mov    %rdx,(%rax)
  404f84:	48 8b 45 f8          	mov    -0x8(%rbp),%rax
  404f88:	48 89 c7             	mov    %rax,%rdi
  404f8b:	e8 f0 e3 ff ff       	callq  403380 <_ZN10Tensor_AceD1Ev>
  404f90:	b8 00 00 00 00       	mov    $0x0,%eax
  404f95:	85 c0                	test   %eax,%eax
  404f97:	74 11                	je     404faa <_ZN12accessor_aceId15CPU_MATHEMATICSED1Ev+0x3e>
  404f99:	48 8b 45 f8          	mov    -0x8(%rbp),%rax
  404f9d:	be 08 00 00 00       	mov    $0x8,%esi
  404fa2:	48 89 c7             	mov    %rax,%rdi
  404fa5:	e8 26 ce ff ff       	callq  401dd0 <_ZdlPvm@plt>
  404faa:	c9                   	leaveq 
  404fab:	c3                   	retq   

0000000000404fac <_ZN12accessor_aceId15CPU_MATHEMATICSED0Ev>:
  404fac:	55                   	push   %rbp
  404fad:	48 89 e5             	mov    %rsp,%rbp
  404fb0:	48 83 ec 10          	sub    $0x10,%rsp
  404fb4:	48 89 7d f8          	mov    %rdi,-0x8(%rbp)
  404fb8:	48 8b 45 f8          	mov    -0x8(%rbp),%rax
  404fbc:	48 89 c7             	mov    %rax,%rdi
  404fbf:	e8 a8 ff ff ff       	callq  404f6c <_ZN12accessor_aceId15CPU_MATHEMATICSED1Ev>
  404fc4:	48 8b 45 f8          	mov    -0x8(%rbp),%rax
  404fc8:	be 08 00 00 00       	mov    $0x8,%esi
  404fcd:	48 89 c7             	mov    %rax,%rdi
  404fd0:	e8 fb cd ff ff       	callq  401dd0 <_ZdlPvm@plt>
  404fd5:	c9                   	leaveq 
  404fd6:	c3                   	retq   
  404fd7:	90                   	nop

0000000000404fd8 <_ZN10continuousId15CPU_MATHEMATICSEC1ERKS1_>:
  404fd8:	55                   	push   %rbp
  404fd9:	48 89 e5             	mov    %rsp,%rbp
  404fdc:	48 83 ec 10          	sub    $0x10,%rsp
  404fe0:	48 89 7d f8          	mov    %rdi,-0x8(%rbp)
  404fe4:	48 89 75 f0          	mov    %rsi,-0x10(%rbp)
  404fe8:	48 8b 55 f0          	mov    -0x10(%rbp),%rdx
  404fec:	48 8b 45 f8          	mov    -0x8(%rbp),%rax
  404ff0:	48 89 d6             	mov    %rdx,%rsi
  404ff3:	48 89 c7             	mov    %rax,%rdi
  404ff6:	e8 3f ff ff ff       	callq  404f3a <_ZN12accessor_aceId15CPU_MATHEMATICSEC1ERKS1_>
  404ffb:	ba d8 cd 40 00       	mov    $0x40cdd8,%edx
  405000:	48 8b 45 f8          	mov    -0x8(%rbp),%rax
  405004:	48 89 10             	mov    %rdx,(%rax)
  405007:	48 8b 45 f0          	mov    -0x10(%rbp),%rax
  40500b:	48 8b 50 08          	mov    0x8(%rax),%rdx
  40500f:	48 8b 45 f8          	mov    -0x8(%rbp),%rax
  405013:	48 89 50 08          	mov    %rdx,0x8(%rax)
  405017:	48 8b 45 f0          	mov    -0x10(%rbp),%rax
  40501b:	48 8b 50 10          	mov    0x10(%rax),%rdx
  40501f:	48 8b 45 f8          	mov    -0x8(%rbp),%rax
  405023:	48 89 50 10          	mov    %rdx,0x10(%rax)
  405027:	48 8b 45 f0          	mov    -0x10(%rbp),%rax
  40502b:	8b 50 18             	mov    0x18(%rax),%edx
  40502e:	48 8b 45 f8          	mov    -0x8(%rbp),%rax
  405032:	89 50 18             	mov    %edx,0x18(%rax)
  405035:	90                   	nop
  405036:	c9                   	leaveq 
  405037:	c3                   	retq   

0000000000405038 <_ZN10continuousId15CPU_MATHEMATICSED1Ev>:
  405038:	55                   	push   %rbp
  405039:	48 89 e5             	mov    %rsp,%rbp
  40503c:	48 83 ec 10          	sub    $0x10,%rsp
  405040:	48 89 7d f8          	mov    %rdi,-0x8(%rbp)
  405044:	ba d8 cd 40 00       	mov    $0x40cdd8,%edx
  405049:	48 8b 45 f8          	mov    -0x8(%rbp),%rax
  40504d:	48 89 10             	mov    %rdx,(%rax)
  405050:	48 8b 45 f8          	mov    -0x8(%rbp),%rax
  405054:	48 89 c7             	mov    %rax,%rdi
  405057:	e8 10 ff ff ff       	callq  404f6c <_ZN12accessor_aceId15CPU_MATHEMATICSED1Ev>
  40505c:	b8 00 00 00 00       	mov    $0x0,%eax
  405061:	85 c0                	test   %eax,%eax
  405063:	74 11                	je     405076 <_ZN10continuousId15CPU_MATHEMATICSED1Ev+0x3e>
  405065:	48 8b 45 f8          	mov    -0x8(%rbp),%rax
  405069:	be 20 00 00 00       	mov    $0x20,%esi
  40506e:	48 89 c7             	mov    %rax,%rdi
  405071:	e8 5a cd ff ff       	callq  401dd0 <_ZdlPvm@plt>
  405076:	c9                   	leaveq 
  405077:	c3                   	retq   

0000000000405078 <_ZN10continuousId15CPU_MATHEMATICSED0Ev>:
  405078:	55                   	push   %rbp
  405079:	48 89 e5             	mov    %rsp,%rbp
  40507c:	48 83 ec 10          	sub    $0x10,%rsp
  405080:	48 89 7d f8          	mov    %rdi,-0x8(%rbp)
  405084:	48 8b 45 f8          	mov    -0x8(%rbp),%rax
  405088:	48 89 c7             	mov    %rax,%rdi
  40508b:	e8 a8 ff ff ff       	callq  405038 <_ZN10continuousId15CPU_MATHEMATICSED1Ev>
  405090:	48 8b 45 f8          	mov    -0x8(%rbp),%rax
  405094:	be 20 00 00 00       	mov    $0x20,%esi
  405099:	48 89 c7             	mov    %rax,%rdi
  40509c:	e8 2f cd ff ff       	callq  401dd0 <_ZdlPvm@plt>
  4050a1:	c9                   	leaveq 
  4050a2:	c3                   	retq   
  4050a3:	90                   	nop

00000000004050a4 <_ZN12Tensor_QueenId15CPU_MATHEMATICS10continuousIdS0_EE9randomizeEdd>:
  4050a4:	55                   	push   %rbp
  4050a5:	48 89 e5             	mov    %rsp,%rbp
  4050a8:	53                   	push   %rbx
  4050a9:	48 83 ec 58          	sub    $0x58,%rsp
  4050ad:	48 89 7d b8          	mov    %rdi,-0x48(%rbp)
  4050b1:	f2 0f 11 45 b0       	movsd  %xmm0,-0x50(%rbp)
  4050b6:	f2 0f 11 4d a8       	movsd  %xmm1,-0x58(%rbp)
  4050bb:	64 48 8b 04 25 28 00 	mov    %fs:0x28,%rax
  4050c2:	00 00 
  4050c4:	48 89 45 e8          	mov    %rax,-0x18(%rbp)
  4050c8:	31 c0                	xor    %eax,%eax
  4050ca:	48 8b 45 b8          	mov    -0x48(%rbp),%rax
  4050ce:	48 89 c7             	mov    %rax,%rdi
  4050d1:	e8 68 1c 00 00       	callq  406d3e <_ZNK11Tensor_KingId15CPU_MATHEMATICS10continuousIdS0_EE4sizeEv>
  4050d6:	89 c3                	mov    %eax,%ebx
  4050d8:	48 8b 45 b8          	mov    -0x48(%rbp),%rax
  4050dc:	48 8d 50 08          	lea    0x8(%rax),%rdx
  4050e0:	48 8d 45 c0          	lea    -0x40(%rbp),%rax
  4050e4:	48 89 d6             	mov    %rdx,%rsi
  4050e7:	48 89 c7             	mov    %rax,%rdi
  4050ea:	e8 e9 fe ff ff       	callq  404fd8 <_ZN10continuousId15CPU_MATHEMATICSEC1ERKS1_>
  4050ef:	f2 0f 10 45 a8       	movsd  -0x58(%rbp),%xmm0
  4050f4:	48 8b 55 b0          	mov    -0x50(%rbp),%rdx
  4050f8:	48 8d 45 c0          	lea    -0x40(%rbp),%rax
  4050fc:	89 de                	mov    %ebx,%esi
  4050fe:	66 0f 28 c8          	movapd %xmm0,%xmm1
  405102:	48 89 55 a0          	mov    %rdx,-0x60(%rbp)
  405106:	f2 0f 10 45 a0       	movsd  -0x60(%rbp),%xmm0
  40510b:	48 89 c7             	mov    %rax,%rdi
  40510e:	e8 49 1c 00 00       	callq  406d5c <_ZN15CPU_MATHEMATICS9randomizeI10continuousIdS_EdEEvT_T0_S4_i>
  405113:	48 8d 45 c0          	lea    -0x40(%rbp),%rax
  405117:	48 89 c7             	mov    %rax,%rdi
  40511a:	e8 19 ff ff ff       	callq  405038 <_ZN10continuousId15CPU_MATHEMATICSED1Ev>
  40511f:	90                   	nop
  405120:	48 8b 45 e8          	mov    -0x18(%rbp),%rax
  405124:	64 48 33 04 25 28 00 	xor    %fs:0x28,%rax
  40512b:	00 00 
  40512d:	74 21                	je     405150 <_ZN12Tensor_QueenId15CPU_MATHEMATICS10continuousIdS0_EE9randomizeEdd+0xac>
  40512f:	eb 1a                	jmp    40514b <_ZN12Tensor_QueenId15CPU_MATHEMATICS10continuousIdS0_EE9randomizeEdd+0xa7>
  405131:	48 89 c3             	mov    %rax,%rbx
  405134:	48 8d 45 c0          	lea    -0x40(%rbp),%rax
  405138:	48 89 c7             	mov    %rax,%rdi
  40513b:	e8 f8 fe ff ff       	callq  405038 <_ZN10continuousId15CPU_MATHEMATICSED1Ev>
  405140:	48 89 d8             	mov    %rbx,%rax
  405143:	48 89 c7             	mov    %rax,%rdi
  405146:	e8 45 ce ff ff       	callq  401f90 <_Unwind_Resume@plt>
  40514b:	e8 e0 cc ff ff       	callq  401e30 <__stack_chk_fail@plt>
  405150:	48 83 c4 58          	add    $0x58,%rsp
  405154:	5b                   	pop    %rbx
  405155:	5d                   	pop    %rbp
  405156:	c3                   	retq   
  405157:	90                   	nop

0000000000405158 <_ZN7pBufferId15CPU_MATHEMATICS10continuousIdS0_ES2_N9Operation3addIdEEED1Ev>:
  405158:	55                   	push   %rbp
  405159:	48 89 e5             	mov    %rsp,%rbp
  40515c:	48 83 ec 10          	sub    $0x10,%rsp
  405160:	48 89 7d f8          	mov    %rdi,-0x8(%rbp)
  405164:	ba a8 cc 40 00       	mov    $0x40cca8,%edx
  405169:	48 8b 45 f8          	mov    -0x8(%rbp),%rax
  40516d:	48 89 10             	mov    %rdx,(%rax)
  405170:	48 8b 45 f8          	mov    -0x8(%rbp),%rax
  405174:	48 83 c0 30          	add    $0x30,%rax
  405178:	48 89 c7             	mov    %rax,%rdi
  40517b:	e8 b8 fe ff ff       	callq  405038 <_ZN10continuousId15CPU_MATHEMATICSED1Ev>
  405180:	48 8b 45 f8          	mov    -0x8(%rbp),%rax
  405184:	48 83 c0 10          	add    $0x10,%rax
  405188:	48 89 c7             	mov    %rax,%rdi
  40518b:	e8 a8 fe ff ff       	callq  405038 <_ZN10continuousId15CPU_MATHEMATICSED1Ev>
  405190:	48 8b 45 f8          	mov    -0x8(%rbp),%rax
  405194:	48 89 c7             	mov    %rax,%rdi
  405197:	e8 d0 fd ff ff       	callq  404f6c <_ZN12accessor_aceId15CPU_MATHEMATICSED1Ev>
  40519c:	b8 00 00 00 00       	mov    $0x0,%eax
  4051a1:	85 c0                	test   %eax,%eax
  4051a3:	74 11                	je     4051b6 <_ZN7pBufferId15CPU_MATHEMATICS10continuousIdS0_ES2_N9Operation3addIdEEED1Ev+0x5e>
  4051a5:	48 8b 45 f8          	mov    -0x8(%rbp),%rax
  4051a9:	be 50 00 00 00       	mov    $0x50,%esi
  4051ae:	48 89 c7             	mov    %rax,%rdi
  4051b1:	e8 1a cc ff ff       	callq  401dd0 <_ZdlPvm@plt>
  4051b6:	c9                   	leaveq 
  4051b7:	c3                   	retq   

00000000004051b8 <_ZN7pBufferId15CPU_MATHEMATICS10continuousIdS0_ES2_N9Operation3addIdEEED0Ev>:
  4051b8:	55                   	push   %rbp
  4051b9:	48 89 e5             	mov    %rsp,%rbp
  4051bc:	48 83 ec 10          	sub    $0x10,%rsp
  4051c0:	48 89 7d f8          	mov    %rdi,-0x8(%rbp)
  4051c4:	48 8b 45 f8          	mov    -0x8(%rbp),%rax
  4051c8:	48 89 c7             	mov    %rax,%rdi
  4051cb:	e8 88 ff ff ff       	callq  405158 <_ZN7pBufferId15CPU_MATHEMATICS10continuousIdS0_ES2_N9Operation3addIdEEED1Ev>
  4051d0:	48 8b 45 f8          	mov    -0x8(%rbp),%rax
  4051d4:	be 50 00 00 00       	mov    $0x50,%esi
  4051d9:	48 89 c7             	mov    %rax,%rdi
  4051dc:	e8 ef cb ff ff       	callq  401dd0 <_ZdlPvm@plt>
  4051e1:	c9                   	leaveq 
  4051e2:	c3                   	retq   
  4051e3:	90                   	nop

00000000004051e4 <_ZN12Tensor_QueenId15CPU_MATHEMATICS10continuousIdS0_EEplIdS2_EES_IdS0_7pBufferIdS0_S2_T0_N9Operation3addIdEEEERKS_IT_S0_S6_E>:
  4051e4:	55                   	push   %rbp
  4051e5:	48 89 e5             	mov    %rsp,%rbp
  4051e8:	53                   	push   %rbx
  4051e9:	48 83 ec 78          	sub    $0x78,%rsp
  4051ed:	48 89 7d 98          	mov    %rdi,-0x68(%rbp)
  4051f1:	48 89 75 90          	mov    %rsi,-0x70(%rbp)
  4051f5:	48 89 55 88          	mov    %rdx,-0x78(%rbp)
  4051f9:	64 48 8b 04 25 28 00 	mov    %fs:0x28,%rax
  405200:	00 00 
  405202:	48 89 45 e8          	mov    %rax,-0x18(%rbp)
  405206:	31 c0                	xor    %eax,%eax
  405208:	48 8b 45 88          	mov    -0x78(%rbp),%rax
  40520c:	48 8d 50 08          	lea    0x8(%rax),%rdx
  405210:	48 8d 45 c0          	lea    -0x40(%rbp),%rax
  405214:	48 89 d6             	mov    %rdx,%rsi
  405217:	48 89 c7             	mov    %rax,%rdi
  40521a:	e8 b9 fd ff ff       	callq  404fd8 <_ZN10continuousId15CPU_MATHEMATICSEC1ERKS1_>
  40521f:	48 8b 45 90          	mov    -0x70(%rbp),%rax
  405223:	48 8d 50 08          	lea    0x8(%rax),%rdx
  405227:	48 8d 45 a0          	lea    -0x60(%rbp),%rax
  40522b:	48 89 d6             	mov    %rdx,%rsi
  40522e:	48 89 c7             	mov    %rax,%rdi
  405231:	e8 a2 fd ff ff       	callq  404fd8 <_ZN10continuousId15CPU_MATHEMATICSEC1ERKS1_>
  405236:	48 8d 4d c0          	lea    -0x40(%rbp),%rcx
  40523a:	48 8d 55 a0          	lea    -0x60(%rbp),%rdx
  40523e:	48 8b 45 98          	mov    -0x68(%rbp),%rax
  405242:	be 00 00 00 00       	mov    $0x0,%esi
  405247:	48 89 c7             	mov    %rax,%rdi
  40524a:	e8 a9 1b 00 00       	callq  406df8 <_ZN12Tensor_QueenId15CPU_MATHEMATICS7pBufferIdS0_10continuousIdS0_ES3_N9Operation3addIdEEEEC1IIS3_S3_EEEbDpT_>
  40524f:	48 8d 45 a0          	lea    -0x60(%rbp),%rax
  405253:	48 89 c7             	mov    %rax,%rdi
  405256:	e8 dd fd ff ff       	callq  405038 <_ZN10continuousId15CPU_MATHEMATICSED1Ev>
  40525b:	48 8d 45 c0          	lea    -0x40(%rbp),%rax
  40525f:	48 89 c7             	mov    %rax,%rdi
  405262:	e8 d1 fd ff ff       	callq  405038 <_ZN10continuousId15CPU_MATHEMATICSED1Ev>
  405267:	48 8b 45 98          	mov    -0x68(%rbp),%rax
  40526b:	48 8b 4d e8          	mov    -0x18(%rbp),%rcx
  40526f:	64 48 33 0c 25 28 00 	xor    %fs:0x28,%rcx
  405276:	00 00 
  405278:	74 2d                	je     4052a7 <_ZN12Tensor_QueenId15CPU_MATHEMATICS10continuousIdS0_EEplIdS2_EES_IdS0_7pBufferIdS0_S2_T0_N9Operation3addIdEEEERKS_IT_S0_S6_E+0xc3>
  40527a:	eb 26                	jmp    4052a2 <_ZN12Tensor_QueenId15CPU_MATHEMATICS10continuousIdS0_EEplIdS2_EES_IdS0_7pBufferIdS0_S2_T0_N9Operation3addIdEEEERKS_IT_S0_S6_E+0xbe>
  40527c:	48 89 c3             	mov    %rax,%rbx
  40527f:	48 8d 45 a0          	lea    -0x60(%rbp),%rax
  405283:	48 89 c7             	mov    %rax,%rdi
  405286:	e8 ad fd ff ff       	callq  405038 <_ZN10continuousId15CPU_MATHEMATICSED1Ev>
  40528b:	48 8d 45 c0          	lea    -0x40(%rbp),%rax
  40528f:	48 89 c7             	mov    %rax,%rdi
  405292:	e8 a1 fd ff ff       	callq  405038 <_ZN10continuousId15CPU_MATHEMATICSED1Ev>
  405297:	48 89 d8             	mov    %rbx,%rax
  40529a:	48 89 c7             	mov    %rax,%rdi
  40529d:	e8 ee cc ff ff       	callq  401f90 <_Unwind_Resume@plt>
  4052a2:	e8 89 cb ff ff       	callq  401e30 <__stack_chk_fail@plt>
  4052a7:	48 83 c4 78          	add    $0x78,%rsp
  4052ab:	5b                   	pop    %rbx
  4052ac:	5d                   	pop    %rbp
  4052ad:	c3                   	retq   

00000000004052ae <_ZN6MatrixId15CPU_MATHEMATICS10continuousIdS0_EEaSId7pBufferIdS0_S2_S2_N9Operation3addIdEEEEERS3_RK12Tensor_QueenIT_S0_T0_E>:
  4052ae:	55                   	push   %rbp
  4052af:	48 89 e5             	mov    %rsp,%rbp
  4052b2:	53                   	push   %rbx
  4052b3:	48 83 ec 18          	sub    $0x18,%rsp
  4052b7:	48 89 7d e8          	mov    %rdi,-0x18(%rbp)
  4052bb:	48 89 75 e0          	mov    %rsi,-0x20(%rbp)
  4052bf:	48 8b 55 e0          	mov    -0x20(%rbp),%rdx
  4052c3:	48 8b 45 e8          	mov    -0x18(%rbp),%rax
  4052c7:	48 89 d6             	mov    %rdx,%rsi
  4052ca:	48 89 c7             	mov    %rax,%rdi
  4052cd:	e8 80 cf ff ff       	callq  402252 <_ZNK10Tensor_Ace16assert_same_sizeERKS_>
  4052d2:	48 8b 45 e8          	mov    -0x18(%rbp),%rax
  4052d6:	48 89 c7             	mov    %rax,%rdi
  4052d9:	e8 60 1a 00 00       	callq  406d3e <_ZNK11Tensor_KingId15CPU_MATHEMATICS10continuousIdS0_EE4sizeEv>
  4052de:	89 c3                	mov    %eax,%ebx
  4052e0:	48 8b 45 e0          	mov    -0x20(%rbp),%rax
  4052e4:	48 89 c7             	mov    %rax,%rdi
  4052e7:	e8 a8 1c 00 00       	callq  406f94 <_ZNK11Tensor_KingId15CPU_MATHEMATICS7pBufferIdS0_10continuousIdS0_ES3_N9Operation3addIdEEEE8accessorEv>
  4052ec:	48 89 c1             	mov    %rax,%rcx
  4052ef:	48 8b 45 e8          	mov    -0x18(%rbp),%rax
  4052f3:	48 83 c0 08          	add    $0x8,%rax
  4052f7:	89 da                	mov    %ebx,%edx
  4052f9:	48 89 ce             	mov    %rcx,%rsi
  4052fc:	48 89 c7             	mov    %rax,%rdi
  4052ff:	e8 a2 1c 00 00       	callq  406fa6 <_ZN15CPU_MATHEMATICS4copyI10continuousIdS_EK7pBufferIdS_S2_S2_N9Operation3addIdEEEEEvRT_RT0_i>
  405304:	48 8b 45 e8          	mov    -0x18(%rbp),%rax
  405308:	48 83 c4 18          	add    $0x18,%rsp
  40530c:	5b                   	pop    %rbx
  40530d:	5d                   	pop    %rbp
  40530e:	c3                   	retq   
  40530f:	90                   	nop

0000000000405310 <_ZN11Tensor_KingId15CPU_MATHEMATICS10continuousIdS0_EE8accessorEv>:
  405310:	55                   	push   %rbp
  405311:	48 89 e5             	mov    %rsp,%rbp
  405314:	48 89 7d f8          	mov    %rdi,-0x8(%rbp)
  405318:	48 8b 45 f8          	mov    -0x8(%rbp),%rax
  40531c:	48 83 c0 08          	add    $0x8,%rax
  405320:	5d                   	pop    %rbp
  405321:	c3                   	retq   

0000000000405322 <_ZN10continuousId15CPU_MATHEMATICSE7getDataEv>:
  405322:	55                   	push   %rbp
  405323:	48 89 e5             	mov    %rsp,%rbp
  405326:	48 89 7d f8          	mov    %rdi,-0x8(%rbp)
  40532a:	48 8b 45 f8          	mov    -0x8(%rbp),%rax
  40532e:	48 8b 40 08          	mov    0x8(%rax),%rax
  405332:	5d                   	pop    %rbp
  405333:	c3                   	retq   

0000000000405334 <_ZNSt7__cxx1112basic_stringIcSt11char_traitsIcESaIcEEC1IPcvEET_S7_RKS3_>:
  405334:	55                   	push   %rbp
  405335:	48 89 e5             	mov    %rsp,%rbp
  405338:	53                   	push   %rbx
  405339:	48 83 ec 28          	sub    $0x28,%rsp
  40533d:	48 89 7d e8          	mov    %rdi,-0x18(%rbp)
  405341:	48 89 75 e0          	mov    %rsi,-0x20(%rbp)
  405345:	48 89 55 d8          	mov    %rdx,-0x28(%rbp)
  405349:	48 89 4d d0          	mov    %rcx,-0x30(%rbp)
  40534d:	48 8b 45 e8          	mov    -0x18(%rbp),%rax
  405351:	48 89 c7             	mov    %rax,%rdi
  405354:	e8 17 ca ff ff       	callq  401d70 <_ZNSt7__cxx1112basic_stringIcSt11char_traitsIcESaIcEE13_M_local_dataEv@plt>
  405359:	48 89 c1             	mov    %rax,%rcx
  40535c:	48 8b 45 e8          	mov    -0x18(%rbp),%rax
  405360:	48 8b 55 d0          	mov    -0x30(%rbp),%rdx
  405364:	48 89 ce             	mov    %rcx,%rsi
  405367:	48 89 c7             	mov    %rax,%rdi
  40536a:	e8 91 ca ff ff       	callq  401e00 <_ZNSt7__cxx1112basic_stringIcSt11char_traitsIcESaIcEE12_Alloc_hiderC1EPcRKS3_@plt>
  40536f:	48 8b 55 d8          	mov    -0x28(%rbp),%rdx
  405373:	48 8b 4d e0          	mov    -0x20(%rbp),%rcx
  405377:	48 8b 45 e8          	mov    -0x18(%rbp),%rax
  40537b:	48 89 ce             	mov    %rcx,%rsi
  40537e:	48 89 c7             	mov    %rax,%rdi
  405381:	e8 7e 1c 00 00       	callq  407004 <_ZNSt7__cxx1112basic_stringIcSt11char_traitsIcESaIcEE12_M_constructIPcEEvT_S7_>
  405386:	eb 1a                	jmp    4053a2 <_ZNSt7__cxx1112basic_stringIcSt11char_traitsIcESaIcEEC1IPcvEET_S7_RKS3_+0x6e>
  405388:	48 89 c3             	mov    %rax,%rbx
  40538b:	48 8b 45 e8          	mov    -0x18(%rbp),%rax
  40538f:	48 89 c7             	mov    %rax,%rdi
  405392:	e8 e9 e1 ff ff       	callq  403580 <_ZNSt7__cxx1112basic_stringIcSt11char_traitsIcESaIcEE12_Alloc_hiderD1Ev>
  405397:	48 89 d8             	mov    %rbx,%rax
  40539a:	48 89 c7             	mov    %rax,%rdi
  40539d:	e8 ee cb ff ff       	callq  401f90 <_Unwind_Resume@plt>
  4053a2:	48 83 c4 28          	add    $0x28,%rsp
  4053a6:	5b                   	pop    %rbx
  4053a7:	5d                   	pop    %rbp
  4053a8:	c3                   	retq   
  4053a9:	90                   	nop

00000000004053aa <_ZN10Tensor_AceC1Ev>:
  4053aa:	55                   	push   %rbp
  4053ab:	48 89 e5             	mov    %rsp,%rbp
  4053ae:	48 89 7d f8          	mov    %rdi,-0x8(%rbp)
  4053b2:	ba 38 da 40 00       	mov    $0x40da38,%edx
  4053b7:	48 8b 45 f8          	mov    -0x8(%rbp),%rax
  4053bb:	48 89 10             	mov    %rdx,(%rax)
  4053be:	90                   	nop
  4053bf:	5d                   	pop    %rbp
  4053c0:	c3                   	retq   
  4053c1:	90                   	nop

00000000004053c2 <_ZN11Tensor_KingIf15CPU_MATHEMATICS10continuousIfS0_EEC1IISt16initializer_listIiEEEEbbDpT_>:
  4053c2:	55                   	push   %rbp
  4053c3:	48 89 e5             	mov    %rsp,%rbp
  4053c6:	53                   	push   %rbx
  4053c7:	48 83 ec 28          	sub    $0x28,%rsp
  4053cb:	48 89 7d e8          	mov    %rdi,-0x18(%rbp)
  4053cf:	89 f7                	mov    %esi,%edi
  4053d1:	89 d6                	mov    %edx,%esi
  4053d3:	48 89 c8             	mov    %rcx,%rax
  4053d6:	4c 89 c1             	mov    %r8,%rcx
  4053d9:	48 89 ca             	mov    %rcx,%rdx
  4053dc:	48 89 45 d0          	mov    %rax,-0x30(%rbp)
  4053e0:	48 89 55 d8          	mov    %rdx,-0x28(%rbp)
  4053e4:	40 88 7d e4          	mov    %dil,-0x1c(%rbp)
  4053e8:	40 88 75 e0          	mov    %sil,-0x20(%rbp)
  4053ec:	48 8b 45 e8          	mov    -0x18(%rbp),%rax
  4053f0:	48 89 c7             	mov    %rax,%rdi
  4053f3:	e8 b2 ff ff ff       	callq  4053aa <_ZN10Tensor_AceC1Ev>
  4053f8:	ba 18 d9 40 00       	mov    $0x40d918,%edx
  4053fd:	48 8b 45 e8          	mov    -0x18(%rbp),%rax
  405401:	48 89 10             	mov    %rdx,(%rax)
  405404:	48 8b 45 e8          	mov    -0x18(%rbp),%rax
  405408:	48 8d 48 08          	lea    0x8(%rax),%rcx
  40540c:	48 8b 55 d0          	mov    -0x30(%rbp),%rdx
  405410:	48 8b 45 d8          	mov    -0x28(%rbp),%rax
  405414:	48 89 d6             	mov    %rdx,%rsi
  405417:	48 89 c2             	mov    %rax,%rdx
  40541a:	48 89 cf             	mov    %rcx,%rdi
  40541d:	e8 8a 1c 00 00       	callq  4070ac <_ZN10continuousIf15CPU_MATHEMATICSEC1ESt16initializer_listIiE>
  405422:	48 8b 45 e8          	mov    -0x18(%rbp),%rax
  405426:	0f b6 55 e4          	movzbl -0x1c(%rbp),%edx
  40542a:	88 50 28             	mov    %dl,0x28(%rax)
  40542d:	48 8b 45 e8          	mov    -0x18(%rbp),%rax
  405431:	0f b6 55 e0          	movzbl -0x20(%rbp),%edx
  405435:	88 50 29             	mov    %dl,0x29(%rax)
  405438:	eb 1a                	jmp    405454 <_ZN11Tensor_KingIf15CPU_MATHEMATICS10continuousIfS0_EEC1IISt16initializer_listIiEEEEbbDpT_+0x92>
  40543a:	48 89 c3             	mov    %rax,%rbx
  40543d:	48 8b 45 e8          	mov    -0x18(%rbp),%rax
  405441:	48 89 c7             	mov    %rax,%rdi
  405444:	e8 37 df ff ff       	callq  403380 <_ZN10Tensor_AceD1Ev>
  405449:	48 89 d8             	mov    %rbx,%rax
  40544c:	48 89 c7             	mov    %rax,%rdi
  40544f:	e8 3c cb ff ff       	callq  401f90 <_Unwind_Resume@plt>
  405454:	48 83 c4 28          	add    $0x28,%rsp
  405458:	5b                   	pop    %rbx
  405459:	5d                   	pop    %rbp
  40545a:	c3                   	retq   
  40545b:	90                   	nop

000000000040545c <_ZN11Tensor_KingIf15CPU_MATHEMATICS10continuousIfS0_EED1Ev>:
  40545c:	55                   	push   %rbp
  40545d:	48 89 e5             	mov    %rsp,%rbp
  405460:	48 83 ec 10          	sub    $0x10,%rsp
  405464:	48 89 7d f8          	mov    %rdi,-0x8(%rbp)
  405468:	ba 18 d9 40 00       	mov    $0x40d918,%edx
  40546d:	48 8b 45 f8          	mov    -0x8(%rbp),%rax
  405471:	48 89 10             	mov    %rdx,(%rax)
  405474:	48 8b 45 f8          	mov    -0x8(%rbp),%rax
  405478:	0f b6 40 28          	movzbl 0x28(%rax),%eax
  40547c:	84 c0                	test   %al,%al
  40547e:	74 18                	je     405498 <_ZN11Tensor_KingIf15CPU_MATHEMATICS10continuousIfS0_EED1Ev+0x3c>
  405480:	48 8b 45 f8          	mov    -0x8(%rbp),%rax
  405484:	48 83 c0 08          	add    $0x8,%rax
  405488:	48 89 c7             	mov    %rax,%rdi
  40548b:	e8 f4 11 00 00       	callq  406684 <_ZN10continuousIf15CPU_MATHEMATICSE7getDataEv>
  405490:	48 89 c7             	mov    %rax,%rdi
  405493:	e8 2f 1d 00 00       	callq  4071c7 <_ZN15CPU_MATHEMATICS7destroyIfEEvPT_>
  405498:	48 8b 45 f8          	mov    -0x8(%rbp),%rax
  40549c:	0f b6 40 29          	movzbl 0x29(%rax),%eax
  4054a0:	84 c0                	test   %al,%al
  4054a2:	74 18                	je     4054bc <_ZN11Tensor_KingIf15CPU_MATHEMATICS10continuousIfS0_EED1Ev+0x60>
  4054a4:	48 8b 45 f8          	mov    -0x8(%rbp),%rax
  4054a8:	48 83 c0 08          	add    $0x8,%rax
  4054ac:	48 89 c7             	mov    %rax,%rdi
  4054af:	e8 36 1d 00 00       	callq  4071ea <_ZN10continuousIf15CPU_MATHEMATICSE8getShapeEv>
  4054b4:	48 89 c7             	mov    %rax,%rdi
  4054b7:	e8 40 1d 00 00       	callq  4071fc <_ZN15CPU_MATHEMATICS7destroyIiEEvPT_>
  4054bc:	48 8b 45 f8          	mov    -0x8(%rbp),%rax
  4054c0:	48 83 c0 08          	add    $0x8,%rax
  4054c4:	48 89 c7             	mov    %rax,%rdi
  4054c7:	e8 3a e2 ff ff       	callq  403706 <_ZN10continuousIf15CPU_MATHEMATICSED1Ev>
  4054cc:	48 8b 45 f8          	mov    -0x8(%rbp),%rax
  4054d0:	48 89 c7             	mov    %rax,%rdi
  4054d3:	e8 a8 de ff ff       	callq  403380 <_ZN10Tensor_AceD1Ev>
  4054d8:	b8 00 00 00 00       	mov    $0x0,%eax
  4054dd:	85 c0                	test   %eax,%eax
  4054df:	74 11                	je     4054f2 <_ZN11Tensor_KingIf15CPU_MATHEMATICS10continuousIfS0_EED1Ev+0x96>
  4054e1:	48 8b 45 f8          	mov    -0x8(%rbp),%rax
  4054e5:	be 30 00 00 00       	mov    $0x30,%esi
  4054ea:	48 89 c7             	mov    %rax,%rdi
  4054ed:	e8 de c8 ff ff       	callq  401dd0 <_ZdlPvm@plt>
  4054f2:	c9                   	leaveq 
  4054f3:	c3                   	retq   

00000000004054f4 <_ZN11Tensor_KingIf15CPU_MATHEMATICS10continuousIfS0_EED0Ev>:
  4054f4:	55                   	push   %rbp
  4054f5:	48 89 e5             	mov    %rsp,%rbp
  4054f8:	48 83 ec 10          	sub    $0x10,%rsp
  4054fc:	48 89 7d f8          	mov    %rdi,-0x8(%rbp)
  405500:	48 8b 45 f8          	mov    -0x8(%rbp),%rax
  405504:	48 89 c7             	mov    %rax,%rdi
  405507:	e8 50 ff ff ff       	callq  40545c <_ZN11Tensor_KingIf15CPU_MATHEMATICS10continuousIfS0_EED1Ev>
  40550c:	48 8b 45 f8          	mov    -0x8(%rbp),%rax
  405510:	be 30 00 00 00       	mov    $0x30,%esi
  405515:	48 89 c7             	mov    %rax,%rdi
  405518:	e8 b3 c8 ff ff       	callq  401dd0 <_ZdlPvm@plt>
  40551d:	c9                   	leaveq 
  40551e:	c3                   	retq   

000000000040551f <_ZN15CPU_MATHEMATICS9randomizeI10continuousIfS_EfEEvT_T0_S4_i>:
  40551f:	55                   	push   %rbp
  405520:	48 89 e5             	mov    %rsp,%rbp
  405523:	48 83 ec 40          	sub    $0x40,%rsp
  405527:	48 89 7d d8          	mov    %rdi,-0x28(%rbp)
  40552b:	f3 0f 11 45 d4       	movss  %xmm0,-0x2c(%rbp)
  405530:	f3 0f 11 4d d0       	movss  %xmm1,-0x30(%rbp)
  405535:	89 75 cc             	mov    %esi,-0x34(%rbp)
  405538:	64 48 8b 04 25 28 00 	mov    %fs:0x28,%rax
  40553f:	00 00 
  405541:	48 89 45 f8          	mov    %rax,-0x8(%rbp)
  405545:	31 c0                	xor    %eax,%eax
  405547:	48 8b 45 d8          	mov    -0x28(%rbp),%rax
  40554b:	48 89 45 e0          	mov    %rax,-0x20(%rbp)
  40554f:	f3 0f 10 45 d4       	movss  -0x2c(%rbp),%xmm0
  405554:	f3 0f 11 45 e8       	movss  %xmm0,-0x18(%rbp)
  405559:	f3 0f 10 45 d0       	movss  -0x30(%rbp),%xmm0
  40555e:	f3 0f 11 45 ec       	movss  %xmm0,-0x14(%rbp)
  405563:	8b 45 cc             	mov    -0x34(%rbp),%eax
  405566:	89 45 f0             	mov    %eax,-0x10(%rbp)
  405569:	48 8d 45 e0          	lea    -0x20(%rbp),%rax
  40556d:	b9 00 00 00 00       	mov    $0x0,%ecx
  405572:	ba 00 00 00 00       	mov    $0x0,%edx
  405577:	48 89 c6             	mov    %rax,%rsi
  40557a:	bf 89 30 40 00       	mov    $0x403089,%edi
  40557f:	e8 6c c9 ff ff       	callq  401ef0 <GOMP_parallel@plt>
  405584:	f3 0f 10 45 e8       	movss  -0x18(%rbp),%xmm0
  405589:	f3 0f 11 45 d4       	movss  %xmm0,-0x2c(%rbp)
  40558e:	f3 0f 10 45 ec       	movss  -0x14(%rbp),%xmm0
  405593:	f3 0f 11 45 d0       	movss  %xmm0,-0x30(%rbp)
  405598:	8b 45 f0             	mov    -0x10(%rbp),%eax
  40559b:	89 45 cc             	mov    %eax,-0x34(%rbp)
  40559e:	e8 1d ca ff ff       	callq  401fc0 <GOMP_barrier@plt>
  4055a3:	90                   	nop
  4055a4:	48 8b 45 f8          	mov    -0x8(%rbp),%rax
  4055a8:	64 48 33 04 25 28 00 	xor    %fs:0x28,%rax
  4055af:	00 00 
  4055b1:	74 05                	je     4055b8 <_ZN15CPU_MATHEMATICS9randomizeI10continuousIfS_EfEEvT_T0_S4_i+0x99>
  4055b3:	e8 78 c8 ff ff       	callq  401e30 <__stack_chk_fail@plt>
  4055b8:	c9                   	leaveq 
  4055b9:	c3                   	retq   

00000000004055ba <_ZNK10continuousIf15CPU_MATHEMATICSE8hasShapeEv>:
  4055ba:	55                   	push   %rbp
  4055bb:	48 89 e5             	mov    %rsp,%rbp
  4055be:	48 89 7d f8          	mov    %rdi,-0x8(%rbp)
  4055c2:	b8 01 00 00 00       	mov    $0x1,%eax
  4055c7:	5d                   	pop    %rbp
  4055c8:	c3                   	retq   
  4055c9:	90                   	nop

00000000004055ca <_ZNK10continuousIf15CPU_MATHEMATICSE8getShapeEv>:
  4055ca:	55                   	push   %rbp
  4055cb:	48 89 e5             	mov    %rsp,%rbp
  4055ce:	48 89 7d f8          	mov    %rdi,-0x8(%rbp)
  4055d2:	48 8b 45 f8          	mov    -0x8(%rbp),%rax
  4055d6:	48 8b 40 10          	mov    0x10(%rax),%rax
  4055da:	5d                   	pop    %rbp
  4055db:	c3                   	retq   

00000000004055dc <_ZNK11Tensor_KingIf15CPU_MATHEMATICS10continuousIfS0_EE5orderEv>:
  4055dc:	55                   	push   %rbp
  4055dd:	48 89 e5             	mov    %rsp,%rbp
  4055e0:	48 83 ec 10          	sub    $0x10,%rsp
  4055e4:	48 89 7d f8          	mov    %rdi,-0x8(%rbp)
  4055e8:	48 8b 45 f8          	mov    -0x8(%rbp),%rax
  4055ec:	48 83 c0 08          	add    $0x8,%rax
  4055f0:	48 89 c7             	mov    %rax,%rdi
  4055f3:	e8 26 1c 00 00       	callq  40721e <_ZNK10continuousIf15CPU_MATHEMATICSE5orderEv>
  4055f8:	c9                   	leaveq 
  4055f9:	c3                   	retq   

00000000004055fa <_ZN15CPU_MATHEMATICS5printI10continuousIfS_EEEvT_PKiii>:
  4055fa:	55                   	push   %rbp
  4055fb:	48 89 e5             	mov    %rsp,%rbp
  4055fe:	53                   	push   %rbx
  4055ff:	48 81 ec 98 00 00 00 	sub    $0x98,%rsp
  405606:	48 89 bd 78 ff ff ff 	mov    %rdi,-0x88(%rbp)
  40560d:	48 89 b5 70 ff ff ff 	mov    %rsi,-0x90(%rbp)
  405614:	89 95 6c ff ff ff    	mov    %edx,-0x94(%rbp)
  40561a:	89 8d 68 ff ff ff    	mov    %ecx,-0x98(%rbp)
  405620:	64 48 8b 04 25 28 00 	mov    %fs:0x28,%rax
  405627:	00 00 
  405629:	48 89 45 e8          	mov    %rax,-0x18(%rbp)
  40562d:	31 c0                	xor    %eax,%eax
  40562f:	48 8d 45 80          	lea    -0x80(%rbp),%rax
  405633:	48 89 c7             	mov    %rax,%rdi
  405636:	e8 65 c9 ff ff       	callq  401fa0 <_ZNSaIcEC1Ev@plt>
  40563b:	48 8d 55 80          	lea    -0x80(%rbp),%rdx
  40563f:	48 8d 45 a0          	lea    -0x60(%rbp),%rax
  405643:	be b7 c7 40 00       	mov    $0x40c7b7,%esi
  405648:	48 89 c7             	mov    %rax,%rdi
  40564b:	e8 50 c8 ff ff       	callq  401ea0 <_ZNSt7__cxx1112basic_stringIcSt11char_traitsIcESaIcEEC1EPKcRKS3_@plt>
  405650:	48 8d 45 80          	lea    -0x80(%rbp),%rax
  405654:	48 89 c7             	mov    %rax,%rdi
  405657:	e8 b4 c7 ff ff       	callq  401e10 <_ZNSaIcED1Ev@plt>
  40565c:	48 8d 55 a0          	lea    -0x60(%rbp),%rdx
  405660:	48 8d 45 c0          	lea    -0x40(%rbp),%rax
  405664:	48 89 d6             	mov    %rdx,%rsi
  405667:	48 89 c7             	mov    %rax,%rdi
  40566a:	e8 81 c6 ff ff       	callq  401cf0 <_ZNSt7__cxx1112basic_stringIcSt11char_traitsIcESaIcEEC1ERKS4_@plt>
  40566f:	48 8b 95 78 ff ff ff 	mov    -0x88(%rbp),%rdx
  405676:	48 8d 45 80          	lea    -0x80(%rbp),%rax
  40567a:	48 89 d6             	mov    %rdx,%rsi
  40567d:	48 89 c7             	mov    %rax,%rdi
  405680:	e8 21 e0 ff ff       	callq  4036a6 <_ZN10continuousIf15CPU_MATHEMATICSEC1ERKS1_>
  405685:	8b bd 68 ff ff ff    	mov    -0x98(%rbp),%edi
  40568b:	48 8d 4d c0          	lea    -0x40(%rbp),%rcx
  40568f:	8b 95 6c ff ff ff    	mov    -0x94(%rbp),%edx
  405695:	48 8b b5 70 ff ff ff 	mov    -0x90(%rbp),%rsi
  40569c:	48 8d 45 80          	lea    -0x80(%rbp),%rax
  4056a0:	41 89 f8             	mov    %edi,%r8d
  4056a3:	48 89 c7             	mov    %rax,%rdi
  4056a6:	e8 84 1b 00 00       	callq  40722f <_ZN15CPU_MATHEMATICS11printHelperI10continuousIfS_EEEvT_PKiiNSt7__cxx1112basic_stringIcSt11char_traitsIcESaIcEEEi>
  4056ab:	48 8d 45 80          	lea    -0x80(%rbp),%rax
  4056af:	48 89 c7             	mov    %rax,%rdi
  4056b2:	e8 4f e0 ff ff       	callq  403706 <_ZN10continuousIf15CPU_MATHEMATICSED1Ev>
  4056b7:	48 8d 45 c0          	lea    -0x40(%rbp),%rax
  4056bb:	48 89 c7             	mov    %rax,%rdi
  4056be:	e8 5d c6 ff ff       	callq  401d20 <_ZNSt7__cxx1112basic_stringIcSt11char_traitsIcESaIcEED1Ev@plt>
  4056c3:	be 00 1d 40 00       	mov    $0x401d00,%esi
  4056c8:	bf 60 42 61 00       	mov    $0x614260,%edi
  4056cd:	e8 1e c7 ff ff       	callq  401df0 <_ZNSolsEPFRSoS_E@plt>
  4056d2:	48 8d 45 a0          	lea    -0x60(%rbp),%rax
  4056d6:	48 89 c7             	mov    %rax,%rdi
  4056d9:	e8 42 c6 ff ff       	callq  401d20 <_ZNSt7__cxx1112basic_stringIcSt11char_traitsIcESaIcEED1Ev@plt>
  4056de:	90                   	nop
  4056df:	48 8b 45 e8          	mov    -0x18(%rbp),%rax
  4056e3:	64 48 33 04 25 28 00 	xor    %fs:0x28,%rax
  4056ea:	00 00 
  4056ec:	74 58                	je     405746 <_ZN15CPU_MATHEMATICS5printI10continuousIfS_EEEvT_PKiii+0x14c>
  4056ee:	eb 51                	jmp    405741 <_ZN15CPU_MATHEMATICS5printI10continuousIfS_EEEvT_PKiii+0x147>
  4056f0:	48 89 c3             	mov    %rax,%rbx
  4056f3:	48 8d 45 80          	lea    -0x80(%rbp),%rax
  4056f7:	48 89 c7             	mov    %rax,%rdi
  4056fa:	e8 11 c7 ff ff       	callq  401e10 <_ZNSaIcED1Ev@plt>
  4056ff:	48 89 d8             	mov    %rbx,%rax
  405702:	48 89 c7             	mov    %rax,%rdi
  405705:	e8 86 c8 ff ff       	callq  401f90 <_Unwind_Resume@plt>
  40570a:	48 89 c3             	mov    %rax,%rbx
  40570d:	48 8d 45 80          	lea    -0x80(%rbp),%rax
  405711:	48 89 c7             	mov    %rax,%rdi
  405714:	e8 ed df ff ff       	callq  403706 <_ZN10continuousIf15CPU_MATHEMATICSED1Ev>
  405719:	48 8d 45 c0          	lea    -0x40(%rbp),%rax
  40571d:	48 89 c7             	mov    %rax,%rdi
  405720:	e8 fb c5 ff ff       	callq  401d20 <_ZNSt7__cxx1112basic_stringIcSt11char_traitsIcESaIcEED1Ev@plt>
  405725:	eb 03                	jmp    40572a <_ZN15CPU_MATHEMATICS5printI10continuousIfS_EEEvT_PKiii+0x130>
  405727:	48 89 c3             	mov    %rax,%rbx
  40572a:	48 8d 45 a0          	lea    -0x60(%rbp),%rax
  40572e:	48 89 c7             	mov    %rax,%rdi
  405731:	e8 ea c5 ff ff       	callq  401d20 <_ZNSt7__cxx1112basic_stringIcSt11char_traitsIcESaIcEED1Ev@plt>
  405736:	48 89 d8             	mov    %rbx,%rax
  405739:	48 89 c7             	mov    %rax,%rdi
  40573c:	e8 4f c8 ff ff       	callq  401f90 <_Unwind_Resume@plt>
  405741:	e8 ea c6 ff ff       	callq  401e30 <__stack_chk_fail@plt>
  405746:	48 81 c4 98 00 00 00 	add    $0x98,%rsp
  40574d:	5b                   	pop    %rbx
  40574e:	5d                   	pop    %rbp
  40574f:	c3                   	retq   

0000000000405750 <_ZN15CPU_MATHEMATICS5printI10continuousIfS_EEEvT_ii>:
  405750:	55                   	push   %rbp
  405751:	48 89 e5             	mov    %rsp,%rbp
  405754:	53                   	push   %rbx
  405755:	48 81 ec 88 00 00 00 	sub    $0x88,%rsp
  40575c:	48 89 7d 88          	mov    %rdi,-0x78(%rbp)
  405760:	89 75 84             	mov    %esi,-0x7c(%rbp)
  405763:	89 55 80             	mov    %edx,-0x80(%rbp)
  405766:	64 48 8b 04 25 28 00 	mov    %fs:0x28,%rax
  40576d:	00 00 
  40576f:	48 89 45 e8          	mov    %rax,-0x18(%rbp)
  405773:	31 c0                	xor    %eax,%eax
  405775:	be b8 c7 40 00       	mov    $0x40c7b8,%esi
  40577a:	bf 60 42 61 00       	mov    $0x614260,%edi
  40577f:	e8 3c c6 ff ff       	callq  401dc0 <_ZStlsISt11char_traitsIcEERSt13basic_ostreamIcT_ES5_PKc@plt>
  405784:	c7 45 9c 00 00 00 00 	movl   $0x0,-0x64(%rbp)
  40578b:	8b 45 9c             	mov    -0x64(%rbp),%eax
  40578e:	3b 45 84             	cmp    -0x7c(%rbp),%eax
  405791:	0f 8d cd 00 00 00    	jge    405864 <_ZN15CPU_MATHEMATICS5printI10continuousIfS_EEEvT_ii+0x114>
  405797:	8b 55 9c             	mov    -0x64(%rbp),%edx
  40579a:	48 8b 45 88          	mov    -0x78(%rbp),%rax
  40579e:	89 d6                	mov    %edx,%esi
  4057a0:	48 89 c7             	mov    %rax,%rdi
  4057a3:	e8 16 22 00 00       	callq  4079be <_ZNK10continuousIf15CPU_MATHEMATICSEixEi>
  4057a8:	8b 10                	mov    (%rax),%edx
  4057aa:	48 8d 45 a0          	lea    -0x60(%rbp),%rax
  4057ae:	89 95 7c ff ff ff    	mov    %edx,-0x84(%rbp)
  4057b4:	f3 0f 10 85 7c ff ff 	movss  -0x84(%rbp),%xmm0
  4057bb:	ff 
  4057bc:	48 89 c7             	mov    %rax,%rdi
  4057bf:	e8 56 db ff ff       	callq  40331a <_ZNSt7__cxx119to_stringEf>
  4057c4:	48 8d 45 a0          	lea    -0x60(%rbp),%rax
  4057c8:	48 89 c7             	mov    %rax,%rdi
  4057cb:	e8 10 c7 ff ff       	callq  401ee0 <_ZNKSt7__cxx1112basic_stringIcSt11char_traitsIcESaIcEE6lengthEv@plt>
  4057d0:	48 89 c2             	mov    %rax,%rdx
  4057d3:	8b 45 80             	mov    -0x80(%rbp),%eax
  4057d6:	48 98                	cltq   
  4057d8:	48 39 c2             	cmp    %rax,%rdx
  4057db:	73 0e                	jae    4057eb <_ZN15CPU_MATHEMATICS5printI10continuousIfS_EEEvT_ii+0x9b>
  4057dd:	48 8d 45 a0          	lea    -0x60(%rbp),%rax
  4057e1:	48 89 c7             	mov    %rax,%rdi
  4057e4:	e8 f7 c6 ff ff       	callq  401ee0 <_ZNKSt7__cxx1112basic_stringIcSt11char_traitsIcESaIcEE6lengthEv@plt>
  4057e9:	eb 05                	jmp    4057f0 <_ZN15CPU_MATHEMATICS5printI10continuousIfS_EEEvT_ii+0xa0>
  4057eb:	8b 45 80             	mov    -0x80(%rbp),%eax
  4057ee:	48 98                	cltq   
  4057f0:	48 8d 7d c0          	lea    -0x40(%rbp),%rdi
  4057f4:	48 8d 75 a0          	lea    -0x60(%rbp),%rsi
  4057f8:	48 89 c1             	mov    %rax,%rcx
  4057fb:	ba 00 00 00 00       	mov    $0x0,%edx
  405800:	e8 db c5 ff ff       	callq  401de0 <_ZNKSt7__cxx1112basic_stringIcSt11char_traitsIcESaIcEE6substrEmm@plt>
  405805:	48 8d 55 c0          	lea    -0x40(%rbp),%rdx
  405809:	48 8d 45 a0          	lea    -0x60(%rbp),%rax
  40580d:	48 89 d6             	mov    %rdx,%rsi
  405810:	48 89 c7             	mov    %rax,%rdi
  405813:	e8 38 c6 ff ff       	callq  401e50 <_ZNSt7__cxx1112basic_stringIcSt11char_traitsIcESaIcEEaSEOS4_@plt>
  405818:	48 8d 45 c0          	lea    -0x40(%rbp),%rax
  40581c:	48 89 c7             	mov    %rax,%rdi
  40581f:	e8 fc c4 ff ff       	callq  401d20 <_ZNSt7__cxx1112basic_stringIcSt11char_traitsIcESaIcEED1Ev@plt>
  405824:	48 8d 45 a0          	lea    -0x60(%rbp),%rax
  405828:	48 89 c6             	mov    %rax,%rsi
  40582b:	bf 60 42 61 00       	mov    $0x614260,%edi
  405830:	e8 6b c5 ff ff       	callq  401da0 <_ZStlsIcSt11char_traitsIcESaIcEERSt13basic_ostreamIT_T0_ES7_RKNSt7__cxx1112basic_stringIS4_S5_T1_EE@plt>
  405835:	8b 45 84             	mov    -0x7c(%rbp),%eax
  405838:	83 e8 01             	sub    $0x1,%eax
  40583b:	3b 45 9c             	cmp    -0x64(%rbp),%eax
  40583e:	7e 0f                	jle    40584f <_ZN15CPU_MATHEMATICS5printI10continuousIfS_EEEvT_ii+0xff>
  405840:	be bb c7 40 00       	mov    $0x40c7bb,%esi
  405845:	bf 60 42 61 00       	mov    $0x614260,%edi
  40584a:	e8 71 c5 ff ff       	callq  401dc0 <_ZStlsISt11char_traitsIcEERSt13basic_ostreamIcT_ES5_PKc@plt>
  40584f:	48 8d 45 a0          	lea    -0x60(%rbp),%rax
  405853:	48 89 c7             	mov    %rax,%rdi
  405856:	e8 c5 c4 ff ff       	callq  401d20 <_ZNSt7__cxx1112basic_stringIcSt11char_traitsIcESaIcEED1Ev@plt>
  40585b:	83 45 9c 01          	addl   $0x1,-0x64(%rbp)
  40585f:	e9 27 ff ff ff       	jmpq   40578b <_ZN15CPU_MATHEMATICS5printI10continuousIfS_EEEvT_ii+0x3b>
  405864:	be bf c7 40 00       	mov    $0x40c7bf,%esi
  405869:	bf 60 42 61 00       	mov    $0x614260,%edi
  40586e:	e8 4d c5 ff ff       	callq  401dc0 <_ZStlsISt11char_traitsIcEERSt13basic_ostreamIcT_ES5_PKc@plt>
  405873:	be 00 1d 40 00       	mov    $0x401d00,%esi
  405878:	48 89 c7             	mov    %rax,%rdi
  40587b:	e8 70 c5 ff ff       	callq  401df0 <_ZNSolsEPFRSoS_E@plt>
  405880:	90                   	nop
  405881:	48 8b 45 e8          	mov    -0x18(%rbp),%rax
  405885:	64 48 33 04 25 28 00 	xor    %fs:0x28,%rax
  40588c:	00 00 
  40588e:	74 32                	je     4058c2 <_ZN15CPU_MATHEMATICS5printI10continuousIfS_EEEvT_ii+0x172>
  405890:	eb 2b                	jmp    4058bd <_ZN15CPU_MATHEMATICS5printI10continuousIfS_EEEvT_ii+0x16d>
  405892:	48 89 c3             	mov    %rax,%rbx
  405895:	48 8d 45 c0          	lea    -0x40(%rbp),%rax
  405899:	48 89 c7             	mov    %rax,%rdi
  40589c:	e8 7f c4 ff ff       	callq  401d20 <_ZNSt7__cxx1112basic_stringIcSt11char_traitsIcESaIcEED1Ev@plt>
  4058a1:	eb 03                	jmp    4058a6 <_ZN15CPU_MATHEMATICS5printI10continuousIfS_EEEvT_ii+0x156>
  4058a3:	48 89 c3             	mov    %rax,%rbx
  4058a6:	48 8d 45 a0          	lea    -0x60(%rbp),%rax
  4058aa:	48 89 c7             	mov    %rax,%rdi
  4058ad:	e8 6e c4 ff ff       	callq  401d20 <_ZNSt7__cxx1112basic_stringIcSt11char_traitsIcESaIcEED1Ev@plt>
  4058b2:	48 89 d8             	mov    %rbx,%rax
  4058b5:	48 89 c7             	mov    %rax,%rdi
  4058b8:	e8 d3 c6 ff ff       	callq  401f90 <_Unwind_Resume@plt>
  4058bd:	e8 6e c5 ff ff       	callq  401e30 <__stack_chk_fail@plt>
  4058c2:	48 81 c4 88 00 00 00 	add    $0x88,%rsp
  4058c9:	5b                   	pop    %rbx
  4058ca:	5d                   	pop    %rbp
  4058cb:	c3                   	retq   

00000000004058cc <_ZN12Tensor_QueenIf15CPU_MATHEMATICS7pBufferIfS0_10continuousIfS0_ES3_N9Operation3mulIfEEEEC1IIS3_S3_EEEbDpT_>:
  4058cc:	55                   	push   %rbp
  4058cd:	48 89 e5             	mov    %rsp,%rbp
  4058d0:	53                   	push   %rbx
  4058d1:	48 83 ec 78          	sub    $0x78,%rsp
  4058d5:	48 89 7d 98          	mov    %rdi,-0x68(%rbp)
  4058d9:	89 f0                	mov    %esi,%eax
  4058db:	48 89 55 88          	mov    %rdx,-0x78(%rbp)
  4058df:	48 89 4d 80          	mov    %rcx,-0x80(%rbp)
  4058e3:	88 45 94             	mov    %al,-0x6c(%rbp)
  4058e6:	64 48 8b 04 25 28 00 	mov    %fs:0x28,%rax
  4058ed:	00 00 
  4058ef:	48 89 45 e8          	mov    %rax,-0x18(%rbp)
  4058f3:	31 c0                	xor    %eax,%eax
  4058f5:	48 8b 55 80          	mov    -0x80(%rbp),%rdx
  4058f9:	48 8d 45 c0          	lea    -0x40(%rbp),%rax
  4058fd:	48 89 d6             	mov    %rdx,%rsi
  405900:	48 89 c7             	mov    %rax,%rdi
  405903:	e8 9e dd ff ff       	callq  4036a6 <_ZN10continuousIf15CPU_MATHEMATICSEC1ERKS1_>
  405908:	48 8b 55 88          	mov    -0x78(%rbp),%rdx
  40590c:	48 8d 45 a0          	lea    -0x60(%rbp),%rax
  405910:	48 89 d6             	mov    %rdx,%rsi
  405913:	48 89 c7             	mov    %rax,%rdi
  405916:	e8 8b dd ff ff       	callq  4036a6 <_ZN10continuousIf15CPU_MATHEMATICSEC1ERKS1_>
  40591b:	0f b6 55 94          	movzbl -0x6c(%rbp),%edx
  40591f:	48 8b 45 98          	mov    -0x68(%rbp),%rax
  405923:	48 8d 75 c0          	lea    -0x40(%rbp),%rsi
  405927:	48 8d 4d a0          	lea    -0x60(%rbp),%rcx
  40592b:	49 89 f0             	mov    %rsi,%r8
  40592e:	be 00 00 00 00       	mov    $0x0,%esi
  405933:	48 89 c7             	mov    %rax,%rdi
  405936:	e8 a5 20 00 00       	callq  4079e0 <_ZN11Tensor_KingIf15CPU_MATHEMATICS7pBufferIfS0_10continuousIfS0_ES3_N9Operation3mulIfEEEEC1IIS3_S3_EEEbbDpT_>
  40593b:	48 8d 45 a0          	lea    -0x60(%rbp),%rax
  40593f:	48 89 c7             	mov    %rax,%rdi
  405942:	e8 bf dd ff ff       	callq  403706 <_ZN10continuousIf15CPU_MATHEMATICSED1Ev>
  405947:	48 8d 45 c0          	lea    -0x40(%rbp),%rax
  40594b:	48 89 c7             	mov    %rax,%rdi
  40594e:	e8 b3 dd ff ff       	callq  403706 <_ZN10continuousIf15CPU_MATHEMATICSED1Ev>
  405953:	ba e8 d7 40 00       	mov    $0x40d7e8,%edx
  405958:	48 8b 45 98          	mov    -0x68(%rbp),%rax
  40595c:	48 89 10             	mov    %rdx,(%rax)
  40595f:	90                   	nop
  405960:	48 8b 45 e8          	mov    -0x18(%rbp),%rax
  405964:	64 48 33 04 25 28 00 	xor    %fs:0x28,%rax
  40596b:	00 00 
  40596d:	74 2d                	je     40599c <_ZN12Tensor_QueenIf15CPU_MATHEMATICS7pBufferIfS0_10continuousIfS0_ES3_N9Operation3mulIfEEEEC1IIS3_S3_EEEbDpT_+0xd0>
  40596f:	eb 26                	jmp    405997 <_ZN12Tensor_QueenIf15CPU_MATHEMATICS7pBufferIfS0_10continuousIfS0_ES3_N9Operation3mulIfEEEEC1IIS3_S3_EEEbDpT_+0xcb>
  405971:	48 89 c3             	mov    %rax,%rbx
  405974:	48 8d 45 a0          	lea    -0x60(%rbp),%rax
  405978:	48 89 c7             	mov    %rax,%rdi
  40597b:	e8 86 dd ff ff       	callq  403706 <_ZN10continuousIf15CPU_MATHEMATICSED1Ev>
  405980:	48 8d 45 c0          	lea    -0x40(%rbp),%rax
  405984:	48 89 c7             	mov    %rax,%rdi
  405987:	e8 7a dd ff ff       	callq  403706 <_ZN10continuousIf15CPU_MATHEMATICSED1Ev>
  40598c:	48 89 d8             	mov    %rbx,%rax
  40598f:	48 89 c7             	mov    %rax,%rdi
  405992:	e8 f9 c5 ff ff       	callq  401f90 <_Unwind_Resume@plt>
  405997:	e8 94 c4 ff ff       	callq  401e30 <__stack_chk_fail@plt>
  40599c:	48 83 c4 78          	add    $0x78,%rsp
  4059a0:	5b                   	pop    %rbx
  4059a1:	5d                   	pop    %rbp
  4059a2:	c3                   	retq   
  4059a3:	90                   	nop

00000000004059a4 <_ZN11Tensor_KingIf15CPU_MATHEMATICS7pBufferIfS0_10continuousIfS0_ES3_N9Operation3mulIfEEEED1Ev>:
  4059a4:	55                   	push   %rbp
  4059a5:	48 89 e5             	mov    %rsp,%rbp
  4059a8:	48 83 ec 10          	sub    $0x10,%rsp
  4059ac:	48 89 7d f8          	mov    %rdi,-0x8(%rbp)
  4059b0:	ba 28 d8 40 00       	mov    $0x40d828,%edx
  4059b5:	48 8b 45 f8          	mov    -0x8(%rbp),%rax
  4059b9:	48 89 10             	mov    %rdx,(%rax)
  4059bc:	48 8b 45 f8          	mov    -0x8(%rbp),%rax
  4059c0:	0f b6 40 58          	movzbl 0x58(%rax),%eax
  4059c4:	84 c0                	test   %al,%al
  4059c6:	74 18                	je     4059e0 <_ZN11Tensor_KingIf15CPU_MATHEMATICS7pBufferIfS0_10continuousIfS0_ES3_N9Operation3mulIfEEEED1Ev+0x3c>
  4059c8:	48 8b 45 f8          	mov    -0x8(%rbp),%rax
  4059cc:	48 83 c0 08          	add    $0x8,%rax
  4059d0:	48 89 c7             	mov    %rax,%rdi
  4059d3:	e8 d2 20 00 00       	callq  407aaa <_ZN7pBufferIf15CPU_MATHEMATICS10continuousIfS0_ES2_N9Operation3mulIfEEE7getDataEv>
  4059d8:	48 89 c7             	mov    %rax,%rdi
  4059db:	e8 e7 17 00 00       	callq  4071c7 <_ZN15CPU_MATHEMATICS7destroyIfEEvPT_>
  4059e0:	48 8b 45 f8          	mov    -0x8(%rbp),%rax
  4059e4:	0f b6 40 59          	movzbl 0x59(%rax),%eax
  4059e8:	84 c0                	test   %al,%al
  4059ea:	74 18                	je     405a04 <_ZN11Tensor_KingIf15CPU_MATHEMATICS7pBufferIfS0_10continuousIfS0_ES3_N9Operation3mulIfEEEED1Ev+0x60>
  4059ec:	48 8b 45 f8          	mov    -0x8(%rbp),%rax
  4059f0:	48 83 c0 08          	add    $0x8,%rax
  4059f4:	48 89 c7             	mov    %rax,%rdi
  4059f7:	e8 00 21 00 00       	callq  407afc <_ZN7pBufferIf15CPU_MATHEMATICS10continuousIfS0_ES2_N9Operation3mulIfEEE8getShapeEv>
  4059fc:	48 89 c7             	mov    %rax,%rdi
  4059ff:	e8 f8 17 00 00       	callq  4071fc <_ZN15CPU_MATHEMATICS7destroyIiEEvPT_>
  405a04:	48 8b 45 f8          	mov    -0x8(%rbp),%rax
  405a08:	48 83 c0 08          	add    $0x8,%rax
  405a0c:	48 89 c7             	mov    %rax,%rdi
  405a0f:	e8 b0 df ff ff       	callq  4039c4 <_ZN7pBufferIf15CPU_MATHEMATICS10continuousIfS0_ES2_N9Operation3mulIfEEED1Ev>
  405a14:	48 8b 45 f8          	mov    -0x8(%rbp),%rax
  405a18:	48 89 c7             	mov    %rax,%rdi
  405a1b:	e8 60 d9 ff ff       	callq  403380 <_ZN10Tensor_AceD1Ev>
  405a20:	b8 00 00 00 00       	mov    $0x0,%eax
  405a25:	85 c0                	test   %eax,%eax
  405a27:	74 11                	je     405a3a <_ZN11Tensor_KingIf15CPU_MATHEMATICS7pBufferIfS0_10continuousIfS0_ES3_N9Operation3mulIfEEEED1Ev+0x96>
  405a29:	48 8b 45 f8          	mov    -0x8(%rbp),%rax
  405a2d:	be 60 00 00 00       	mov    $0x60,%esi
  405a32:	48 89 c7             	mov    %rax,%rdi
  405a35:	e8 96 c3 ff ff       	callq  401dd0 <_ZdlPvm@plt>
  405a3a:	c9                   	leaveq 
  405a3b:	c3                   	retq   

0000000000405a3c <_ZN11Tensor_KingIf15CPU_MATHEMATICS7pBufferIfS0_10continuousIfS0_ES3_N9Operation3mulIfEEEED0Ev>:
  405a3c:	55                   	push   %rbp
  405a3d:	48 89 e5             	mov    %rsp,%rbp
  405a40:	48 83 ec 10          	sub    $0x10,%rsp
  405a44:	48 89 7d f8          	mov    %rdi,-0x8(%rbp)
  405a48:	48 8b 45 f8          	mov    -0x8(%rbp),%rax
  405a4c:	48 89 c7             	mov    %rax,%rdi
  405a4f:	e8 50 ff ff ff       	callq  4059a4 <_ZN11Tensor_KingIf15CPU_MATHEMATICS7pBufferIfS0_10continuousIfS0_ES3_N9Operation3mulIfEEEED1Ev>
  405a54:	48 8b 45 f8          	mov    -0x8(%rbp),%rax
  405a58:	be 60 00 00 00       	mov    $0x60,%esi
  405a5d:	48 89 c7             	mov    %rax,%rdi
  405a60:	e8 6b c3 ff ff       	callq  401dd0 <_ZdlPvm@plt>
  405a65:	c9                   	leaveq 
  405a66:	c3                   	retq   
  405a67:	90                   	nop

0000000000405a68 <_ZN12Tensor_QueenIf15CPU_MATHEMATICS7pBufferIfS0_10continuousIfS0_ES1_IfS0_S3_S3_N9Operation3mulIfEEENS4_3addIfEEEEC1IIS3_S7_EEEbDpT_>:
  405a68:	55                   	push   %rbp
  405a69:	48 89 e5             	mov    %rsp,%rbp
  405a6c:	53                   	push   %rbx
  405a6d:	48 81 ec a8 00 00 00 	sub    $0xa8,%rsp
  405a74:	48 89 bd 68 ff ff ff 	mov    %rdi,-0x98(%rbp)
  405a7b:	89 f0                	mov    %esi,%eax
  405a7d:	48 89 95 58 ff ff ff 	mov    %rdx,-0xa8(%rbp)
  405a84:	48 89 8d 50 ff ff ff 	mov    %rcx,-0xb0(%rbp)
  405a8b:	88 85 64 ff ff ff    	mov    %al,-0x9c(%rbp)
  405a91:	64 48 8b 04 25 28 00 	mov    %fs:0x28,%rax
  405a98:	00 00 
  405a9a:	48 89 45 e8          	mov    %rax,-0x18(%rbp)
  405a9e:	31 c0                	xor    %eax,%eax
  405aa0:	48 8b 95 50 ff ff ff 	mov    -0xb0(%rbp),%rdx
  405aa7:	48 8d 45 90          	lea    -0x70(%rbp),%rax
  405aab:	48 89 d6             	mov    %rdx,%rsi
  405aae:	48 89 c7             	mov    %rax,%rdi
  405ab1:	e8 a6 de ff ff       	callq  40395c <_ZN7pBufferIf15CPU_MATHEMATICS10continuousIfS0_ES2_N9Operation3mulIfEEEC1ERKS6_>
  405ab6:	48 8b 95 58 ff ff ff 	mov    -0xa8(%rbp),%rdx
  405abd:	48 8d 85 70 ff ff ff 	lea    -0x90(%rbp),%rax
  405ac4:	48 89 d6             	mov    %rdx,%rsi
  405ac7:	48 89 c7             	mov    %rax,%rdi
  405aca:	e8 d7 db ff ff       	callq  4036a6 <_ZN10continuousIf15CPU_MATHEMATICSEC1ERKS1_>
  405acf:	0f b6 95 64 ff ff ff 	movzbl -0x9c(%rbp),%edx
  405ad6:	48 8b 85 68 ff ff ff 	mov    -0x98(%rbp),%rax
  405add:	48 8d 75 90          	lea    -0x70(%rbp),%rsi
  405ae1:	48 8d 8d 70 ff ff ff 	lea    -0x90(%rbp),%rcx
  405ae8:	49 89 f0             	mov    %rsi,%r8
  405aeb:	be 00 00 00 00       	mov    $0x0,%esi
  405af0:	48 89 c7             	mov    %rax,%rdi
  405af3:	e8 56 20 00 00       	callq  407b4e <_ZN11Tensor_KingIf15CPU_MATHEMATICS7pBufferIfS0_10continuousIfS0_ES1_IfS0_S3_S3_N9Operation3mulIfEEENS4_3addIfEEEEC1IIS3_S7_EEEbbDpT_>
  405af8:	48 8d 85 70 ff ff ff 	lea    -0x90(%rbp),%rax
  405aff:	48 89 c7             	mov    %rax,%rdi
  405b02:	e8 ff db ff ff       	callq  403706 <_ZN10continuousIf15CPU_MATHEMATICSED1Ev>
  405b07:	48 8d 45 90          	lea    -0x70(%rbp),%rax
  405b0b:	48 89 c7             	mov    %rax,%rdi
  405b0e:	e8 b1 de ff ff       	callq  4039c4 <_ZN7pBufferIf15CPU_MATHEMATICS10continuousIfS0_ES2_N9Operation3mulIfEEED1Ev>
  405b13:	ba f8 d6 40 00       	mov    $0x40d6f8,%edx
  405b18:	48 8b 85 68 ff ff ff 	mov    -0x98(%rbp),%rax
  405b1f:	48 89 10             	mov    %rdx,(%rax)
  405b22:	90                   	nop
  405b23:	48 8b 45 e8          	mov    -0x18(%rbp),%rax
  405b27:	64 48 33 04 25 28 00 	xor    %fs:0x28,%rax
  405b2e:	00 00 
  405b30:	74 30                	je     405b62 <_ZN12Tensor_QueenIf15CPU_MATHEMATICS7pBufferIfS0_10continuousIfS0_ES1_IfS0_S3_S3_N9Operation3mulIfEEENS4_3addIfEEEEC1IIS3_S7_EEEbDpT_+0xfa>
  405b32:	eb 29                	jmp    405b5d <_ZN12Tensor_QueenIf15CPU_MATHEMATICS7pBufferIfS0_10continuousIfS0_ES1_IfS0_S3_S3_N9Operation3mulIfEEENS4_3addIfEEEEC1IIS3_S7_EEEbDpT_+0xf5>
  405b34:	48 89 c3             	mov    %rax,%rbx
  405b37:	48 8d 85 70 ff ff ff 	lea    -0x90(%rbp),%rax
  405b3e:	48 89 c7             	mov    %rax,%rdi
  405b41:	e8 c0 db ff ff       	callq  403706 <_ZN10continuousIf15CPU_MATHEMATICSED1Ev>
  405b46:	48 8d 45 90          	lea    -0x70(%rbp),%rax
  405b4a:	48 89 c7             	mov    %rax,%rdi
  405b4d:	e8 72 de ff ff       	callq  4039c4 <_ZN7pBufferIf15CPU_MATHEMATICS10continuousIfS0_ES2_N9Operation3mulIfEEED1Ev>
  405b52:	48 89 d8             	mov    %rbx,%rax
  405b55:	48 89 c7             	mov    %rax,%rdi
  405b58:	e8 33 c4 ff ff       	callq  401f90 <_Unwind_Resume@plt>
  405b5d:	e8 ce c2 ff ff       	callq  401e30 <__stack_chk_fail@plt>
  405b62:	48 81 c4 a8 00 00 00 	add    $0xa8,%rsp
  405b69:	5b                   	pop    %rbx
  405b6a:	5d                   	pop    %rbp
  405b6b:	c3                   	retq   

0000000000405b6c <_ZN11Tensor_KingIf15CPU_MATHEMATICS7pBufferIfS0_10continuousIfS0_ES1_IfS0_S3_S3_N9Operation3mulIfEEENS4_3addIfEEEED1Ev>:
  405b6c:	55                   	push   %rbp
  405b6d:	48 89 e5             	mov    %rsp,%rbp
  405b70:	48 83 ec 10          	sub    $0x10,%rsp
  405b74:	48 89 7d f8          	mov    %rdi,-0x8(%rbp)
  405b78:	ba 38 d7 40 00       	mov    $0x40d738,%edx
  405b7d:	48 8b 45 f8          	mov    -0x8(%rbp),%rax
  405b81:	48 89 10             	mov    %rdx,(%rax)
  405b84:	48 8b 45 f8          	mov    -0x8(%rbp),%rax
  405b88:	0f b6 80 88 00 00 00 	movzbl 0x88(%rax),%eax
  405b8f:	84 c0                	test   %al,%al
  405b91:	74 18                	je     405bab <_ZN11Tensor_KingIf15CPU_MATHEMATICS7pBufferIfS0_10continuousIfS0_ES1_IfS0_S3_S3_N9Operation3mulIfEEENS4_3addIfEEEED1Ev+0x3f>
  405b93:	48 8b 45 f8          	mov    -0x8(%rbp),%rax
  405b97:	48 83 c0 08          	add    $0x8,%rax
  405b9b:	48 89 c7             	mov    %rax,%rdi
  405b9e:	e8 a9 20 00 00       	callq  407c4c <_ZN7pBufferIf15CPU_MATHEMATICS10continuousIfS0_ES_IfS0_S2_S2_N9Operation3mulIfEEENS3_3addIfEEE7getDataEv>
  405ba3:	48 89 c7             	mov    %rax,%rdi
  405ba6:	e8 1c 16 00 00       	callq  4071c7 <_ZN15CPU_MATHEMATICS7destroyIfEEvPT_>
  405bab:	48 8b 45 f8          	mov    -0x8(%rbp),%rax
  405baf:	0f b6 80 89 00 00 00 	movzbl 0x89(%rax),%eax
  405bb6:	84 c0                	test   %al,%al
  405bb8:	74 18                	je     405bd2 <_ZN11Tensor_KingIf15CPU_MATHEMATICS7pBufferIfS0_10continuousIfS0_ES1_IfS0_S3_S3_N9Operation3mulIfEEENS4_3addIfEEEED1Ev+0x66>
  405bba:	48 8b 45 f8          	mov    -0x8(%rbp),%rax
  405bbe:	48 83 c0 08          	add    $0x8,%rax
  405bc2:	48 89 c7             	mov    %rax,%rdi
  405bc5:	e8 d4 20 00 00       	callq  407c9e <_ZN7pBufferIf15CPU_MATHEMATICS10continuousIfS0_ES_IfS0_S2_S2_N9Operation3mulIfEEENS3_3addIfEEE8getShapeEv>
  405bca:	48 89 c7             	mov    %rax,%rdi
  405bcd:	e8 2a 16 00 00       	callq  4071fc <_ZN15CPU_MATHEMATICS7destroyIiEEvPT_>
  405bd2:	48 8b 45 f8          	mov    -0x8(%rbp),%rax
  405bd6:	48 83 c0 08          	add    $0x8,%rax
  405bda:	48 89 c7             	mov    %rax,%rdi
  405bdd:	e8 38 df ff ff       	callq  403b1a <_ZN7pBufferIf15CPU_MATHEMATICS10continuousIfS0_ES_IfS0_S2_S2_N9Operation3mulIfEEENS3_3addIfEEED1Ev>
  405be2:	48 8b 45 f8          	mov    -0x8(%rbp),%rax
  405be6:	48 89 c7             	mov    %rax,%rdi
  405be9:	e8 92 d7 ff ff       	callq  403380 <_ZN10Tensor_AceD1Ev>
  405bee:	b8 00 00 00 00       	mov    $0x0,%eax
  405bf3:	85 c0                	test   %eax,%eax
  405bf5:	74 11                	je     405c08 <_ZN11Tensor_KingIf15CPU_MATHEMATICS7pBufferIfS0_10continuousIfS0_ES1_IfS0_S3_S3_N9Operation3mulIfEEENS4_3addIfEEEED1Ev+0x9c>
  405bf7:	48 8b 45 f8          	mov    -0x8(%rbp),%rax
  405bfb:	be 90 00 00 00       	mov    $0x90,%esi
  405c00:	48 89 c7             	mov    %rax,%rdi
  405c03:	e8 c8 c1 ff ff       	callq  401dd0 <_ZdlPvm@plt>
  405c08:	c9                   	leaveq 
  405c09:	c3                   	retq   

0000000000405c0a <_ZN11Tensor_KingIf15CPU_MATHEMATICS7pBufferIfS0_10continuousIfS0_ES1_IfS0_S3_S3_N9Operation3mulIfEEENS4_3addIfEEEED0Ev>:
  405c0a:	55                   	push   %rbp
  405c0b:	48 89 e5             	mov    %rsp,%rbp
  405c0e:	48 83 ec 10          	sub    $0x10,%rsp
  405c12:	48 89 7d f8          	mov    %rdi,-0x8(%rbp)
  405c16:	48 8b 45 f8          	mov    -0x8(%rbp),%rax
  405c1a:	48 89 c7             	mov    %rax,%rdi
  405c1d:	e8 4a ff ff ff       	callq  405b6c <_ZN11Tensor_KingIf15CPU_MATHEMATICS7pBufferIfS0_10continuousIfS0_ES1_IfS0_S3_S3_N9Operation3mulIfEEENS4_3addIfEEEED1Ev>
  405c22:	48 8b 45 f8          	mov    -0x8(%rbp),%rax
  405c26:	be 90 00 00 00       	mov    $0x90,%esi
  405c2b:	48 89 c7             	mov    %rax,%rdi
  405c2e:	e8 9d c1 ff ff       	callq  401dd0 <_ZdlPvm@plt>
  405c33:	c9                   	leaveq 
  405c34:	c3                   	retq   
  405c35:	90                   	nop

0000000000405c36 <_ZNK11Tensor_KingIf15CPU_MATHEMATICS7pBufferIfS0_10continuousIfS0_ES1_IfS0_S3_S3_N9Operation3mulIfEEENS4_3addIfEEEE8accessorEv>:
  405c36:	55                   	push   %rbp
  405c37:	48 89 e5             	mov    %rsp,%rbp
  405c3a:	48 89 7d f8          	mov    %rdi,-0x8(%rbp)
  405c3e:	48 8b 45 f8          	mov    -0x8(%rbp),%rax
  405c42:	48 83 c0 08          	add    $0x8,%rax
  405c46:	5d                   	pop    %rbp
  405c47:	c3                   	retq   

0000000000405c48 <_ZN15CPU_MATHEMATICS4copyI10continuousIfS_EK7pBufferIfS_S2_S3_IfS_S2_S2_N9Operation3mulIfEEENS4_3addIfEEEEEvRT_RT0_i>:
  405c48:	55                   	push   %rbp
  405c49:	48 89 e5             	mov    %rsp,%rbp
  405c4c:	53                   	push   %rbx
  405c4d:	48 83 ec 38          	sub    $0x38,%rsp
  405c51:	48 89 7d d8          	mov    %rdi,-0x28(%rbp)
  405c55:	48 89 75 d0          	mov    %rsi,-0x30(%rbp)
  405c59:	89 55 cc             	mov    %edx,-0x34(%rbp)
  405c5c:	c7 45 ec 00 00 00 00 	movl   $0x0,-0x14(%rbp)
  405c63:	8b 45 ec             	mov    -0x14(%rbp),%eax
  405c66:	3b 45 cc             	cmp    -0x34(%rbp),%eax
  405c69:	7d 31                	jge    405c9c <_ZN15CPU_MATHEMATICS4copyI10continuousIfS_EK7pBufferIfS_S2_S3_IfS_S2_S2_N9Operation3mulIfEEENS4_3addIfEEEEEvRT_RT0_i+0x54>
  405c6b:	8b 55 ec             	mov    -0x14(%rbp),%edx
  405c6e:	48 8b 45 d8          	mov    -0x28(%rbp),%rax
  405c72:	89 d6                	mov    %edx,%esi
  405c74:	48 89 c7             	mov    %rax,%rdi
  405c77:	e8 e6 eb ff ff       	callq  404862 <_ZN10continuousIf15CPU_MATHEMATICSEixEi>
  405c7c:	48 89 c3             	mov    %rax,%rbx
  405c7f:	8b 55 ec             	mov    -0x14(%rbp),%edx
  405c82:	48 8b 45 d0          	mov    -0x30(%rbp),%rax
  405c86:	89 d6                	mov    %edx,%esi
  405c88:	48 89 c7             	mov    %rax,%rdi
  405c8b:	e8 60 20 00 00       	callq  407cf0 <_ZNK7pBufferIf15CPU_MATHEMATICS10continuousIfS0_ES_IfS0_S2_S2_N9Operation3mulIfEEENS3_3addIfEEEixEi>
  405c90:	66 0f 7e c0          	movd   %xmm0,%eax
  405c94:	89 03                	mov    %eax,(%rbx)
  405c96:	83 45 ec 01          	addl   $0x1,-0x14(%rbp)
  405c9a:	eb c7                	jmp    405c63 <_ZN15CPU_MATHEMATICS4copyI10continuousIfS_EK7pBufferIfS_S2_S3_IfS_S2_S2_N9Operation3mulIfEEENS4_3addIfEEEEEvRT_RT0_i+0x1b>
  405c9c:	90                   	nop
  405c9d:	48 83 c4 38          	add    $0x38,%rsp
  405ca1:	5b                   	pop    %rbx
  405ca2:	5d                   	pop    %rbp
  405ca3:	c3                   	retq   

0000000000405ca4 <_ZN12Tensor_QueenIf15CPU_MATHEMATICS19StackScalarAccessorIfS0_EEC1IIfEEEbDpT_>:
  405ca4:	55                   	push   %rbp
  405ca5:	48 89 e5             	mov    %rsp,%rbp
  405ca8:	48 83 ec 20          	sub    $0x20,%rsp
  405cac:	48 89 7d f8          	mov    %rdi,-0x8(%rbp)
  405cb0:	89 f0                	mov    %esi,%eax
  405cb2:	f3 0f 11 45 f0       	movss  %xmm0,-0x10(%rbp)
  405cb7:	88 45 f4             	mov    %al,-0xc(%rbp)
  405cba:	0f b6 55 f4          	movzbl -0xc(%rbp),%edx
  405cbe:	48 8b 45 f8          	mov    -0x8(%rbp),%rax
  405cc2:	8b 4d f0             	mov    -0x10(%rbp),%ecx
  405cc5:	89 4d ec             	mov    %ecx,-0x14(%rbp)
  405cc8:	f3 0f 10 45 ec       	movss  -0x14(%rbp),%xmm0
  405ccd:	be 00 00 00 00       	mov    $0x0,%esi
  405cd2:	48 89 c7             	mov    %rax,%rdi
  405cd5:	e8 76 20 00 00       	callq  407d50 <_ZN11Tensor_KingIf15CPU_MATHEMATICS19StackScalarAccessorIfS0_EEC1IIfEEEbbDpT_>
  405cda:	ba 88 d4 40 00       	mov    $0x40d488,%edx
  405cdf:	48 8b 45 f8          	mov    -0x8(%rbp),%rax
  405ce3:	48 89 10             	mov    %rdx,(%rax)
  405ce6:	90                   	nop
  405ce7:	c9                   	leaveq 
  405ce8:	c3                   	retq   
  405ce9:	90                   	nop

0000000000405cea <_ZN11Tensor_KingIf15CPU_MATHEMATICS19StackScalarAccessorIfS0_EED1Ev>:
  405cea:	55                   	push   %rbp
  405ceb:	48 89 e5             	mov    %rsp,%rbp
  405cee:	48 83 ec 10          	sub    $0x10,%rsp
  405cf2:	48 89 7d f8          	mov    %rdi,-0x8(%rbp)
  405cf6:	ba c8 d4 40 00       	mov    $0x40d4c8,%edx
  405cfb:	48 8b 45 f8          	mov    -0x8(%rbp),%rax
  405cff:	48 89 10             	mov    %rdx,(%rax)
  405d02:	48 8b 45 f8          	mov    -0x8(%rbp),%rax
  405d06:	0f b6 40 20          	movzbl 0x20(%rax),%eax
  405d0a:	84 c0                	test   %al,%al
  405d0c:	74 18                	je     405d26 <_ZN11Tensor_KingIf15CPU_MATHEMATICS19StackScalarAccessorIfS0_EED1Ev+0x3c>
  405d0e:	48 8b 45 f8          	mov    -0x8(%rbp),%rax
  405d12:	48 83 c0 08          	add    $0x8,%rax
  405d16:	48 89 c7             	mov    %rax,%rdi
  405d19:	e8 9a 20 00 00       	callq  407db8 <_ZN19StackScalarAccessorIf15CPU_MATHEMATICSE7getDataEv>
  405d1e:	48 89 c7             	mov    %rax,%rdi
  405d21:	e8 a1 14 00 00       	callq  4071c7 <_ZN15CPU_MATHEMATICS7destroyIfEEvPT_>
  405d26:	48 8b 45 f8          	mov    -0x8(%rbp),%rax
  405d2a:	0f b6 40 21          	movzbl 0x21(%rax),%eax
  405d2e:	84 c0                	test   %al,%al
  405d30:	74 18                	je     405d4a <_ZN11Tensor_KingIf15CPU_MATHEMATICS19StackScalarAccessorIfS0_EED1Ev+0x60>
  405d32:	48 8b 45 f8          	mov    -0x8(%rbp),%rax
  405d36:	48 83 c0 08          	add    $0x8,%rax
  405d3a:	48 89 c7             	mov    %rax,%rdi
  405d3d:	e8 ce 20 00 00       	callq  407e10 <_ZN19StackScalarAccessorIf15CPU_MATHEMATICSE8getShapeEv>
  405d42:	48 89 c7             	mov    %rax,%rdi
  405d45:	e8 b2 14 00 00       	callq  4071fc <_ZN15CPU_MATHEMATICS7destroyIiEEvPT_>
  405d4a:	48 8b 45 f8          	mov    -0x8(%rbp),%rax
  405d4e:	48 83 c0 08          	add    $0x8,%rax
  405d52:	48 89 c7             	mov    %rax,%rdi
  405d55:	e8 f0 e1 ff ff       	callq  403f4a <_ZN19StackScalarAccessorIf15CPU_MATHEMATICSED1Ev>
  405d5a:	48 8b 45 f8          	mov    -0x8(%rbp),%rax
  405d5e:	48 89 c7             	mov    %rax,%rdi
  405d61:	e8 1a d6 ff ff       	callq  403380 <_ZN10Tensor_AceD1Ev>
  405d66:	b8 00 00 00 00       	mov    $0x0,%eax
  405d6b:	85 c0                	test   %eax,%eax
  405d6d:	74 11                	je     405d80 <_ZN11Tensor_KingIf15CPU_MATHEMATICS19StackScalarAccessorIfS0_EED1Ev+0x96>
  405d6f:	48 8b 45 f8          	mov    -0x8(%rbp),%rax
  405d73:	be 28 00 00 00       	mov    $0x28,%esi
  405d78:	48 89 c7             	mov    %rax,%rdi
  405d7b:	e8 50 c0 ff ff       	callq  401dd0 <_ZdlPvm@plt>
  405d80:	c9                   	leaveq 
  405d81:	c3                   	retq   

0000000000405d82 <_ZN11Tensor_KingIf15CPU_MATHEMATICS19StackScalarAccessorIfS0_EED0Ev>:
  405d82:	55                   	push   %rbp
  405d83:	48 89 e5             	mov    %rsp,%rbp
  405d86:	48 83 ec 10          	sub    $0x10,%rsp
  405d8a:	48 89 7d f8          	mov    %rdi,-0x8(%rbp)
  405d8e:	48 8b 45 f8          	mov    -0x8(%rbp),%rax
  405d92:	48 89 c7             	mov    %rax,%rdi
  405d95:	e8 50 ff ff ff       	callq  405cea <_ZN11Tensor_KingIf15CPU_MATHEMATICS19StackScalarAccessorIfS0_EED1Ev>
  405d9a:	48 8b 45 f8          	mov    -0x8(%rbp),%rax
  405d9e:	be 28 00 00 00       	mov    $0x28,%esi
  405da3:	48 89 c7             	mov    %rax,%rdi
  405da6:	e8 25 c0 ff ff       	callq  401dd0 <_ZdlPvm@plt>
  405dab:	c9                   	leaveq 
  405dac:	c3                   	retq   
  405dad:	90                   	nop

0000000000405dae <_ZN12Tensor_QueenIf15CPU_MATHEMATICS7pBufferIfS0_19StackScalarAccessorIfS0_E10continuousIfS0_EN9Operation3subIfEEEEC1IIS3_S5_EEEbDpT_>:
  405dae:	55                   	push   %rbp
  405daf:	48 89 e5             	mov    %rsp,%rbp
  405db2:	53                   	push   %rbx
  405db3:	48 83 ec 78          	sub    $0x78,%rsp
  405db7:	48 89 7d 98          	mov    %rdi,-0x68(%rbp)
  405dbb:	89 f0                	mov    %esi,%eax
  405dbd:	48 89 55 88          	mov    %rdx,-0x78(%rbp)
  405dc1:	48 89 4d 80          	mov    %rcx,-0x80(%rbp)
  405dc5:	88 45 94             	mov    %al,-0x6c(%rbp)
  405dc8:	64 48 8b 04 25 28 00 	mov    %fs:0x28,%rax
  405dcf:	00 00 
  405dd1:	48 89 45 e8          	mov    %rax,-0x18(%rbp)
  405dd5:	31 c0                	xor    %eax,%eax
  405dd7:	48 8b 55 80          	mov    -0x80(%rbp),%rdx
  405ddb:	48 8d 45 c0          	lea    -0x40(%rbp),%rax
  405ddf:	48 89 d6             	mov    %rdx,%rsi
  405de2:	48 89 c7             	mov    %rax,%rdi
  405de5:	e8 bc d8 ff ff       	callq  4036a6 <_ZN10continuousIf15CPU_MATHEMATICSEC1ERKS1_>
  405dea:	48 8b 55 88          	mov    -0x78(%rbp),%rdx
  405dee:	48 8d 45 a0          	lea    -0x60(%rbp),%rax
  405df2:	48 89 d6             	mov    %rdx,%rsi
  405df5:	48 89 c7             	mov    %rax,%rdi
  405df8:	e8 e1 e0 ff ff       	callq  403ede <_ZN19StackScalarAccessorIf15CPU_MATHEMATICSEC1ERKS1_>
  405dfd:	0f b6 55 94          	movzbl -0x6c(%rbp),%edx
  405e01:	48 8b 45 98          	mov    -0x68(%rbp),%rax
  405e05:	48 8d 75 c0          	lea    -0x40(%rbp),%rsi
  405e09:	48 8d 4d a0          	lea    -0x60(%rbp),%rcx
  405e0d:	49 89 f0             	mov    %rsi,%r8
  405e10:	be 00 00 00 00       	mov    $0x0,%esi
  405e15:	48 89 c7             	mov    %rax,%rdi
  405e18:	e8 09 20 00 00       	callq  407e26 <_ZN11Tensor_KingIf15CPU_MATHEMATICS7pBufferIfS0_19StackScalarAccessorIfS0_E10continuousIfS0_EN9Operation3subIfEEEEC1IIS3_S5_EEEbbDpT_>
  405e1d:	48 8d 45 a0          	lea    -0x60(%rbp),%rax
  405e21:	48 89 c7             	mov    %rax,%rdi
  405e24:	e8 21 e1 ff ff       	callq  403f4a <_ZN19StackScalarAccessorIf15CPU_MATHEMATICSED1Ev>
  405e29:	48 8d 45 c0          	lea    -0x40(%rbp),%rax
  405e2d:	48 89 c7             	mov    %rax,%rdi
  405e30:	e8 d1 d8 ff ff       	callq  403706 <_ZN10continuousIf15CPU_MATHEMATICSED1Ev>
  405e35:	ba 58 d3 40 00       	mov    $0x40d358,%edx
  405e3a:	48 8b 45 98          	mov    -0x68(%rbp),%rax
  405e3e:	48 89 10             	mov    %rdx,(%rax)
  405e41:	90                   	nop
  405e42:	48 8b 45 e8          	mov    -0x18(%rbp),%rax
  405e46:	64 48 33 04 25 28 00 	xor    %fs:0x28,%rax
  405e4d:	00 00 
  405e4f:	74 2d                	je     405e7e <_ZN12Tensor_QueenIf15CPU_MATHEMATICS7pBufferIfS0_19StackScalarAccessorIfS0_E10continuousIfS0_EN9Operation3subIfEEEEC1IIS3_S5_EEEbDpT_+0xd0>
  405e51:	eb 26                	jmp    405e79 <_ZN12Tensor_QueenIf15CPU_MATHEMATICS7pBufferIfS0_19StackScalarAccessorIfS0_E10continuousIfS0_EN9Operation3subIfEEEEC1IIS3_S5_EEEbDpT_+0xcb>
  405e53:	48 89 c3             	mov    %rax,%rbx
  405e56:	48 8d 45 a0          	lea    -0x60(%rbp),%rax
  405e5a:	48 89 c7             	mov    %rax,%rdi
  405e5d:	e8 e8 e0 ff ff       	callq  403f4a <_ZN19StackScalarAccessorIf15CPU_MATHEMATICSED1Ev>
  405e62:	48 8d 45 c0          	lea    -0x40(%rbp),%rax
  405e66:	48 89 c7             	mov    %rax,%rdi
  405e69:	e8 98 d8 ff ff       	callq  403706 <_ZN10continuousIf15CPU_MATHEMATICSED1Ev>
  405e6e:	48 89 d8             	mov    %rbx,%rax
  405e71:	48 89 c7             	mov    %rax,%rdi
  405e74:	e8 17 c1 ff ff       	callq  401f90 <_Unwind_Resume@plt>
  405e79:	e8 b2 bf ff ff       	callq  401e30 <__stack_chk_fail@plt>
  405e7e:	48 83 c4 78          	add    $0x78,%rsp
  405e82:	5b                   	pop    %rbx
  405e83:	5d                   	pop    %rbp
  405e84:	c3                   	retq   
  405e85:	90                   	nop

0000000000405e86 <_ZN11Tensor_KingIf15CPU_MATHEMATICS7pBufferIfS0_19StackScalarAccessorIfS0_E10continuousIfS0_EN9Operation3subIfEEEED1Ev>:
  405e86:	55                   	push   %rbp
  405e87:	48 89 e5             	mov    %rsp,%rbp
  405e8a:	48 83 ec 10          	sub    $0x10,%rsp
  405e8e:	48 89 7d f8          	mov    %rdi,-0x8(%rbp)
  405e92:	ba 98 d3 40 00       	mov    $0x40d398,%edx
  405e97:	48 8b 45 f8          	mov    -0x8(%rbp),%rax
  405e9b:	48 89 10             	mov    %rdx,(%rax)
  405e9e:	48 8b 45 f8          	mov    -0x8(%rbp),%rax
  405ea2:	0f b6 40 50          	movzbl 0x50(%rax),%eax
  405ea6:	84 c0                	test   %al,%al
  405ea8:	74 18                	je     405ec2 <_ZN11Tensor_KingIf15CPU_MATHEMATICS7pBufferIfS0_19StackScalarAccessorIfS0_E10continuousIfS0_EN9Operation3subIfEEEED1Ev+0x3c>
  405eaa:	48 8b 45 f8          	mov    -0x8(%rbp),%rax
  405eae:	48 83 c0 08          	add    $0x8,%rax
  405eb2:	48 89 c7             	mov    %rax,%rdi
  405eb5:	e8 36 20 00 00       	callq  407ef0 <_ZN7pBufferIf15CPU_MATHEMATICS19StackScalarAccessorIfS0_E10continuousIfS0_EN9Operation3subIfEEE7getDataEv>
  405eba:	48 89 c7             	mov    %rax,%rdi
  405ebd:	e8 05 13 00 00       	callq  4071c7 <_ZN15CPU_MATHEMATICS7destroyIfEEvPT_>
  405ec2:	48 8b 45 f8          	mov    -0x8(%rbp),%rax
  405ec6:	0f b6 40 51          	movzbl 0x51(%rax),%eax
  405eca:	84 c0                	test   %al,%al
  405ecc:	74 18                	je     405ee6 <_ZN11Tensor_KingIf15CPU_MATHEMATICS7pBufferIfS0_19StackScalarAccessorIfS0_E10continuousIfS0_EN9Operation3subIfEEEED1Ev+0x60>
  405ece:	48 8b 45 f8          	mov    -0x8(%rbp),%rax
  405ed2:	48 83 c0 08          	add    $0x8,%rax
  405ed6:	48 89 c7             	mov    %rax,%rdi
  405ed9:	e8 64 20 00 00       	callq  407f42 <_ZN7pBufferIf15CPU_MATHEMATICS19StackScalarAccessorIfS0_E10continuousIfS0_EN9Operation3subIfEEE8getShapeEv>
  405ede:	48 89 c7             	mov    %rax,%rdi
  405ee1:	e8 16 13 00 00       	callq  4071fc <_ZN15CPU_MATHEMATICS7destroyIiEEvPT_>
  405ee6:	48 8b 45 f8          	mov    -0x8(%rbp),%rax
  405eea:	48 83 c0 08          	add    $0x8,%rax
  405eee:	48 89 c7             	mov    %rax,%rdi
  405ef1:	e8 ea e0 ff ff       	callq  403fe0 <_ZN7pBufferIf15CPU_MATHEMATICS19StackScalarAccessorIfS0_E10continuousIfS0_EN9Operation3subIfEEED1Ev>
  405ef6:	48 8b 45 f8          	mov    -0x8(%rbp),%rax
  405efa:	48 89 c7             	mov    %rax,%rdi
  405efd:	e8 7e d4 ff ff       	callq  403380 <_ZN10Tensor_AceD1Ev>
  405f02:	b8 00 00 00 00       	mov    $0x0,%eax
  405f07:	85 c0                	test   %eax,%eax
  405f09:	74 11                	je     405f1c <_ZN11Tensor_KingIf15CPU_MATHEMATICS7pBufferIfS0_19StackScalarAccessorIfS0_E10continuousIfS0_EN9Operation3subIfEEEED1Ev+0x96>
  405f0b:	48 8b 45 f8          	mov    -0x8(%rbp),%rax
  405f0f:	be 58 00 00 00       	mov    $0x58,%esi
  405f14:	48 89 c7             	mov    %rax,%rdi
  405f17:	e8 b4 be ff ff       	callq  401dd0 <_ZdlPvm@plt>
  405f1c:	c9                   	leaveq 
  405f1d:	c3                   	retq   

0000000000405f1e <_ZN11Tensor_KingIf15CPU_MATHEMATICS7pBufferIfS0_19StackScalarAccessorIfS0_E10continuousIfS0_EN9Operation3subIfEEEED0Ev>:
  405f1e:	55                   	push   %rbp
  405f1f:	48 89 e5             	mov    %rsp,%rbp
  405f22:	48 83 ec 10          	sub    $0x10,%rsp
  405f26:	48 89 7d f8          	mov    %rdi,-0x8(%rbp)
  405f2a:	48 8b 45 f8          	mov    -0x8(%rbp),%rax
  405f2e:	48 89 c7             	mov    %rax,%rdi
  405f31:	e8 50 ff ff ff       	callq  405e86 <_ZN11Tensor_KingIf15CPU_MATHEMATICS7pBufferIfS0_19StackScalarAccessorIfS0_E10continuousIfS0_EN9Operation3subIfEEEED1Ev>
  405f36:	48 8b 45 f8          	mov    -0x8(%rbp),%rax
  405f3a:	be 58 00 00 00       	mov    $0x58,%esi
  405f3f:	48 89 c7             	mov    %rax,%rdi
  405f42:	e8 89 be ff ff       	callq  401dd0 <_ZdlPvm@plt>
  405f47:	c9                   	leaveq 
  405f48:	c3                   	retq   
  405f49:	90                   	nop

0000000000405f4a <_ZNK11Tensor_KingIf15CPU_MATHEMATICS7pBufferIfS0_19StackScalarAccessorIfS0_E10continuousIfS0_EN9Operation3subIfEEEE8accessorEv>:
  405f4a:	55                   	push   %rbp
  405f4b:	48 89 e5             	mov    %rsp,%rbp
  405f4e:	48 89 7d f8          	mov    %rdi,-0x8(%rbp)
  405f52:	48 8b 45 f8          	mov    -0x8(%rbp),%rax
  405f56:	48 83 c0 08          	add    $0x8,%rax
  405f5a:	5d                   	pop    %rbp
  405f5b:	c3                   	retq   

0000000000405f5c <_ZN15CPU_MATHEMATICS4copyI10continuousIfS_EK7pBufferIfS_19StackScalarAccessorIfS_ES2_N9Operation3subIfEEEEEvRT_RT0_i>:
  405f5c:	55                   	push   %rbp
  405f5d:	48 89 e5             	mov    %rsp,%rbp
  405f60:	53                   	push   %rbx
  405f61:	48 83 ec 38          	sub    $0x38,%rsp
  405f65:	48 89 7d d8          	mov    %rdi,-0x28(%rbp)
  405f69:	48 89 75 d0          	mov    %rsi,-0x30(%rbp)
  405f6d:	89 55 cc             	mov    %edx,-0x34(%rbp)
  405f70:	c7 45 ec 00 00 00 00 	movl   $0x0,-0x14(%rbp)
  405f77:	8b 45 ec             	mov    -0x14(%rbp),%eax
  405f7a:	3b 45 cc             	cmp    -0x34(%rbp),%eax
  405f7d:	7d 31                	jge    405fb0 <_ZN15CPU_MATHEMATICS4copyI10continuousIfS_EK7pBufferIfS_19StackScalarAccessorIfS_ES2_N9Operation3subIfEEEEEvRT_RT0_i+0x54>
  405f7f:	8b 55 ec             	mov    -0x14(%rbp),%edx
  405f82:	48 8b 45 d8          	mov    -0x28(%rbp),%rax
  405f86:	89 d6                	mov    %edx,%esi
  405f88:	48 89 c7             	mov    %rax,%rdi
  405f8b:	e8 d2 e8 ff ff       	callq  404862 <_ZN10continuousIf15CPU_MATHEMATICSEixEi>
  405f90:	48 89 c3             	mov    %rax,%rbx
  405f93:	8b 55 ec             	mov    -0x14(%rbp),%edx
  405f96:	48 8b 45 d0          	mov    -0x30(%rbp),%rax
  405f9a:	89 d6                	mov    %edx,%esi
  405f9c:	48 89 c7             	mov    %rax,%rdi
  405f9f:	e8 f0 1f 00 00       	callq  407f94 <_ZNK7pBufferIf15CPU_MATHEMATICS19StackScalarAccessorIfS0_E10continuousIfS0_EN9Operation3subIfEEEixEi>
  405fa4:	66 0f 7e c0          	movd   %xmm0,%eax
  405fa8:	89 03                	mov    %eax,(%rbx)
  405faa:	83 45 ec 01          	addl   $0x1,-0x14(%rbp)
  405fae:	eb c7                	jmp    405f77 <_ZN15CPU_MATHEMATICS4copyI10continuousIfS_EK7pBufferIfS_19StackScalarAccessorIfS_ES2_N9Operation3subIfEEEEEvRT_RT0_i+0x1b>
  405fb0:	90                   	nop
  405fb1:	48 83 c4 38          	add    $0x38,%rsp
  405fb5:	5b                   	pop    %rbx
  405fb6:	5d                   	pop    %rbp
  405fb7:	c3                   	retq   

0000000000405fb8 <_ZN9Id_ScalarIf15CPU_MATHEMATICSEC1EPf>:
  405fb8:	55                   	push   %rbp
  405fb9:	48 89 e5             	mov    %rsp,%rbp
  405fbc:	48 83 ec 10          	sub    $0x10,%rsp
  405fc0:	48 89 7d f8          	mov    %rdi,-0x8(%rbp)
  405fc4:	48 89 75 f0          	mov    %rsi,-0x10(%rbp)
  405fc8:	48 8b 45 f8          	mov    -0x8(%rbp),%rax
  405fcc:	48 8b 55 f0          	mov    -0x10(%rbp),%rdx
  405fd0:	be 00 00 00 00       	mov    $0x0,%esi
  405fd5:	48 89 c7             	mov    %rax,%rdi
  405fd8:	e8 13 20 00 00       	callq  407ff0 <_ZN12Tensor_QueenIf15CPU_MATHEMATICS23ReferenceScalarAccessorIfS0_EEC1IIPfEEEbDpT_>
  405fdd:	ba d8 d0 40 00       	mov    $0x40d0d8,%edx
  405fe2:	48 8b 45 f8          	mov    -0x8(%rbp),%rax
  405fe6:	48 89 10             	mov    %rdx,(%rax)
  405fe9:	90                   	nop
  405fea:	c9                   	leaveq 
  405feb:	c3                   	retq   

0000000000405fec <_ZN11Tensor_KingIf15CPU_MATHEMATICS23ReferenceScalarAccessorIfS0_EED1Ev>:
  405fec:	55                   	push   %rbp
  405fed:	48 89 e5             	mov    %rsp,%rbp
  405ff0:	48 83 ec 10          	sub    $0x10,%rsp
  405ff4:	48 89 7d f8          	mov    %rdi,-0x8(%rbp)
  405ff8:	ba 58 d1 40 00       	mov    $0x40d158,%edx
  405ffd:	48 8b 45 f8          	mov    -0x8(%rbp),%rax
  406001:	48 89 10             	mov    %rdx,(%rax)
  406004:	48 8b 45 f8          	mov    -0x8(%rbp),%rax
  406008:	0f b6 40 20          	movzbl 0x20(%rax),%eax
  40600c:	84 c0                	test   %al,%al
  40600e:	74 18                	je     406028 <_ZN11Tensor_KingIf15CPU_MATHEMATICS23ReferenceScalarAccessorIfS0_EED1Ev+0x3c>
  406010:	48 8b 45 f8          	mov    -0x8(%rbp),%rax
  406014:	48 83 c0 08          	add    $0x8,%rax
  406018:	48 89 c7             	mov    %rax,%rdi
  40601b:	e8 0e 20 00 00       	callq  40802e <_ZN23ReferenceScalarAccessorIf15CPU_MATHEMATICSE7getDataEv>
  406020:	48 89 c7             	mov    %rax,%rdi
  406023:	e8 9f 11 00 00       	callq  4071c7 <_ZN15CPU_MATHEMATICS7destroyIfEEvPT_>
  406028:	48 8b 45 f8          	mov    -0x8(%rbp),%rax
  40602c:	0f b6 40 21          	movzbl 0x21(%rax),%eax
  406030:	84 c0                	test   %al,%al
  406032:	74 18                	je     40604c <_ZN11Tensor_KingIf15CPU_MATHEMATICS23ReferenceScalarAccessorIfS0_EED1Ev+0x60>
  406034:	48 8b 45 f8          	mov    -0x8(%rbp),%rax
  406038:	48 83 c0 08          	add    $0x8,%rax
  40603c:	48 89 c7             	mov    %rax,%rdi
  40603f:	e8 02 20 00 00       	callq  408046 <_ZN23ReferenceScalarAccessorIf15CPU_MATHEMATICSE8getShapeEv>
  406044:	48 89 c7             	mov    %rax,%rdi
  406047:	e8 b0 11 00 00       	callq  4071fc <_ZN15CPU_MATHEMATICS7destroyIiEEvPT_>
  40604c:	48 8b 45 f8          	mov    -0x8(%rbp),%rax
  406050:	48 83 c0 08          	add    $0x8,%rax
  406054:	48 89 c7             	mov    %rax,%rdi
  406057:	e8 1c e3 ff ff       	callq  404378 <_ZN23ReferenceScalarAccessorIf15CPU_MATHEMATICSED1Ev>
  40605c:	48 8b 45 f8          	mov    -0x8(%rbp),%rax
  406060:	48 89 c7             	mov    %rax,%rdi
  406063:	e8 18 d3 ff ff       	callq  403380 <_ZN10Tensor_AceD1Ev>
  406068:	b8 00 00 00 00       	mov    $0x0,%eax
  40606d:	85 c0                	test   %eax,%eax
  40606f:	74 11                	je     406082 <_ZN11Tensor_KingIf15CPU_MATHEMATICS23ReferenceScalarAccessorIfS0_EED1Ev+0x96>
  406071:	48 8b 45 f8          	mov    -0x8(%rbp),%rax
  406075:	be 28 00 00 00       	mov    $0x28,%esi
  40607a:	48 89 c7             	mov    %rax,%rdi
  40607d:	e8 4e bd ff ff       	callq  401dd0 <_ZdlPvm@plt>
  406082:	c9                   	leaveq 
  406083:	c3                   	retq   

0000000000406084 <_ZN11Tensor_KingIf15CPU_MATHEMATICS23ReferenceScalarAccessorIfS0_EED0Ev>:
  406084:	55                   	push   %rbp
  406085:	48 89 e5             	mov    %rsp,%rbp
  406088:	48 83 ec 10          	sub    $0x10,%rsp
  40608c:	48 89 7d f8          	mov    %rdi,-0x8(%rbp)
  406090:	48 8b 45 f8          	mov    -0x8(%rbp),%rax
  406094:	48 89 c7             	mov    %rax,%rdi
  406097:	e8 50 ff ff ff       	callq  405fec <_ZN11Tensor_KingIf15CPU_MATHEMATICS23ReferenceScalarAccessorIfS0_EED1Ev>
  40609c:	48 8b 45 f8          	mov    -0x8(%rbp),%rax
  4060a0:	be 28 00 00 00       	mov    $0x28,%esi
  4060a5:	48 89 c7             	mov    %rax,%rdi
  4060a8:	e8 23 bd ff ff       	callq  401dd0 <_ZdlPvm@plt>
  4060ad:	c9                   	leaveq 
  4060ae:	c3                   	retq   
  4060af:	90                   	nop

00000000004060b0 <_ZNK23ReferenceScalarAccessorIf15CPU_MATHEMATICSE8hasShapeEv>:
  4060b0:	55                   	push   %rbp
  4060b1:	48 89 e5             	mov    %rsp,%rbp
  4060b4:	48 89 7d f8          	mov    %rdi,-0x8(%rbp)
  4060b8:	b8 00 00 00 00       	mov    $0x0,%eax
  4060bd:	5d                   	pop    %rbp
  4060be:	c3                   	retq   
  4060bf:	90                   	nop

00000000004060c0 <_ZNK23ReferenceScalarAccessorIf15CPU_MATHEMATICSE8getShapeEv>:
  4060c0:	55                   	push   %rbp
  4060c1:	48 89 e5             	mov    %rsp,%rbp
  4060c4:	48 89 7d f8          	mov    %rdi,-0x8(%rbp)
  4060c8:	b8 00 00 00 00       	mov    $0x0,%eax
  4060cd:	5d                   	pop    %rbp
  4060ce:	c3                   	retq   

00000000004060cf <_ZThn8_NK23ReferenceScalarAccessorIf15CPU_MATHEMATICSE8getShapeEv>:
  4060cf:	48 83 ef 08          	sub    $0x8,%rdi
  4060d3:	eb eb                	jmp    4060c0 <_ZNK23ReferenceScalarAccessorIf15CPU_MATHEMATICSE8getShapeEv>
  4060d5:	90                   	nop

00000000004060d6 <_ZNK11Tensor_KingIf15CPU_MATHEMATICS23ReferenceScalarAccessorIfS0_EE5orderEv>:
  4060d6:	55                   	push   %rbp
  4060d7:	48 89 e5             	mov    %rsp,%rbp
  4060da:	48 83 ec 10          	sub    $0x10,%rsp
  4060de:	48 89 7d f8          	mov    %rdi,-0x8(%rbp)
  4060e2:	48 8b 45 f8          	mov    -0x8(%rbp),%rax
  4060e6:	48 83 c0 08          	add    $0x8,%rax
  4060ea:	48 89 c7             	mov    %rax,%rdi
  4060ed:	e8 6a 1f 00 00       	callq  40805c <_ZNK23ReferenceScalarAccessorIf15CPU_MATHEMATICSE5orderEv>
  4060f2:	c9                   	leaveq 
  4060f3:	c3                   	retq   

00000000004060f4 <_ZN15CPU_MATHEMATICS5printI23ReferenceScalarAccessorIfS_EEEvT_PKiii>:
  4060f4:	55                   	push   %rbp
  4060f5:	48 89 e5             	mov    %rsp,%rbp
  4060f8:	53                   	push   %rbx
  4060f9:	48 81 ec 98 00 00 00 	sub    $0x98,%rsp
  406100:	48 89 bd 78 ff ff ff 	mov    %rdi,-0x88(%rbp)
  406107:	48 89 b5 70 ff ff ff 	mov    %rsi,-0x90(%rbp)
  40610e:	89 95 6c ff ff ff    	mov    %edx,-0x94(%rbp)
  406114:	89 8d 68 ff ff ff    	mov    %ecx,-0x98(%rbp)
  40611a:	64 48 8b 04 25 28 00 	mov    %fs:0x28,%rax
  406121:	00 00 
  406123:	48 89 45 e8          	mov    %rax,-0x18(%rbp)
  406127:	31 c0                	xor    %eax,%eax
  406129:	48 8d 45 80          	lea    -0x80(%rbp),%rax
  40612d:	48 89 c7             	mov    %rax,%rdi
  406130:	e8 6b be ff ff       	callq  401fa0 <_ZNSaIcEC1Ev@plt>
  406135:	48 8d 55 80          	lea    -0x80(%rbp),%rdx
  406139:	48 8d 45 a0          	lea    -0x60(%rbp),%rax
  40613d:	be b7 c7 40 00       	mov    $0x40c7b7,%esi
  406142:	48 89 c7             	mov    %rax,%rdi
  406145:	e8 56 bd ff ff       	callq  401ea0 <_ZNSt7__cxx1112basic_stringIcSt11char_traitsIcESaIcEEC1EPKcRKS3_@plt>
  40614a:	48 8d 45 80          	lea    -0x80(%rbp),%rax
  40614e:	48 89 c7             	mov    %rax,%rdi
  406151:	e8 ba bc ff ff       	callq  401e10 <_ZNSaIcED1Ev@plt>
  406156:	48 8d 55 a0          	lea    -0x60(%rbp),%rdx
  40615a:	48 8d 45 c0          	lea    -0x40(%rbp),%rax
  40615e:	48 89 d6             	mov    %rdx,%rsi
  406161:	48 89 c7             	mov    %rax,%rdi
  406164:	e8 87 bb ff ff       	callq  401cf0 <_ZNSt7__cxx1112basic_stringIcSt11char_traitsIcESaIcEEC1ERKS4_@plt>
  406169:	48 8b 95 78 ff ff ff 	mov    -0x88(%rbp),%rdx
  406170:	48 8d 45 80          	lea    -0x80(%rbp),%rax
  406174:	48 89 d6             	mov    %rdx,%rsi
  406177:	48 89 c7             	mov    %rax,%rdi
  40617a:	e8 8f e1 ff ff       	callq  40430e <_ZN23ReferenceScalarAccessorIf15CPU_MATHEMATICSEC1ERKS1_>
  40617f:	8b bd 68 ff ff ff    	mov    -0x98(%rbp),%edi
  406185:	48 8d 4d c0          	lea    -0x40(%rbp),%rcx
  406189:	8b 95 6c ff ff ff    	mov    -0x94(%rbp),%edx
  40618f:	48 8b b5 70 ff ff ff 	mov    -0x90(%rbp),%rsi
  406196:	48 8d 45 80          	lea    -0x80(%rbp),%rax
  40619a:	41 89 f8             	mov    %edi,%r8d
  40619d:	48 89 c7             	mov    %rax,%rdi
  4061a0:	e8 cc 1e 00 00       	callq  408071 <_ZN15CPU_MATHEMATICS11printHelperI23ReferenceScalarAccessorIfS_EEEvT_PKiiNSt7__cxx1112basic_stringIcSt11char_traitsIcESaIcEEEi>
  4061a5:	48 8d 45 80          	lea    -0x80(%rbp),%rax
  4061a9:	48 89 c7             	mov    %rax,%rdi
  4061ac:	e8 c7 e1 ff ff       	callq  404378 <_ZN23ReferenceScalarAccessorIf15CPU_MATHEMATICSED1Ev>
  4061b1:	48 8d 45 c0          	lea    -0x40(%rbp),%rax
  4061b5:	48 89 c7             	mov    %rax,%rdi
  4061b8:	e8 63 bb ff ff       	callq  401d20 <_ZNSt7__cxx1112basic_stringIcSt11char_traitsIcESaIcEED1Ev@plt>
  4061bd:	be 00 1d 40 00       	mov    $0x401d00,%esi
  4061c2:	bf 60 42 61 00       	mov    $0x614260,%edi
  4061c7:	e8 24 bc ff ff       	callq  401df0 <_ZNSolsEPFRSoS_E@plt>
  4061cc:	48 8d 45 a0          	lea    -0x60(%rbp),%rax
  4061d0:	48 89 c7             	mov    %rax,%rdi
  4061d3:	e8 48 bb ff ff       	callq  401d20 <_ZNSt7__cxx1112basic_stringIcSt11char_traitsIcESaIcEED1Ev@plt>
  4061d8:	90                   	nop
  4061d9:	48 8b 45 e8          	mov    -0x18(%rbp),%rax
  4061dd:	64 48 33 04 25 28 00 	xor    %fs:0x28,%rax
  4061e4:	00 00 
  4061e6:	74 58                	je     406240 <_ZN15CPU_MATHEMATICS5printI23ReferenceScalarAccessorIfS_EEEvT_PKiii+0x14c>
  4061e8:	eb 51                	jmp    40623b <_ZN15CPU_MATHEMATICS5printI23ReferenceScalarAccessorIfS_EEEvT_PKiii+0x147>
  4061ea:	48 89 c3             	mov    %rax,%rbx
  4061ed:	48 8d 45 80          	lea    -0x80(%rbp),%rax
  4061f1:	48 89 c7             	mov    %rax,%rdi
  4061f4:	e8 17 bc ff ff       	callq  401e10 <_ZNSaIcED1Ev@plt>
  4061f9:	48 89 d8             	mov    %rbx,%rax
  4061fc:	48 89 c7             	mov    %rax,%rdi
  4061ff:	e8 8c bd ff ff       	callq  401f90 <_Unwind_Resume@plt>
  406204:	48 89 c3             	mov    %rax,%rbx
  406207:	48 8d 45 80          	lea    -0x80(%rbp),%rax
  40620b:	48 89 c7             	mov    %rax,%rdi
  40620e:	e8 65 e1 ff ff       	callq  404378 <_ZN23ReferenceScalarAccessorIf15CPU_MATHEMATICSED1Ev>
  406213:	48 8d 45 c0          	lea    -0x40(%rbp),%rax
  406217:	48 89 c7             	mov    %rax,%rdi
  40621a:	e8 01 bb ff ff       	callq  401d20 <_ZNSt7__cxx1112basic_stringIcSt11char_traitsIcESaIcEED1Ev@plt>
  40621f:	eb 03                	jmp    406224 <_ZN15CPU_MATHEMATICS5printI23ReferenceScalarAccessorIfS_EEEvT_PKiii+0x130>
  406221:	48 89 c3             	mov    %rax,%rbx
  406224:	48 8d 45 a0          	lea    -0x60(%rbp),%rax
  406228:	48 89 c7             	mov    %rax,%rdi
  40622b:	e8 f0 ba ff ff       	callq  401d20 <_ZNSt7__cxx1112basic_stringIcSt11char_traitsIcESaIcEED1Ev@plt>
  406230:	48 89 d8             	mov    %rbx,%rax
  406233:	48 89 c7             	mov    %rax,%rdi
  406236:	e8 55 bd ff ff       	callq  401f90 <_Unwind_Resume@plt>
  40623b:	e8 f0 bb ff ff       	callq  401e30 <__stack_chk_fail@plt>
  406240:	48 81 c4 98 00 00 00 	add    $0x98,%rsp
  406247:	5b                   	pop    %rbx
  406248:	5d                   	pop    %rbp
  406249:	c3                   	retq   

000000000040624a <_ZNK11Tensor_KingIf15CPU_MATHEMATICS23ReferenceScalarAccessorIfS0_EE4sizeEv>:
  40624a:	55                   	push   %rbp
  40624b:	48 89 e5             	mov    %rsp,%rbp
  40624e:	48 83 ec 10          	sub    $0x10,%rsp
  406252:	48 89 7d f8          	mov    %rdi,-0x8(%rbp)
  406256:	48 8b 45 f8          	mov    -0x8(%rbp),%rax
  40625a:	48 83 c0 08          	add    $0x8,%rax
  40625e:	48 89 c7             	mov    %rax,%rdi
  406261:	e8 a0 25 00 00       	callq  408806 <_ZNK23ReferenceScalarAccessorIf15CPU_MATHEMATICSE4sizeEv>
  406266:	c9                   	leaveq 
  406267:	c3                   	retq   

0000000000406268 <_ZN15CPU_MATHEMATICS5printI23ReferenceScalarAccessorIfS_EEEvT_ii>:
  406268:	55                   	push   %rbp
  406269:	48 89 e5             	mov    %rsp,%rbp
  40626c:	53                   	push   %rbx
  40626d:	48 81 ec 88 00 00 00 	sub    $0x88,%rsp
  406274:	48 89 7d 88          	mov    %rdi,-0x78(%rbp)
  406278:	89 75 84             	mov    %esi,-0x7c(%rbp)
  40627b:	89 55 80             	mov    %edx,-0x80(%rbp)
  40627e:	64 48 8b 04 25 28 00 	mov    %fs:0x28,%rax
  406285:	00 00 
  406287:	48 89 45 e8          	mov    %rax,-0x18(%rbp)
  40628b:	31 c0                	xor    %eax,%eax
  40628d:	be b8 c7 40 00       	mov    $0x40c7b8,%esi
  406292:	bf 60 42 61 00       	mov    $0x614260,%edi
  406297:	e8 24 bb ff ff       	callq  401dc0 <_ZStlsISt11char_traitsIcEERSt13basic_ostreamIcT_ES5_PKc@plt>
  40629c:	c7 45 9c 00 00 00 00 	movl   $0x0,-0x64(%rbp)
  4062a3:	8b 45 9c             	mov    -0x64(%rbp),%eax
  4062a6:	3b 45 84             	cmp    -0x7c(%rbp),%eax
  4062a9:	0f 8d cf 00 00 00    	jge    40637e <_ZN15CPU_MATHEMATICS5printI23ReferenceScalarAccessorIfS_EEEvT_ii+0x116>
  4062af:	b9 1c 88 40 00       	mov    $0x40881c,%ecx
  4062b4:	8b 55 9c             	mov    -0x64(%rbp),%edx
  4062b7:	48 8b 45 88          	mov    -0x78(%rbp),%rax
  4062bb:	89 d6                	mov    %edx,%esi
  4062bd:	48 89 c7             	mov    %rax,%rdi
  4062c0:	ff d1                	callq  *%rcx
  4062c2:	8b 10                	mov    (%rax),%edx
  4062c4:	48 8d 45 a0          	lea    -0x60(%rbp),%rax
  4062c8:	89 95 7c ff ff ff    	mov    %edx,-0x84(%rbp)
  4062ce:	f3 0f 10 85 7c ff ff 	movss  -0x84(%rbp),%xmm0
  4062d5:	ff 
  4062d6:	48 89 c7             	mov    %rax,%rdi
  4062d9:	e8 3c d0 ff ff       	callq  40331a <_ZNSt7__cxx119to_stringEf>
  4062de:	48 8d 45 a0          	lea    -0x60(%rbp),%rax
  4062e2:	48 89 c7             	mov    %rax,%rdi
  4062e5:	e8 f6 bb ff ff       	callq  401ee0 <_ZNKSt7__cxx1112basic_stringIcSt11char_traitsIcESaIcEE6lengthEv@plt>
  4062ea:	48 89 c2             	mov    %rax,%rdx
  4062ed:	8b 45 80             	mov    -0x80(%rbp),%eax
  4062f0:	48 98                	cltq   
  4062f2:	48 39 c2             	cmp    %rax,%rdx
  4062f5:	73 0e                	jae    406305 <_ZN15CPU_MATHEMATICS5printI23ReferenceScalarAccessorIfS_EEEvT_ii+0x9d>
  4062f7:	48 8d 45 a0          	lea    -0x60(%rbp),%rax
  4062fb:	48 89 c7             	mov    %rax,%rdi
  4062fe:	e8 dd bb ff ff       	callq  401ee0 <_ZNKSt7__cxx1112basic_stringIcSt11char_traitsIcESaIcEE6lengthEv@plt>
  406303:	eb 05                	jmp    40630a <_ZN15CPU_MATHEMATICS5printI23ReferenceScalarAccessorIfS_EEEvT_ii+0xa2>
  406305:	8b 45 80             	mov    -0x80(%rbp),%eax
  406308:	48 98                	cltq   
  40630a:	48 8d 7d c0          	lea    -0x40(%rbp),%rdi
  40630e:	48 8d 75 a0          	lea    -0x60(%rbp),%rsi
  406312:	48 89 c1             	mov    %rax,%rcx
  406315:	ba 00 00 00 00       	mov    $0x0,%edx
  40631a:	e8 c1 ba ff ff       	callq  401de0 <_ZNKSt7__cxx1112basic_stringIcSt11char_traitsIcESaIcEE6substrEmm@plt>
  40631f:	48 8d 55 c0          	lea    -0x40(%rbp),%rdx
  406323:	48 8d 45 a0          	lea    -0x60(%rbp),%rax
  406327:	48 89 d6             	mov    %rdx,%rsi
  40632a:	48 89 c7             	mov    %rax,%rdi
  40632d:	e8 1e bb ff ff       	callq  401e50 <_ZNSt7__cxx1112basic_stringIcSt11char_traitsIcESaIcEEaSEOS4_@plt>
  406332:	48 8d 45 c0          	lea    -0x40(%rbp),%rax
  406336:	48 89 c7             	mov    %rax,%rdi
  406339:	e8 e2 b9 ff ff       	callq  401d20 <_ZNSt7__cxx1112basic_stringIcSt11char_traitsIcESaIcEED1Ev@plt>
  40633e:	48 8d 45 a0          	lea    -0x60(%rbp),%rax
  406342:	48 89 c6             	mov    %rax,%rsi
  406345:	bf 60 42 61 00       	mov    $0x614260,%edi
  40634a:	e8 51 ba ff ff       	callq  401da0 <_ZStlsIcSt11char_traitsIcESaIcEERSt13basic_ostreamIT_T0_ES7_RKNSt7__cxx1112basic_stringIS4_S5_T1_EE@plt>
  40634f:	8b 45 84             	mov    -0x7c(%rbp),%eax
  406352:	83 e8 01             	sub    $0x1,%eax
  406355:	3b 45 9c             	cmp    -0x64(%rbp),%eax
  406358:	7e 0f                	jle    406369 <_ZN15CPU_MATHEMATICS5printI23ReferenceScalarAccessorIfS_EEEvT_ii+0x101>
  40635a:	be bb c7 40 00       	mov    $0x40c7bb,%esi
  40635f:	bf 60 42 61 00       	mov    $0x614260,%edi
  406364:	e8 57 ba ff ff       	callq  401dc0 <_ZStlsISt11char_traitsIcEERSt13basic_ostreamIcT_ES5_PKc@plt>
  406369:	48 8d 45 a0          	lea    -0x60(%rbp),%rax
  40636d:	48 89 c7             	mov    %rax,%rdi
  406370:	e8 ab b9 ff ff       	callq  401d20 <_ZNSt7__cxx1112basic_stringIcSt11char_traitsIcESaIcEED1Ev@plt>
  406375:	83 45 9c 01          	addl   $0x1,-0x64(%rbp)
  406379:	e9 25 ff ff ff       	jmpq   4062a3 <_ZN15CPU_MATHEMATICS5printI23ReferenceScalarAccessorIfS_EEEvT_ii+0x3b>
  40637e:	be bf c7 40 00       	mov    $0x40c7bf,%esi
  406383:	bf 60 42 61 00       	mov    $0x614260,%edi
  406388:	e8 33 ba ff ff       	callq  401dc0 <_ZStlsISt11char_traitsIcEERSt13basic_ostreamIcT_ES5_PKc@plt>
  40638d:	be 00 1d 40 00       	mov    $0x401d00,%esi
  406392:	48 89 c7             	mov    %rax,%rdi
  406395:	e8 56 ba ff ff       	callq  401df0 <_ZNSolsEPFRSoS_E@plt>
  40639a:	90                   	nop
  40639b:	48 8b 45 e8          	mov    -0x18(%rbp),%rax
  40639f:	64 48 33 04 25 28 00 	xor    %fs:0x28,%rax
  4063a6:	00 00 
  4063a8:	74 32                	je     4063dc <_ZN15CPU_MATHEMATICS5printI23ReferenceScalarAccessorIfS_EEEvT_ii+0x174>
  4063aa:	eb 2b                	jmp    4063d7 <_ZN15CPU_MATHEMATICS5printI23ReferenceScalarAccessorIfS_EEEvT_ii+0x16f>
  4063ac:	48 89 c3             	mov    %rax,%rbx
  4063af:	48 8d 45 c0          	lea    -0x40(%rbp),%rax
  4063b3:	48 89 c7             	mov    %rax,%rdi
  4063b6:	e8 65 b9 ff ff       	callq  401d20 <_ZNSt7__cxx1112basic_stringIcSt11char_traitsIcESaIcEED1Ev@plt>
  4063bb:	eb 03                	jmp    4063c0 <_ZN15CPU_MATHEMATICS5printI23ReferenceScalarAccessorIfS_EEEvT_ii+0x158>
  4063bd:	48 89 c3             	mov    %rax,%rbx
  4063c0:	48 8d 45 a0          	lea    -0x60(%rbp),%rax
  4063c4:	48 89 c7             	mov    %rax,%rdi
  4063c7:	e8 54 b9 ff ff       	callq  401d20 <_ZNSt7__cxx1112basic_stringIcSt11char_traitsIcESaIcEED1Ev@plt>
  4063cc:	48 89 d8             	mov    %rbx,%rax
  4063cf:	48 89 c7             	mov    %rax,%rdi
  4063d2:	e8 b9 bb ff ff       	callq  401f90 <_Unwind_Resume@plt>
  4063d7:	e8 54 ba ff ff       	callq  401e30 <__stack_chk_fail@plt>
  4063dc:	48 81 c4 88 00 00 00 	add    $0x88,%rsp
  4063e3:	5b                   	pop    %rbx
  4063e4:	5d                   	pop    %rbp
  4063e5:	c3                   	retq   

00000000004063e6 <_ZN12Tensor_QueenIf15CPU_MATHEMATICS7pBufferIfS0_10continuousIfS0_E23ReferenceScalarAccessorIfS0_EN9Operation3addIfEEEEC1IIS3_S5_EEEbDpT_>:
  4063e6:	55                   	push   %rbp
  4063e7:	48 89 e5             	mov    %rsp,%rbp
  4063ea:	53                   	push   %rbx
  4063eb:	48 83 ec 78          	sub    $0x78,%rsp
  4063ef:	48 89 7d 98          	mov    %rdi,-0x68(%rbp)
  4063f3:	89 f0                	mov    %esi,%eax
  4063f5:	48 89 55 88          	mov    %rdx,-0x78(%rbp)
  4063f9:	48 89 4d 80          	mov    %rcx,-0x80(%rbp)
  4063fd:	88 45 94             	mov    %al,-0x6c(%rbp)
  406400:	64 48 8b 04 25 28 00 	mov    %fs:0x28,%rax
  406407:	00 00 
  406409:	48 89 45 e8          	mov    %rax,-0x18(%rbp)
  40640d:	31 c0                	xor    %eax,%eax
  40640f:	48 8b 55 80          	mov    -0x80(%rbp),%rdx
  406413:	48 8d 45 a0          	lea    -0x60(%rbp),%rax
  406417:	48 89 d6             	mov    %rdx,%rsi
  40641a:	48 89 c7             	mov    %rax,%rdi
  40641d:	e8 ec de ff ff       	callq  40430e <_ZN23ReferenceScalarAccessorIf15CPU_MATHEMATICSEC1ERKS1_>
  406422:	48 8b 55 88          	mov    -0x78(%rbp),%rdx
  406426:	48 8d 45 c0          	lea    -0x40(%rbp),%rax
  40642a:	48 89 d6             	mov    %rdx,%rsi
  40642d:	48 89 c7             	mov    %rax,%rdi
  406430:	e8 71 d2 ff ff       	callq  4036a6 <_ZN10continuousIf15CPU_MATHEMATICSEC1ERKS1_>
  406435:	0f b6 55 94          	movzbl -0x6c(%rbp),%edx
  406439:	48 8b 45 98          	mov    -0x68(%rbp),%rax
  40643d:	48 8d 75 a0          	lea    -0x60(%rbp),%rsi
  406441:	48 8d 4d c0          	lea    -0x40(%rbp),%rcx
  406445:	49 89 f0             	mov    %rsi,%r8
  406448:	be 00 00 00 00       	mov    $0x0,%esi
  40644d:	48 89 c7             	mov    %rax,%rdi
  406450:	e8 e3 23 00 00       	callq  408838 <_ZN11Tensor_KingIf15CPU_MATHEMATICS7pBufferIfS0_10continuousIfS0_E23ReferenceScalarAccessorIfS0_EN9Operation3addIfEEEEC1IIS3_S5_EEEbbDpT_>
  406455:	48 8d 45 c0          	lea    -0x40(%rbp),%rax
  406459:	48 89 c7             	mov    %rax,%rdi
  40645c:	e8 a5 d2 ff ff       	callq  403706 <_ZN10continuousIf15CPU_MATHEMATICSED1Ev>
  406461:	48 8d 45 a0          	lea    -0x60(%rbp),%rax
  406465:	48 89 c7             	mov    %rax,%rdi
  406468:	e8 0b df ff ff       	callq  404378 <_ZN23ReferenceScalarAccessorIf15CPU_MATHEMATICSED1Ev>
  40646d:	ba e8 cf 40 00       	mov    $0x40cfe8,%edx
  406472:	48 8b 45 98          	mov    -0x68(%rbp),%rax
  406476:	48 89 10             	mov    %rdx,(%rax)
  406479:	90                   	nop
  40647a:	48 8b 45 e8          	mov    -0x18(%rbp),%rax
  40647e:	64 48 33 04 25 28 00 	xor    %fs:0x28,%rax
  406485:	00 00 
  406487:	74 2d                	je     4064b6 <_ZN12Tensor_QueenIf15CPU_MATHEMATICS7pBufferIfS0_10continuousIfS0_E23ReferenceScalarAccessorIfS0_EN9Operation3addIfEEEEC1IIS3_S5_EEEbDpT_+0xd0>
  406489:	eb 26                	jmp    4064b1 <_ZN12Tensor_QueenIf15CPU_MATHEMATICS7pBufferIfS0_10continuousIfS0_E23ReferenceScalarAccessorIfS0_EN9Operation3addIfEEEEC1IIS3_S5_EEEbDpT_+0xcb>
  40648b:	48 89 c3             	mov    %rax,%rbx
  40648e:	48 8d 45 c0          	lea    -0x40(%rbp),%rax
  406492:	48 89 c7             	mov    %rax,%rdi
  406495:	e8 6c d2 ff ff       	callq  403706 <_ZN10continuousIf15CPU_MATHEMATICSED1Ev>
  40649a:	48 8d 45 a0          	lea    -0x60(%rbp),%rax
  40649e:	48 89 c7             	mov    %rax,%rdi
  4064a1:	e8 d2 de ff ff       	callq  404378 <_ZN23ReferenceScalarAccessorIf15CPU_MATHEMATICSED1Ev>
  4064a6:	48 89 d8             	mov    %rbx,%rax
  4064a9:	48 89 c7             	mov    %rax,%rdi
  4064ac:	e8 df ba ff ff       	callq  401f90 <_Unwind_Resume@plt>
  4064b1:	e8 7a b9 ff ff       	callq  401e30 <__stack_chk_fail@plt>
  4064b6:	48 83 c4 78          	add    $0x78,%rsp
  4064ba:	5b                   	pop    %rbx
  4064bb:	5d                   	pop    %rbp
  4064bc:	c3                   	retq   
  4064bd:	90                   	nop

00000000004064be <_ZN11Tensor_KingIf15CPU_MATHEMATICS7pBufferIfS0_10continuousIfS0_E23ReferenceScalarAccessorIfS0_EN9Operation3addIfEEEED1Ev>:
  4064be:	55                   	push   %rbp
  4064bf:	48 89 e5             	mov    %rsp,%rbp
  4064c2:	48 83 ec 10          	sub    $0x10,%rsp
  4064c6:	48 89 7d f8          	mov    %rdi,-0x8(%rbp)
  4064ca:	ba 28 d0 40 00       	mov    $0x40d028,%edx
  4064cf:	48 8b 45 f8          	mov    -0x8(%rbp),%rax
  4064d3:	48 89 10             	mov    %rdx,(%rax)
  4064d6:	48 8b 45 f8          	mov    -0x8(%rbp),%rax
  4064da:	0f b6 40 50          	movzbl 0x50(%rax),%eax
  4064de:	84 c0                	test   %al,%al
  4064e0:	74 18                	je     4064fa <_ZN11Tensor_KingIf15CPU_MATHEMATICS7pBufferIfS0_10continuousIfS0_E23ReferenceScalarAccessorIfS0_EN9Operation3addIfEEEED1Ev+0x3c>
  4064e2:	48 8b 45 f8          	mov    -0x8(%rbp),%rax
  4064e6:	48 83 c0 08          	add    $0x8,%rax
  4064ea:	48 89 c7             	mov    %rax,%rdi
  4064ed:	e8 10 24 00 00       	callq  408902 <_ZN7pBufferIf15CPU_MATHEMATICS10continuousIfS0_E23ReferenceScalarAccessorIfS0_EN9Operation3addIfEEE7getDataEv>
  4064f2:	48 89 c7             	mov    %rax,%rdi
  4064f5:	e8 cd 0c 00 00       	callq  4071c7 <_ZN15CPU_MATHEMATICS7destroyIfEEvPT_>
  4064fa:	48 8b 45 f8          	mov    -0x8(%rbp),%rax
  4064fe:	0f b6 40 51          	movzbl 0x51(%rax),%eax
  406502:	84 c0                	test   %al,%al
  406504:	74 18                	je     40651e <_ZN11Tensor_KingIf15CPU_MATHEMATICS7pBufferIfS0_10continuousIfS0_E23ReferenceScalarAccessorIfS0_EN9Operation3addIfEEEED1Ev+0x60>
  406506:	48 8b 45 f8          	mov    -0x8(%rbp),%rax
  40650a:	48 83 c0 08          	add    $0x8,%rax
  40650e:	48 89 c7             	mov    %rax,%rdi
  406511:	e8 3e 24 00 00       	callq  408954 <_ZN7pBufferIf15CPU_MATHEMATICS10continuousIfS0_E23ReferenceScalarAccessorIfS0_EN9Operation3addIfEEE8getShapeEv>
  406516:	48 89 c7             	mov    %rax,%rdi
  406519:	e8 de 0c 00 00       	callq  4071fc <_ZN15CPU_MATHEMATICS7destroyIiEEvPT_>
  40651e:	48 8b 45 f8          	mov    -0x8(%rbp),%rax
  406522:	48 83 c0 08          	add    $0x8,%rax
  406526:	48 89 c7             	mov    %rax,%rdi
  406529:	e8 e2 e0 ff ff       	callq  404610 <_ZN7pBufferIf15CPU_MATHEMATICS10continuousIfS0_E23ReferenceScalarAccessorIfS0_EN9Operation3addIfEEED1Ev>
  40652e:	48 8b 45 f8          	mov    -0x8(%rbp),%rax
  406532:	48 89 c7             	mov    %rax,%rdi
  406535:	e8 46 ce ff ff       	callq  403380 <_ZN10Tensor_AceD1Ev>
  40653a:	b8 00 00 00 00       	mov    $0x0,%eax
  40653f:	85 c0                	test   %eax,%eax
  406541:	74 11                	je     406554 <_ZN11Tensor_KingIf15CPU_MATHEMATICS7pBufferIfS0_10continuousIfS0_E23ReferenceScalarAccessorIfS0_EN9Operation3addIfEEEED1Ev+0x96>
  406543:	48 8b 45 f8          	mov    -0x8(%rbp),%rax
  406547:	be 58 00 00 00       	mov    $0x58,%esi
  40654c:	48 89 c7             	mov    %rax,%rdi
  40654f:	e8 7c b8 ff ff       	callq  401dd0 <_ZdlPvm@plt>
  406554:	c9                   	leaveq 
  406555:	c3                   	retq   

0000000000406556 <_ZN11Tensor_KingIf15CPU_MATHEMATICS7pBufferIfS0_10continuousIfS0_E23ReferenceScalarAccessorIfS0_EN9Operation3addIfEEEED0Ev>:
  406556:	55                   	push   %rbp
  406557:	48 89 e5             	mov    %rsp,%rbp
  40655a:	48 83 ec 10          	sub    $0x10,%rsp
  40655e:	48 89 7d f8          	mov    %rdi,-0x8(%rbp)
  406562:	48 8b 45 f8          	mov    -0x8(%rbp),%rax
  406566:	48 89 c7             	mov    %rax,%rdi
  406569:	e8 50 ff ff ff       	callq  4064be <_ZN11Tensor_KingIf15CPU_MATHEMATICS7pBufferIfS0_10continuousIfS0_E23ReferenceScalarAccessorIfS0_EN9Operation3addIfEEEED1Ev>
  40656e:	48 8b 45 f8          	mov    -0x8(%rbp),%rax
  406572:	be 58 00 00 00       	mov    $0x58,%esi
  406577:	48 89 c7             	mov    %rax,%rdi
  40657a:	e8 51 b8 ff ff       	callq  401dd0 <_ZdlPvm@plt>
  40657f:	c9                   	leaveq 
  406580:	c3                   	retq   
  406581:	90                   	nop

0000000000406582 <_ZNK11Tensor_KingIf15CPU_MATHEMATICS7pBufferIfS0_10continuousIfS0_E23ReferenceScalarAccessorIfS0_EN9Operation3addIfEEEE8accessorEv>:
  406582:	55                   	push   %rbp
  406583:	48 89 e5             	mov    %rsp,%rbp
  406586:	48 89 7d f8          	mov    %rdi,-0x8(%rbp)
  40658a:	48 8b 45 f8          	mov    -0x8(%rbp),%rax
  40658e:	48 83 c0 08          	add    $0x8,%rax
  406592:	5d                   	pop    %rbp
  406593:	c3                   	retq   

0000000000406594 <_ZN15CPU_MATHEMATICS4copyI10continuousIfS_EK7pBufferIfS_S2_23ReferenceScalarAccessorIfS_EN9Operation3addIfEEEEEvRT_RT0_i>:
  406594:	55                   	push   %rbp
  406595:	48 89 e5             	mov    %rsp,%rbp
  406598:	53                   	push   %rbx
  406599:	48 83 ec 38          	sub    $0x38,%rsp
  40659d:	48 89 7d d8          	mov    %rdi,-0x28(%rbp)
  4065a1:	48 89 75 d0          	mov    %rsi,-0x30(%rbp)
  4065a5:	89 55 cc             	mov    %edx,-0x34(%rbp)
  4065a8:	c7 45 ec 00 00 00 00 	movl   $0x0,-0x14(%rbp)
  4065af:	8b 45 ec             	mov    -0x14(%rbp),%eax
  4065b2:	3b 45 cc             	cmp    -0x34(%rbp),%eax
  4065b5:	7d 31                	jge    4065e8 <_ZN15CPU_MATHEMATICS4copyI10continuousIfS_EK7pBufferIfS_S2_23ReferenceScalarAccessorIfS_EN9Operation3addIfEEEEEvRT_RT0_i+0x54>
  4065b7:	8b 55 ec             	mov    -0x14(%rbp),%edx
  4065ba:	48 8b 45 d8          	mov    -0x28(%rbp),%rax
  4065be:	89 d6                	mov    %edx,%esi
  4065c0:	48 89 c7             	mov    %rax,%rdi
  4065c3:	e8 9a e2 ff ff       	callq  404862 <_ZN10continuousIf15CPU_MATHEMATICSEixEi>
  4065c8:	48 89 c3             	mov    %rax,%rbx
  4065cb:	8b 55 ec             	mov    -0x14(%rbp),%edx
  4065ce:	48 8b 45 d0          	mov    -0x30(%rbp),%rax
  4065d2:	89 d6                	mov    %edx,%esi
  4065d4:	48 89 c7             	mov    %rax,%rdi
  4065d7:	e8 ca 23 00 00       	callq  4089a6 <_ZNK7pBufferIf15CPU_MATHEMATICS10continuousIfS0_E23ReferenceScalarAccessorIfS0_EN9Operation3addIfEEEixEi>
  4065dc:	66 0f 7e c0          	movd   %xmm0,%eax
  4065e0:	89 03                	mov    %eax,(%rbx)
  4065e2:	83 45 ec 01          	addl   $0x1,-0x14(%rbp)
  4065e6:	eb c7                	jmp    4065af <_ZN15CPU_MATHEMATICS4copyI10continuousIfS_EK7pBufferIfS_S2_23ReferenceScalarAccessorIfS_EN9Operation3addIfEEEEEvRT_RT0_i+0x1b>
  4065e8:	90                   	nop
  4065e9:	48 83 c4 38          	add    $0x38,%rsp
  4065ed:	5b                   	pop    %rbx
  4065ee:	5d                   	pop    %rbp
  4065ef:	c3                   	retq   

00000000004065f0 <_ZNK10continuousIf15CPU_MATHEMATICSE4sizeEv>:
  4065f0:	55                   	push   %rbp
  4065f1:	48 89 e5             	mov    %rsp,%rbp
  4065f4:	53                   	push   %rbx
  4065f5:	48 83 ec 18          	sub    $0x18,%rsp
  4065f9:	48 89 7d e8          	mov    %rdi,-0x18(%rbp)
  4065fd:	48 8b 45 e8          	mov    -0x18(%rbp),%rax
  406601:	48 8b 58 10          	mov    0x10(%rax),%rbx
  406605:	48 8b 45 e8          	mov    -0x18(%rbp),%rax
  406609:	48 8b 00             	mov    (%rax),%rax
  40660c:	48 83 c0 18          	add    $0x18,%rax
  406610:	48 8b 00             	mov    (%rax),%rax
  406613:	48 8b 55 e8          	mov    -0x18(%rbp),%rdx
  406617:	48 89 d7             	mov    %rdx,%rdi
  40661a:	ff d0                	callq  *%rax
  40661c:	48 98                	cltq   
  40661e:	48 c1 e0 02          	shl    $0x2,%rax
  406622:	48 01 d8             	add    %rbx,%rax
  406625:	8b 00                	mov    (%rax),%eax
  406627:	48 83 c4 18          	add    $0x18,%rsp
  40662b:	5b                   	pop    %rbx
  40662c:	5d                   	pop    %rbp
  40662d:	c3                   	retq   

000000000040662e <_ZNK11Tensor_KingIf15CPU_MATHEMATICS10continuousIfS0_EE9dimensionEi>:
  40662e:	55                   	push   %rbp
  40662f:	48 89 e5             	mov    %rsp,%rbp
  406632:	48 83 ec 10          	sub    $0x10,%rsp
  406636:	48 89 7d f8          	mov    %rdi,-0x8(%rbp)
  40663a:	89 75 f4             	mov    %esi,-0xc(%rbp)
  40663d:	48 8b 45 f8          	mov    -0x8(%rbp),%rax
  406641:	48 8d 50 08          	lea    0x8(%rax),%rdx
  406645:	8b 45 f4             	mov    -0xc(%rbp),%eax
  406648:	89 c6                	mov    %eax,%esi
  40664a:	48 89 d7             	mov    %rdx,%rdi
  40664d:	e8 ba 23 00 00       	callq  408a0c <_ZNK10continuousIf15CPU_MATHEMATICSE9dimensionEi>
  406652:	c9                   	leaveq 
  406653:	c3                   	retq   

0000000000406654 <_ZN12Tensor_QueenIf15CPU_MATHEMATICS10continuousIfS0_EE4zeroEv>:
  406654:	55                   	push   %rbp
  406655:	48 89 e5             	mov    %rsp,%rbp
  406658:	48 83 ec 10          	sub    $0x10,%rsp
  40665c:	48 89 7d f8          	mov    %rdi,-0x8(%rbp)
  406660:	48 8b 45 f8          	mov    -0x8(%rbp),%rax
  406664:	48 89 c7             	mov    %rax,%rdi
  406667:	e8 c6 e1 ff ff       	callq  404832 <_ZNK11Tensor_KingIf15CPU_MATHEMATICS10continuousIfS0_EE4sizeEv>
  40666c:	89 c2                	mov    %eax,%edx
  40666e:	48 8b 45 f8          	mov    -0x8(%rbp),%rax
  406672:	48 83 c0 08          	add    $0x8,%rax
  406676:	89 d6                	mov    %edx,%esi
  406678:	48 89 c7             	mov    %rax,%rdi
  40667b:	e8 d7 23 00 00       	callq  408a57 <_ZN15CPU_MATHEMATICS4zeroI10continuousIfS_EEEvRT_i>
  406680:	90                   	nop
  406681:	c9                   	leaveq 
  406682:	c3                   	retq   
  406683:	90                   	nop

0000000000406684 <_ZN10continuousIf15CPU_MATHEMATICSE7getDataEv>:
  406684:	55                   	push   %rbp
  406685:	48 89 e5             	mov    %rsp,%rbp
  406688:	48 89 7d f8          	mov    %rdi,-0x8(%rbp)
  40668c:	48 8b 45 f8          	mov    -0x8(%rbp),%rax
  406690:	48 8b 40 08          	mov    0x8(%rax),%rax
  406694:	5d                   	pop    %rbp
  406695:	c3                   	retq   

0000000000406696 <_ZNK11Tensor_KingIf15CPU_MATHEMATICS10continuousIfS0_EE8accessorEv>:
  406696:	55                   	push   %rbp
  406697:	48 89 e5             	mov    %rsp,%rbp
  40669a:	48 89 7d f8          	mov    %rdi,-0x8(%rbp)
  40669e:	48 8b 45 f8          	mov    -0x8(%rbp),%rax
  4066a2:	48 83 c0 08          	add    $0x8,%rax
  4066a6:	5d                   	pop    %rbp
  4066a7:	c3                   	retq   

00000000004066a8 <_ZNK10continuousIf15CPU_MATHEMATICSE7getDataEv>:
  4066a8:	55                   	push   %rbp
  4066a9:	48 89 e5             	mov    %rsp,%rbp
  4066ac:	48 89 7d f8          	mov    %rdi,-0x8(%rbp)
  4066b0:	48 8b 45 f8          	mov    -0x8(%rbp),%rax
  4066b4:	48 8b 40 08          	mov    0x8(%rax),%rax
  4066b8:	5d                   	pop    %rbp
  4066b9:	c3                   	retq   

00000000004066ba <_ZN6VectorIf15CPU_MATHEMATICS10continuousIfS0_EEC1IS2_EERK12Tensor_QueenIfS0_T_Ei>:
  4066ba:	55                   	push   %rbp
  4066bb:	48 89 e5             	mov    %rsp,%rbp
  4066be:	41 54                	push   %r12
  4066c0:	53                   	push   %rbx
  4066c1:	48 83 ec 20          	sub    $0x20,%rsp
  4066c5:	48 89 7d e8          	mov    %rdi,-0x18(%rbp)
  4066c9:	48 89 75 e0          	mov    %rsi,-0x20(%rbp)
  4066cd:	89 55 dc             	mov    %edx,-0x24(%rbp)
  4066d0:	48 8b 45 e0          	mov    -0x20(%rbp),%rax
  4066d4:	48 89 c7             	mov    %rax,%rdi
  4066d7:	e8 ba ff ff ff       	callq  406696 <_ZNK11Tensor_KingIf15CPU_MATHEMATICS10continuousIfS0_EE8accessorEv>
  4066dc:	48 8b 10             	mov    (%rax),%rdx
  4066df:	48 83 c2 38          	add    $0x38,%rdx
  4066e3:	48 8b 12             	mov    (%rdx),%rdx
  4066e6:	48 89 c7             	mov    %rax,%rdi
  4066e9:	ff d2                	callq  *%rdx
  4066eb:	49 89 c4             	mov    %rax,%r12
  4066ee:	48 8b 45 e0          	mov    -0x20(%rbp),%rax
  4066f2:	be 00 00 00 00       	mov    $0x0,%esi
  4066f7:	48 89 c7             	mov    %rax,%rdi
  4066fa:	e8 2f ff ff ff       	callq  40662e <_ZNK11Tensor_KingIf15CPU_MATHEMATICS10continuousIfS0_EE9dimensionEi>
  4066ff:	0f af 45 dc          	imul   -0x24(%rbp),%eax
  406703:	89 c3                	mov    %eax,%ebx
  406705:	48 8b 45 e0          	mov    -0x20(%rbp),%rax
  406709:	48 89 c7             	mov    %rax,%rdi
  40670c:	e8 85 ff ff ff       	callq  406696 <_ZNK11Tensor_KingIf15CPU_MATHEMATICS10continuousIfS0_EE8accessorEv>
  406711:	89 de                	mov    %ebx,%esi
  406713:	48 89 c7             	mov    %rax,%rdi
  406716:	e8 a3 12 00 00       	callq  4079be <_ZNK10continuousIf15CPU_MATHEMATICSEixEi>
  40671b:	48 89 c2             	mov    %rax,%rdx
  40671e:	48 8b 45 e8          	mov    -0x18(%rbp),%rax
  406722:	41 b8 01 00 00 00    	mov    $0x1,%r8d
  406728:	4c 89 e1             	mov    %r12,%rcx
  40672b:	be 00 00 00 00       	mov    $0x0,%esi
  406730:	48 89 c7             	mov    %rax,%rdi
  406733:	e8 88 23 00 00       	callq  408ac0 <_ZN12Tensor_QueenIf15CPU_MATHEMATICS10continuousIfS0_EEC1IIPfPiiEEEbDpT_>
  406738:	ba 18 d3 40 00       	mov    $0x40d318,%edx
  40673d:	48 8b 45 e8          	mov    -0x18(%rbp),%rax
  406741:	48 89 10             	mov    %rdx,(%rax)
  406744:	90                   	nop
  406745:	48 83 c4 20          	add    $0x20,%rsp
  406749:	5b                   	pop    %rbx
  40674a:	41 5c                	pop    %r12
  40674c:	5d                   	pop    %rbp
  40674d:	c3                   	retq   

000000000040674e <_ZN12Tensor_QueenIf15CPU_MATHEMATICS18transpose_accessorIfS0_EEC1II10continuousIfS0_EEEEbDpT_>:
  40674e:	55                   	push   %rbp
  40674f:	48 89 e5             	mov    %rsp,%rbp
  406752:	53                   	push   %rbx
  406753:	48 83 ec 58          	sub    $0x58,%rsp
  406757:	48 89 7d b8          	mov    %rdi,-0x48(%rbp)
  40675b:	89 f0                	mov    %esi,%eax
  40675d:	48 89 55 a8          	mov    %rdx,-0x58(%rbp)
  406761:	88 45 b4             	mov    %al,-0x4c(%rbp)
  406764:	64 48 8b 04 25 28 00 	mov    %fs:0x28,%rax
  40676b:	00 00 
  40676d:	48 89 45 e8          	mov    %rax,-0x18(%rbp)
  406771:	31 c0                	xor    %eax,%eax
  406773:	48 8b 55 a8          	mov    -0x58(%rbp),%rdx
  406777:	48 8d 45 c0          	lea    -0x40(%rbp),%rax
  40677b:	48 89 d6             	mov    %rdx,%rsi
  40677e:	48 89 c7             	mov    %rax,%rdi
  406781:	e8 20 cf ff ff       	callq  4036a6 <_ZN10continuousIf15CPU_MATHEMATICSEC1ERKS1_>
  406786:	0f b6 55 b4          	movzbl -0x4c(%rbp),%edx
  40678a:	48 8b 45 b8          	mov    -0x48(%rbp),%rax
  40678e:	48 8d 4d c0          	lea    -0x40(%rbp),%rcx
  406792:	be 00 00 00 00       	mov    $0x0,%esi
  406797:	48 89 c7             	mov    %rax,%rdi
  40679a:	e8 73 23 00 00       	callq  408b12 <_ZN11Tensor_KingIf15CPU_MATHEMATICS18transpose_accessorIfS0_EEC1II10continuousIfS0_EEEEbbDpT_>
  40679f:	48 8d 45 c0          	lea    -0x40(%rbp),%rax
  4067a3:	48 89 c7             	mov    %rax,%rdi
  4067a6:	e8 5b cf ff ff       	callq  403706 <_ZN10continuousIf15CPU_MATHEMATICSED1Ev>
  4067ab:	ba b8 ce 40 00       	mov    $0x40ceb8,%edx
  4067b0:	48 8b 45 b8          	mov    -0x48(%rbp),%rax
  4067b4:	48 89 10             	mov    %rdx,(%rax)
  4067b7:	90                   	nop
  4067b8:	48 8b 45 e8          	mov    -0x18(%rbp),%rax
  4067bc:	64 48 33 04 25 28 00 	xor    %fs:0x28,%rax
  4067c3:	00 00 
  4067c5:	74 21                	je     4067e8 <_ZN12Tensor_QueenIf15CPU_MATHEMATICS18transpose_accessorIfS0_EEC1II10continuousIfS0_EEEEbDpT_+0x9a>
  4067c7:	eb 1a                	jmp    4067e3 <_ZN12Tensor_QueenIf15CPU_MATHEMATICS18transpose_accessorIfS0_EEC1II10continuousIfS0_EEEEbDpT_+0x95>
  4067c9:	48 89 c3             	mov    %rax,%rbx
  4067cc:	48 8d 45 c0          	lea    -0x40(%rbp),%rax
  4067d0:	48 89 c7             	mov    %rax,%rdi
  4067d3:	e8 2e cf ff ff       	callq  403706 <_ZN10continuousIf15CPU_MATHEMATICSED1Ev>
  4067d8:	48 89 d8             	mov    %rbx,%rax
  4067db:	48 89 c7             	mov    %rax,%rdi
  4067de:	e8 ad b7 ff ff       	callq  401f90 <_Unwind_Resume@plt>
  4067e3:	e8 48 b6 ff ff       	callq  401e30 <__stack_chk_fail@plt>
  4067e8:	48 83 c4 58          	add    $0x58,%rsp
  4067ec:	5b                   	pop    %rbx
  4067ed:	5d                   	pop    %rbp
  4067ee:	c3                   	retq   
  4067ef:	90                   	nop

00000000004067f0 <_ZN11Tensor_KingIf15CPU_MATHEMATICS18transpose_accessorIfS0_EED1Ev>:
  4067f0:	55                   	push   %rbp
  4067f1:	48 89 e5             	mov    %rsp,%rbp
  4067f4:	48 83 ec 10          	sub    $0x10,%rsp
  4067f8:	48 89 7d f8          	mov    %rdi,-0x8(%rbp)
  4067fc:	ba f8 ce 40 00       	mov    $0x40cef8,%edx
  406801:	48 8b 45 f8          	mov    -0x8(%rbp),%rax
  406805:	48 89 10             	mov    %rdx,(%rax)
  406808:	48 8b 45 f8          	mov    -0x8(%rbp),%rax
  40680c:	0f b6 40 30          	movzbl 0x30(%rax),%eax
  406810:	84 c0                	test   %al,%al
  406812:	74 18                	je     40682c <_ZN11Tensor_KingIf15CPU_MATHEMATICS18transpose_accessorIfS0_EED1Ev+0x3c>
  406814:	48 8b 45 f8          	mov    -0x8(%rbp),%rax
  406818:	48 83 c0 08          	add    $0x8,%rax
  40681c:	48 89 c7             	mov    %rax,%rdi
  40681f:	e8 70 23 00 00       	callq  408b94 <_ZN18transpose_accessorIf15CPU_MATHEMATICSE7getDataEv>
  406824:	48 89 c7             	mov    %rax,%rdi
  406827:	e8 9b 09 00 00       	callq  4071c7 <_ZN15CPU_MATHEMATICS7destroyIfEEvPT_>
  40682c:	48 8b 45 f8          	mov    -0x8(%rbp),%rax
  406830:	0f b6 40 31          	movzbl 0x31(%rax),%eax
  406834:	84 c0                	test   %al,%al
  406836:	74 18                	je     406850 <_ZN11Tensor_KingIf15CPU_MATHEMATICS18transpose_accessorIfS0_EED1Ev+0x60>
  406838:	48 8b 45 f8          	mov    -0x8(%rbp),%rax
  40683c:	48 83 c0 08          	add    $0x8,%rax
  406840:	48 89 c7             	mov    %rax,%rdi
  406843:	e8 8c 23 00 00       	callq  408bd4 <_ZN18transpose_accessorIf15CPU_MATHEMATICSE8getShapeEv>
  406848:	48 89 c7             	mov    %rax,%rdi
  40684b:	e8 ac 09 00 00       	callq  4071fc <_ZN15CPU_MATHEMATICS7destroyIiEEvPT_>
  406850:	48 8b 45 f8          	mov    -0x8(%rbp),%rax
  406854:	48 83 c0 08          	add    $0x8,%rax
  406858:	48 89 c7             	mov    %rax,%rdi
  40685b:	e8 7e e3 ff ff       	callq  404bde <_ZN18transpose_accessorIf15CPU_MATHEMATICSED1Ev>
  406860:	48 8b 45 f8          	mov    -0x8(%rbp),%rax
  406864:	48 89 c7             	mov    %rax,%rdi
  406867:	e8 14 cb ff ff       	callq  403380 <_ZN10Tensor_AceD1Ev>
  40686c:	b8 00 00 00 00       	mov    $0x0,%eax
  406871:	85 c0                	test   %eax,%eax
  406873:	74 11                	je     406886 <_ZN11Tensor_KingIf15CPU_MATHEMATICS18transpose_accessorIfS0_EED1Ev+0x96>
  406875:	48 8b 45 f8          	mov    -0x8(%rbp),%rax
  406879:	be 38 00 00 00       	mov    $0x38,%esi
  40687e:	48 89 c7             	mov    %rax,%rdi
  406881:	e8 4a b5 ff ff       	callq  401dd0 <_ZdlPvm@plt>
  406886:	c9                   	leaveq 
  406887:	c3                   	retq   

0000000000406888 <_ZN11Tensor_KingIf15CPU_MATHEMATICS18transpose_accessorIfS0_EED0Ev>:
  406888:	55                   	push   %rbp
  406889:	48 89 e5             	mov    %rsp,%rbp
  40688c:	48 83 ec 10          	sub    $0x10,%rsp
  406890:	48 89 7d f8          	mov    %rdi,-0x8(%rbp)
  406894:	48 8b 45 f8          	mov    -0x8(%rbp),%rax
  406898:	48 89 c7             	mov    %rax,%rdi
  40689b:	e8 50 ff ff ff       	callq  4067f0 <_ZN11Tensor_KingIf15CPU_MATHEMATICS18transpose_accessorIfS0_EED1Ev>
  4068a0:	48 8b 45 f8          	mov    -0x8(%rbp),%rax
  4068a4:	be 38 00 00 00       	mov    $0x38,%esi
  4068a9:	48 89 c7             	mov    %rax,%rdi
  4068ac:	e8 1f b5 ff ff       	callq  401dd0 <_ZdlPvm@plt>
  4068b1:	c9                   	leaveq 
  4068b2:	c3                   	retq   
  4068b3:	90                   	nop

00000000004068b4 <_ZNK18transpose_accessorIf15CPU_MATHEMATICSE8hasShapeEv>:
  4068b4:	55                   	push   %rbp
  4068b5:	48 89 e5             	mov    %rsp,%rbp
  4068b8:	48 89 7d f8          	mov    %rdi,-0x8(%rbp)
  4068bc:	b8 01 00 00 00       	mov    $0x1,%eax
  4068c1:	5d                   	pop    %rbp
  4068c2:	c3                   	retq   
  4068c3:	90                   	nop

00000000004068c4 <_ZNK18transpose_accessorIf15CPU_MATHEMATICSE8getShapeEv>:
  4068c4:	55                   	push   %rbp
  4068c5:	48 89 e5             	mov    %rsp,%rbp
  4068c8:	48 83 ec 10          	sub    $0x10,%rsp
  4068cc:	48 89 7d f8          	mov    %rdi,-0x8(%rbp)
  4068d0:	be c8 c7 40 00       	mov    $0x40c7c8,%esi
  4068d5:	bf 60 42 61 00       	mov    $0x614260,%edi
  4068da:	e8 e1 b4 ff ff       	callq  401dc0 <_ZStlsISt11char_traitsIcEERSt13basic_ostreamIcT_ES5_PKc@plt>
  4068df:	be 18 c8 40 00       	mov    $0x40c818,%esi
  4068e4:	48 89 c7             	mov    %rax,%rdi
  4068e7:	e8 d4 b4 ff ff       	callq  401dc0 <_ZStlsISt11char_traitsIcEERSt13basic_ostreamIcT_ES5_PKc@plt>
  4068ec:	be 00 1d 40 00       	mov    $0x401d00,%esi
  4068f1:	48 89 c7             	mov    %rax,%rdi
  4068f4:	e8 f7 b4 ff ff       	callq  401df0 <_ZNSolsEPFRSoS_E@plt>
  4068f9:	48 8b 45 f8          	mov    -0x8(%rbp),%rax
  4068fd:	48 8b 40 10          	mov    0x10(%rax),%rax
  406901:	c9                   	leaveq 
  406902:	c3                   	retq   
  406903:	90                   	nop

0000000000406904 <_ZNK11Tensor_KingIf15CPU_MATHEMATICS18transpose_accessorIfS0_EE5orderEv>:
  406904:	55                   	push   %rbp
  406905:	48 89 e5             	mov    %rsp,%rbp
  406908:	48 83 ec 10          	sub    $0x10,%rsp
  40690c:	48 89 7d f8          	mov    %rdi,-0x8(%rbp)
  406910:	48 8b 45 f8          	mov    -0x8(%rbp),%rax
  406914:	48 83 c0 08          	add    $0x8,%rax
  406918:	48 89 c7             	mov    %rax,%rdi
  40691b:	e8 f4 22 00 00       	callq  408c14 <_ZNK18transpose_accessorIf15CPU_MATHEMATICSE5orderEv>
  406920:	c9                   	leaveq 
  406921:	c3                   	retq   

0000000000406922 <_ZN15CPU_MATHEMATICS5printI18transpose_accessorIfS_EEEvT_PKiii>:
  406922:	55                   	push   %rbp
  406923:	48 89 e5             	mov    %rsp,%rbp
  406926:	53                   	push   %rbx
  406927:	48 81 ec a8 00 00 00 	sub    $0xa8,%rsp
  40692e:	48 89 bd 68 ff ff ff 	mov    %rdi,-0x98(%rbp)
  406935:	48 89 b5 60 ff ff ff 	mov    %rsi,-0xa0(%rbp)
  40693c:	89 95 5c ff ff ff    	mov    %edx,-0xa4(%rbp)
  406942:	89 8d 58 ff ff ff    	mov    %ecx,-0xa8(%rbp)
  406948:	64 48 8b 04 25 28 00 	mov    %fs:0x28,%rax
  40694f:	00 00 
  406951:	48 89 45 e8          	mov    %rax,-0x18(%rbp)
  406955:	31 c0                	xor    %eax,%eax
  406957:	48 8d 85 70 ff ff ff 	lea    -0x90(%rbp),%rax
  40695e:	48 89 c7             	mov    %rax,%rdi
  406961:	e8 3a b6 ff ff       	callq  401fa0 <_ZNSaIcEC1Ev@plt>
  406966:	48 8d 95 70 ff ff ff 	lea    -0x90(%rbp),%rdx
  40696d:	48 8d 45 a0          	lea    -0x60(%rbp),%rax
  406971:	be b7 c7 40 00       	mov    $0x40c7b7,%esi
  406976:	48 89 c7             	mov    %rax,%rdi
  406979:	e8 22 b5 ff ff       	callq  401ea0 <_ZNSt7__cxx1112basic_stringIcSt11char_traitsIcESaIcEEC1EPKcRKS3_@plt>
  40697e:	48 8d 85 70 ff ff ff 	lea    -0x90(%rbp),%rax
  406985:	48 89 c7             	mov    %rax,%rdi
  406988:	e8 83 b4 ff ff       	callq  401e10 <_ZNSaIcED1Ev@plt>
  40698d:	48 8d 55 a0          	lea    -0x60(%rbp),%rdx
  406991:	48 8d 45 c0          	lea    -0x40(%rbp),%rax
  406995:	48 89 d6             	mov    %rdx,%rsi
  406998:	48 89 c7             	mov    %rax,%rdi
  40699b:	e8 50 b3 ff ff       	callq  401cf0 <_ZNSt7__cxx1112basic_stringIcSt11char_traitsIcESaIcEEC1ERKS4_@plt>
  4069a0:	48 8b 95 68 ff ff ff 	mov    -0x98(%rbp),%rdx
  4069a7:	48 8d 85 70 ff ff ff 	lea    -0x90(%rbp),%rax
  4069ae:	48 89 d6             	mov    %rdx,%rsi
  4069b1:	48 89 c7             	mov    %rax,%rdi
  4069b4:	e8 b5 e1 ff ff       	callq  404b6e <_ZN18transpose_accessorIf15CPU_MATHEMATICSEC1ERKS1_>
  4069b9:	8b bd 58 ff ff ff    	mov    -0xa8(%rbp),%edi
  4069bf:	48 8d 4d c0          	lea    -0x40(%rbp),%rcx
  4069c3:	8b 95 5c ff ff ff    	mov    -0xa4(%rbp),%edx
  4069c9:	48 8b b5 60 ff ff ff 	mov    -0xa0(%rbp),%rsi
  4069d0:	48 8d 85 70 ff ff ff 	lea    -0x90(%rbp),%rax
  4069d7:	41 89 f8             	mov    %edi,%r8d
  4069da:	48 89 c7             	mov    %rax,%rdi
  4069dd:	e8 43 22 00 00       	callq  408c25 <_ZN15CPU_MATHEMATICS11printHelperI18transpose_accessorIfS_EEEvT_PKiiNSt7__cxx1112basic_stringIcSt11char_traitsIcESaIcEEEi>
  4069e2:	48 8d 85 70 ff ff ff 	lea    -0x90(%rbp),%rax
  4069e9:	48 89 c7             	mov    %rax,%rdi
  4069ec:	e8 ed e1 ff ff       	callq  404bde <_ZN18transpose_accessorIf15CPU_MATHEMATICSED1Ev>
  4069f1:	48 8d 45 c0          	lea    -0x40(%rbp),%rax
  4069f5:	48 89 c7             	mov    %rax,%rdi
  4069f8:	e8 23 b3 ff ff       	callq  401d20 <_ZNSt7__cxx1112basic_stringIcSt11char_traitsIcESaIcEED1Ev@plt>
  4069fd:	be 00 1d 40 00       	mov    $0x401d00,%esi
  406a02:	bf 60 42 61 00       	mov    $0x614260,%edi
  406a07:	e8 e4 b3 ff ff       	callq  401df0 <_ZNSolsEPFRSoS_E@plt>
  406a0c:	48 8d 45 a0          	lea    -0x60(%rbp),%rax
  406a10:	48 89 c7             	mov    %rax,%rdi
  406a13:	e8 08 b3 ff ff       	callq  401d20 <_ZNSt7__cxx1112basic_stringIcSt11char_traitsIcESaIcEED1Ev@plt>
  406a18:	90                   	nop
  406a19:	48 8b 45 e8          	mov    -0x18(%rbp),%rax
  406a1d:	64 48 33 04 25 28 00 	xor    %fs:0x28,%rax
  406a24:	00 00 
  406a26:	74 5e                	je     406a86 <_ZN15CPU_MATHEMATICS5printI18transpose_accessorIfS_EEEvT_PKiii+0x164>
  406a28:	eb 57                	jmp    406a81 <_ZN15CPU_MATHEMATICS5printI18transpose_accessorIfS_EEEvT_PKiii+0x15f>
  406a2a:	48 89 c3             	mov    %rax,%rbx
  406a2d:	48 8d 85 70 ff ff ff 	lea    -0x90(%rbp),%rax
  406a34:	48 89 c7             	mov    %rax,%rdi
  406a37:	e8 d4 b3 ff ff       	callq  401e10 <_ZNSaIcED1Ev@plt>
  406a3c:	48 89 d8             	mov    %rbx,%rax
  406a3f:	48 89 c7             	mov    %rax,%rdi
  406a42:	e8 49 b5 ff ff       	callq  401f90 <_Unwind_Resume@plt>
  406a47:	48 89 c3             	mov    %rax,%rbx
  406a4a:	48 8d 85 70 ff ff ff 	lea    -0x90(%rbp),%rax
  406a51:	48 89 c7             	mov    %rax,%rdi
  406a54:	e8 85 e1 ff ff       	callq  404bde <_ZN18transpose_accessorIf15CPU_MATHEMATICSED1Ev>
  406a59:	48 8d 45 c0          	lea    -0x40(%rbp),%rax
  406a5d:	48 89 c7             	mov    %rax,%rdi
  406a60:	e8 bb b2 ff ff       	callq  401d20 <_ZNSt7__cxx1112basic_stringIcSt11char_traitsIcESaIcEED1Ev@plt>
  406a65:	eb 03                	jmp    406a6a <_ZN15CPU_MATHEMATICS5printI18transpose_accessorIfS_EEEvT_PKiii+0x148>
  406a67:	48 89 c3             	mov    %rax,%rbx
  406a6a:	48 8d 45 a0          	lea    -0x60(%rbp),%rax
  406a6e:	48 89 c7             	mov    %rax,%rdi
  406a71:	e8 aa b2 ff ff       	callq  401d20 <_ZNSt7__cxx1112basic_stringIcSt11char_traitsIcESaIcEED1Ev@plt>
  406a76:	48 89 d8             	mov    %rbx,%rax
  406a79:	48 89 c7             	mov    %rax,%rdi
  406a7c:	e8 0f b5 ff ff       	callq  401f90 <_Unwind_Resume@plt>
  406a81:	e8 aa b3 ff ff       	callq  401e30 <__stack_chk_fail@plt>
  406a86:	48 81 c4 a8 00 00 00 	add    $0xa8,%rsp
  406a8d:	5b                   	pop    %rbx
  406a8e:	5d                   	pop    %rbp
  406a8f:	c3                   	retq   

0000000000406a90 <_ZNK11Tensor_KingIf15CPU_MATHEMATICS18transpose_accessorIfS0_EE4sizeEv>:
  406a90:	55                   	push   %rbp
  406a91:	48 89 e5             	mov    %rsp,%rbp
  406a94:	48 83 ec 10          	sub    $0x10,%rsp
  406a98:	48 89 7d f8          	mov    %rdi,-0x8(%rbp)
  406a9c:	48 8b 45 f8          	mov    -0x8(%rbp),%rax
  406aa0:	48 83 c0 08          	add    $0x8,%rax
  406aa4:	48 89 c7             	mov    %rax,%rdi
  406aa7:	e8 08 29 00 00       	callq  4093b4 <_ZNK18transpose_accessorIf15CPU_MATHEMATICSE4sizeEv>
  406aac:	c9                   	leaveq 
  406aad:	c3                   	retq   

0000000000406aae <_ZN15CPU_MATHEMATICS5printI18transpose_accessorIfS_EEEvT_ii>:
  406aae:	55                   	push   %rbp
  406aaf:	48 89 e5             	mov    %rsp,%rbp
  406ab2:	53                   	push   %rbx
  406ab3:	48 81 ec 88 00 00 00 	sub    $0x88,%rsp
  406aba:	48 89 7d 88          	mov    %rdi,-0x78(%rbp)
  406abe:	89 75 84             	mov    %esi,-0x7c(%rbp)
  406ac1:	89 55 80             	mov    %edx,-0x80(%rbp)
  406ac4:	64 48 8b 04 25 28 00 	mov    %fs:0x28,%rax
  406acb:	00 00 
  406acd:	48 89 45 e8          	mov    %rax,-0x18(%rbp)
  406ad1:	31 c0                	xor    %eax,%eax
  406ad3:	be b8 c7 40 00       	mov    $0x40c7b8,%esi
  406ad8:	bf 60 42 61 00       	mov    $0x614260,%edi
  406add:	e8 de b2 ff ff       	callq  401dc0 <_ZStlsISt11char_traitsIcEERSt13basic_ostreamIcT_ES5_PKc@plt>
  406ae2:	c7 45 9c 00 00 00 00 	movl   $0x0,-0x64(%rbp)
  406ae9:	8b 45 9c             	mov    -0x64(%rbp),%eax
  406aec:	3b 45 84             	cmp    -0x7c(%rbp),%eax
  406aef:	0f 8d cd 00 00 00    	jge    406bc2 <_ZN15CPU_MATHEMATICS5printI18transpose_accessorIfS_EEEvT_ii+0x114>
  406af5:	8b 55 9c             	mov    -0x64(%rbp),%edx
  406af8:	48 8b 45 88          	mov    -0x78(%rbp),%rax
  406afc:	89 d6                	mov    %edx,%esi
  406afe:	48 89 c7             	mov    %rax,%rdi
  406b01:	e8 ec 28 00 00       	callq  4093f2 <_ZNK18transpose_accessorIf15CPU_MATHEMATICSEixEi>
  406b06:	8b 10                	mov    (%rax),%edx
  406b08:	48 8d 45 a0          	lea    -0x60(%rbp),%rax
  406b0c:	89 95 7c ff ff ff    	mov    %edx,-0x84(%rbp)
  406b12:	f3 0f 10 85 7c ff ff 	movss  -0x84(%rbp),%xmm0
  406b19:	ff 
  406b1a:	48 89 c7             	mov    %rax,%rdi
  406b1d:	e8 f8 c7 ff ff       	callq  40331a <_ZNSt7__cxx119to_stringEf>
  406b22:	48 8d 45 a0          	lea    -0x60(%rbp),%rax
  406b26:	48 89 c7             	mov    %rax,%rdi
  406b29:	e8 b2 b3 ff ff       	callq  401ee0 <_ZNKSt7__cxx1112basic_stringIcSt11char_traitsIcESaIcEE6lengthEv@plt>
  406b2e:	48 89 c2             	mov    %rax,%rdx
  406b31:	8b 45 80             	mov    -0x80(%rbp),%eax
  406b34:	48 98                	cltq   
  406b36:	48 39 c2             	cmp    %rax,%rdx
  406b39:	73 0e                	jae    406b49 <_ZN15CPU_MATHEMATICS5printI18transpose_accessorIfS_EEEvT_ii+0x9b>
  406b3b:	48 8d 45 a0          	lea    -0x60(%rbp),%rax
  406b3f:	48 89 c7             	mov    %rax,%rdi
  406b42:	e8 99 b3 ff ff       	callq  401ee0 <_ZNKSt7__cxx1112basic_stringIcSt11char_traitsIcESaIcEE6lengthEv@plt>
  406b47:	eb 05                	jmp    406b4e <_ZN15CPU_MATHEMATICS5printI18transpose_accessorIfS_EEEvT_ii+0xa0>
  406b49:	8b 45 80             	mov    -0x80(%rbp),%eax
  406b4c:	48 98                	cltq   
  406b4e:	48 8d 7d c0          	lea    -0x40(%rbp),%rdi
  406b52:	48 8d 75 a0          	lea    -0x60(%rbp),%rsi
  406b56:	48 89 c1             	mov    %rax,%rcx
  406b59:	ba 00 00 00 00       	mov    $0x0,%edx
  406b5e:	e8 7d b2 ff ff       	callq  401de0 <_ZNKSt7__cxx1112basic_stringIcSt11char_traitsIcESaIcEE6substrEmm@plt>
  406b63:	48 8d 55 c0          	lea    -0x40(%rbp),%rdx
  406b67:	48 8d 45 a0          	lea    -0x60(%rbp),%rax
  406b6b:	48 89 d6             	mov    %rdx,%rsi
  406b6e:	48 89 c7             	mov    %rax,%rdi
  406b71:	e8 da b2 ff ff       	callq  401e50 <_ZNSt7__cxx1112basic_stringIcSt11char_traitsIcESaIcEEaSEOS4_@plt>
  406b76:	48 8d 45 c0          	lea    -0x40(%rbp),%rax
  406b7a:	48 89 c7             	mov    %rax,%rdi
  406b7d:	e8 9e b1 ff ff       	callq  401d20 <_ZNSt7__cxx1112basic_stringIcSt11char_traitsIcESaIcEED1Ev@plt>
  406b82:	48 8d 45 a0          	lea    -0x60(%rbp),%rax
  406b86:	48 89 c6             	mov    %rax,%rsi
  406b89:	bf 60 42 61 00       	mov    $0x614260,%edi
  406b8e:	e8 0d b2 ff ff       	callq  401da0 <_ZStlsIcSt11char_traitsIcESaIcEERSt13basic_ostreamIT_T0_ES7_RKNSt7__cxx1112basic_stringIS4_S5_T1_EE@plt>
  406b93:	8b 45 84             	mov    -0x7c(%rbp),%eax
  406b96:	83 e8 01             	sub    $0x1,%eax
  406b99:	3b 45 9c             	cmp    -0x64(%rbp),%eax
  406b9c:	7e 0f                	jle    406bad <_ZN15CPU_MATHEMATICS5printI18transpose_accessorIfS_EEEvT_ii+0xff>
  406b9e:	be bb c7 40 00       	mov    $0x40c7bb,%esi
  406ba3:	bf 60 42 61 00       	mov    $0x614260,%edi
  406ba8:	e8 13 b2 ff ff       	callq  401dc0 <_ZStlsISt11char_traitsIcEERSt13basic_ostreamIcT_ES5_PKc@plt>
  406bad:	48 8d 45 a0          	lea    -0x60(%rbp),%rax
  406bb1:	48 89 c7             	mov    %rax,%rdi
  406bb4:	e8 67 b1 ff ff       	callq  401d20 <_ZNSt7__cxx1112basic_stringIcSt11char_traitsIcESaIcEED1Ev@plt>
  406bb9:	83 45 9c 01          	addl   $0x1,-0x64(%rbp)
  406bbd:	e9 27 ff ff ff       	jmpq   406ae9 <_ZN15CPU_MATHEMATICS5printI18transpose_accessorIfS_EEEvT_ii+0x3b>
  406bc2:	be bf c7 40 00       	mov    $0x40c7bf,%esi
  406bc7:	bf 60 42 61 00       	mov    $0x614260,%edi
  406bcc:	e8 ef b1 ff ff       	callq  401dc0 <_ZStlsISt11char_traitsIcEERSt13basic_ostreamIcT_ES5_PKc@plt>
  406bd1:	be 00 1d 40 00       	mov    $0x401d00,%esi
  406bd6:	48 89 c7             	mov    %rax,%rdi
  406bd9:	e8 12 b2 ff ff       	callq  401df0 <_ZNSolsEPFRSoS_E@plt>
  406bde:	90                   	nop
  406bdf:	48 8b 45 e8          	mov    -0x18(%rbp),%rax
  406be3:	64 48 33 04 25 28 00 	xor    %fs:0x28,%rax
  406bea:	00 00 
  406bec:	74 32                	je     406c20 <_ZN15CPU_MATHEMATICS5printI18transpose_accessorIfS_EEEvT_ii+0x172>
  406bee:	eb 2b                	jmp    406c1b <_ZN15CPU_MATHEMATICS5printI18transpose_accessorIfS_EEEvT_ii+0x16d>
  406bf0:	48 89 c3             	mov    %rax,%rbx
  406bf3:	48 8d 45 c0          	lea    -0x40(%rbp),%rax
  406bf7:	48 89 c7             	mov    %rax,%rdi
  406bfa:	e8 21 b1 ff ff       	callq  401d20 <_ZNSt7__cxx1112basic_stringIcSt11char_traitsIcESaIcEED1Ev@plt>
  406bff:	eb 03                	jmp    406c04 <_ZN15CPU_MATHEMATICS5printI18transpose_accessorIfS_EEEvT_ii+0x156>
  406c01:	48 89 c3             	mov    %rax,%rbx
  406c04:	48 8d 45 a0          	lea    -0x60(%rbp),%rax
  406c08:	48 89 c7             	mov    %rax,%rdi
  406c0b:	e8 10 b1 ff ff       	callq  401d20 <_ZNSt7__cxx1112basic_stringIcSt11char_traitsIcESaIcEED1Ev@plt>
  406c10:	48 89 d8             	mov    %rbx,%rax
  406c13:	48 89 c7             	mov    %rax,%rdi
  406c16:	e8 75 b3 ff ff       	callq  401f90 <_Unwind_Resume@plt>
  406c1b:	e8 10 b2 ff ff       	callq  401e30 <__stack_chk_fail@plt>
  406c20:	48 81 c4 88 00 00 00 	add    $0x88,%rsp
  406c27:	5b                   	pop    %rbx
  406c28:	5d                   	pop    %rbp
  406c29:	c3                   	retq   

0000000000406c2a <_ZN12Tensor_QueenId15CPU_MATHEMATICS10continuousIdS0_EEC1ESt16initializer_listIiE>:
  406c2a:	55                   	push   %rbp
  406c2b:	48 89 e5             	mov    %rsp,%rbp
  406c2e:	48 83 ec 20          	sub    $0x20,%rsp
  406c32:	48 89 7d f8          	mov    %rdi,-0x8(%rbp)
  406c36:	48 89 f0             	mov    %rsi,%rax
  406c39:	48 89 d1             	mov    %rdx,%rcx
  406c3c:	48 89 ca             	mov    %rcx,%rdx
  406c3f:	48 89 45 e0          	mov    %rax,-0x20(%rbp)
  406c43:	48 89 55 e8          	mov    %rdx,-0x18(%rbp)
  406c47:	48 8b 45 f8          	mov    -0x8(%rbp),%rax
  406c4b:	48 8b 55 e0          	mov    -0x20(%rbp),%rdx
  406c4f:	48 8b 75 e8          	mov    -0x18(%rbp),%rsi
  406c53:	48 89 d1             	mov    %rdx,%rcx
  406c56:	49 89 f0             	mov    %rsi,%r8
  406c59:	ba 01 00 00 00       	mov    $0x1,%edx
  406c5e:	be 01 00 00 00       	mov    $0x1,%esi
  406c63:	48 89 c7             	mov    %rax,%rdi
  406c66:	e8 07 28 00 00       	callq  409472 <_ZN11Tensor_KingId15CPU_MATHEMATICS10continuousIdS0_EEC1IISt16initializer_listIiEEEEbbDpT_>
  406c6b:	ba 58 cd 40 00       	mov    $0x40cd58,%edx
  406c70:	48 8b 45 f8          	mov    -0x8(%rbp),%rax
  406c74:	48 89 10             	mov    %rdx,(%rax)
  406c77:	90                   	nop
  406c78:	c9                   	leaveq 
  406c79:	c3                   	retq   

0000000000406c7a <_ZN11Tensor_KingId15CPU_MATHEMATICS10continuousIdS0_EED1Ev>:
  406c7a:	55                   	push   %rbp
  406c7b:	48 89 e5             	mov    %rsp,%rbp
  406c7e:	48 83 ec 10          	sub    $0x10,%rsp
  406c82:	48 89 7d f8          	mov    %rdi,-0x8(%rbp)
  406c86:	ba 98 cd 40 00       	mov    $0x40cd98,%edx
  406c8b:	48 8b 45 f8          	mov    -0x8(%rbp),%rax
  406c8f:	48 89 10             	mov    %rdx,(%rax)
  406c92:	48 8b 45 f8          	mov    -0x8(%rbp),%rax
  406c96:	0f b6 40 28          	movzbl 0x28(%rax),%eax
  406c9a:	84 c0                	test   %al,%al
  406c9c:	74 18                	je     406cb6 <_ZN11Tensor_KingId15CPU_MATHEMATICS10continuousIdS0_EED1Ev+0x3c>
  406c9e:	48 8b 45 f8          	mov    -0x8(%rbp),%rax
  406ca2:	48 83 c0 08          	add    $0x8,%rax
  406ca6:	48 89 c7             	mov    %rax,%rdi
  406ca9:	e8 74 e6 ff ff       	callq  405322 <_ZN10continuousId15CPU_MATHEMATICSE7getDataEv>
  406cae:	48 89 c7             	mov    %rax,%rdi
  406cb1:	e8 55 28 00 00       	callq  40950b <_ZN15CPU_MATHEMATICS7destroyIdEEvPT_>
  406cb6:	48 8b 45 f8          	mov    -0x8(%rbp),%rax
  406cba:	0f b6 40 29          	movzbl 0x29(%rax),%eax
  406cbe:	84 c0                	test   %al,%al
  406cc0:	74 18                	je     406cda <_ZN11Tensor_KingId15CPU_MATHEMATICS10continuousIdS0_EED1Ev+0x60>
  406cc2:	48 8b 45 f8          	mov    -0x8(%rbp),%rax
  406cc6:	48 83 c0 08          	add    $0x8,%rax
  406cca:	48 89 c7             	mov    %rax,%rdi
  406ccd:	e8 5c 28 00 00       	callq  40952e <_ZN10continuousId15CPU_MATHEMATICSE8getShapeEv>
  406cd2:	48 89 c7             	mov    %rax,%rdi
  406cd5:	e8 22 05 00 00       	callq  4071fc <_ZN15CPU_MATHEMATICS7destroyIiEEvPT_>
  406cda:	48 8b 45 f8          	mov    -0x8(%rbp),%rax
  406cde:	48 83 c0 08          	add    $0x8,%rax
  406ce2:	48 89 c7             	mov    %rax,%rdi
  406ce5:	e8 4e e3 ff ff       	callq  405038 <_ZN10continuousId15CPU_MATHEMATICSED1Ev>
  406cea:	48 8b 45 f8          	mov    -0x8(%rbp),%rax
  406cee:	48 89 c7             	mov    %rax,%rdi
  406cf1:	e8 8a c6 ff ff       	callq  403380 <_ZN10Tensor_AceD1Ev>
  406cf6:	b8 00 00 00 00       	mov    $0x0,%eax
  406cfb:	85 c0                	test   %eax,%eax
  406cfd:	74 11                	je     406d10 <_ZN11Tensor_KingId15CPU_MATHEMATICS10continuousIdS0_EED1Ev+0x96>
  406cff:	48 8b 45 f8          	mov    -0x8(%rbp),%rax
  406d03:	be 30 00 00 00       	mov    $0x30,%esi
  406d08:	48 89 c7             	mov    %rax,%rdi
  406d0b:	e8 c0 b0 ff ff       	callq  401dd0 <_ZdlPvm@plt>
  406d10:	c9                   	leaveq 
  406d11:	c3                   	retq   

0000000000406d12 <_ZN11Tensor_KingId15CPU_MATHEMATICS10continuousIdS0_EED0Ev>:
  406d12:	55                   	push   %rbp
  406d13:	48 89 e5             	mov    %rsp,%rbp
  406d16:	48 83 ec 10          	sub    $0x10,%rsp
  406d1a:	48 89 7d f8          	mov    %rdi,-0x8(%rbp)
  406d1e:	48 8b 45 f8          	mov    -0x8(%rbp),%rax
  406d22:	48 89 c7             	mov    %rax,%rdi
  406d25:	e8 50 ff ff ff       	callq  406c7a <_ZN11Tensor_KingId15CPU_MATHEMATICS10continuousIdS0_EED1Ev>
  406d2a:	48 8b 45 f8          	mov    -0x8(%rbp),%rax
  406d2e:	be 30 00 00 00       	mov    $0x30,%esi
  406d33:	48 89 c7             	mov    %rax,%rdi
  406d36:	e8 95 b0 ff ff       	callq  401dd0 <_ZdlPvm@plt>
  406d3b:	c9                   	leaveq 
  406d3c:	c3                   	retq   
  406d3d:	90                   	nop

0000000000406d3e <_ZNK11Tensor_KingId15CPU_MATHEMATICS10continuousIdS0_EE4sizeEv>:
  406d3e:	55                   	push   %rbp
  406d3f:	48 89 e5             	mov    %rsp,%rbp
  406d42:	48 83 ec 10          	sub    $0x10,%rsp
  406d46:	48 89 7d f8          	mov    %rdi,-0x8(%rbp)
  406d4a:	48 8b 45 f8          	mov    -0x8(%rbp),%rax
  406d4e:	48 83 c0 08          	add    $0x8,%rax
  406d52:	48 89 c7             	mov    %rax,%rdi
  406d55:	e8 e6 27 00 00       	callq  409540 <_ZNK10continuousId15CPU_MATHEMATICSE4sizeEv>
  406d5a:	c9                   	leaveq 
  406d5b:	c3                   	retq   

0000000000406d5c <_ZN15CPU_MATHEMATICS9randomizeI10continuousIdS_EdEEvT_T0_S4_i>:
  406d5c:	55                   	push   %rbp
  406d5d:	48 89 e5             	mov    %rsp,%rbp
  406d60:	48 83 ec 50          	sub    $0x50,%rsp
  406d64:	48 89 7d c8          	mov    %rdi,-0x38(%rbp)
  406d68:	f2 0f 11 45 c0       	movsd  %xmm0,-0x40(%rbp)
  406d6d:	f2 0f 11 4d b8       	movsd  %xmm1,-0x48(%rbp)
  406d72:	89 75 b4             	mov    %esi,-0x4c(%rbp)
  406d75:	64 48 8b 04 25 28 00 	mov    %fs:0x28,%rax
  406d7c:	00 00 
  406d7e:	48 89 45 f8          	mov    %rax,-0x8(%rbp)
  406d82:	31 c0                	xor    %eax,%eax
  406d84:	48 8b 45 c8          	mov    -0x38(%rbp),%rax
  406d88:	48 89 45 d0          	mov    %rax,-0x30(%rbp)
  406d8c:	f2 0f 10 45 c0       	movsd  -0x40(%rbp),%xmm0
  406d91:	f2 0f 11 45 d8       	movsd  %xmm0,-0x28(%rbp)
  406d96:	f2 0f 10 45 b8       	movsd  -0x48(%rbp),%xmm0
  406d9b:	f2 0f 11 45 e0       	movsd  %xmm0,-0x20(%rbp)
  406da0:	8b 45 b4             	mov    -0x4c(%rbp),%eax
  406da3:	89 45 e8             	mov    %eax,-0x18(%rbp)
  406da6:	48 8d 45 d0          	lea    -0x30(%rbp),%rax
  406daa:	b9 00 00 00 00       	mov    $0x0,%ecx
  406daf:	ba 00 00 00 00       	mov    $0x0,%edx
  406db4:	48 89 c6             	mov    %rax,%rsi
  406db7:	bf ed 31 40 00       	mov    $0x4031ed,%edi
  406dbc:	e8 2f b1 ff ff       	callq  401ef0 <GOMP_parallel@plt>
  406dc1:	f2 0f 10 45 d8       	movsd  -0x28(%rbp),%xmm0
  406dc6:	f2 0f 11 45 c0       	movsd  %xmm0,-0x40(%rbp)
  406dcb:	f2 0f 10 45 e0       	movsd  -0x20(%rbp),%xmm0
  406dd0:	f2 0f 11 45 b8       	movsd  %xmm0,-0x48(%rbp)
  406dd5:	8b 45 e8             	mov    -0x18(%rbp),%eax
  406dd8:	89 45 b4             	mov    %eax,-0x4c(%rbp)
  406ddb:	e8 e0 b1 ff ff       	callq  401fc0 <GOMP_barrier@plt>
  406de0:	90                   	nop
  406de1:	48 8b 45 f8          	mov    -0x8(%rbp),%rax
  406de5:	64 48 33 04 25 28 00 	xor    %fs:0x28,%rax
  406dec:	00 00 
  406dee:	74 05                	je     406df5 <_ZN15CPU_MATHEMATICS9randomizeI10continuousIdS_EdEEvT_T0_S4_i+0x99>
  406df0:	e8 3b b0 ff ff       	callq  401e30 <__stack_chk_fail@plt>
  406df5:	c9                   	leaveq 
  406df6:	c3                   	retq   
  406df7:	90                   	nop

0000000000406df8 <_ZN12Tensor_QueenId15CPU_MATHEMATICS7pBufferIdS0_10continuousIdS0_ES3_N9Operation3addIdEEEEC1IIS3_S3_EEEbDpT_>:
  406df8:	55                   	push   %rbp
  406df9:	48 89 e5             	mov    %rsp,%rbp
  406dfc:	53                   	push   %rbx
  406dfd:	48 83 ec 78          	sub    $0x78,%rsp
  406e01:	48 89 7d 98          	mov    %rdi,-0x68(%rbp)
  406e05:	89 f0                	mov    %esi,%eax
  406e07:	48 89 55 88          	mov    %rdx,-0x78(%rbp)
  406e0b:	48 89 4d 80          	mov    %rcx,-0x80(%rbp)
  406e0f:	88 45 94             	mov    %al,-0x6c(%rbp)
  406e12:	64 48 8b 04 25 28 00 	mov    %fs:0x28,%rax
  406e19:	00 00 
  406e1b:	48 89 45 e8          	mov    %rax,-0x18(%rbp)
  406e1f:	31 c0                	xor    %eax,%eax
  406e21:	48 8b 55 80          	mov    -0x80(%rbp),%rdx
  406e25:	48 8d 45 c0          	lea    -0x40(%rbp),%rax
  406e29:	48 89 d6             	mov    %rdx,%rsi
  406e2c:	48 89 c7             	mov    %rax,%rdi
  406e2f:	e8 a4 e1 ff ff       	callq  404fd8 <_ZN10continuousId15CPU_MATHEMATICSEC1ERKS1_>
  406e34:	48 8b 55 88          	mov    -0x78(%rbp),%rdx
  406e38:	48 8d 45 a0          	lea    -0x60(%rbp),%rax
  406e3c:	48 89 d6             	mov    %rdx,%rsi
  406e3f:	48 89 c7             	mov    %rax,%rdi
  406e42:	e8 91 e1 ff ff       	callq  404fd8 <_ZN10continuousId15CPU_MATHEMATICSEC1ERKS1_>
  406e47:	0f b6 55 94          	movzbl -0x6c(%rbp),%edx
  406e4b:	48 8b 45 98          	mov    -0x68(%rbp),%rax
  406e4f:	48 8d 75 c0          	lea    -0x40(%rbp),%rsi
  406e53:	48 8d 4d a0          	lea    -0x60(%rbp),%rcx
  406e57:	49 89 f0             	mov    %rsi,%r8
  406e5a:	be 00 00 00 00       	mov    $0x0,%esi
  406e5f:	48 89 c7             	mov    %rax,%rdi
  406e62:	e8 39 27 00 00       	callq  4095a0 <_ZN11Tensor_KingId15CPU_MATHEMATICS7pBufferIdS0_10continuousIdS0_ES3_N9Operation3addIdEEEEC1IIS3_S3_EEEbbDpT_>
  406e67:	48 8d 45 a0          	lea    -0x60(%rbp),%rax
  406e6b:	48 89 c7             	mov    %rax,%rdi
  406e6e:	e8 c5 e1 ff ff       	callq  405038 <_ZN10continuousId15CPU_MATHEMATICSED1Ev>
  406e73:	48 8d 45 c0          	lea    -0x40(%rbp),%rax
  406e77:	48 89 c7             	mov    %rax,%rdi
  406e7a:	e8 b9 e1 ff ff       	callq  405038 <_ZN10continuousId15CPU_MATHEMATICSED1Ev>
  406e7f:	ba 28 cc 40 00       	mov    $0x40cc28,%edx
  406e84:	48 8b 45 98          	mov    -0x68(%rbp),%rax
  406e88:	48 89 10             	mov    %rdx,(%rax)
  406e8b:	90                   	nop
  406e8c:	48 8b 45 e8          	mov    -0x18(%rbp),%rax
  406e90:	64 48 33 04 25 28 00 	xor    %fs:0x28,%rax
  406e97:	00 00 
  406e99:	74 2d                	je     406ec8 <_ZN12Tensor_QueenId15CPU_MATHEMATICS7pBufferIdS0_10continuousIdS0_ES3_N9Operation3addIdEEEEC1IIS3_S3_EEEbDpT_+0xd0>
  406e9b:	eb 26                	jmp    406ec3 <_ZN12Tensor_QueenId15CPU_MATHEMATICS7pBufferIdS0_10continuousIdS0_ES3_N9Operation3addIdEEEEC1IIS3_S3_EEEbDpT_+0xcb>
  406e9d:	48 89 c3             	mov    %rax,%rbx
  406ea0:	48 8d 45 a0          	lea    -0x60(%rbp),%rax
  406ea4:	48 89 c7             	mov    %rax,%rdi
  406ea7:	e8 8c e1 ff ff       	callq  405038 <_ZN10continuousId15CPU_MATHEMATICSED1Ev>
  406eac:	48 8d 45 c0          	lea    -0x40(%rbp),%rax
  406eb0:	48 89 c7             	mov    %rax,%rdi
  406eb3:	e8 80 e1 ff ff       	callq  405038 <_ZN10continuousId15CPU_MATHEMATICSED1Ev>
  406eb8:	48 89 d8             	mov    %rbx,%rax
  406ebb:	48 89 c7             	mov    %rax,%rdi
  406ebe:	e8 cd b0 ff ff       	callq  401f90 <_Unwind_Resume@plt>
  406ec3:	e8 68 af ff ff       	callq  401e30 <__stack_chk_fail@plt>
  406ec8:	48 83 c4 78          	add    $0x78,%rsp
  406ecc:	5b                   	pop    %rbx
  406ecd:	5d                   	pop    %rbp
  406ece:	c3                   	retq   
  406ecf:	90                   	nop

0000000000406ed0 <_ZN11Tensor_KingId15CPU_MATHEMATICS7pBufferIdS0_10continuousIdS0_ES3_N9Operation3addIdEEEED1Ev>:
  406ed0:	55                   	push   %rbp
  406ed1:	48 89 e5             	mov    %rsp,%rbp
  406ed4:	48 83 ec 10          	sub    $0x10,%rsp
  406ed8:	48 89 7d f8          	mov    %rdi,-0x8(%rbp)
  406edc:	ba 68 cc 40 00       	mov    $0x40cc68,%edx
  406ee1:	48 8b 45 f8          	mov    -0x8(%rbp),%rax
  406ee5:	48 89 10             	mov    %rdx,(%rax)
  406ee8:	48 8b 45 f8          	mov    -0x8(%rbp),%rax
  406eec:	0f b6 40 58          	movzbl 0x58(%rax),%eax
  406ef0:	84 c0                	test   %al,%al
  406ef2:	74 18                	je     406f0c <_ZN11Tensor_KingId15CPU_MATHEMATICS7pBufferIdS0_10continuousIdS0_ES3_N9Operation3addIdEEEED1Ev+0x3c>
  406ef4:	48 8b 45 f8          	mov    -0x8(%rbp),%rax
  406ef8:	48 83 c0 08          	add    $0x8,%rax
  406efc:	48 89 c7             	mov    %rax,%rdi
  406eff:	e8 66 27 00 00       	callq  40966a <_ZN7pBufferId15CPU_MATHEMATICS10continuousIdS0_ES2_N9Operation3addIdEEE7getDataEv>
  406f04:	48 89 c7             	mov    %rax,%rdi
  406f07:	e8 ff 25 00 00       	callq  40950b <_ZN15CPU_MATHEMATICS7destroyIdEEvPT_>
  406f0c:	48 8b 45 f8          	mov    -0x8(%rbp),%rax
  406f10:	0f b6 40 59          	movzbl 0x59(%rax),%eax
  406f14:	84 c0                	test   %al,%al
  406f16:	74 18                	je     406f30 <_ZN11Tensor_KingId15CPU_MATHEMATICS7pBufferIdS0_10continuousIdS0_ES3_N9Operation3addIdEEEED1Ev+0x60>
  406f18:	48 8b 45 f8          	mov    -0x8(%rbp),%rax
  406f1c:	48 83 c0 08          	add    $0x8,%rax
  406f20:	48 89 c7             	mov    %rax,%rdi
  406f23:	e8 94 27 00 00       	callq  4096bc <_ZN7pBufferId15CPU_MATHEMATICS10continuousIdS0_ES2_N9Operation3addIdEEE8getShapeEv>
  406f28:	48 89 c7             	mov    %rax,%rdi
  406f2b:	e8 cc 02 00 00       	callq  4071fc <_ZN15CPU_MATHEMATICS7destroyIiEEvPT_>
  406f30:	48 8b 45 f8          	mov    -0x8(%rbp),%rax
  406f34:	48 83 c0 08          	add    $0x8,%rax
  406f38:	48 89 c7             	mov    %rax,%rdi
  406f3b:	e8 18 e2 ff ff       	callq  405158 <_ZN7pBufferId15CPU_MATHEMATICS10continuousIdS0_ES2_N9Operation3addIdEEED1Ev>
  406f40:	48 8b 45 f8          	mov    -0x8(%rbp),%rax
  406f44:	48 89 c7             	mov    %rax,%rdi
  406f47:	e8 34 c4 ff ff       	callq  403380 <_ZN10Tensor_AceD1Ev>
  406f4c:	b8 00 00 00 00       	mov    $0x0,%eax
  406f51:	85 c0                	test   %eax,%eax
  406f53:	74 11                	je     406f66 <_ZN11Tensor_KingId15CPU_MATHEMATICS7pBufferIdS0_10continuousIdS0_ES3_N9Operation3addIdEEEED1Ev+0x96>
  406f55:	48 8b 45 f8          	mov    -0x8(%rbp),%rax
  406f59:	be 60 00 00 00       	mov    $0x60,%esi
  406f5e:	48 89 c7             	mov    %rax,%rdi
  406f61:	e8 6a ae ff ff       	callq  401dd0 <_ZdlPvm@plt>
  406f66:	c9                   	leaveq 
  406f67:	c3                   	retq   

0000000000406f68 <_ZN11Tensor_KingId15CPU_MATHEMATICS7pBufferIdS0_10continuousIdS0_ES3_N9Operation3addIdEEEED0Ev>:
  406f68:	55                   	push   %rbp
  406f69:	48 89 e5             	mov    %rsp,%rbp
  406f6c:	48 83 ec 10          	sub    $0x10,%rsp
  406f70:	48 89 7d f8          	mov    %rdi,-0x8(%rbp)
  406f74:	48 8b 45 f8          	mov    -0x8(%rbp),%rax
  406f78:	48 89 c7             	mov    %rax,%rdi
  406f7b:	e8 50 ff ff ff       	callq  406ed0 <_ZN11Tensor_KingId15CPU_MATHEMATICS7pBufferIdS0_10continuousIdS0_ES3_N9Operation3addIdEEEED1Ev>
  406f80:	48 8b 45 f8          	mov    -0x8(%rbp),%rax
  406f84:	be 60 00 00 00       	mov    $0x60,%esi
  406f89:	48 89 c7             	mov    %rax,%rdi
  406f8c:	e8 3f ae ff ff       	callq  401dd0 <_ZdlPvm@plt>
  406f91:	c9                   	leaveq 
  406f92:	c3                   	retq   
  406f93:	90                   	nop

0000000000406f94 <_ZNK11Tensor_KingId15CPU_MATHEMATICS7pBufferIdS0_10continuousIdS0_ES3_N9Operation3addIdEEEE8accessorEv>:
  406f94:	55                   	push   %rbp
  406f95:	48 89 e5             	mov    %rsp,%rbp
  406f98:	48 89 7d f8          	mov    %rdi,-0x8(%rbp)
  406f9c:	48 8b 45 f8          	mov    -0x8(%rbp),%rax
  406fa0:	48 83 c0 08          	add    $0x8,%rax
  406fa4:	5d                   	pop    %rbp
  406fa5:	c3                   	retq   

0000000000406fa6 <_ZN15CPU_MATHEMATICS4copyI10continuousIdS_EK7pBufferIdS_S2_S2_N9Operation3addIdEEEEEvRT_RT0_i>:
  406fa6:	55                   	push   %rbp
  406fa7:	48 89 e5             	mov    %rsp,%rbp
  406faa:	53                   	push   %rbx
  406fab:	48 83 ec 38          	sub    $0x38,%rsp
  406faf:	48 89 7d d8          	mov    %rdi,-0x28(%rbp)
  406fb3:	48 89 75 d0          	mov    %rsi,-0x30(%rbp)
  406fb7:	89 55 cc             	mov    %edx,-0x34(%rbp)
  406fba:	c7 45 ec 00 00 00 00 	movl   $0x0,-0x14(%rbp)
  406fc1:	8b 45 ec             	mov    -0x14(%rbp),%eax
  406fc4:	3b 45 cc             	cmp    -0x34(%rbp),%eax
  406fc7:	7d 33                	jge    406ffc <_ZN15CPU_MATHEMATICS4copyI10continuousIdS_EK7pBufferIdS_S2_S2_N9Operation3addIdEEEEEvRT_RT0_i+0x56>
  406fc9:	8b 55 ec             	mov    -0x14(%rbp),%edx
  406fcc:	48 8b 45 d8          	mov    -0x28(%rbp),%rax
  406fd0:	89 d6                	mov    %edx,%esi
  406fd2:	48 89 c7             	mov    %rax,%rdi
  406fd5:	e8 a4 25 00 00       	callq  40957e <_ZN10continuousId15CPU_MATHEMATICSEixEi>
  406fda:	48 89 c3             	mov    %rax,%rbx
  406fdd:	8b 55 ec             	mov    -0x14(%rbp),%edx
  406fe0:	48 8b 45 d0          	mov    -0x30(%rbp),%rax
  406fe4:	89 d6                	mov    %edx,%esi
  406fe6:	48 89 c7             	mov    %rax,%rdi
  406fe9:	e8 20 27 00 00       	callq  40970e <_ZNK7pBufferId15CPU_MATHEMATICS10continuousIdS0_ES2_N9Operation3addIdEEEixEi>
  406fee:	66 48 0f 7e c0       	movq   %xmm0,%rax
  406ff3:	48 89 03             	mov    %rax,(%rbx)
  406ff6:	83 45 ec 01          	addl   $0x1,-0x14(%rbp)
  406ffa:	eb c5                	jmp    406fc1 <_ZN15CPU_MATHEMATICS4copyI10continuousIdS_EK7pBufferIdS_S2_S2_N9Operation3addIdEEEEEvRT_RT0_i+0x1b>
  406ffc:	90                   	nop
  406ffd:	48 83 c4 38          	add    $0x38,%rsp
  407001:	5b                   	pop    %rbx
  407002:	5d                   	pop    %rbp
  407003:	c3                   	retq   

0000000000407004 <_ZNSt7__cxx1112basic_stringIcSt11char_traitsIcESaIcEE12_M_constructIPcEEvT_S7_>:
  407004:	55                   	push   %rbp
  407005:	48 89 e5             	mov    %rsp,%rbp
  407008:	48 83 ec 30          	sub    $0x30,%rsp
  40700c:	48 89 7d e8          	mov    %rdi,-0x18(%rbp)
  407010:	48 89 75 e0          	mov    %rsi,-0x20(%rbp)
  407014:	48 89 55 d8          	mov    %rdx,-0x28(%rbp)
  407018:	64 48 8b 04 25 28 00 	mov    %fs:0x28,%rax
  40701f:	00 00 
  407021:	48 89 45 f8          	mov    %rax,-0x8(%rbp)
  407025:	31 c0                	xor    %eax,%eax
  407027:	48 8b 55 d8          	mov    -0x28(%rbp),%rdx
  40702b:	48 8b 4d e0          	mov    -0x20(%rbp),%rcx
  40702f:	48 8b 45 e8          	mov    -0x18(%rbp),%rax
  407033:	48 83 ec 08          	sub    $0x8,%rsp
  407037:	41 50                	push   %r8
  407039:	48 89 ce             	mov    %rcx,%rsi
  40703c:	48 89 c7             	mov    %rax,%rdi
  40703f:	e8 3e 27 00 00       	callq  409782 <_ZNSt7__cxx1112basic_stringIcSt11char_traitsIcESaIcEE16_M_construct_auxIPcEEvT_S7_St12__false_type>
  407044:	48 83 c4 10          	add    $0x10,%rsp
  407048:	90                   	nop
  407049:	48 8b 45 f8          	mov    -0x8(%rbp),%rax
  40704d:	64 48 33 04 25 28 00 	xor    %fs:0x28,%rax
  407054:	00 00 
  407056:	74 05                	je     40705d <_ZNSt7__cxx1112basic_stringIcSt11char_traitsIcESaIcEE12_M_constructIPcEEvT_S7_+0x59>
  407058:	e8 d3 ad ff ff       	callq  401e30 <__stack_chk_fail@plt>
  40705d:	c9                   	leaveq 
  40705e:	c3                   	retq   
  40705f:	90                   	nop

0000000000407060 <_ZNKSt16initializer_listIiE4sizeEv>:
  407060:	55                   	push   %rbp
  407061:	48 89 e5             	mov    %rsp,%rbp
  407064:	48 89 7d f8          	mov    %rdi,-0x8(%rbp)
  407068:	48 8b 45 f8          	mov    -0x8(%rbp),%rax
  40706c:	48 8b 40 08          	mov    0x8(%rax),%rax
  407070:	5d                   	pop    %rbp
  407071:	c3                   	retq   

0000000000407072 <_ZN12accessor_aceIf15CPU_MATHEMATICSEC1Ev>:
  407072:	55                   	push   %rbp
  407073:	48 89 e5             	mov    %rsp,%rbp
  407076:	48 83 ec 10          	sub    $0x10,%rsp
  40707a:	48 89 7d f8          	mov    %rdi,-0x8(%rbp)
  40707e:	48 8b 45 f8          	mov    -0x8(%rbp),%rax
  407082:	48 89 c7             	mov    %rax,%rdi
  407085:	e8 20 e3 ff ff       	callq  4053aa <_ZN10Tensor_AceC1Ev>
  40708a:	ba c8 d9 40 00       	mov    $0x40d9c8,%edx
  40708f:	48 8b 45 f8          	mov    -0x8(%rbp),%rax
  407093:	48 89 10             	mov    %rdx,(%rax)
  407096:	90                   	nop
  407097:	c9                   	leaveq 
  407098:	c3                   	retq   
  407099:	90                   	nop

000000000040709a <_ZNKSt16initializer_listIiE5beginEv>:
  40709a:	55                   	push   %rbp
  40709b:	48 89 e5             	mov    %rsp,%rbp
  40709e:	48 89 7d f8          	mov    %rdi,-0x8(%rbp)
  4070a2:	48 8b 45 f8          	mov    -0x8(%rbp),%rax
  4070a6:	48 8b 00             	mov    (%rax),%rax
  4070a9:	5d                   	pop    %rbp
  4070aa:	c3                   	retq   
  4070ab:	90                   	nop

00000000004070ac <_ZN10continuousIf15CPU_MATHEMATICSEC1ESt16initializer_listIiE>:
  4070ac:	55                   	push   %rbp
  4070ad:	48 89 e5             	mov    %rsp,%rbp
  4070b0:	53                   	push   %rbx
  4070b1:	48 83 ec 28          	sub    $0x28,%rsp
  4070b5:	48 89 7d e8          	mov    %rdi,-0x18(%rbp)
  4070b9:	48 89 f0             	mov    %rsi,%rax
  4070bc:	48 89 d1             	mov    %rdx,%rcx
  4070bf:	48 89 ca             	mov    %rcx,%rdx
  4070c2:	48 89 45 d0          	mov    %rax,-0x30(%rbp)
  4070c6:	48 89 55 d8          	mov    %rdx,-0x28(%rbp)
  4070ca:	48 8b 45 e8          	mov    -0x18(%rbp),%rax
  4070ce:	48 89 c7             	mov    %rax,%rdi
  4070d1:	e8 9c ff ff ff       	callq  407072 <_ZN12accessor_aceIf15CPU_MATHEMATICSEC1Ev>
  4070d6:	ba 58 d9 40 00       	mov    $0x40d958,%edx
  4070db:	48 8b 45 e8          	mov    -0x18(%rbp),%rax
  4070df:	48 89 10             	mov    %rdx,(%rax)
  4070e2:	48 8d 45 d0          	lea    -0x30(%rbp),%rax
  4070e6:	48 89 c7             	mov    %rax,%rdi
  4070e9:	e8 72 ff ff ff       	callq  407060 <_ZNKSt16initializer_listIiE4sizeEv>
  4070ee:	89 c2                	mov    %eax,%edx
  4070f0:	48 8b 45 e8          	mov    -0x18(%rbp),%rax
  4070f4:	89 50 18             	mov    %edx,0x18(%rax)
  4070f7:	48 8d 45 d0          	lea    -0x30(%rbp),%rax
  4070fb:	48 89 c7             	mov    %rax,%rdi
  4070fe:	e8 5d ff ff ff       	callq  407060 <_ZNKSt16initializer_listIiE4sizeEv>
  407103:	83 c0 01             	add    $0x1,%eax
  407106:	89 c2                	mov    %eax,%edx
  407108:	48 8b 45 e8          	mov    -0x18(%rbp),%rax
  40710c:	48 83 c0 10          	add    $0x10,%rax
  407110:	89 d6                	mov    %edx,%esi
  407112:	48 89 c7             	mov    %rax,%rdi
  407115:	e8 c3 26 00 00       	callq  4097dd <_ZN15CPU_MATHEMATICS18unified_initializeIiEEvRPT_i>
  40711a:	48 8d 45 d0          	lea    -0x30(%rbp),%rax
  40711e:	48 89 c7             	mov    %rax,%rdi
  407121:	e8 3a ff ff ff       	callq  407060 <_ZNKSt16initializer_listIiE4sizeEv>
  407126:	89 c3                	mov    %eax,%ebx
  407128:	48 8d 45 d0          	lea    -0x30(%rbp),%rax
  40712c:	48 89 c7             	mov    %rax,%rdi
  40712f:	e8 66 ff ff ff       	callq  40709a <_ZNKSt16initializer_listIiE5beginEv>
  407134:	48 89 c1             	mov    %rax,%rcx
  407137:	48 8b 45 e8          	mov    -0x18(%rbp),%rax
  40713b:	48 83 c0 10          	add    $0x10,%rax
  40713f:	89 da                	mov    %ebx,%edx
  407141:	48 89 ce             	mov    %rcx,%rsi
  407144:	48 89 c7             	mov    %rax,%rdi
  407147:	e8 d4 26 00 00       	callq  409820 <_ZN15CPU_MATHEMATICS10copy_stackIPiPKiEEvRT_T0_i>
  40714c:	48 8b 45 e8          	mov    -0x18(%rbp),%rax
  407150:	48 8b 58 10          	mov    0x10(%rax),%rbx
  407154:	48 8b 45 e8          	mov    -0x18(%rbp),%rax
  407158:	48 89 c7             	mov    %rax,%rdi
  40715b:	e8 be 00 00 00       	callq  40721e <_ZNK10continuousIf15CPU_MATHEMATICSE5orderEv>
  407160:	48 98                	cltq   
  407162:	48 c1 e0 02          	shl    $0x2,%rax
  407166:	48 01 c3             	add    %rax,%rbx
  407169:	48 8b 45 e8          	mov    -0x18(%rbp),%rax
  40716d:	8b 50 18             	mov    0x18(%rax),%edx
  407170:	48 8b 45 e8          	mov    -0x18(%rbp),%rax
  407174:	48 8b 40 10          	mov    0x10(%rax),%rax
  407178:	89 d6                	mov    %edx,%esi
  40717a:	48 89 c7             	mov    %rax,%rdi
  40717d:	e8 1b 27 00 00       	callq  40989d <_ZN10continuousIf15CPU_MATHEMATICSE14calculate_sizeEPii>
  407182:	89 03                	mov    %eax,(%rbx)
  407184:	48 8b 45 e8          	mov    -0x18(%rbp),%rax
  407188:	48 89 c7             	mov    %rax,%rdi
  40718b:	e8 60 f4 ff ff       	callq  4065f0 <_ZNK10continuousIf15CPU_MATHEMATICSE4sizeEv>
  407190:	89 c2                	mov    %eax,%edx
  407192:	48 8b 45 e8          	mov    -0x18(%rbp),%rax
  407196:	48 83 c0 08          	add    $0x8,%rax
  40719a:	89 d6                	mov    %edx,%esi
  40719c:	48 89 c7             	mov    %rax,%rdi
  40719f:	e8 44 27 00 00       	callq  4098e8 <_ZN15CPU_MATHEMATICS10initializeIfEEvRPT_i>
  4071a4:	eb 1a                	jmp    4071c0 <_ZN10continuousIf15CPU_MATHEMATICSEC1ESt16initializer_listIiE+0x114>
  4071a6:	48 89 c3             	mov    %rax,%rbx
  4071a9:	48 8b 45 e8          	mov    -0x18(%rbp),%rax
  4071ad:	48 89 c7             	mov    %rax,%rdi
  4071b0:	e8 85 c4 ff ff       	callq  40363a <_ZN12accessor_aceIf15CPU_MATHEMATICSED1Ev>
  4071b5:	48 89 d8             	mov    %rbx,%rax
  4071b8:	48 89 c7             	mov    %rax,%rdi
  4071bb:	e8 d0 ad ff ff       	callq  401f90 <_Unwind_Resume@plt>
  4071c0:	48 83 c4 28          	add    $0x28,%rsp
  4071c4:	5b                   	pop    %rbx
  4071c5:	5d                   	pop    %rbp
  4071c6:	c3                   	retq   

00000000004071c7 <_ZN15CPU_MATHEMATICS7destroyIfEEvPT_>:
  4071c7:	55                   	push   %rbp
  4071c8:	48 89 e5             	mov    %rsp,%rbp
  4071cb:	48 83 ec 10          	sub    $0x10,%rsp
  4071cf:	48 89 7d f8          	mov    %rdi,-0x8(%rbp)
  4071d3:	48 83 7d f8 00       	cmpq   $0x0,-0x8(%rbp)
  4071d8:	74 0c                	je     4071e6 <_ZN15CPU_MATHEMATICS7destroyIfEEvPT_+0x1f>
  4071da:	48 8b 45 f8          	mov    -0x8(%rbp),%rax
  4071de:	48 89 c7             	mov    %rax,%rdi
  4071e1:	e8 9a ac ff ff       	callq  401e80 <_ZdaPv@plt>
  4071e6:	90                   	nop
  4071e7:	c9                   	leaveq 
  4071e8:	c3                   	retq   
  4071e9:	90                   	nop

00000000004071ea <_ZN10continuousIf15CPU_MATHEMATICSE8getShapeEv>:
  4071ea:	55                   	push   %rbp
  4071eb:	48 89 e5             	mov    %rsp,%rbp
  4071ee:	48 89 7d f8          	mov    %rdi,-0x8(%rbp)
  4071f2:	48 8b 45 f8          	mov    -0x8(%rbp),%rax
  4071f6:	48 8b 40 10          	mov    0x10(%rax),%rax
  4071fa:	5d                   	pop    %rbp
  4071fb:	c3                   	retq   

00000000004071fc <_ZN15CPU_MATHEMATICS7destroyIiEEvPT_>:
  4071fc:	55                   	push   %rbp
  4071fd:	48 89 e5             	mov    %rsp,%rbp
  407200:	48 83 ec 10          	sub    $0x10,%rsp
  407204:	48 89 7d f8          	mov    %rdi,-0x8(%rbp)
  407208:	48 83 7d f8 00       	cmpq   $0x0,-0x8(%rbp)
  40720d:	74 0c                	je     40721b <_ZN15CPU_MATHEMATICS7destroyIiEEvPT_+0x1f>
  40720f:	48 8b 45 f8          	mov    -0x8(%rbp),%rax
  407213:	48 89 c7             	mov    %rax,%rdi
  407216:	e8 65 ac ff ff       	callq  401e80 <_ZdaPv@plt>
  40721b:	90                   	nop
  40721c:	c9                   	leaveq 
  40721d:	c3                   	retq   

000000000040721e <_ZNK10continuousIf15CPU_MATHEMATICSE5orderEv>:
  40721e:	55                   	push   %rbp
  40721f:	48 89 e5             	mov    %rsp,%rbp
  407222:	48 89 7d f8          	mov    %rdi,-0x8(%rbp)
  407226:	48 8b 45 f8          	mov    -0x8(%rbp),%rax
  40722a:	8b 40 18             	mov    0x18(%rax),%eax
  40722d:	5d                   	pop    %rbp
  40722e:	c3                   	retq   

000000000040722f <_ZN15CPU_MATHEMATICS11printHelperI10continuousIfS_EEEvT_PKiiNSt7__cxx1112basic_stringIcSt11char_traitsIcESaIcEEEi>:
  40722f:	55                   	push   %rbp
  407230:	48 89 e5             	mov    %rsp,%rbp
  407233:	53                   	push   %rbx
  407234:	48 81 ec c8 00 00 00 	sub    $0xc8,%rsp
  40723b:	48 89 bd 58 ff ff ff 	mov    %rdi,-0xa8(%rbp)
  407242:	48 89 b5 50 ff ff ff 	mov    %rsi,-0xb0(%rbp)
  407249:	89 95 4c ff ff ff    	mov    %edx,-0xb4(%rbp)
  40724f:	48 89 8d 40 ff ff ff 	mov    %rcx,-0xc0(%rbp)
  407256:	44 89 85 48 ff ff ff 	mov    %r8d,-0xb8(%rbp)
  40725d:	64 48 8b 04 25 28 00 	mov    %fs:0x28,%rax
  407264:	00 00 
  407266:	48 89 45 e8          	mov    %rax,-0x18(%rbp)
  40726a:	31 c0                	xor    %eax,%eax
  40726c:	83 ad 4c ff ff ff 01 	subl   $0x1,-0xb4(%rbp)
  407273:	83 bd 4c ff ff ff 01 	cmpl   $0x1,-0xb4(%rbp)
  40727a:	0f 8e e6 01 00 00    	jle    407466 <_ZN15CPU_MATHEMATICS11printHelperI10continuousIfS_EEEvT_PKiiNSt7__cxx1112basic_stringIcSt11char_traitsIcESaIcEEEi+0x237>
  407280:	48 8b 85 40 ff ff ff 	mov    -0xc0(%rbp),%rax
  407287:	48 89 c6             	mov    %rax,%rsi
  40728a:	bf 60 42 61 00       	mov    $0x614260,%edi
  40728f:	e8 0c ab ff ff       	callq  401da0 <_ZStlsIcSt11char_traitsIcESaIcEERSt13basic_ostreamIT_T0_ES7_RKNSt7__cxx1112basic_stringIS4_S5_T1_EE@plt>
  407294:	be aa c8 40 00       	mov    $0x40c8aa,%esi
  407299:	48 89 c7             	mov    %rax,%rdi
  40729c:	e8 1f ab ff ff       	callq  401dc0 <_ZStlsISt11char_traitsIcEERSt13basic_ostreamIcT_ES5_PKc@plt>
  4072a1:	48 89 c2             	mov    %rax,%rdx
  4072a4:	8b 85 4c ff ff ff    	mov    -0xb4(%rbp),%eax
  4072aa:	89 c6                	mov    %eax,%esi
  4072ac:	48 89 d7             	mov    %rdx,%rdi
  4072af:	e8 cc ac ff ff       	callq  401f80 <_ZNSolsEi@plt>
  4072b4:	be bf c8 40 00       	mov    $0x40c8bf,%esi
  4072b9:	48 89 c7             	mov    %rax,%rdi
  4072bc:	e8 ff aa ff ff       	callq  401dc0 <_ZStlsISt11char_traitsIcEERSt13basic_ostreamIcT_ES5_PKc@plt>
  4072c1:	be 00 1d 40 00       	mov    $0x401d00,%esi
  4072c6:	48 89 c7             	mov    %rax,%rdi
  4072c9:	e8 22 ab ff ff       	callq  401df0 <_ZNSolsEPFRSoS_E@plt>
  4072ce:	48 8b 85 40 ff ff ff 	mov    -0xc0(%rbp),%rax
  4072d5:	be d4 c8 40 00       	mov    $0x40c8d4,%esi
  4072da:	48 89 c7             	mov    %rax,%rdi
  4072dd:	e8 ce aa ff ff       	callq  401db0 <_ZNSt7__cxx1112basic_stringIcSt11char_traitsIcESaIcEEpLEPKc@plt>
  4072e2:	c7 85 70 ff ff ff 00 	movl   $0x0,-0x90(%rbp)
  4072e9:	00 00 00 
  4072ec:	8b 85 4c ff ff ff    	mov    -0xb4(%rbp),%eax
  4072f2:	48 98                	cltq   
  4072f4:	48 8d 14 85 00 00 00 	lea    0x0(,%rax,4),%rdx
  4072fb:	00 
  4072fc:	48 8b 85 50 ff ff ff 	mov    -0xb0(%rbp),%rax
  407303:	48 01 d0             	add    %rdx,%rax
  407306:	8b 00                	mov    (%rax),%eax
  407308:	3b 85 70 ff ff ff    	cmp    -0x90(%rbp),%eax
  40730e:	0f 8e 89 00 00 00    	jle    40739d <_ZN15CPU_MATHEMATICS11printHelperI10continuousIfS_EEEvT_PKiiNSt7__cxx1112basic_stringIcSt11char_traitsIcESaIcEEEi+0x16e>
  407314:	48 8b 95 40 ff ff ff 	mov    -0xc0(%rbp),%rdx
  40731b:	48 8d 45 c0          	lea    -0x40(%rbp),%rax
  40731f:	48 89 d6             	mov    %rdx,%rsi
  407322:	48 89 c7             	mov    %rax,%rdi
  407325:	e8 c6 a9 ff ff       	callq  401cf0 <_ZNSt7__cxx1112basic_stringIcSt11char_traitsIcESaIcEEC1ERKS4_@plt>
  40732a:	8b 85 4c ff ff ff    	mov    -0xb4(%rbp),%eax
  407330:	48 98                	cltq   
  407332:	48 c1 e0 02          	shl    $0x2,%rax
  407336:	48 8d 50 fc          	lea    -0x4(%rax),%rdx
  40733a:	48 8b 85 50 ff ff ff 	mov    -0xb0(%rbp),%rax
  407341:	48 01 d0             	add    %rdx,%rax
  407344:	8b 00                	mov    (%rax),%eax
  407346:	0f af 85 70 ff ff ff 	imul   -0x90(%rbp),%eax
  40734d:	89 c2                	mov    %eax,%edx
  40734f:	48 8b 85 58 ff ff ff 	mov    -0xa8(%rbp),%rax
  407356:	89 d6                	mov    %edx,%esi
  407358:	48 89 c7             	mov    %rax,%rdi
  40735b:	e8 5e 06 00 00       	callq  4079be <_ZNK10continuousIf15CPU_MATHEMATICSEixEi>
  407360:	48 89 c7             	mov    %rax,%rdi
  407363:	8b b5 48 ff ff ff    	mov    -0xb8(%rbp),%esi
  407369:	48 8d 4d c0          	lea    -0x40(%rbp),%rcx
  40736d:	8b 95 4c ff ff ff    	mov    -0xb4(%rbp),%edx
  407373:	48 8b 85 50 ff ff ff 	mov    -0xb0(%rbp),%rax
  40737a:	41 89 f0             	mov    %esi,%r8d
  40737d:	48 89 c6             	mov    %rax,%rsi
  407380:	e8 a6 25 00 00       	callq  40992b <_ZN15CPU_MATHEMATICS11printHelperIPKfEEvT_PKiiNSt7__cxx1112basic_stringIcSt11char_traitsIcESaIcEEEi>
  407385:	48 8d 45 c0          	lea    -0x40(%rbp),%rax
  407389:	48 89 c7             	mov    %rax,%rdi
  40738c:	e8 8f a9 ff ff       	callq  401d20 <_ZNSt7__cxx1112basic_stringIcSt11char_traitsIcESaIcEED1Ev@plt>
  407391:	83 85 70 ff ff ff 01 	addl   $0x1,-0x90(%rbp)
  407398:	e9 4f ff ff ff       	jmpq   4072ec <_ZN15CPU_MATHEMATICS11printHelperI10continuousIfS_EEEvT_PKiiNSt7__cxx1112basic_stringIcSt11char_traitsIcESaIcEEEi+0xbd>
  40739d:	48 8d 45 a0          	lea    -0x60(%rbp),%rax
  4073a1:	8b 95 4c ff ff ff    	mov    -0xb4(%rbp),%edx
  4073a7:	89 d6                	mov    %edx,%esi
  4073a9:	48 89 c7             	mov    %rax,%rdi
  4073ac:	e8 08 bf ff ff       	callq  4032b9 <_ZNSt7__cxx119to_stringEi>
  4073b1:	48 8d 85 6f ff ff ff 	lea    -0x91(%rbp),%rax
  4073b8:	48 89 c7             	mov    %rax,%rdi
  4073bb:	e8 e0 ab ff ff       	callq  401fa0 <_ZNSaIcEC1Ev@plt>
  4073c0:	48 8d 45 a0          	lea    -0x60(%rbp),%rax
  4073c4:	48 89 c7             	mov    %rax,%rdi
  4073c7:	e8 14 ab ff ff       	callq  401ee0 <_ZNKSt7__cxx1112basic_stringIcSt11char_traitsIcESaIcEE6lengthEv@plt>
  4073cc:	48 89 c6             	mov    %rax,%rsi
  4073cf:	48 8d 95 6f ff ff ff 	lea    -0x91(%rbp),%rdx
  4073d6:	48 8d 45 c0          	lea    -0x40(%rbp),%rax
  4073da:	48 89 d1             	mov    %rdx,%rcx
  4073dd:	48 89 f2             	mov    %rsi,%rdx
  4073e0:	be d9 c8 40 00       	mov    $0x40c8d9,%esi
  4073e5:	48 89 c7             	mov    %rax,%rdi
  4073e8:	e8 53 aa ff ff       	callq  401e40 <_ZNSt7__cxx1112basic_stringIcSt11char_traitsIcESaIcEEC1EPKcmRKS3_@plt>
  4073ed:	48 8d 85 6f ff ff ff 	lea    -0x91(%rbp),%rax
  4073f4:	48 89 c7             	mov    %rax,%rdi
  4073f7:	e8 14 aa ff ff       	callq  401e10 <_ZNSaIcED1Ev@plt>
  4073fc:	48 8b 85 40 ff ff ff 	mov    -0xc0(%rbp),%rax
  407403:	48 89 c6             	mov    %rax,%rsi
  407406:	bf 60 42 61 00       	mov    $0x614260,%edi
  40740b:	e8 90 a9 ff ff       	callq  401da0 <_ZStlsIcSt11char_traitsIcESaIcEERSt13basic_ostreamIT_T0_ES7_RKNSt7__cxx1112basic_stringIS4_S5_T1_EE@plt>
  407410:	be aa c8 40 00       	mov    $0x40c8aa,%esi
  407415:	48 89 c7             	mov    %rax,%rdi
  407418:	e8 a3 a9 ff ff       	callq  401dc0 <_ZStlsISt11char_traitsIcEERSt13basic_ostreamIcT_ES5_PKc@plt>
  40741d:	48 89 c2             	mov    %rax,%rdx
  407420:	48 8d 45 c0          	lea    -0x40(%rbp),%rax
  407424:	48 89 c6             	mov    %rax,%rsi
  407427:	48 89 d7             	mov    %rdx,%rdi
  40742a:	e8 71 a9 ff ff       	callq  401da0 <_ZStlsIcSt11char_traitsIcESaIcEERSt13basic_ostreamIT_T0_ES7_RKNSt7__cxx1112basic_stringIS4_S5_T1_EE@plt>
  40742f:	be bf c8 40 00       	mov    $0x40c8bf,%esi
  407434:	48 89 c7             	mov    %rax,%rdi
  407437:	e8 84 a9 ff ff       	callq  401dc0 <_ZStlsISt11char_traitsIcEERSt13basic_ostreamIcT_ES5_PKc@plt>
  40743c:	be 00 1d 40 00       	mov    $0x401d00,%esi
  407441:	48 89 c7             	mov    %rax,%rdi
  407444:	e8 a7 a9 ff ff       	callq  401df0 <_ZNSolsEPFRSoS_E@plt>
  407449:	48 8d 45 c0          	lea    -0x40(%rbp),%rax
  40744d:	48 89 c7             	mov    %rax,%rdi
  407450:	e8 cb a8 ff ff       	callq  401d20 <_ZNSt7__cxx1112basic_stringIcSt11char_traitsIcESaIcEED1Ev@plt>
  407455:	48 8d 45 a0          	lea    -0x60(%rbp),%rax
  407459:	48 89 c7             	mov    %rax,%rdi
  40745c:	e8 bf a8 ff ff       	callq  401d20 <_ZNSt7__cxx1112basic_stringIcSt11char_traitsIcESaIcEED1Ev@plt>
  407461:	e9 38 05 00 00       	jmpq   40799e <_ZN15CPU_MATHEMATICS11printHelperI10continuousIfS_EEEvT_PKiiNSt7__cxx1112basic_stringIcSt11char_traitsIcESaIcEEEi+0x76f>
  407466:	83 bd 4c ff ff ff 01 	cmpl   $0x1,-0xb4(%rbp)
  40746d:	0f 85 53 02 00 00    	jne    4076c6 <_ZN15CPU_MATHEMATICS11printHelperI10continuousIfS_EEEvT_PKiiNSt7__cxx1112basic_stringIcSt11char_traitsIcESaIcEEEi+0x497>
  407473:	c7 85 74 ff ff ff 00 	movl   $0x0,-0x8c(%rbp)
  40747a:	00 00 00 
  40747d:	8b 85 4c ff ff ff    	mov    -0xb4(%rbp),%eax
  407483:	48 98                	cltq   
  407485:	48 c1 e0 02          	shl    $0x2,%rax
  407489:	48 8d 50 fc          	lea    -0x4(%rax),%rdx
  40748d:	48 8b 85 50 ff ff ff 	mov    -0xb0(%rbp),%rax
  407494:	48 01 d0             	add    %rdx,%rax
  407497:	8b 00                	mov    (%rax),%eax
  407499:	3b 85 74 ff ff ff    	cmp    -0x8c(%rbp),%eax
  40749f:	0f 8e f9 04 00 00    	jle    40799e <_ZN15CPU_MATHEMATICS11printHelperI10continuousIfS_EEEvT_PKiiNSt7__cxx1112basic_stringIcSt11char_traitsIcESaIcEEEi+0x76f>
  4074a5:	be b8 c7 40 00       	mov    $0x40c7b8,%esi
  4074aa:	bf 60 42 61 00       	mov    $0x614260,%edi
  4074af:	e8 0c a9 ff ff       	callq  401dc0 <_ZStlsISt11char_traitsIcEERSt13basic_ostreamIcT_ES5_PKc@plt>
  4074b4:	c7 85 78 ff ff ff 00 	movl   $0x0,-0x88(%rbp)
  4074bb:	00 00 00 
  4074be:	8b 85 4c ff ff ff    	mov    -0xb4(%rbp),%eax
  4074c4:	48 98                	cltq   
  4074c6:	48 8d 14 85 00 00 00 	lea    0x0(,%rax,4),%rdx
  4074cd:	00 
  4074ce:	48 8b 85 50 ff ff ff 	mov    -0xb0(%rbp),%rax
  4074d5:	48 01 d0             	add    %rdx,%rax
  4074d8:	8b 00                	mov    (%rax),%eax
  4074da:	3b 85 78 ff ff ff    	cmp    -0x88(%rbp),%eax
  4074e0:	0f 8e b6 01 00 00    	jle    40769c <_ZN15CPU_MATHEMATICS11printHelperI10continuousIfS_EEEvT_PKiiNSt7__cxx1112basic_stringIcSt11char_traitsIcESaIcEEEi+0x46d>
  4074e6:	8b 85 4c ff ff ff    	mov    -0xb4(%rbp),%eax
  4074ec:	48 98                	cltq   
  4074ee:	48 c1 e0 02          	shl    $0x2,%rax
  4074f2:	48 8d 50 fc          	lea    -0x4(%rax),%rdx
  4074f6:	48 8b 85 50 ff ff ff 	mov    -0xb0(%rbp),%rax
  4074fd:	48 01 d0             	add    %rdx,%rax
  407500:	8b 00                	mov    (%rax),%eax
  407502:	0f af 85 78 ff ff ff 	imul   -0x88(%rbp),%eax
  407509:	89 c2                	mov    %eax,%edx
  40750b:	8b 85 74 ff ff ff    	mov    -0x8c(%rbp),%eax
  407511:	01 c2                	add    %eax,%edx
  407513:	48 8b 85 58 ff ff ff 	mov    -0xa8(%rbp),%rax
  40751a:	89 d6                	mov    %edx,%esi
  40751c:	48 89 c7             	mov    %rax,%rdi
  40751f:	e8 9a 04 00 00       	callq  4079be <_ZNK10continuousIf15CPU_MATHEMATICSEixEi>
  407524:	8b 10                	mov    (%rax),%edx
  407526:	48 8d 45 80          	lea    -0x80(%rbp),%rax
  40752a:	89 95 3c ff ff ff    	mov    %edx,-0xc4(%rbp)
  407530:	f3 0f 10 85 3c ff ff 	movss  -0xc4(%rbp),%xmm0
  407537:	ff 
  407538:	48 89 c7             	mov    %rax,%rdi
  40753b:	e8 da bd ff ff       	callq  40331a <_ZNSt7__cxx119to_stringEf>
  407540:	48 8d 45 80          	lea    -0x80(%rbp),%rax
  407544:	48 89 c7             	mov    %rax,%rdi
  407547:	e8 94 a9 ff ff       	callq  401ee0 <_ZNKSt7__cxx1112basic_stringIcSt11char_traitsIcESaIcEE6lengthEv@plt>
  40754c:	48 89 c2             	mov    %rax,%rdx
  40754f:	8b 85 48 ff ff ff    	mov    -0xb8(%rbp),%eax
  407555:	48 98                	cltq   
  407557:	48 39 c2             	cmp    %rax,%rdx
  40755a:	73 0e                	jae    40756a <_ZN15CPU_MATHEMATICS11printHelperI10continuousIfS_EEEvT_PKiiNSt7__cxx1112basic_stringIcSt11char_traitsIcESaIcEEEi+0x33b>
  40755c:	48 8d 45 80          	lea    -0x80(%rbp),%rax
  407560:	48 89 c7             	mov    %rax,%rdi
  407563:	e8 78 a9 ff ff       	callq  401ee0 <_ZNKSt7__cxx1112basic_stringIcSt11char_traitsIcESaIcEE6lengthEv@plt>
  407568:	eb 08                	jmp    407572 <_ZN15CPU_MATHEMATICS11printHelperI10continuousIfS_EEEvT_PKiiNSt7__cxx1112basic_stringIcSt11char_traitsIcESaIcEEEi+0x343>
  40756a:	8b 85 48 ff ff ff    	mov    -0xb8(%rbp),%eax
  407570:	48 98                	cltq   
  407572:	48 8d 7d a0          	lea    -0x60(%rbp),%rdi
  407576:	48 8d 75 80          	lea    -0x80(%rbp),%rsi
  40757a:	48 89 c1             	mov    %rax,%rcx
  40757d:	ba 00 00 00 00       	mov    $0x0,%edx
  407582:	e8 59 a8 ff ff       	callq  401de0 <_ZNKSt7__cxx1112basic_stringIcSt11char_traitsIcESaIcEE6substrEmm@plt>
  407587:	48 8d 55 a0          	lea    -0x60(%rbp),%rdx
  40758b:	48 8d 45 80          	lea    -0x80(%rbp),%rax
  40758f:	48 89 d6             	mov    %rdx,%rsi
  407592:	48 89 c7             	mov    %rax,%rdi
  407595:	e8 b6 a8 ff ff       	callq  401e50 <_ZNSt7__cxx1112basic_stringIcSt11char_traitsIcESaIcEEaSEOS4_@plt>
  40759a:	48 8d 45 a0          	lea    -0x60(%rbp),%rax
  40759e:	48 89 c7             	mov    %rax,%rdi
  4075a1:	e8 7a a7 ff ff       	callq  401d20 <_ZNSt7__cxx1112basic_stringIcSt11char_traitsIcESaIcEED1Ev@plt>
  4075a6:	48 8d 45 80          	lea    -0x80(%rbp),%rax
  4075aa:	48 89 c7             	mov    %rax,%rdi
  4075ad:	e8 2e a9 ff ff       	callq  401ee0 <_ZNKSt7__cxx1112basic_stringIcSt11char_traitsIcESaIcEE6lengthEv@plt>
  4075b2:	48 89 c2             	mov    %rax,%rdx
  4075b5:	8b 85 48 ff ff ff    	mov    -0xb8(%rbp),%eax
  4075bb:	48 98                	cltq   
  4075bd:	48 39 c2             	cmp    %rax,%rdx
  4075c0:	0f 92 c0             	setb   %al
  4075c3:	84 c0                	test   %al,%al
  4075c5:	74 76                	je     40763d <_ZN15CPU_MATHEMATICS11printHelperI10continuousIfS_EEEvT_PKiiNSt7__cxx1112basic_stringIcSt11char_traitsIcESaIcEEEi+0x40e>
  4075c7:	48 8d 85 6f ff ff ff 	lea    -0x91(%rbp),%rax
  4075ce:	48 89 c7             	mov    %rax,%rdi
  4075d1:	e8 ca a9 ff ff       	callq  401fa0 <_ZNSaIcEC1Ev@plt>
  4075d6:	8b 85 48 ff ff ff    	mov    -0xb8(%rbp),%eax
  4075dc:	48 63 d8             	movslq %eax,%rbx
  4075df:	48 8d 45 80          	lea    -0x80(%rbp),%rax
  4075e3:	48 89 c7             	mov    %rax,%rdi
  4075e6:	e8 f5 a8 ff ff       	callq  401ee0 <_ZNKSt7__cxx1112basic_stringIcSt11char_traitsIcESaIcEE6lengthEv@plt>
  4075eb:	48 29 c3             	sub    %rax,%rbx
  4075ee:	48 89 de             	mov    %rbx,%rsi
  4075f1:	48 8d 95 6f ff ff ff 	lea    -0x91(%rbp),%rdx
  4075f8:	48 8d 45 c0          	lea    -0x40(%rbp),%rax
  4075fc:	48 89 d1             	mov    %rdx,%rcx
  4075ff:	48 89 f2             	mov    %rsi,%rdx
  407602:	be d9 c8 40 00       	mov    $0x40c8d9,%esi
  407607:	48 89 c7             	mov    %rax,%rdi
  40760a:	e8 31 a8 ff ff       	callq  401e40 <_ZNSt7__cxx1112basic_stringIcSt11char_traitsIcESaIcEEC1EPKcmRKS3_@plt>
  40760f:	48 8d 55 c0          	lea    -0x40(%rbp),%rdx
  407613:	48 8d 45 80          	lea    -0x80(%rbp),%rax
  407617:	48 89 d6             	mov    %rdx,%rsi
  40761a:	48 89 c7             	mov    %rax,%rdi
  40761d:	e8 4e a8 ff ff       	callq  401e70 <_ZNSt7__cxx1112basic_stringIcSt11char_traitsIcESaIcEEpLERKS4_@plt>
  407622:	48 8d 45 c0          	lea    -0x40(%rbp),%rax
  407626:	48 89 c7             	mov    %rax,%rdi
  407629:	e8 f2 a6 ff ff       	callq  401d20 <_ZNSt7__cxx1112basic_stringIcSt11char_traitsIcESaIcEED1Ev@plt>
  40762e:	48 8d 85 6f ff ff ff 	lea    -0x91(%rbp),%rax
  407635:	48 89 c7             	mov    %rax,%rdi
  407638:	e8 d3 a7 ff ff       	callq  401e10 <_ZNSaIcED1Ev@plt>
  40763d:	48 8d 45 80          	lea    -0x80(%rbp),%rax
  407641:	48 89 c6             	mov    %rax,%rsi
  407644:	bf 60 42 61 00       	mov    $0x614260,%edi
  407649:	e8 52 a7 ff ff       	callq  401da0 <_ZStlsIcSt11char_traitsIcESaIcEERSt13basic_ostreamIT_T0_ES7_RKNSt7__cxx1112basic_stringIS4_S5_T1_EE@plt>
  40764e:	8b 85 4c ff ff ff    	mov    -0xb4(%rbp),%eax
  407654:	48 98                	cltq   
  407656:	48 8d 14 85 00 00 00 	lea    0x0(,%rax,4),%rdx
  40765d:	00 
  40765e:	48 8b 85 50 ff ff ff 	mov    -0xb0(%rbp),%rax
  407665:	48 01 d0             	add    %rdx,%rax
  407668:	8b 00                	mov    (%rax),%eax
  40766a:	83 e8 01             	sub    $0x1,%eax
  40766d:	3b 85 78 ff ff ff    	cmp    -0x88(%rbp),%eax
  407673:	7e 0f                	jle    407684 <_ZN15CPU_MATHEMATICS11printHelperI10continuousIfS_EEEvT_PKiiNSt7__cxx1112basic_stringIcSt11char_traitsIcESaIcEEEi+0x455>
  407675:	be bb c7 40 00       	mov    $0x40c7bb,%esi
  40767a:	bf 60 42 61 00       	mov    $0x614260,%edi
  40767f:	e8 3c a7 ff ff       	callq  401dc0 <_ZStlsISt11char_traitsIcEERSt13basic_ostreamIcT_ES5_PKc@plt>
  407684:	48 8d 45 80          	lea    -0x80(%rbp),%rax
  407688:	48 89 c7             	mov    %rax,%rdi
  40768b:	e8 90 a6 ff ff       	callq  401d20 <_ZNSt7__cxx1112basic_stringIcSt11char_traitsIcESaIcEED1Ev@plt>
  407690:	83 85 78 ff ff ff 01 	addl   $0x1,-0x88(%rbp)
  407697:	e9 22 fe ff ff       	jmpq   4074be <_ZN15CPU_MATHEMATICS11printHelperI10continuousIfS_EEEvT_PKiiNSt7__cxx1112basic_stringIcSt11char_traitsIcESaIcEEEi+0x28f>
  40769c:	be bf c7 40 00       	mov    $0x40c7bf,%esi
  4076a1:	bf 60 42 61 00       	mov    $0x614260,%edi
  4076a6:	e8 15 a7 ff ff       	callq  401dc0 <_ZStlsISt11char_traitsIcEERSt13basic_ostreamIcT_ES5_PKc@plt>
  4076ab:	be 00 1d 40 00       	mov    $0x401d00,%esi
  4076b0:	bf 60 42 61 00       	mov    $0x614260,%edi
  4076b5:	e8 36 a7 ff ff       	callq  401df0 <_ZNSolsEPFRSoS_E@plt>
  4076ba:	83 85 74 ff ff ff 01 	addl   $0x1,-0x8c(%rbp)
  4076c1:	e9 b7 fd ff ff       	jmpq   40747d <_ZN15CPU_MATHEMATICS11printHelperI10continuousIfS_EEEvT_PKiiNSt7__cxx1112basic_stringIcSt11char_traitsIcESaIcEEEi+0x24e>
  4076c6:	be b8 c7 40 00       	mov    $0x40c7b8,%esi
  4076cb:	bf 60 42 61 00       	mov    $0x614260,%edi
  4076d0:	e8 eb a6 ff ff       	callq  401dc0 <_ZStlsISt11char_traitsIcEERSt13basic_ostreamIcT_ES5_PKc@plt>
  4076d5:	c7 85 7c ff ff ff 00 	movl   $0x0,-0x84(%rbp)
  4076dc:	00 00 00 
  4076df:	8b 85 4c ff ff ff    	mov    -0xb4(%rbp),%eax
  4076e5:	48 98                	cltq   
  4076e7:	48 8d 14 85 00 00 00 	lea    0x0(,%rax,4),%rdx
  4076ee:	00 
  4076ef:	48 8b 85 50 ff ff ff 	mov    -0xb0(%rbp),%rax
  4076f6:	48 01 d0             	add    %rdx,%rax
  4076f9:	8b 00                	mov    (%rax),%eax
  4076fb:	3b 85 7c ff ff ff    	cmp    -0x84(%rbp),%eax
  407701:	0f 8e 8f 01 00 00    	jle    407896 <_ZN15CPU_MATHEMATICS11printHelperI10continuousIfS_EEEvT_PKiiNSt7__cxx1112basic_stringIcSt11char_traitsIcESaIcEEEi+0x667>
  407707:	8b 95 7c ff ff ff    	mov    -0x84(%rbp),%edx
  40770d:	48 8b 85 58 ff ff ff 	mov    -0xa8(%rbp),%rax
  407714:	89 d6                	mov    %edx,%esi
  407716:	48 89 c7             	mov    %rax,%rdi
  407719:	e8 a0 02 00 00       	callq  4079be <_ZNK10continuousIf15CPU_MATHEMATICSEixEi>
  40771e:	8b 10                	mov    (%rax),%edx
  407720:	48 8d 45 80          	lea    -0x80(%rbp),%rax
  407724:	89 95 3c ff ff ff    	mov    %edx,-0xc4(%rbp)
  40772a:	f3 0f 10 85 3c ff ff 	movss  -0xc4(%rbp),%xmm0
  407731:	ff 
  407732:	48 89 c7             	mov    %rax,%rdi
  407735:	e8 e0 bb ff ff       	callq  40331a <_ZNSt7__cxx119to_stringEf>
  40773a:	48 8d 45 80          	lea    -0x80(%rbp),%rax
  40773e:	48 89 c7             	mov    %rax,%rdi
  407741:	e8 9a a7 ff ff       	callq  401ee0 <_ZNKSt7__cxx1112basic_stringIcSt11char_traitsIcESaIcEE6lengthEv@plt>
  407746:	48 89 c2             	mov    %rax,%rdx
  407749:	8b 85 48 ff ff ff    	mov    -0xb8(%rbp),%eax
  40774f:	48 98                	cltq   
  407751:	48 39 c2             	cmp    %rax,%rdx
  407754:	73 0e                	jae    407764 <_ZN15CPU_MATHEMATICS11printHelperI10continuousIfS_EEEvT_PKiiNSt7__cxx1112basic_stringIcSt11char_traitsIcESaIcEEEi+0x535>
  407756:	48 8d 45 80          	lea    -0x80(%rbp),%rax
  40775a:	48 89 c7             	mov    %rax,%rdi
  40775d:	e8 7e a7 ff ff       	callq  401ee0 <_ZNKSt7__cxx1112basic_stringIcSt11char_traitsIcESaIcEE6lengthEv@plt>
  407762:	eb 08                	jmp    40776c <_ZN15CPU_MATHEMATICS11printHelperI10continuousIfS_EEEvT_PKiiNSt7__cxx1112basic_stringIcSt11char_traitsIcESaIcEEEi+0x53d>
  407764:	8b 85 48 ff ff ff    	mov    -0xb8(%rbp),%eax
  40776a:	48 98                	cltq   
  40776c:	48 8d 7d a0          	lea    -0x60(%rbp),%rdi
  407770:	48 8d 75 80          	lea    -0x80(%rbp),%rsi
  407774:	48 89 c1             	mov    %rax,%rcx
  407777:	ba 00 00 00 00       	mov    $0x0,%edx
  40777c:	e8 5f a6 ff ff       	callq  401de0 <_ZNKSt7__cxx1112basic_stringIcSt11char_traitsIcESaIcEE6substrEmm@plt>
  407781:	48 8d 55 a0          	lea    -0x60(%rbp),%rdx
  407785:	48 8d 45 80          	lea    -0x80(%rbp),%rax
  407789:	48 89 d6             	mov    %rdx,%rsi
  40778c:	48 89 c7             	mov    %rax,%rdi
  40778f:	e8 bc a6 ff ff       	callq  401e50 <_ZNSt7__cxx1112basic_stringIcSt11char_traitsIcESaIcEEaSEOS4_@plt>
  407794:	48 8d 45 a0          	lea    -0x60(%rbp),%rax
  407798:	48 89 c7             	mov    %rax,%rdi
  40779b:	e8 80 a5 ff ff       	callq  401d20 <_ZNSt7__cxx1112basic_stringIcSt11char_traitsIcESaIcEED1Ev@plt>
  4077a0:	48 8d 45 80          	lea    -0x80(%rbp),%rax
  4077a4:	48 89 c7             	mov    %rax,%rdi
  4077a7:	e8 34 a7 ff ff       	callq  401ee0 <_ZNKSt7__cxx1112basic_stringIcSt11char_traitsIcESaIcEE6lengthEv@plt>
  4077ac:	48 89 c2             	mov    %rax,%rdx
  4077af:	8b 85 48 ff ff ff    	mov    -0xb8(%rbp),%eax
  4077b5:	48 98                	cltq   
  4077b7:	48 39 c2             	cmp    %rax,%rdx
  4077ba:	0f 92 c0             	setb   %al
  4077bd:	84 c0                	test   %al,%al
  4077bf:	74 76                	je     407837 <_ZN15CPU_MATHEMATICS11printHelperI10continuousIfS_EEEvT_PKiiNSt7__cxx1112basic_stringIcSt11char_traitsIcESaIcEEEi+0x608>
  4077c1:	48 8d 85 6f ff ff ff 	lea    -0x91(%rbp),%rax
  4077c8:	48 89 c7             	mov    %rax,%rdi
  4077cb:	e8 d0 a7 ff ff       	callq  401fa0 <_ZNSaIcEC1Ev@plt>
  4077d0:	8b 85 48 ff ff ff    	mov    -0xb8(%rbp),%eax
  4077d6:	48 63 d8             	movslq %eax,%rbx
  4077d9:	48 8d 45 80          	lea    -0x80(%rbp),%rax
  4077dd:	48 89 c7             	mov    %rax,%rdi
  4077e0:	e8 fb a6 ff ff       	callq  401ee0 <_ZNKSt7__cxx1112basic_stringIcSt11char_traitsIcESaIcEE6lengthEv@plt>
  4077e5:	48 29 c3             	sub    %rax,%rbx
  4077e8:	48 89 de             	mov    %rbx,%rsi
  4077eb:	48 8d 95 6f ff ff ff 	lea    -0x91(%rbp),%rdx
  4077f2:	48 8d 45 c0          	lea    -0x40(%rbp),%rax
  4077f6:	48 89 d1             	mov    %rdx,%rcx
  4077f9:	48 89 f2             	mov    %rsi,%rdx
  4077fc:	be d9 c8 40 00       	mov    $0x40c8d9,%esi
  407801:	48 89 c7             	mov    %rax,%rdi
  407804:	e8 37 a6 ff ff       	callq  401e40 <_ZNSt7__cxx1112basic_stringIcSt11char_traitsIcESaIcEEC1EPKcmRKS3_@plt>
  407809:	48 8d 55 c0          	lea    -0x40(%rbp),%rdx
  40780d:	48 8d 45 80          	lea    -0x80(%rbp),%rax
  407811:	48 89 d6             	mov    %rdx,%rsi
  407814:	48 89 c7             	mov    %rax,%rdi
  407817:	e8 54 a6 ff ff       	callq  401e70 <_ZNSt7__cxx1112basic_stringIcSt11char_traitsIcESaIcEEpLERKS4_@plt>
  40781c:	48 8d 45 c0          	lea    -0x40(%rbp),%rax
  407820:	48 89 c7             	mov    %rax,%rdi
  407823:	e8 f8 a4 ff ff       	callq  401d20 <_ZNSt7__cxx1112basic_stringIcSt11char_traitsIcESaIcEED1Ev@plt>
  407828:	48 8d 85 6f ff ff ff 	lea    -0x91(%rbp),%rax
  40782f:	48 89 c7             	mov    %rax,%rdi
  407832:	e8 d9 a5 ff ff       	callq  401e10 <_ZNSaIcED1Ev@plt>
  407837:	48 8d 45 80          	lea    -0x80(%rbp),%rax
  40783b:	48 89 c6             	mov    %rax,%rsi
  40783e:	bf 60 42 61 00       	mov    $0x614260,%edi
  407843:	e8 58 a5 ff ff       	callq  401da0 <_ZStlsIcSt11char_traitsIcESaIcEERSt13basic_ostreamIT_T0_ES7_RKNSt7__cxx1112basic_stringIS4_S5_T1_EE@plt>
  407848:	8b 85 4c ff ff ff    	mov    -0xb4(%rbp),%eax
  40784e:	48 98                	cltq   
  407850:	48 8d 14 85 00 00 00 	lea    0x0(,%rax,4),%rdx
  407857:	00 
  407858:	48 8b 85 50 ff ff ff 	mov    -0xb0(%rbp),%rax
  40785f:	48 01 d0             	add    %rdx,%rax
  407862:	8b 00                	mov    (%rax),%eax
  407864:	83 e8 01             	sub    $0x1,%eax
  407867:	3b 85 7c ff ff ff    	cmp    -0x84(%rbp),%eax
  40786d:	7e 0f                	jle    40787e <_ZN15CPU_MATHEMATICS11printHelperI10continuousIfS_EEEvT_PKiiNSt7__cxx1112basic_stringIcSt11char_traitsIcESaIcEEEi+0x64f>
  40786f:	be bb c7 40 00       	mov    $0x40c7bb,%esi
  407874:	bf 60 42 61 00       	mov    $0x614260,%edi
  407879:	e8 42 a5 ff ff       	callq  401dc0 <_ZStlsISt11char_traitsIcEERSt13basic_ostreamIcT_ES5_PKc@plt>
  40787e:	48 8d 45 80          	lea    -0x80(%rbp),%rax
  407882:	48 89 c7             	mov    %rax,%rdi
  407885:	e8 96 a4 ff ff       	callq  401d20 <_ZNSt7__cxx1112basic_stringIcSt11char_traitsIcESaIcEED1Ev@plt>
  40788a:	83 85 7c ff ff ff 01 	addl   $0x1,-0x84(%rbp)
  407891:	e9 49 fe ff ff       	jmpq   4076df <_ZN15CPU_MATHEMATICS11printHelperI10continuousIfS_EEEvT_PKiiNSt7__cxx1112basic_stringIcSt11char_traitsIcESaIcEEEi+0x4b0>
  407896:	be bf c7 40 00       	mov    $0x40c7bf,%esi
  40789b:	bf 60 42 61 00       	mov    $0x614260,%edi
  4078a0:	e8 1b a5 ff ff       	callq  401dc0 <_ZStlsISt11char_traitsIcEERSt13basic_ostreamIcT_ES5_PKc@plt>
  4078a5:	e9 f4 00 00 00       	jmpq   40799e <_ZN15CPU_MATHEMATICS11printHelperI10continuousIfS_EEEvT_PKiiNSt7__cxx1112basic_stringIcSt11char_traitsIcESaIcEEEi+0x76f>
  4078aa:	48 89 c3             	mov    %rax,%rbx
  4078ad:	48 8d 45 c0          	lea    -0x40(%rbp),%rax
  4078b1:	48 89 c7             	mov    %rax,%rdi
  4078b4:	e8 67 a4 ff ff       	callq  401d20 <_ZNSt7__cxx1112basic_stringIcSt11char_traitsIcESaIcEED1Ev@plt>
  4078b9:	48 89 d8             	mov    %rbx,%rax
  4078bc:	48 89 c7             	mov    %rax,%rdi
  4078bf:	e8 cc a6 ff ff       	callq  401f90 <_Unwind_Resume@plt>
  4078c4:	48 89 c3             	mov    %rax,%rbx
  4078c7:	48 8d 85 6f ff ff ff 	lea    -0x91(%rbp),%rax
  4078ce:	48 89 c7             	mov    %rax,%rdi
  4078d1:	e8 3a a5 ff ff       	callq  401e10 <_ZNSaIcED1Ev@plt>
  4078d6:	eb 0f                	jmp    4078e7 <_ZN15CPU_MATHEMATICS11printHelperI10continuousIfS_EEEvT_PKiiNSt7__cxx1112basic_stringIcSt11char_traitsIcESaIcEEEi+0x6b8>
  4078d8:	48 89 c3             	mov    %rax,%rbx
  4078db:	48 8d 45 c0          	lea    -0x40(%rbp),%rax
  4078df:	48 89 c7             	mov    %rax,%rdi
  4078e2:	e8 39 a4 ff ff       	callq  401d20 <_ZNSt7__cxx1112basic_stringIcSt11char_traitsIcESaIcEED1Ev@plt>
  4078e7:	48 8d 45 a0          	lea    -0x60(%rbp),%rax
  4078eb:	48 89 c7             	mov    %rax,%rdi
  4078ee:	e8 2d a4 ff ff       	callq  401d20 <_ZNSt7__cxx1112basic_stringIcSt11char_traitsIcESaIcEED1Ev@plt>
  4078f3:	48 89 d8             	mov    %rbx,%rax
  4078f6:	48 89 c7             	mov    %rax,%rdi
  4078f9:	e8 92 a6 ff ff       	callq  401f90 <_Unwind_Resume@plt>
  4078fe:	48 89 c3             	mov    %rax,%rbx
  407901:	48 8d 45 a0          	lea    -0x60(%rbp),%rax
  407905:	48 89 c7             	mov    %rax,%rdi
  407908:	e8 13 a4 ff ff       	callq  401d20 <_ZNSt7__cxx1112basic_stringIcSt11char_traitsIcESaIcEED1Ev@plt>
  40790d:	eb 28                	jmp    407937 <_ZN15CPU_MATHEMATICS11printHelperI10continuousIfS_EEEvT_PKiiNSt7__cxx1112basic_stringIcSt11char_traitsIcESaIcEEEi+0x708>
  40790f:	48 89 c3             	mov    %rax,%rbx
  407912:	48 8d 45 c0          	lea    -0x40(%rbp),%rax
  407916:	48 89 c7             	mov    %rax,%rdi
  407919:	e8 02 a4 ff ff       	callq  401d20 <_ZNSt7__cxx1112basic_stringIcSt11char_traitsIcESaIcEED1Ev@plt>
  40791e:	eb 03                	jmp    407923 <_ZN15CPU_MATHEMATICS11printHelperI10continuousIfS_EEEvT_PKiiNSt7__cxx1112basic_stringIcSt11char_traitsIcESaIcEEEi+0x6f4>
  407920:	48 89 c3             	mov    %rax,%rbx
  407923:	48 8d 85 6f ff ff ff 	lea    -0x91(%rbp),%rax
  40792a:	48 89 c7             	mov    %rax,%rdi
  40792d:	e8 de a4 ff ff       	callq  401e10 <_ZNSaIcED1Ev@plt>
  407932:	eb 03                	jmp    407937 <_ZN15CPU_MATHEMATICS11printHelperI10continuousIfS_EEEvT_PKiiNSt7__cxx1112basic_stringIcSt11char_traitsIcESaIcEEEi+0x708>
  407934:	48 89 c3             	mov    %rax,%rbx
  407937:	48 8d 45 80          	lea    -0x80(%rbp),%rax
  40793b:	48 89 c7             	mov    %rax,%rdi
  40793e:	e8 dd a3 ff ff       	callq  401d20 <_ZNSt7__cxx1112basic_stringIcSt11char_traitsIcESaIcEED1Ev@plt>
  407943:	48 89 d8             	mov    %rbx,%rax
  407946:	48 89 c7             	mov    %rax,%rdi
  407949:	e8 42 a6 ff ff       	callq  401f90 <_Unwind_Resume@plt>
  40794e:	48 89 c3             	mov    %rax,%rbx
  407951:	48 8d 45 a0          	lea    -0x60(%rbp),%rax
  407955:	48 89 c7             	mov    %rax,%rdi
  407958:	e8 c3 a3 ff ff       	callq  401d20 <_ZNSt7__cxx1112basic_stringIcSt11char_traitsIcESaIcEED1Ev@plt>
  40795d:	eb 28                	jmp    407987 <_ZN15CPU_MATHEMATICS11printHelperI10continuousIfS_EEEvT_PKiiNSt7__cxx1112basic_stringIcSt11char_traitsIcESaIcEEEi+0x758>
  40795f:	48 89 c3             	mov    %rax,%rbx
  407962:	48 8d 45 c0          	lea    -0x40(%rbp),%rax
  407966:	48 89 c7             	mov    %rax,%rdi
  407969:	e8 b2 a3 ff ff       	callq  401d20 <_ZNSt7__cxx1112basic_stringIcSt11char_traitsIcESaIcEED1Ev@plt>
  40796e:	eb 03                	jmp    407973 <_ZN15CPU_MATHEMATICS11printHelperI10continuousIfS_EEEvT_PKiiNSt7__cxx1112basic_stringIcSt11char_traitsIcESaIcEEEi+0x744>
  407970:	48 89 c3             	mov    %rax,%rbx
  407973:	48 8d 85 6f ff ff ff 	lea    -0x91(%rbp),%rax
  40797a:	48 89 c7             	mov    %rax,%rdi
  40797d:	e8 8e a4 ff ff       	callq  401e10 <_ZNSaIcED1Ev@plt>
  407982:	eb 03                	jmp    407987 <_ZN15CPU_MATHEMATICS11printHelperI10continuousIfS_EEEvT_PKiiNSt7__cxx1112basic_stringIcSt11char_traitsIcESaIcEEEi+0x758>
  407984:	48 89 c3             	mov    %rax,%rbx
  407987:	48 8d 45 80          	lea    -0x80(%rbp),%rax
  40798b:	48 89 c7             	mov    %rax,%rdi
  40798e:	e8 8d a3 ff ff       	callq  401d20 <_ZNSt7__cxx1112basic_stringIcSt11char_traitsIcESaIcEED1Ev@plt>
  407993:	48 89 d8             	mov    %rbx,%rax
  407996:	48 89 c7             	mov    %rax,%rdi
  407999:	e8 f2 a5 ff ff       	callq  401f90 <_Unwind_Resume@plt>
  40799e:	90                   	nop
  40799f:	48 8b 45 e8          	mov    -0x18(%rbp),%rax
  4079a3:	64 48 33 04 25 28 00 	xor    %fs:0x28,%rax
  4079aa:	00 00 
  4079ac:	74 05                	je     4079b3 <_ZN15CPU_MATHEMATICS11printHelperI10continuousIfS_EEEvT_PKiiNSt7__cxx1112basic_stringIcSt11char_traitsIcESaIcEEEi+0x784>
  4079ae:	e8 7d a4 ff ff       	callq  401e30 <__stack_chk_fail@plt>
  4079b3:	48 81 c4 c8 00 00 00 	add    $0xc8,%rsp
  4079ba:	5b                   	pop    %rbx
  4079bb:	5d                   	pop    %rbp
  4079bc:	c3                   	retq   
  4079bd:	90                   	nop

00000000004079be <_ZNK10continuousIf15CPU_MATHEMATICSEixEi>:
  4079be:	55                   	push   %rbp
  4079bf:	48 89 e5             	mov    %rsp,%rbp
  4079c2:	48 89 7d f8          	mov    %rdi,-0x8(%rbp)
  4079c6:	89 75 f4             	mov    %esi,-0xc(%rbp)
  4079c9:	48 8b 45 f8          	mov    -0x8(%rbp),%rax
  4079cd:	48 8b 40 08          	mov    0x8(%rax),%rax
  4079d1:	8b 55 f4             	mov    -0xc(%rbp),%edx
  4079d4:	48 63 d2             	movslq %edx,%rdx
  4079d7:	48 c1 e2 02          	shl    $0x2,%rdx
  4079db:	48 01 d0             	add    %rdx,%rax
  4079de:	5d                   	pop    %rbp
  4079df:	c3                   	retq   

00000000004079e0 <_ZN11Tensor_KingIf15CPU_MATHEMATICS7pBufferIfS0_10continuousIfS0_ES3_N9Operation3mulIfEEEEC1IIS3_S3_EEEbbDpT_>:
  4079e0:	55                   	push   %rbp
  4079e1:	48 89 e5             	mov    %rsp,%rbp
  4079e4:	48 83 ec 70          	sub    $0x70,%rsp
  4079e8:	48 89 7d a8          	mov    %rdi,-0x58(%rbp)
  4079ec:	89 d0                	mov    %edx,%eax
  4079ee:	48 89 4d 98          	mov    %rcx,-0x68(%rbp)
  4079f2:	4c 89 45 90          	mov    %r8,-0x70(%rbp)
  4079f6:	40 88 75 a4          	mov    %sil,-0x5c(%rbp)
  4079fa:	88 45 a0             	mov    %al,-0x60(%rbp)
  4079fd:	64 48 8b 04 25 28 00 	mov    %fs:0x28,%rax
  407a04:	00 00 
  407a06:	48 89 45 f8          	mov    %rax,-0x8(%rbp)
  407a0a:	31 c0                	xor    %eax,%eax
  407a0c:	48 8b 45 a8          	mov    -0x58(%rbp),%rax
  407a10:	48 89 c7             	mov    %rax,%rdi
  407a13:	e8 92 d9 ff ff       	callq  4053aa <_ZN10Tensor_AceC1Ev>
  407a18:	ba 28 d8 40 00       	mov    $0x40d828,%edx
  407a1d:	48 8b 45 a8          	mov    -0x58(%rbp),%rax
  407a21:	48 89 10             	mov    %rdx,(%rax)
  407a24:	48 8b 55 90          	mov    -0x70(%rbp),%rdx
  407a28:	48 8d 45 d0          	lea    -0x30(%rbp),%rax
  407a2c:	48 89 d6             	mov    %rdx,%rsi
  407a2f:	48 89 c7             	mov    %rax,%rdi
  407a32:	e8 6f bc ff ff       	callq  4036a6 <_ZN10continuousIf15CPU_MATHEMATICSEC1ERKS1_>
  407a37:	48 8b 55 98          	mov    -0x68(%rbp),%rdx
  407a3b:	48 8d 45 b0          	lea    -0x50(%rbp),%rax
  407a3f:	48 89 d6             	mov    %rdx,%rsi
  407a42:	48 89 c7             	mov    %rax,%rdi
  407a45:	e8 5c bc ff ff       	callq  4036a6 <_ZN10continuousIf15CPU_MATHEMATICSEC1ERKS1_>
  407a4a:	48 8b 45 a8          	mov    -0x58(%rbp),%rax
  407a4e:	48 8d 48 08          	lea    0x8(%rax),%rcx
  407a52:	48 8d 55 d0          	lea    -0x30(%rbp),%rdx
  407a56:	48 8d 45 b0          	lea    -0x50(%rbp),%rax
  407a5a:	48 89 c6             	mov    %rax,%rsi
  407a5d:	48 89 cf             	mov    %rcx,%rdi
  407a60:	e8 59 26 00 00       	callq  40a0be <_ZN7pBufferIf15CPU_MATHEMATICS10continuousIfS0_ES2_N9Operation3mulIfEEEC1ES2_S2_>
  407a65:	48 8d 45 b0          	lea    -0x50(%rbp),%rax
  407a69:	48 89 c7             	mov    %rax,%rdi
  407a6c:	e8 95 bc ff ff       	callq  403706 <_ZN10continuousIf15CPU_MATHEMATICSED1Ev>
  407a71:	48 8d 45 d0          	lea    -0x30(%rbp),%rax
  407a75:	48 89 c7             	mov    %rax,%rdi
  407a78:	e8 89 bc ff ff       	callq  403706 <_ZN10continuousIf15CPU_MATHEMATICSED1Ev>
  407a7d:	48 8b 45 a8          	mov    -0x58(%rbp),%rax
  407a81:	0f b6 55 a4          	movzbl -0x5c(%rbp),%edx
  407a85:	88 50 58             	mov    %dl,0x58(%rax)
  407a88:	48 8b 45 a8          	mov    -0x58(%rbp),%rax
  407a8c:	0f b6 55 a0          	movzbl -0x60(%rbp),%edx
  407a90:	88 50 59             	mov    %dl,0x59(%rax)
  407a93:	90                   	nop
  407a94:	48 8b 45 f8          	mov    -0x8(%rbp),%rax
  407a98:	64 48 33 04 25 28 00 	xor    %fs:0x28,%rax
  407a9f:	00 00 
  407aa1:	74 05                	je     407aa8 <_ZN11Tensor_KingIf15CPU_MATHEMATICS7pBufferIfS0_10continuousIfS0_ES3_N9Operation3mulIfEEEEC1IIS3_S3_EEEbbDpT_+0xc8>
  407aa3:	e8 88 a3 ff ff       	callq  401e30 <__stack_chk_fail@plt>
  407aa8:	c9                   	leaveq 
  407aa9:	c3                   	retq   

0000000000407aaa <_ZN7pBufferIf15CPU_MATHEMATICS10continuousIfS0_ES2_N9Operation3mulIfEEE7getDataEv>:
  407aaa:	55                   	push   %rbp
  407aab:	48 89 e5             	mov    %rsp,%rbp
  407aae:	41 54                	push   %r12
  407ab0:	53                   	push   %rbx
  407ab1:	48 83 ec 10          	sub    $0x10,%rsp
  407ab5:	48 89 7d e8          	mov    %rdi,-0x18(%rbp)
  407ab9:	bf 10 00 00 00       	mov    $0x10,%edi
  407abe:	e8 4d a2 ff ff       	callq  401d10 <__cxa_allocate_exception@plt>
  407ac3:	48 89 c3             	mov    %rax,%rbx
  407ac6:	be e0 c8 40 00       	mov    $0x40c8e0,%esi
  407acb:	48 89 df             	mov    %rbx,%rdi
  407ace:	e8 1d a5 ff ff       	callq  401ff0 <_ZNSt16invalid_argumentC1EPKc@plt>
  407ad3:	ba 50 1f 40 00       	mov    $0x401f50,%edx
  407ad8:	be 20 44 61 00       	mov    $0x614420,%esi
  407add:	48 89 df             	mov    %rbx,%rdi
  407ae0:	e8 8b a4 ff ff       	callq  401f70 <__cxa_throw@plt>
  407ae5:	49 89 c4             	mov    %rax,%r12
  407ae8:	48 89 df             	mov    %rbx,%rdi
  407aeb:	e8 70 a2 ff ff       	callq  401d60 <__cxa_free_exception@plt>
  407af0:	4c 89 e0             	mov    %r12,%rax
  407af3:	48 89 c7             	mov    %rax,%rdi
  407af6:	e8 95 a4 ff ff       	callq  401f90 <_Unwind_Resume@plt>
  407afb:	90                   	nop

0000000000407afc <_ZN7pBufferIf15CPU_MATHEMATICS10continuousIfS0_ES2_N9Operation3mulIfEEE8getShapeEv>:
  407afc:	55                   	push   %rbp
  407afd:	48 89 e5             	mov    %rsp,%rbp
  407b00:	41 54                	push   %r12
  407b02:	53                   	push   %rbx
  407b03:	48 83 ec 10          	sub    $0x10,%rsp
  407b07:	48 89 7d e8          	mov    %rdi,-0x18(%rbp)
  407b0b:	bf 10 00 00 00       	mov    $0x10,%edi
  407b10:	e8 fb a1 ff ff       	callq  401d10 <__cxa_allocate_exception@plt>
  407b15:	48 89 c3             	mov    %rax,%rbx
  407b18:	be 18 c9 40 00       	mov    $0x40c918,%esi
  407b1d:	48 89 df             	mov    %rbx,%rdi
  407b20:	e8 cb a4 ff ff       	callq  401ff0 <_ZNSt16invalid_argumentC1EPKc@plt>
  407b25:	ba 50 1f 40 00       	mov    $0x401f50,%edx
  407b2a:	be 20 44 61 00       	mov    $0x614420,%esi
  407b2f:	48 89 df             	mov    %rbx,%rdi
  407b32:	e8 39 a4 ff ff       	callq  401f70 <__cxa_throw@plt>
  407b37:	49 89 c4             	mov    %rax,%r12
  407b3a:	48 89 df             	mov    %rbx,%rdi
  407b3d:	e8 1e a2 ff ff       	callq  401d60 <__cxa_free_exception@plt>
  407b42:	4c 89 e0             	mov    %r12,%rax
  407b45:	48 89 c7             	mov    %rax,%rdi
  407b48:	e8 43 a4 ff ff       	callq  401f90 <_Unwind_Resume@plt>
  407b4d:	90                   	nop

0000000000407b4e <_ZN11Tensor_KingIf15CPU_MATHEMATICS7pBufferIfS0_10continuousIfS0_ES1_IfS0_S3_S3_N9Operation3mulIfEEENS4_3addIfEEEEC1IIS3_S7_EEEbbDpT_>:
  407b4e:	55                   	push   %rbp
  407b4f:	48 89 e5             	mov    %rsp,%rbp
  407b52:	48 81 ec a0 00 00 00 	sub    $0xa0,%rsp
  407b59:	48 89 bd 78 ff ff ff 	mov    %rdi,-0x88(%rbp)
  407b60:	89 d0                	mov    %edx,%eax
  407b62:	48 89 8d 68 ff ff ff 	mov    %rcx,-0x98(%rbp)
  407b69:	4c 89 85 60 ff ff ff 	mov    %r8,-0xa0(%rbp)
  407b70:	40 88 b5 74 ff ff ff 	mov    %sil,-0x8c(%rbp)
  407b77:	88 85 70 ff ff ff    	mov    %al,-0x90(%rbp)
  407b7d:	64 48 8b 04 25 28 00 	mov    %fs:0x28,%rax
  407b84:	00 00 
  407b86:	48 89 45 f8          	mov    %rax,-0x8(%rbp)
  407b8a:	31 c0                	xor    %eax,%eax
  407b8c:	48 8b 85 78 ff ff ff 	mov    -0x88(%rbp),%rax
  407b93:	48 89 c7             	mov    %rax,%rdi
  407b96:	e8 0f d8 ff ff       	callq  4053aa <_ZN10Tensor_AceC1Ev>
  407b9b:	ba 38 d7 40 00       	mov    $0x40d738,%edx
  407ba0:	48 8b 85 78 ff ff ff 	mov    -0x88(%rbp),%rax
  407ba7:	48 89 10             	mov    %rdx,(%rax)
  407baa:	48 8b 95 60 ff ff ff 	mov    -0xa0(%rbp),%rdx
  407bb1:	48 8d 45 a0          	lea    -0x60(%rbp),%rax
  407bb5:	48 89 d6             	mov    %rdx,%rsi
  407bb8:	48 89 c7             	mov    %rax,%rdi
  407bbb:	e8 9c bd ff ff       	callq  40395c <_ZN7pBufferIf15CPU_MATHEMATICS10continuousIfS0_ES2_N9Operation3mulIfEEEC1ERKS6_>
  407bc0:	48 8b 95 68 ff ff ff 	mov    -0x98(%rbp),%rdx
  407bc7:	48 8d 45 80          	lea    -0x80(%rbp),%rax
  407bcb:	48 89 d6             	mov    %rdx,%rsi
  407bce:	48 89 c7             	mov    %rax,%rdi
  407bd1:	e8 d0 ba ff ff       	callq  4036a6 <_ZN10continuousIf15CPU_MATHEMATICSEC1ERKS1_>
  407bd6:	48 8b 85 78 ff ff ff 	mov    -0x88(%rbp),%rax
  407bdd:	48 8d 48 08          	lea    0x8(%rax),%rcx
  407be1:	48 8d 55 a0          	lea    -0x60(%rbp),%rdx
  407be5:	48 8d 45 80          	lea    -0x80(%rbp),%rax
  407be9:	48 89 c6             	mov    %rax,%rsi
  407bec:	48 89 cf             	mov    %rcx,%rdi
  407bef:	e8 28 25 00 00       	callq  40a11c <_ZN7pBufferIf15CPU_MATHEMATICS10continuousIfS0_ES_IfS0_S2_S2_N9Operation3mulIfEEENS3_3addIfEEEC1ES2_S6_>
  407bf4:	48 8d 45 80          	lea    -0x80(%rbp),%rax
  407bf8:	48 89 c7             	mov    %rax,%rdi
  407bfb:	e8 06 bb ff ff       	callq  403706 <_ZN10continuousIf15CPU_MATHEMATICSED1Ev>
  407c00:	48 8d 45 a0          	lea    -0x60(%rbp),%rax
  407c04:	48 89 c7             	mov    %rax,%rdi
  407c07:	e8 b8 bd ff ff       	callq  4039c4 <_ZN7pBufferIf15CPU_MATHEMATICS10continuousIfS0_ES2_N9Operation3mulIfEEED1Ev>
  407c0c:	48 8b 85 78 ff ff ff 	mov    -0x88(%rbp),%rax
  407c13:	0f b6 95 74 ff ff ff 	movzbl -0x8c(%rbp),%edx
  407c1a:	88 90 88 00 00 00    	mov    %dl,0x88(%rax)
  407c20:	48 8b 85 78 ff ff ff 	mov    -0x88(%rbp),%rax
  407c27:	0f b6 95 70 ff ff ff 	movzbl -0x90(%rbp),%edx
  407c2e:	88 90 89 00 00 00    	mov    %dl,0x89(%rax)
  407c34:	90                   	nop
  407c35:	48 8b 45 f8          	mov    -0x8(%rbp),%rax
  407c39:	64 48 33 04 25 28 00 	xor    %fs:0x28,%rax
  407c40:	00 00 
  407c42:	74 05                	je     407c49 <_ZN11Tensor_KingIf15CPU_MATHEMATICS7pBufferIfS0_10continuousIfS0_ES1_IfS0_S3_S3_N9Operation3mulIfEEENS4_3addIfEEEEC1IIS3_S7_EEEbbDpT_+0xfb>
  407c44:	e8 e7 a1 ff ff       	callq  401e30 <__stack_chk_fail@plt>
  407c49:	c9                   	leaveq 
  407c4a:	c3                   	retq   
  407c4b:	90                   	nop

0000000000407c4c <_ZN7pBufferIf15CPU_MATHEMATICS10continuousIfS0_ES_IfS0_S2_S2_N9Operation3mulIfEEENS3_3addIfEEE7getDataEv>:
  407c4c:	55                   	push   %rbp
  407c4d:	48 89 e5             	mov    %rsp,%rbp
  407c50:	41 54                	push   %r12
  407c52:	53                   	push   %rbx
  407c53:	48 83 ec 10          	sub    $0x10,%rsp
  407c57:	48 89 7d e8          	mov    %rdi,-0x18(%rbp)
  407c5b:	bf 10 00 00 00       	mov    $0x10,%edi
  407c60:	e8 ab a0 ff ff       	callq  401d10 <__cxa_allocate_exception@plt>
  407c65:	48 89 c3             	mov    %rax,%rbx
  407c68:	be e0 c8 40 00       	mov    $0x40c8e0,%esi
  407c6d:	48 89 df             	mov    %rbx,%rdi
  407c70:	e8 7b a3 ff ff       	callq  401ff0 <_ZNSt16invalid_argumentC1EPKc@plt>
  407c75:	ba 50 1f 40 00       	mov    $0x401f50,%edx
  407c7a:	be 20 44 61 00       	mov    $0x614420,%esi
  407c7f:	48 89 df             	mov    %rbx,%rdi
  407c82:	e8 e9 a2 ff ff       	callq  401f70 <__cxa_throw@plt>
  407c87:	49 89 c4             	mov    %rax,%r12
  407c8a:	48 89 df             	mov    %rbx,%rdi
  407c8d:	e8 ce a0 ff ff       	callq  401d60 <__cxa_free_exception@plt>
  407c92:	4c 89 e0             	mov    %r12,%rax
  407c95:	48 89 c7             	mov    %rax,%rdi
  407c98:	e8 f3 a2 ff ff       	callq  401f90 <_Unwind_Resume@plt>
  407c9d:	90                   	nop

0000000000407c9e <_ZN7pBufferIf15CPU_MATHEMATICS10continuousIfS0_ES_IfS0_S2_S2_N9Operation3mulIfEEENS3_3addIfEEE8getShapeEv>:
  407c9e:	55                   	push   %rbp
  407c9f:	48 89 e5             	mov    %rsp,%rbp
  407ca2:	41 54                	push   %r12
  407ca4:	53                   	push   %rbx
  407ca5:	48 83 ec 10          	sub    $0x10,%rsp
  407ca9:	48 89 7d e8          	mov    %rdi,-0x18(%rbp)
  407cad:	bf 10 00 00 00       	mov    $0x10,%edi
  407cb2:	e8 59 a0 ff ff       	callq  401d10 <__cxa_allocate_exception@plt>
  407cb7:	48 89 c3             	mov    %rax,%rbx
  407cba:	be 18 c9 40 00       	mov    $0x40c918,%esi
  407cbf:	48 89 df             	mov    %rbx,%rdi
  407cc2:	e8 29 a3 ff ff       	callq  401ff0 <_ZNSt16invalid_argumentC1EPKc@plt>
  407cc7:	ba 50 1f 40 00       	mov    $0x401f50,%edx
  407ccc:	be 20 44 61 00       	mov    $0x614420,%esi
  407cd1:	48 89 df             	mov    %rbx,%rdi
  407cd4:	e8 97 a2 ff ff       	callq  401f70 <__cxa_throw@plt>
  407cd9:	49 89 c4             	mov    %rax,%r12
  407cdc:	48 89 df             	mov    %rbx,%rdi
  407cdf:	e8 7c a0 ff ff       	callq  401d60 <__cxa_free_exception@plt>
  407ce4:	4c 89 e0             	mov    %r12,%rax
  407ce7:	48 89 c7             	mov    %rax,%rdi
  407cea:	e8 a1 a2 ff ff       	callq  401f90 <_Unwind_Resume@plt>
  407cef:	90                   	nop

0000000000407cf0 <_ZNK7pBufferIf15CPU_MATHEMATICS10continuousIfS0_ES_IfS0_S2_S2_N9Operation3mulIfEEENS3_3addIfEEEixEi>:
  407cf0:	55                   	push   %rbp
  407cf1:	48 89 e5             	mov    %rsp,%rbp
  407cf4:	48 83 ec 10          	sub    $0x10,%rsp
  407cf8:	48 89 7d f8          	mov    %rdi,-0x8(%rbp)
  407cfc:	89 75 f4             	mov    %esi,-0xc(%rbp)
  407cff:	48 8b 45 f8          	mov    -0x8(%rbp),%rax
  407d03:	48 8d 50 30          	lea    0x30(%rax),%rdx
  407d07:	8b 45 f4             	mov    -0xc(%rbp),%eax
  407d0a:	89 c6                	mov    %eax,%esi
  407d0c:	48 89 d7             	mov    %rdx,%rdi
  407d0f:	e8 66 24 00 00       	callq  40a17a <_ZNK7pBufferIf15CPU_MATHEMATICS10continuousIfS0_ES2_N9Operation3mulIfEEEixEi>
  407d14:	f3 0f 11 45 f0       	movss  %xmm0,-0x10(%rbp)
  407d19:	48 8b 45 f8          	mov    -0x8(%rbp),%rax
  407d1d:	48 8d 50 10          	lea    0x10(%rax),%rdx
  407d21:	8b 45 f4             	mov    -0xc(%rbp),%eax
  407d24:	89 c6                	mov    %eax,%esi
  407d26:	48 89 d7             	mov    %rdx,%rdi
  407d29:	e8 90 fc ff ff       	callq  4079be <_ZNK10continuousIf15CPU_MATHEMATICSEixEi>
  407d2e:	8b 00                	mov    (%rax),%eax
  407d30:	48 8b 55 f8          	mov    -0x8(%rbp),%rdx
  407d34:	48 83 c2 08          	add    $0x8,%rdx
  407d38:	f3 0f 10 4d f0       	movss  -0x10(%rbp),%xmm1
  407d3d:	89 45 f0             	mov    %eax,-0x10(%rbp)
  407d40:	f3 0f 10 45 f0       	movss  -0x10(%rbp),%xmm0
  407d45:	48 89 d7             	mov    %rdx,%rdi
  407d48:	e8 91 24 00 00       	callq  40a1de <_ZNK9Operation3addIfEclIffEEfT_T0_>
  407d4d:	c9                   	leaveq 
  407d4e:	c3                   	retq   
  407d4f:	90                   	nop

0000000000407d50 <_ZN11Tensor_KingIf15CPU_MATHEMATICS19StackScalarAccessorIfS0_EEC1IIfEEEbbDpT_>:
  407d50:	55                   	push   %rbp
  407d51:	48 89 e5             	mov    %rsp,%rbp
  407d54:	48 83 ec 20          	sub    $0x20,%rsp
  407d58:	48 89 7d f8          	mov    %rdi,-0x8(%rbp)
  407d5c:	89 f1                	mov    %esi,%ecx
  407d5e:	89 d0                	mov    %edx,%eax
  407d60:	f3 0f 11 45 ec       	movss  %xmm0,-0x14(%rbp)
  407d65:	88 4d f4             	mov    %cl,-0xc(%rbp)
  407d68:	88 45 f0             	mov    %al,-0x10(%rbp)
  407d6b:	48 8b 45 f8          	mov    -0x8(%rbp),%rax
  407d6f:	48 89 c7             	mov    %rax,%rdi
  407d72:	e8 33 d6 ff ff       	callq  4053aa <_ZN10Tensor_AceC1Ev>
  407d77:	ba c8 d4 40 00       	mov    $0x40d4c8,%edx
  407d7c:	48 8b 45 f8          	mov    -0x8(%rbp),%rax
  407d80:	48 89 10             	mov    %rdx,(%rax)
  407d83:	48 8b 45 f8          	mov    -0x8(%rbp),%rax
  407d87:	48 8d 50 08          	lea    0x8(%rax),%rdx
  407d8b:	8b 45 ec             	mov    -0x14(%rbp),%eax
  407d8e:	89 45 e8             	mov    %eax,-0x18(%rbp)
  407d91:	f3 0f 10 45 e8       	movss  -0x18(%rbp),%xmm0
  407d96:	48 89 d7             	mov    %rdx,%rdi
  407d99:	e8 ae 24 00 00       	callq  40a24c <_ZN19StackScalarAccessorIf15CPU_MATHEMATICSEC1Ef>
  407d9e:	48 8b 45 f8          	mov    -0x8(%rbp),%rax
  407da2:	0f b6 55 f4          	movzbl -0xc(%rbp),%edx
  407da6:	88 50 20             	mov    %dl,0x20(%rax)
  407da9:	48 8b 45 f8          	mov    -0x8(%rbp),%rax
  407dad:	0f b6 55 f0          	movzbl -0x10(%rbp),%edx
  407db1:	88 50 21             	mov    %dl,0x21(%rax)
  407db4:	90                   	nop
  407db5:	c9                   	leaveq 
  407db6:	c3                   	retq   
  407db7:	90                   	nop

0000000000407db8 <_ZN19StackScalarAccessorIf15CPU_MATHEMATICSE7getDataEv>:
  407db8:	55                   	push   %rbp
  407db9:	48 89 e5             	mov    %rsp,%rbp
  407dbc:	41 54                	push   %r12
  407dbe:	53                   	push   %rbx
  407dbf:	48 83 ec 10          	sub    $0x10,%rsp
  407dc3:	48 89 7d e8          	mov    %rdi,-0x18(%rbp)
  407dc7:	bf 10 00 00 00       	mov    $0x10,%edi
  407dcc:	e8 3f 9f ff ff       	callq  401d10 <__cxa_allocate_exception@plt>
  407dd1:	48 89 c3             	mov    %rax,%rbx
  407dd4:	be 50 c9 40 00       	mov    $0x40c950,%esi
  407dd9:	48 89 df             	mov    %rbx,%rdi
  407ddc:	e8 0f a2 ff ff       	callq  401ff0 <_ZNSt16invalid_argumentC1EPKc@plt>
  407de1:	ba 50 1f 40 00       	mov    $0x401f50,%edx
  407de6:	be 20 44 61 00       	mov    $0x614420,%esi
  407deb:	48 89 df             	mov    %rbx,%rdi
  407dee:	e8 7d a1 ff ff       	callq  401f70 <__cxa_throw@plt>
  407df3:	49 89 c4             	mov    %rax,%r12
  407df6:	48 89 df             	mov    %rbx,%rdi
  407df9:	e8 62 9f ff ff       	callq  401d60 <__cxa_free_exception@plt>
  407dfe:	4c 89 e0             	mov    %r12,%rax
  407e01:	48 89 c7             	mov    %rax,%rdi
  407e04:	e8 87 a1 ff ff       	callq  401f90 <_Unwind_Resume@plt>

0000000000407e09 <_ZThn8_N19StackScalarAccessorIf15CPU_MATHEMATICSE7getDataEv>:
  407e09:	48 83 ef 08          	sub    $0x8,%rdi
  407e0d:	eb a9                	jmp    407db8 <_ZN19StackScalarAccessorIf15CPU_MATHEMATICSE7getDataEv>
  407e0f:	90                   	nop

0000000000407e10 <_ZN19StackScalarAccessorIf15CPU_MATHEMATICSE8getShapeEv>:
  407e10:	55                   	push   %rbp
  407e11:	48 89 e5             	mov    %rsp,%rbp
  407e14:	48 89 7d f8          	mov    %rdi,-0x8(%rbp)
  407e18:	b8 00 00 00 00       	mov    $0x0,%eax
  407e1d:	5d                   	pop    %rbp
  407e1e:	c3                   	retq   

0000000000407e1f <_ZThn8_N19StackScalarAccessorIf15CPU_MATHEMATICSE8getShapeEv>:
  407e1f:	48 83 ef 08          	sub    $0x8,%rdi
  407e23:	eb eb                	jmp    407e10 <_ZN19StackScalarAccessorIf15CPU_MATHEMATICSE8getShapeEv>
  407e25:	90                   	nop

0000000000407e26 <_ZN11Tensor_KingIf15CPU_MATHEMATICS7pBufferIfS0_19StackScalarAccessorIfS0_E10continuousIfS0_EN9Operation3subIfEEEEC1IIS3_S5_EEEbbDpT_>:
  407e26:	55                   	push   %rbp
  407e27:	48 89 e5             	mov    %rsp,%rbp
  407e2a:	48 83 ec 70          	sub    $0x70,%rsp
  407e2e:	48 89 7d a8          	mov    %rdi,-0x58(%rbp)
  407e32:	89 d0                	mov    %edx,%eax
  407e34:	48 89 4d 98          	mov    %rcx,-0x68(%rbp)
  407e38:	4c 89 45 90          	mov    %r8,-0x70(%rbp)
  407e3c:	40 88 75 a4          	mov    %sil,-0x5c(%rbp)
  407e40:	88 45 a0             	mov    %al,-0x60(%rbp)
  407e43:	64 48 8b 04 25 28 00 	mov    %fs:0x28,%rax
  407e4a:	00 00 
  407e4c:	48 89 45 f8          	mov    %rax,-0x8(%rbp)
  407e50:	31 c0                	xor    %eax,%eax
  407e52:	48 8b 45 a8          	mov    -0x58(%rbp),%rax
  407e56:	48 89 c7             	mov    %rax,%rdi
  407e59:	e8 4c d5 ff ff       	callq  4053aa <_ZN10Tensor_AceC1Ev>
  407e5e:	ba 98 d3 40 00       	mov    $0x40d398,%edx
  407e63:	48 8b 45 a8          	mov    -0x58(%rbp),%rax
  407e67:	48 89 10             	mov    %rdx,(%rax)
  407e6a:	48 8b 55 90          	mov    -0x70(%rbp),%rdx
  407e6e:	48 8d 45 d0          	lea    -0x30(%rbp),%rax
  407e72:	48 89 d6             	mov    %rdx,%rsi
  407e75:	48 89 c7             	mov    %rax,%rdi
  407e78:	e8 29 b8 ff ff       	callq  4036a6 <_ZN10continuousIf15CPU_MATHEMATICSEC1ERKS1_>
  407e7d:	48 8b 55 98          	mov    -0x68(%rbp),%rdx
  407e81:	48 8d 45 b0          	lea    -0x50(%rbp),%rax
  407e85:	48 89 d6             	mov    %rdx,%rsi
  407e88:	48 89 c7             	mov    %rax,%rdi
  407e8b:	e8 4e c0 ff ff       	callq  403ede <_ZN19StackScalarAccessorIf15CPU_MATHEMATICSEC1ERKS1_>
  407e90:	48 8b 45 a8          	mov    -0x58(%rbp),%rax
  407e94:	48 8d 48 08          	lea    0x8(%rax),%rcx
  407e98:	48 8d 55 d0          	lea    -0x30(%rbp),%rdx
  407e9c:	48 8d 45 b0          	lea    -0x50(%rbp),%rax
  407ea0:	48 89 c6             	mov    %rax,%rsi
  407ea3:	48 89 cf             	mov    %rcx,%rdi
  407ea6:	e8 f9 23 00 00       	callq  40a2a4 <_ZN7pBufferIf15CPU_MATHEMATICS19StackScalarAccessorIfS0_E10continuousIfS0_EN9Operation3subIfEEEC1ES2_S4_>
  407eab:	48 8d 45 b0          	lea    -0x50(%rbp),%rax
  407eaf:	48 89 c7             	mov    %rax,%rdi
  407eb2:	e8 93 c0 ff ff       	callq  403f4a <_ZN19StackScalarAccessorIf15CPU_MATHEMATICSED1Ev>
  407eb7:	48 8d 45 d0          	lea    -0x30(%rbp),%rax
  407ebb:	48 89 c7             	mov    %rax,%rdi
  407ebe:	e8 43 b8 ff ff       	callq  403706 <_ZN10continuousIf15CPU_MATHEMATICSED1Ev>
  407ec3:	48 8b 45 a8          	mov    -0x58(%rbp),%rax
  407ec7:	0f b6 55 a4          	movzbl -0x5c(%rbp),%edx
  407ecb:	88 50 50             	mov    %dl,0x50(%rax)
  407ece:	48 8b 45 a8          	mov    -0x58(%rbp),%rax
  407ed2:	0f b6 55 a0          	movzbl -0x60(%rbp),%edx
  407ed6:	88 50 51             	mov    %dl,0x51(%rax)
  407ed9:	90                   	nop
  407eda:	48 8b 45 f8          	mov    -0x8(%rbp),%rax
  407ede:	64 48 33 04 25 28 00 	xor    %fs:0x28,%rax
  407ee5:	00 00 
  407ee7:	74 05                	je     407eee <_ZN11Tensor_KingIf15CPU_MATHEMATICS7pBufferIfS0_19StackScalarAccessorIfS0_E10continuousIfS0_EN9Operation3subIfEEEEC1IIS3_S5_EEEbbDpT_+0xc8>
  407ee9:	e8 42 9f ff ff       	callq  401e30 <__stack_chk_fail@plt>
  407eee:	c9                   	leaveq 
  407eef:	c3                   	retq   

0000000000407ef0 <_ZN7pBufferIf15CPU_MATHEMATICS19StackScalarAccessorIfS0_E10continuousIfS0_EN9Operation3subIfEEE7getDataEv>:
  407ef0:	55                   	push   %rbp
  407ef1:	48 89 e5             	mov    %rsp,%rbp
  407ef4:	41 54                	push   %r12
  407ef6:	53                   	push   %rbx
  407ef7:	48 83 ec 10          	sub    $0x10,%rsp
  407efb:	48 89 7d e8          	mov    %rdi,-0x18(%rbp)
  407eff:	bf 10 00 00 00       	mov    $0x10,%edi
  407f04:	e8 07 9e ff ff       	callq  401d10 <__cxa_allocate_exception@plt>
  407f09:	48 89 c3             	mov    %rax,%rbx
  407f0c:	be e0 c8 40 00       	mov    $0x40c8e0,%esi
  407f11:	48 89 df             	mov    %rbx,%rdi
  407f14:	e8 d7 a0 ff ff       	callq  401ff0 <_ZNSt16invalid_argumentC1EPKc@plt>
  407f19:	ba 50 1f 40 00       	mov    $0x401f50,%edx
  407f1e:	be 20 44 61 00       	mov    $0x614420,%esi
  407f23:	48 89 df             	mov    %rbx,%rdi
  407f26:	e8 45 a0 ff ff       	callq  401f70 <__cxa_throw@plt>
  407f2b:	49 89 c4             	mov    %rax,%r12
  407f2e:	48 89 df             	mov    %rbx,%rdi
  407f31:	e8 2a 9e ff ff       	callq  401d60 <__cxa_free_exception@plt>
  407f36:	4c 89 e0             	mov    %r12,%rax
  407f39:	48 89 c7             	mov    %rax,%rdi
  407f3c:	e8 4f a0 ff ff       	callq  401f90 <_Unwind_Resume@plt>
  407f41:	90                   	nop

0000000000407f42 <_ZN7pBufferIf15CPU_MATHEMATICS19StackScalarAccessorIfS0_E10continuousIfS0_EN9Operation3subIfEEE8getShapeEv>:
  407f42:	55                   	push   %rbp
  407f43:	48 89 e5             	mov    %rsp,%rbp
  407f46:	41 54                	push   %r12
  407f48:	53                   	push   %rbx
  407f49:	48 83 ec 10          	sub    $0x10,%rsp
  407f4d:	48 89 7d e8          	mov    %rdi,-0x18(%rbp)
  407f51:	bf 10 00 00 00       	mov    $0x10,%edi
  407f56:	e8 b5 9d ff ff       	callq  401d10 <__cxa_allocate_exception@plt>
  407f5b:	48 89 c3             	mov    %rax,%rbx
  407f5e:	be 18 c9 40 00       	mov    $0x40c918,%esi
  407f63:	48 89 df             	mov    %rbx,%rdi
  407f66:	e8 85 a0 ff ff       	callq  401ff0 <_ZNSt16invalid_argumentC1EPKc@plt>
  407f6b:	ba 50 1f 40 00       	mov    $0x401f50,%edx
  407f70:	be 20 44 61 00       	mov    $0x614420,%esi
  407f75:	48 89 df             	mov    %rbx,%rdi
  407f78:	e8 f3 9f ff ff       	callq  401f70 <__cxa_throw@plt>
  407f7d:	49 89 c4             	mov    %rax,%r12
  407f80:	48 89 df             	mov    %rbx,%rdi
  407f83:	e8 d8 9d ff ff       	callq  401d60 <__cxa_free_exception@plt>
  407f88:	4c 89 e0             	mov    %r12,%rax
  407f8b:	48 89 c7             	mov    %rax,%rdi
  407f8e:	e8 fd 9f ff ff       	callq  401f90 <_Unwind_Resume@plt>
  407f93:	90                   	nop

0000000000407f94 <_ZNK7pBufferIf15CPU_MATHEMATICS19StackScalarAccessorIfS0_E10continuousIfS0_EN9Operation3subIfEEEixEi>:
  407f94:	55                   	push   %rbp
  407f95:	48 89 e5             	mov    %rsp,%rbp
  407f98:	48 83 ec 10          	sub    $0x10,%rsp
  407f9c:	48 89 7d f8          	mov    %rdi,-0x8(%rbp)
  407fa0:	89 75 f4             	mov    %esi,-0xc(%rbp)
  407fa3:	48 8b 45 f8          	mov    -0x8(%rbp),%rax
  407fa7:	48 8d 50 28          	lea    0x28(%rax),%rdx
  407fab:	8b 45 f4             	mov    -0xc(%rbp),%eax
  407fae:	89 c6                	mov    %eax,%esi
  407fb0:	48 89 d7             	mov    %rdx,%rdi
  407fb3:	e8 06 fa ff ff       	callq  4079be <_ZNK10continuousIf15CPU_MATHEMATICSEixEi>
  407fb8:	f3 0f 10 10          	movss  (%rax),%xmm2
  407fbc:	f3 0f 11 55 f0       	movss  %xmm2,-0x10(%rbp)
  407fc1:	b9 02 a3 40 00       	mov    $0x40a302,%ecx
  407fc6:	48 8b 45 f8          	mov    -0x8(%rbp),%rax
  407fca:	48 8d 50 10          	lea    0x10(%rax),%rdx
  407fce:	8b 45 f4             	mov    -0xc(%rbp),%eax
  407fd1:	89 c6                	mov    %eax,%esi
  407fd3:	48 89 d7             	mov    %rdx,%rdi
  407fd6:	ff d1                	callq  *%rcx
  407fd8:	48 8b 45 f8          	mov    -0x8(%rbp),%rax
  407fdc:	48 83 c0 08          	add    $0x8,%rax
  407fe0:	f3 0f 10 4d f0       	movss  -0x10(%rbp),%xmm1
  407fe5:	48 89 c7             	mov    %rax,%rdi
  407fe8:	e8 31 23 00 00       	callq  40a31e <_ZNK9Operation3subIfEclIffEEfT_T0_>
  407fed:	c9                   	leaveq 
  407fee:	c3                   	retq   
  407fef:	90                   	nop

0000000000407ff0 <_ZN12Tensor_QueenIf15CPU_MATHEMATICS23ReferenceScalarAccessorIfS0_EEC1IIPfEEEbDpT_>:
  407ff0:	55                   	push   %rbp
  407ff1:	48 89 e5             	mov    %rsp,%rbp
  407ff4:	48 83 ec 20          	sub    $0x20,%rsp
  407ff8:	48 89 7d f8          	mov    %rdi,-0x8(%rbp)
  407ffc:	89 f0                	mov    %esi,%eax
  407ffe:	48 89 55 e8          	mov    %rdx,-0x18(%rbp)
  408002:	88 45 f4             	mov    %al,-0xc(%rbp)
  408005:	0f b6 55 f4          	movzbl -0xc(%rbp),%edx
  408009:	48 8b 45 f8          	mov    -0x8(%rbp),%rax
  40800d:	48 8b 4d e8          	mov    -0x18(%rbp),%rcx
  408011:	be 00 00 00 00       	mov    $0x0,%esi
  408016:	48 89 c7             	mov    %rax,%rdi
  408019:	e8 1e 23 00 00       	callq  40a33c <_ZN11Tensor_KingIf15CPU_MATHEMATICS23ReferenceScalarAccessorIfS0_EEC1IIPfEEEbbDpT_>
  40801e:	ba 18 d1 40 00       	mov    $0x40d118,%edx
  408023:	48 8b 45 f8          	mov    -0x8(%rbp),%rax
  408027:	48 89 10             	mov    %rdx,(%rax)
  40802a:	90                   	nop
  40802b:	c9                   	leaveq 
  40802c:	c3                   	retq   
  40802d:	90                   	nop

000000000040802e <_ZN23ReferenceScalarAccessorIf15CPU_MATHEMATICSE7getDataEv>:
  40802e:	55                   	push   %rbp
  40802f:	48 89 e5             	mov    %rsp,%rbp
  408032:	48 89 7d f8          	mov    %rdi,-0x8(%rbp)
  408036:	48 8b 45 f8          	mov    -0x8(%rbp),%rax
  40803a:	48 8b 40 10          	mov    0x10(%rax),%rax
  40803e:	5d                   	pop    %rbp
  40803f:	c3                   	retq   

0000000000408040 <_ZThn8_N23ReferenceScalarAccessorIf15CPU_MATHEMATICSE7getDataEv>:
  408040:	48 83 ef 08          	sub    $0x8,%rdi
  408044:	eb e8                	jmp    40802e <_ZN23ReferenceScalarAccessorIf15CPU_MATHEMATICSE7getDataEv>

0000000000408046 <_ZN23ReferenceScalarAccessorIf15CPU_MATHEMATICSE8getShapeEv>:
  408046:	55                   	push   %rbp
  408047:	48 89 e5             	mov    %rsp,%rbp
  40804a:	48 89 7d f8          	mov    %rdi,-0x8(%rbp)
  40804e:	b8 00 00 00 00       	mov    $0x0,%eax
  408053:	5d                   	pop    %rbp
  408054:	c3                   	retq   

0000000000408055 <_ZThn8_N23ReferenceScalarAccessorIf15CPU_MATHEMATICSE8getShapeEv>:
  408055:	48 83 ef 08          	sub    $0x8,%rdi
  408059:	eb eb                	jmp    408046 <_ZN23ReferenceScalarAccessorIf15CPU_MATHEMATICSE8getShapeEv>
  40805b:	90                   	nop

000000000040805c <_ZNK23ReferenceScalarAccessorIf15CPU_MATHEMATICSE5orderEv>:
  40805c:	55                   	push   %rbp
  40805d:	48 89 e5             	mov    %rsp,%rbp
  408060:	48 89 7d f8          	mov    %rdi,-0x8(%rbp)
  408064:	b8 01 00 00 00       	mov    $0x1,%eax
  408069:	5d                   	pop    %rbp
  40806a:	c3                   	retq   

000000000040806b <_ZThn8_NK23ReferenceScalarAccessorIf15CPU_MATHEMATICSE5orderEv>:
  40806b:	48 83 ef 08          	sub    $0x8,%rdi
  40806f:	eb eb                	jmp    40805c <_ZNK23ReferenceScalarAccessorIf15CPU_MATHEMATICSE5orderEv>

0000000000408071 <_ZN15CPU_MATHEMATICS11printHelperI23ReferenceScalarAccessorIfS_EEEvT_PKiiNSt7__cxx1112basic_stringIcSt11char_traitsIcESaIcEEEi>:
  408071:	55                   	push   %rbp
  408072:	48 89 e5             	mov    %rsp,%rbp
  408075:	53                   	push   %rbx
  408076:	48 81 ec c8 00 00 00 	sub    $0xc8,%rsp
  40807d:	48 89 bd 58 ff ff ff 	mov    %rdi,-0xa8(%rbp)
  408084:	48 89 b5 50 ff ff ff 	mov    %rsi,-0xb0(%rbp)
  40808b:	89 95 4c ff ff ff    	mov    %edx,-0xb4(%rbp)
  408091:	48 89 8d 40 ff ff ff 	mov    %rcx,-0xc0(%rbp)
  408098:	44 89 85 48 ff ff ff 	mov    %r8d,-0xb8(%rbp)
  40809f:	64 48 8b 04 25 28 00 	mov    %fs:0x28,%rax
  4080a6:	00 00 
  4080a8:	48 89 45 e8          	mov    %rax,-0x18(%rbp)
  4080ac:	31 c0                	xor    %eax,%eax
  4080ae:	83 ad 4c ff ff ff 01 	subl   $0x1,-0xb4(%rbp)
  4080b5:	83 bd 4c ff ff ff 01 	cmpl   $0x1,-0xb4(%rbp)
  4080bc:	0f 8e e8 01 00 00    	jle    4082aa <_ZN15CPU_MATHEMATICS11printHelperI23ReferenceScalarAccessorIfS_EEEvT_PKiiNSt7__cxx1112basic_stringIcSt11char_traitsIcESaIcEEEi+0x239>
  4080c2:	48 8b 85 40 ff ff ff 	mov    -0xc0(%rbp),%rax
  4080c9:	48 89 c6             	mov    %rax,%rsi
  4080cc:	bf 60 42 61 00       	mov    $0x614260,%edi
  4080d1:	e8 ca 9c ff ff       	callq  401da0 <_ZStlsIcSt11char_traitsIcESaIcEERSt13basic_ostreamIT_T0_ES7_RKNSt7__cxx1112basic_stringIS4_S5_T1_EE@plt>
  4080d6:	be aa c8 40 00       	mov    $0x40c8aa,%esi
  4080db:	48 89 c7             	mov    %rax,%rdi
  4080de:	e8 dd 9c ff ff       	callq  401dc0 <_ZStlsISt11char_traitsIcEERSt13basic_ostreamIcT_ES5_PKc@plt>
  4080e3:	48 89 c2             	mov    %rax,%rdx
  4080e6:	8b 85 4c ff ff ff    	mov    -0xb4(%rbp),%eax
  4080ec:	89 c6                	mov    %eax,%esi
  4080ee:	48 89 d7             	mov    %rdx,%rdi
  4080f1:	e8 8a 9e ff ff       	callq  401f80 <_ZNSolsEi@plt>
  4080f6:	be bf c8 40 00       	mov    $0x40c8bf,%esi
  4080fb:	48 89 c7             	mov    %rax,%rdi
  4080fe:	e8 bd 9c ff ff       	callq  401dc0 <_ZStlsISt11char_traitsIcEERSt13basic_ostreamIcT_ES5_PKc@plt>
  408103:	be 00 1d 40 00       	mov    $0x401d00,%esi
  408108:	48 89 c7             	mov    %rax,%rdi
  40810b:	e8 e0 9c ff ff       	callq  401df0 <_ZNSolsEPFRSoS_E@plt>
  408110:	48 8b 85 40 ff ff ff 	mov    -0xc0(%rbp),%rax
  408117:	be d4 c8 40 00       	mov    $0x40c8d4,%esi
  40811c:	48 89 c7             	mov    %rax,%rdi
  40811f:	e8 8c 9c ff ff       	callq  401db0 <_ZNSt7__cxx1112basic_stringIcSt11char_traitsIcESaIcEEpLEPKc@plt>
  408124:	c7 85 70 ff ff ff 00 	movl   $0x0,-0x90(%rbp)
  40812b:	00 00 00 
  40812e:	8b 85 4c ff ff ff    	mov    -0xb4(%rbp),%eax
  408134:	48 98                	cltq   
  408136:	48 8d 14 85 00 00 00 	lea    0x0(,%rax,4),%rdx
  40813d:	00 
  40813e:	48 8b 85 50 ff ff ff 	mov    -0xb0(%rbp),%rax
  408145:	48 01 d0             	add    %rdx,%rax
  408148:	8b 00                	mov    (%rax),%eax
  40814a:	3b 85 70 ff ff ff    	cmp    -0x90(%rbp),%eax
  408150:	0f 8e 8b 00 00 00    	jle    4081e1 <_ZN15CPU_MATHEMATICS11printHelperI23ReferenceScalarAccessorIfS_EEEvT_PKiiNSt7__cxx1112basic_stringIcSt11char_traitsIcESaIcEEEi+0x170>
  408156:	48 8b 95 40 ff ff ff 	mov    -0xc0(%rbp),%rdx
  40815d:	48 8d 45 c0          	lea    -0x40(%rbp),%rax
  408161:	48 89 d6             	mov    %rdx,%rsi
  408164:	48 89 c7             	mov    %rax,%rdi
  408167:	e8 84 9b ff ff       	callq  401cf0 <_ZNSt7__cxx1112basic_stringIcSt11char_traitsIcESaIcEEC1ERKS4_@plt>
  40816c:	b9 1c 88 40 00       	mov    $0x40881c,%ecx
  408171:	8b 85 4c ff ff ff    	mov    -0xb4(%rbp),%eax
  408177:	48 98                	cltq   
  408179:	48 c1 e0 02          	shl    $0x2,%rax
  40817d:	48 8d 50 fc          	lea    -0x4(%rax),%rdx
  408181:	48 8b 85 50 ff ff ff 	mov    -0xb0(%rbp),%rax
  408188:	48 01 d0             	add    %rdx,%rax
  40818b:	8b 00                	mov    (%rax),%eax
  40818d:	0f af 85 70 ff ff ff 	imul   -0x90(%rbp),%eax
  408194:	89 c2                	mov    %eax,%edx
  408196:	48 8b 85 58 ff ff ff 	mov    -0xa8(%rbp),%rax
  40819d:	89 d6                	mov    %edx,%esi
  40819f:	48 89 c7             	mov    %rax,%rdi
  4081a2:	ff d1                	callq  *%rcx
  4081a4:	48 89 c7             	mov    %rax,%rdi
  4081a7:	8b b5 48 ff ff ff    	mov    -0xb8(%rbp),%esi
  4081ad:	48 8d 4d c0          	lea    -0x40(%rbp),%rcx
  4081b1:	8b 95 4c ff ff ff    	mov    -0xb4(%rbp),%edx
  4081b7:	48 8b 85 50 ff ff ff 	mov    -0xb0(%rbp),%rax
  4081be:	41 89 f0             	mov    %esi,%r8d
  4081c1:	48 89 c6             	mov    %rax,%rsi
  4081c4:	e8 62 17 00 00       	callq  40992b <_ZN15CPU_MATHEMATICS11printHelperIPKfEEvT_PKiiNSt7__cxx1112basic_stringIcSt11char_traitsIcESaIcEEEi>
  4081c9:	48 8d 45 c0          	lea    -0x40(%rbp),%rax
  4081cd:	48 89 c7             	mov    %rax,%rdi
  4081d0:	e8 4b 9b ff ff       	callq  401d20 <_ZNSt7__cxx1112basic_stringIcSt11char_traitsIcESaIcEED1Ev@plt>
  4081d5:	83 85 70 ff ff ff 01 	addl   $0x1,-0x90(%rbp)
  4081dc:	e9 4d ff ff ff       	jmpq   40812e <_ZN15CPU_MATHEMATICS11printHelperI23ReferenceScalarAccessorIfS_EEEvT_PKiiNSt7__cxx1112basic_stringIcSt11char_traitsIcESaIcEEEi+0xbd>
  4081e1:	48 8d 45 a0          	lea    -0x60(%rbp),%rax
  4081e5:	8b 95 4c ff ff ff    	mov    -0xb4(%rbp),%edx
  4081eb:	89 d6                	mov    %edx,%esi
  4081ed:	48 89 c7             	mov    %rax,%rdi
  4081f0:	e8 c4 b0 ff ff       	callq  4032b9 <_ZNSt7__cxx119to_stringEi>
  4081f5:	48 8d 85 6f ff ff ff 	lea    -0x91(%rbp),%rax
  4081fc:	48 89 c7             	mov    %rax,%rdi
  4081ff:	e8 9c 9d ff ff       	callq  401fa0 <_ZNSaIcEC1Ev@plt>
  408204:	48 8d 45 a0          	lea    -0x60(%rbp),%rax
  408208:	48 89 c7             	mov    %rax,%rdi
  40820b:	e8 d0 9c ff ff       	callq  401ee0 <_ZNKSt7__cxx1112basic_stringIcSt11char_traitsIcESaIcEE6lengthEv@plt>
  408210:	48 89 c6             	mov    %rax,%rsi
  408213:	48 8d 95 6f ff ff ff 	lea    -0x91(%rbp),%rdx
  40821a:	48 8d 45 c0          	lea    -0x40(%rbp),%rax
  40821e:	48 89 d1             	mov    %rdx,%rcx
  408221:	48 89 f2             	mov    %rsi,%rdx
  408224:	be d9 c8 40 00       	mov    $0x40c8d9,%esi
  408229:	48 89 c7             	mov    %rax,%rdi
  40822c:	e8 0f 9c ff ff       	callq  401e40 <_ZNSt7__cxx1112basic_stringIcSt11char_traitsIcESaIcEEC1EPKcmRKS3_@plt>
  408231:	48 8d 85 6f ff ff ff 	lea    -0x91(%rbp),%rax
  408238:	48 89 c7             	mov    %rax,%rdi
  40823b:	e8 d0 9b ff ff       	callq  401e10 <_ZNSaIcED1Ev@plt>
  408240:	48 8b 85 40 ff ff ff 	mov    -0xc0(%rbp),%rax
  408247:	48 89 c6             	mov    %rax,%rsi
  40824a:	bf 60 42 61 00       	mov    $0x614260,%edi
  40824f:	e8 4c 9b ff ff       	callq  401da0 <_ZStlsIcSt11char_traitsIcESaIcEERSt13basic_ostreamIT_T0_ES7_RKNSt7__cxx1112basic_stringIS4_S5_T1_EE@plt>
  408254:	be aa c8 40 00       	mov    $0x40c8aa,%esi
  408259:	48 89 c7             	mov    %rax,%rdi
  40825c:	e8 5f 9b ff ff       	callq  401dc0 <_ZStlsISt11char_traitsIcEERSt13basic_ostreamIcT_ES5_PKc@plt>
  408261:	48 89 c2             	mov    %rax,%rdx
  408264:	48 8d 45 c0          	lea    -0x40(%rbp),%rax
  408268:	48 89 c6             	mov    %rax,%rsi
  40826b:	48 89 d7             	mov    %rdx,%rdi
  40826e:	e8 2d 9b ff ff       	callq  401da0 <_ZStlsIcSt11char_traitsIcESaIcEERSt13basic_ostreamIT_T0_ES7_RKNSt7__cxx1112basic_stringIS4_S5_T1_EE@plt>
  408273:	be bf c8 40 00       	mov    $0x40c8bf,%esi
  408278:	48 89 c7             	mov    %rax,%rdi
  40827b:	e8 40 9b ff ff       	callq  401dc0 <_ZStlsISt11char_traitsIcEERSt13basic_ostreamIcT_ES5_PKc@plt>
  408280:	be 00 1d 40 00       	mov    $0x401d00,%esi
  408285:	48 89 c7             	mov    %rax,%rdi
  408288:	e8 63 9b ff ff       	callq  401df0 <_ZNSolsEPFRSoS_E@plt>
  40828d:	48 8d 45 c0          	lea    -0x40(%rbp),%rax
  408291:	48 89 c7             	mov    %rax,%rdi
  408294:	e8 87 9a ff ff       	callq  401d20 <_ZNSt7__cxx1112basic_stringIcSt11char_traitsIcESaIcEED1Ev@plt>
  408299:	48 8d 45 a0          	lea    -0x60(%rbp),%rax
  40829d:	48 89 c7             	mov    %rax,%rdi
  4082a0:	e8 7b 9a ff ff       	callq  401d20 <_ZNSt7__cxx1112basic_stringIcSt11char_traitsIcESaIcEED1Ev@plt>
  4082a5:	e9 3c 05 00 00       	jmpq   4087e6 <_ZN15CPU_MATHEMATICS11printHelperI23ReferenceScalarAccessorIfS_EEEvT_PKiiNSt7__cxx1112basic_stringIcSt11char_traitsIcESaIcEEEi+0x775>
  4082aa:	83 bd 4c ff ff ff 01 	cmpl   $0x1,-0xb4(%rbp)
  4082b1:	0f 85 55 02 00 00    	jne    40850c <_ZN15CPU_MATHEMATICS11printHelperI23ReferenceScalarAccessorIfS_EEEvT_PKiiNSt7__cxx1112basic_stringIcSt11char_traitsIcESaIcEEEi+0x49b>
  4082b7:	c7 85 74 ff ff ff 00 	movl   $0x0,-0x8c(%rbp)
  4082be:	00 00 00 
  4082c1:	8b 85 4c ff ff ff    	mov    -0xb4(%rbp),%eax
  4082c7:	48 98                	cltq   
  4082c9:	48 c1 e0 02          	shl    $0x2,%rax
  4082cd:	48 8d 50 fc          	lea    -0x4(%rax),%rdx
  4082d1:	48 8b 85 50 ff ff ff 	mov    -0xb0(%rbp),%rax
  4082d8:	48 01 d0             	add    %rdx,%rax
  4082db:	8b 00                	mov    (%rax),%eax
  4082dd:	3b 85 74 ff ff ff    	cmp    -0x8c(%rbp),%eax
  4082e3:	0f 8e fd 04 00 00    	jle    4087e6 <_ZN15CPU_MATHEMATICS11printHelperI23ReferenceScalarAccessorIfS_EEEvT_PKiiNSt7__cxx1112basic_stringIcSt11char_traitsIcESaIcEEEi+0x775>
  4082e9:	be b8 c7 40 00       	mov    $0x40c7b8,%esi
  4082ee:	bf 60 42 61 00       	mov    $0x614260,%edi
  4082f3:	e8 c8 9a ff ff       	callq  401dc0 <_ZStlsISt11char_traitsIcEERSt13basic_ostreamIcT_ES5_PKc@plt>
  4082f8:	c7 85 78 ff ff ff 00 	movl   $0x0,-0x88(%rbp)
  4082ff:	00 00 00 
  408302:	8b 85 4c ff ff ff    	mov    -0xb4(%rbp),%eax
  408308:	48 98                	cltq   
  40830a:	48 8d 14 85 00 00 00 	lea    0x0(,%rax,4),%rdx
  408311:	00 
  408312:	48 8b 85 50 ff ff ff 	mov    -0xb0(%rbp),%rax
  408319:	48 01 d0             	add    %rdx,%rax
  40831c:	8b 00                	mov    (%rax),%eax
  40831e:	3b 85 78 ff ff ff    	cmp    -0x88(%rbp),%eax
  408324:	0f 8e b8 01 00 00    	jle    4084e2 <_ZN15CPU_MATHEMATICS11printHelperI23ReferenceScalarAccessorIfS_EEEvT_PKiiNSt7__cxx1112basic_stringIcSt11char_traitsIcESaIcEEEi+0x471>
  40832a:	b9 1c 88 40 00       	mov    $0x40881c,%ecx
  40832f:	8b 85 4c ff ff ff    	mov    -0xb4(%rbp),%eax
  408335:	48 98                	cltq   
  408337:	48 c1 e0 02          	shl    $0x2,%rax
  40833b:	48 8d 50 fc          	lea    -0x4(%rax),%rdx
  40833f:	48 8b 85 50 ff ff ff 	mov    -0xb0(%rbp),%rax
  408346:	48 01 d0             	add    %rdx,%rax
  408349:	8b 00                	mov    (%rax),%eax
  40834b:	0f af 85 78 ff ff ff 	imul   -0x88(%rbp),%eax
  408352:	89 c2                	mov    %eax,%edx
  408354:	8b 85 74 ff ff ff    	mov    -0x8c(%rbp),%eax
  40835a:	01 c2                	add    %eax,%edx
  40835c:	48 8b 85 58 ff ff ff 	mov    -0xa8(%rbp),%rax
  408363:	89 d6                	mov    %edx,%esi
  408365:	48 89 c7             	mov    %rax,%rdi
  408368:	ff d1                	callq  *%rcx
  40836a:	8b 10                	mov    (%rax),%edx
  40836c:	48 8d 45 80          	lea    -0x80(%rbp),%rax
  408370:	89 95 3c ff ff ff    	mov    %edx,-0xc4(%rbp)
  408376:	f3 0f 10 85 3c ff ff 	movss  -0xc4(%rbp),%xmm0
  40837d:	ff 
  40837e:	48 89 c7             	mov    %rax,%rdi
  408381:	e8 94 af ff ff       	callq  40331a <_ZNSt7__cxx119to_stringEf>
  408386:	48 8d 45 80          	lea    -0x80(%rbp),%rax
  40838a:	48 89 c7             	mov    %rax,%rdi
  40838d:	e8 4e 9b ff ff       	callq  401ee0 <_ZNKSt7__cxx1112basic_stringIcSt11char_traitsIcESaIcEE6lengthEv@plt>
  408392:	48 89 c2             	mov    %rax,%rdx
  408395:	8b 85 48 ff ff ff    	mov    -0xb8(%rbp),%eax
  40839b:	48 98                	cltq   
  40839d:	48 39 c2             	cmp    %rax,%rdx
  4083a0:	73 0e                	jae    4083b0 <_ZN15CPU_MATHEMATICS11printHelperI23ReferenceScalarAccessorIfS_EEEvT_PKiiNSt7__cxx1112basic_stringIcSt11char_traitsIcESaIcEEEi+0x33f>
  4083a2:	48 8d 45 80          	lea    -0x80(%rbp),%rax
  4083a6:	48 89 c7             	mov    %rax,%rdi
  4083a9:	e8 32 9b ff ff       	callq  401ee0 <_ZNKSt7__cxx1112basic_stringIcSt11char_traitsIcESaIcEE6lengthEv@plt>
  4083ae:	eb 08                	jmp    4083b8 <_ZN15CPU_MATHEMATICS11printHelperI23ReferenceScalarAccessorIfS_EEEvT_PKiiNSt7__cxx1112basic_stringIcSt11char_traitsIcESaIcEEEi+0x347>
  4083b0:	8b 85 48 ff ff ff    	mov    -0xb8(%rbp),%eax
  4083b6:	48 98                	cltq   
  4083b8:	48 8d 7d a0          	lea    -0x60(%rbp),%rdi
  4083bc:	48 8d 75 80          	lea    -0x80(%rbp),%rsi
  4083c0:	48 89 c1             	mov    %rax,%rcx
  4083c3:	ba 00 00 00 00       	mov    $0x0,%edx
  4083c8:	e8 13 9a ff ff       	callq  401de0 <_ZNKSt7__cxx1112basic_stringIcSt11char_traitsIcESaIcEE6substrEmm@plt>
  4083cd:	48 8d 55 a0          	lea    -0x60(%rbp),%rdx
  4083d1:	48 8d 45 80          	lea    -0x80(%rbp),%rax
  4083d5:	48 89 d6             	mov    %rdx,%rsi
  4083d8:	48 89 c7             	mov    %rax,%rdi
  4083db:	e8 70 9a ff ff       	callq  401e50 <_ZNSt7__cxx1112basic_stringIcSt11char_traitsIcESaIcEEaSEOS4_@plt>
  4083e0:	48 8d 45 a0          	lea    -0x60(%rbp),%rax
  4083e4:	48 89 c7             	mov    %rax,%rdi
  4083e7:	e8 34 99 ff ff       	callq  401d20 <_ZNSt7__cxx1112basic_stringIcSt11char_traitsIcESaIcEED1Ev@plt>
  4083ec:	48 8d 45 80          	lea    -0x80(%rbp),%rax
  4083f0:	48 89 c7             	mov    %rax,%rdi
  4083f3:	e8 e8 9a ff ff       	callq  401ee0 <_ZNKSt7__cxx1112basic_stringIcSt11char_traitsIcESaIcEE6lengthEv@plt>
  4083f8:	48 89 c2             	mov    %rax,%rdx
  4083fb:	8b 85 48 ff ff ff    	mov    -0xb8(%rbp),%eax
  408401:	48 98                	cltq   
  408403:	48 39 c2             	cmp    %rax,%rdx
  408406:	0f 92 c0             	setb   %al
  408409:	84 c0                	test   %al,%al
  40840b:	74 76                	je     408483 <_ZN15CPU_MATHEMATICS11printHelperI23ReferenceScalarAccessorIfS_EEEvT_PKiiNSt7__cxx1112basic_stringIcSt11char_traitsIcESaIcEEEi+0x412>
  40840d:	48 8d 85 6f ff ff ff 	lea    -0x91(%rbp),%rax
  408414:	48 89 c7             	mov    %rax,%rdi
  408417:	e8 84 9b ff ff       	callq  401fa0 <_ZNSaIcEC1Ev@plt>
  40841c:	8b 85 48 ff ff ff    	mov    -0xb8(%rbp),%eax
  408422:	48 63 d8             	movslq %eax,%rbx
  408425:	48 8d 45 80          	lea    -0x80(%rbp),%rax
  408429:	48 89 c7             	mov    %rax,%rdi
  40842c:	e8 af 9a ff ff       	callq  401ee0 <_ZNKSt7__cxx1112basic_stringIcSt11char_traitsIcESaIcEE6lengthEv@plt>
  408431:	48 29 c3             	sub    %rax,%rbx
  408434:	48 89 de             	mov    %rbx,%rsi
  408437:	48 8d 95 6f ff ff ff 	lea    -0x91(%rbp),%rdx
  40843e:	48 8d 45 c0          	lea    -0x40(%rbp),%rax
  408442:	48 89 d1             	mov    %rdx,%rcx
  408445:	48 89 f2             	mov    %rsi,%rdx
  408448:	be d9 c8 40 00       	mov    $0x40c8d9,%esi
  40844d:	48 89 c7             	mov    %rax,%rdi
  408450:	e8 eb 99 ff ff       	callq  401e40 <_ZNSt7__cxx1112basic_stringIcSt11char_traitsIcESaIcEEC1EPKcmRKS3_@plt>
  408455:	48 8d 55 c0          	lea    -0x40(%rbp),%rdx
  408459:	48 8d 45 80          	lea    -0x80(%rbp),%rax
  40845d:	48 89 d6             	mov    %rdx,%rsi
  408460:	48 89 c7             	mov    %rax,%rdi
  408463:	e8 08 9a ff ff       	callq  401e70 <_ZNSt7__cxx1112basic_stringIcSt11char_traitsIcESaIcEEpLERKS4_@plt>
  408468:	48 8d 45 c0          	lea    -0x40(%rbp),%rax
  40846c:	48 89 c7             	mov    %rax,%rdi
  40846f:	e8 ac 98 ff ff       	callq  401d20 <_ZNSt7__cxx1112basic_stringIcSt11char_traitsIcESaIcEED1Ev@plt>
  408474:	48 8d 85 6f ff ff ff 	lea    -0x91(%rbp),%rax
  40847b:	48 89 c7             	mov    %rax,%rdi
  40847e:	e8 8d 99 ff ff       	callq  401e10 <_ZNSaIcED1Ev@plt>
  408483:	48 8d 45 80          	lea    -0x80(%rbp),%rax
  408487:	48 89 c6             	mov    %rax,%rsi
  40848a:	bf 60 42 61 00       	mov    $0x614260,%edi
  40848f:	e8 0c 99 ff ff       	callq  401da0 <_ZStlsIcSt11char_traitsIcESaIcEERSt13basic_ostreamIT_T0_ES7_RKNSt7__cxx1112basic_stringIS4_S5_T1_EE@plt>
  408494:	8b 85 4c ff ff ff    	mov    -0xb4(%rbp),%eax
  40849a:	48 98                	cltq   
  40849c:	48 8d 14 85 00 00 00 	lea    0x0(,%rax,4),%rdx
  4084a3:	00 
  4084a4:	48 8b 85 50 ff ff ff 	mov    -0xb0(%rbp),%rax
  4084ab:	48 01 d0             	add    %rdx,%rax
  4084ae:	8b 00                	mov    (%rax),%eax
  4084b0:	83 e8 01             	sub    $0x1,%eax
  4084b3:	3b 85 78 ff ff ff    	cmp    -0x88(%rbp),%eax
  4084b9:	7e 0f                	jle    4084ca <_ZN15CPU_MATHEMATICS11printHelperI23ReferenceScalarAccessorIfS_EEEvT_PKiiNSt7__cxx1112basic_stringIcSt11char_traitsIcESaIcEEEi+0x459>
  4084bb:	be bb c7 40 00       	mov    $0x40c7bb,%esi
  4084c0:	bf 60 42 61 00       	mov    $0x614260,%edi
  4084c5:	e8 f6 98 ff ff       	callq  401dc0 <_ZStlsISt11char_traitsIcEERSt13basic_ostreamIcT_ES5_PKc@plt>
  4084ca:	48 8d 45 80          	lea    -0x80(%rbp),%rax
  4084ce:	48 89 c7             	mov    %rax,%rdi
  4084d1:	e8 4a 98 ff ff       	callq  401d20 <_ZNSt7__cxx1112basic_stringIcSt11char_traitsIcESaIcEED1Ev@plt>
  4084d6:	83 85 78 ff ff ff 01 	addl   $0x1,-0x88(%rbp)
  4084dd:	e9 20 fe ff ff       	jmpq   408302 <_ZN15CPU_MATHEMATICS11printHelperI23ReferenceScalarAccessorIfS_EEEvT_PKiiNSt7__cxx1112basic_stringIcSt11char_traitsIcESaIcEEEi+0x291>
  4084e2:	be bf c7 40 00       	mov    $0x40c7bf,%esi
  4084e7:	bf 60 42 61 00       	mov    $0x614260,%edi
  4084ec:	e8 cf 98 ff ff       	callq  401dc0 <_ZStlsISt11char_traitsIcEERSt13basic_ostreamIcT_ES5_PKc@plt>
  4084f1:	be 00 1d 40 00       	mov    $0x401d00,%esi
  4084f6:	bf 60 42 61 00       	mov    $0x614260,%edi
  4084fb:	e8 f0 98 ff ff       	callq  401df0 <_ZNSolsEPFRSoS_E@plt>
  408500:	83 85 74 ff ff ff 01 	addl   $0x1,-0x8c(%rbp)
  408507:	e9 b5 fd ff ff       	jmpq   4082c1 <_ZN15CPU_MATHEMATICS11printHelperI23ReferenceScalarAccessorIfS_EEEvT_PKiiNSt7__cxx1112basic_stringIcSt11char_traitsIcESaIcEEEi+0x250>
  40850c:	be b8 c7 40 00       	mov    $0x40c7b8,%esi
  408511:	bf 60 42 61 00       	mov    $0x614260,%edi
  408516:	e8 a5 98 ff ff       	callq  401dc0 <_ZStlsISt11char_traitsIcEERSt13basic_ostreamIcT_ES5_PKc@plt>
  40851b:	c7 85 7c ff ff ff 00 	movl   $0x0,-0x84(%rbp)
  408522:	00 00 00 
  408525:	8b 85 4c ff ff ff    	mov    -0xb4(%rbp),%eax
  40852b:	48 98                	cltq   
  40852d:	48 8d 14 85 00 00 00 	lea    0x0(,%rax,4),%rdx
  408534:	00 
  408535:	48 8b 85 50 ff ff ff 	mov    -0xb0(%rbp),%rax
  40853c:	48 01 d0             	add    %rdx,%rax
  40853f:	8b 00                	mov    (%rax),%eax
  408541:	3b 85 7c ff ff ff    	cmp    -0x84(%rbp),%eax
  408547:	0f 8e 91 01 00 00    	jle    4086de <_ZN15CPU_MATHEMATICS11printHelperI23ReferenceScalarAccessorIfS_EEEvT_PKiiNSt7__cxx1112basic_stringIcSt11char_traitsIcESaIcEEEi+0x66d>
  40854d:	b9 1c 88 40 00       	mov    $0x40881c,%ecx
  408552:	8b 95 7c ff ff ff    	mov    -0x84(%rbp),%edx
  408558:	48 8b 85 58 ff ff ff 	mov    -0xa8(%rbp),%rax
  40855f:	89 d6                	mov    %edx,%esi
  408561:	48 89 c7             	mov    %rax,%rdi
  408564:	ff d1                	callq  *%rcx
  408566:	8b 10                	mov    (%rax),%edx
  408568:	48 8d 45 80          	lea    -0x80(%rbp),%rax
  40856c:	89 95 3c ff ff ff    	mov    %edx,-0xc4(%rbp)
  408572:	f3 0f 10 85 3c ff ff 	movss  -0xc4(%rbp),%xmm0
  408579:	ff 
  40857a:	48 89 c7             	mov    %rax,%rdi
  40857d:	e8 98 ad ff ff       	callq  40331a <_ZNSt7__cxx119to_stringEf>
  408582:	48 8d 45 80          	lea    -0x80(%rbp),%rax
  408586:	48 89 c7             	mov    %rax,%rdi
  408589:	e8 52 99 ff ff       	callq  401ee0 <_ZNKSt7__cxx1112basic_stringIcSt11char_traitsIcESaIcEE6lengthEv@plt>
  40858e:	48 89 c2             	mov    %rax,%rdx
  408591:	8b 85 48 ff ff ff    	mov    -0xb8(%rbp),%eax
  408597:	48 98                	cltq   
  408599:	48 39 c2             	cmp    %rax,%rdx
  40859c:	73 0e                	jae    4085ac <_ZN15CPU_MATHEMATICS11printHelperI23ReferenceScalarAccessorIfS_EEEvT_PKiiNSt7__cxx1112basic_stringIcSt11char_traitsIcESaIcEEEi+0x53b>
  40859e:	48 8d 45 80          	lea    -0x80(%rbp),%rax
  4085a2:	48 89 c7             	mov    %rax,%rdi
  4085a5:	e8 36 99 ff ff       	callq  401ee0 <_ZNKSt7__cxx1112basic_stringIcSt11char_traitsIcESaIcEE6lengthEv@plt>
  4085aa:	eb 08                	jmp    4085b4 <_ZN15CPU_MATHEMATICS11printHelperI23ReferenceScalarAccessorIfS_EEEvT_PKiiNSt7__cxx1112basic_stringIcSt11char_traitsIcESaIcEEEi+0x543>
  4085ac:	8b 85 48 ff ff ff    	mov    -0xb8(%rbp),%eax
  4085b2:	48 98                	cltq   
  4085b4:	48 8d 7d a0          	lea    -0x60(%rbp),%rdi
  4085b8:	48 8d 75 80          	lea    -0x80(%rbp),%rsi
  4085bc:	48 89 c1             	mov    %rax,%rcx
  4085bf:	ba 00 00 00 00       	mov    $0x0,%edx
  4085c4:	e8 17 98 ff ff       	callq  401de0 <_ZNKSt7__cxx1112basic_stringIcSt11char_traitsIcESaIcEE6substrEmm@plt>
  4085c9:	48 8d 55 a0          	lea    -0x60(%rbp),%rdx
  4085cd:	48 8d 45 80          	lea    -0x80(%rbp),%rax
  4085d1:	48 89 d6             	mov    %rdx,%rsi
  4085d4:	48 89 c7             	mov    %rax,%rdi
  4085d7:	e8 74 98 ff ff       	callq  401e50 <_ZNSt7__cxx1112basic_stringIcSt11char_traitsIcESaIcEEaSEOS4_@plt>
  4085dc:	48 8d 45 a0          	lea    -0x60(%rbp),%rax
  4085e0:	48 89 c7             	mov    %rax,%rdi
  4085e3:	e8 38 97 ff ff       	callq  401d20 <_ZNSt7__cxx1112basic_stringIcSt11char_traitsIcESaIcEED1Ev@plt>
  4085e8:	48 8d 45 80          	lea    -0x80(%rbp),%rax
  4085ec:	48 89 c7             	mov    %rax,%rdi
  4085ef:	e8 ec 98 ff ff       	callq  401ee0 <_ZNKSt7__cxx1112basic_stringIcSt11char_traitsIcESaIcEE6lengthEv@plt>
  4085f4:	48 89 c2             	mov    %rax,%rdx
  4085f7:	8b 85 48 ff ff ff    	mov    -0xb8(%rbp),%eax
  4085fd:	48 98                	cltq   
  4085ff:	48 39 c2             	cmp    %rax,%rdx
  408602:	0f 92 c0             	setb   %al
  408605:	84 c0                	test   %al,%al
  408607:	74 76                	je     40867f <_ZN15CPU_MATHEMATICS11printHelperI23ReferenceScalarAccessorIfS_EEEvT_PKiiNSt7__cxx1112basic_stringIcSt11char_traitsIcESaIcEEEi+0x60e>
  408609:	48 8d 85 6f ff ff ff 	lea    -0x91(%rbp),%rax
  408610:	48 89 c7             	mov    %rax,%rdi
  408613:	e8 88 99 ff ff       	callq  401fa0 <_ZNSaIcEC1Ev@plt>
  408618:	8b 85 48 ff ff ff    	mov    -0xb8(%rbp),%eax
  40861e:	48 63 d8             	movslq %eax,%rbx
  408621:	48 8d 45 80          	lea    -0x80(%rbp),%rax
  408625:	48 89 c7             	mov    %rax,%rdi
  408628:	e8 b3 98 ff ff       	callq  401ee0 <_ZNKSt7__cxx1112basic_stringIcSt11char_traitsIcESaIcEE6lengthEv@plt>
  40862d:	48 29 c3             	sub    %rax,%rbx
  408630:	48 89 de             	mov    %rbx,%rsi
  408633:	48 8d 95 6f ff ff ff 	lea    -0x91(%rbp),%rdx
  40863a:	48 8d 45 c0          	lea    -0x40(%rbp),%rax
  40863e:	48 89 d1             	mov    %rdx,%rcx
  408641:	48 89 f2             	mov    %rsi,%rdx
  408644:	be d9 c8 40 00       	mov    $0x40c8d9,%esi
  408649:	48 89 c7             	mov    %rax,%rdi
  40864c:	e8 ef 97 ff ff       	callq  401e40 <_ZNSt7__cxx1112basic_stringIcSt11char_traitsIcESaIcEEC1EPKcmRKS3_@plt>
  408651:	48 8d 55 c0          	lea    -0x40(%rbp),%rdx
  408655:	48 8d 45 80          	lea    -0x80(%rbp),%rax
  408659:	48 89 d6             	mov    %rdx,%rsi
  40865c:	48 89 c7             	mov    %rax,%rdi
  40865f:	e8 0c 98 ff ff       	callq  401e70 <_ZNSt7__cxx1112basic_stringIcSt11char_traitsIcESaIcEEpLERKS4_@plt>
  408664:	48 8d 45 c0          	lea    -0x40(%rbp),%rax
  408668:	48 89 c7             	mov    %rax,%rdi
  40866b:	e8 b0 96 ff ff       	callq  401d20 <_ZNSt7__cxx1112basic_stringIcSt11char_traitsIcESaIcEED1Ev@plt>
  408670:	48 8d 85 6f ff ff ff 	lea    -0x91(%rbp),%rax
  408677:	48 89 c7             	mov    %rax,%rdi
  40867a:	e8 91 97 ff ff       	callq  401e10 <_ZNSaIcED1Ev@plt>
  40867f:	48 8d 45 80          	lea    -0x80(%rbp),%rax
  408683:	48 89 c6             	mov    %rax,%rsi
  408686:	bf 60 42 61 00       	mov    $0x614260,%edi
  40868b:	e8 10 97 ff ff       	callq  401da0 <_ZStlsIcSt11char_traitsIcESaIcEERSt13basic_ostreamIT_T0_ES7_RKNSt7__cxx1112basic_stringIS4_S5_T1_EE@plt>
  408690:	8b 85 4c ff ff ff    	mov    -0xb4(%rbp),%eax
  408696:	48 98                	cltq   
  408698:	48 8d 14 85 00 00 00 	lea    0x0(,%rax,4),%rdx
  40869f:	00 
  4086a0:	48 8b 85 50 ff ff ff 	mov    -0xb0(%rbp),%rax
  4086a7:	48 01 d0             	add    %rdx,%rax
  4086aa:	8b 00                	mov    (%rax),%eax
  4086ac:	83 e8 01             	sub    $0x1,%eax
  4086af:	3b 85 7c ff ff ff    	cmp    -0x84(%rbp),%eax
  4086b5:	7e 0f                	jle    4086c6 <_ZN15CPU_MATHEMATICS11printHelperI23ReferenceScalarAccessorIfS_EEEvT_PKiiNSt7__cxx1112basic_stringIcSt11char_traitsIcESaIcEEEi+0x655>
  4086b7:	be bb c7 40 00       	mov    $0x40c7bb,%esi
  4086bc:	bf 60 42 61 00       	mov    $0x614260,%edi
  4086c1:	e8 fa 96 ff ff       	callq  401dc0 <_ZStlsISt11char_traitsIcEERSt13basic_ostreamIcT_ES5_PKc@plt>
  4086c6:	48 8d 45 80          	lea    -0x80(%rbp),%rax
  4086ca:	48 89 c7             	mov    %rax,%rdi
  4086cd:	e8 4e 96 ff ff       	callq  401d20 <_ZNSt7__cxx1112basic_stringIcSt11char_traitsIcESaIcEED1Ev@plt>
  4086d2:	83 85 7c ff ff ff 01 	addl   $0x1,-0x84(%rbp)
  4086d9:	e9 47 fe ff ff       	jmpq   408525 <_ZN15CPU_MATHEMATICS11printHelperI23ReferenceScalarAccessorIfS_EEEvT_PKiiNSt7__cxx1112basic_stringIcSt11char_traitsIcESaIcEEEi+0x4b4>
  4086de:	be bf c7 40 00       	mov    $0x40c7bf,%esi
  4086e3:	bf 60 42 61 00       	mov    $0x614260,%edi
  4086e8:	e8 d3 96 ff ff       	callq  401dc0 <_ZStlsISt11char_traitsIcEERSt13basic_ostreamIcT_ES5_PKc@plt>
  4086ed:	e9 f4 00 00 00       	jmpq   4087e6 <_ZN15CPU_MATHEMATICS11printHelperI23ReferenceScalarAccessorIfS_EEEvT_PKiiNSt7__cxx1112basic_stringIcSt11char_traitsIcESaIcEEEi+0x775>
  4086f2:	48 89 c3             	mov    %rax,%rbx
  4086f5:	48 8d 45 c0          	lea    -0x40(%rbp),%rax
  4086f9:	48 89 c7             	mov    %rax,%rdi
  4086fc:	e8 1f 96 ff ff       	callq  401d20 <_ZNSt7__cxx1112basic_stringIcSt11char_traitsIcESaIcEED1Ev@plt>
  408701:	48 89 d8             	mov    %rbx,%rax
  408704:	48 89 c7             	mov    %rax,%rdi
  408707:	e8 84 98 ff ff       	callq  401f90 <_Unwind_Resume@plt>
  40870c:	48 89 c3             	mov    %rax,%rbx
  40870f:	48 8d 85 6f ff ff ff 	lea    -0x91(%rbp),%rax
  408716:	48 89 c7             	mov    %rax,%rdi
  408719:	e8 f2 96 ff ff       	callq  401e10 <_ZNSaIcED1Ev@plt>
  40871e:	eb 0f                	jmp    40872f <_ZN15CPU_MATHEMATICS11printHelperI23ReferenceScalarAccessorIfS_EEEvT_PKiiNSt7__cxx1112basic_stringIcSt11char_traitsIcESaIcEEEi+0x6be>
  408720:	48 89 c3             	mov    %rax,%rbx
  408723:	48 8d 45 c0          	lea    -0x40(%rbp),%rax
  408727:	48 89 c7             	mov    %rax,%rdi
  40872a:	e8 f1 95 ff ff       	callq  401d20 <_ZNSt7__cxx1112basic_stringIcSt11char_traitsIcESaIcEED1Ev@plt>
  40872f:	48 8d 45 a0          	lea    -0x60(%rbp),%rax
  408733:	48 89 c7             	mov    %rax,%rdi
  408736:	e8 e5 95 ff ff       	callq  401d20 <_ZNSt7__cxx1112basic_stringIcSt11char_traitsIcESaIcEED1Ev@plt>
  40873b:	48 89 d8             	mov    %rbx,%rax
  40873e:	48 89 c7             	mov    %rax,%rdi
  408741:	e8 4a 98 ff ff       	callq  401f90 <_Unwind_Resume@plt>
  408746:	48 89 c3             	mov    %rax,%rbx
  408749:	48 8d 45 a0          	lea    -0x60(%rbp),%rax
  40874d:	48 89 c7             	mov    %rax,%rdi
  408750:	e8 cb 95 ff ff       	callq  401d20 <_ZNSt7__cxx1112basic_stringIcSt11char_traitsIcESaIcEED1Ev@plt>
  408755:	eb 28                	jmp    40877f <_ZN15CPU_MATHEMATICS11printHelperI23ReferenceScalarAccessorIfS_EEEvT_PKiiNSt7__cxx1112basic_stringIcSt11char_traitsIcESaIcEEEi+0x70e>
  408757:	48 89 c3             	mov    %rax,%rbx
  40875a:	48 8d 45 c0          	lea    -0x40(%rbp),%rax
  40875e:	48 89 c7             	mov    %rax,%rdi
  408761:	e8 ba 95 ff ff       	callq  401d20 <_ZNSt7__cxx1112basic_stringIcSt11char_traitsIcESaIcEED1Ev@plt>
  408766:	eb 03                	jmp    40876b <_ZN15CPU_MATHEMATICS11printHelperI23ReferenceScalarAccessorIfS_EEEvT_PKiiNSt7__cxx1112basic_stringIcSt11char_traitsIcESaIcEEEi+0x6fa>
  408768:	48 89 c3             	mov    %rax,%rbx
  40876b:	48 8d 85 6f ff ff ff 	lea    -0x91(%rbp),%rax
  408772:	48 89 c7             	mov    %rax,%rdi
  408775:	e8 96 96 ff ff       	callq  401e10 <_ZNSaIcED1Ev@plt>
  40877a:	eb 03                	jmp    40877f <_ZN15CPU_MATHEMATICS11printHelperI23ReferenceScalarAccessorIfS_EEEvT_PKiiNSt7__cxx1112basic_stringIcSt11char_traitsIcESaIcEEEi+0x70e>
  40877c:	48 89 c3             	mov    %rax,%rbx
  40877f:	48 8d 45 80          	lea    -0x80(%rbp),%rax
  408783:	48 89 c7             	mov    %rax,%rdi
  408786:	e8 95 95 ff ff       	callq  401d20 <_ZNSt7__cxx1112basic_stringIcSt11char_traitsIcESaIcEED1Ev@plt>
  40878b:	48 89 d8             	mov    %rbx,%rax
  40878e:	48 89 c7             	mov    %rax,%rdi
  408791:	e8 fa 97 ff ff       	callq  401f90 <_Unwind_Resume@plt>
  408796:	48 89 c3             	mov    %rax,%rbx
  408799:	48 8d 45 a0          	lea    -0x60(%rbp),%rax
  40879d:	48 89 c7             	mov    %rax,%rdi
  4087a0:	e8 7b 95 ff ff       	callq  401d20 <_ZNSt7__cxx1112basic_stringIcSt11char_traitsIcESaIcEED1Ev@plt>
  4087a5:	eb 28                	jmp    4087cf <_ZN15CPU_MATHEMATICS11printHelperI23ReferenceScalarAccessorIfS_EEEvT_PKiiNSt7__cxx1112basic_stringIcSt11char_traitsIcESaIcEEEi+0x75e>
  4087a7:	48 89 c3             	mov    %rax,%rbx
  4087aa:	48 8d 45 c0          	lea    -0x40(%rbp),%rax
  4087ae:	48 89 c7             	mov    %rax,%rdi
  4087b1:	e8 6a 95 ff ff       	callq  401d20 <_ZNSt7__cxx1112basic_stringIcSt11char_traitsIcESaIcEED1Ev@plt>
  4087b6:	eb 03                	jmp    4087bb <_ZN15CPU_MATHEMATICS11printHelperI23ReferenceScalarAccessorIfS_EEEvT_PKiiNSt7__cxx1112basic_stringIcSt11char_traitsIcESaIcEEEi+0x74a>
  4087b8:	48 89 c3             	mov    %rax,%rbx
  4087bb:	48 8d 85 6f ff ff ff 	lea    -0x91(%rbp),%rax
  4087c2:	48 89 c7             	mov    %rax,%rdi
  4087c5:	e8 46 96 ff ff       	callq  401e10 <_ZNSaIcED1Ev@plt>
  4087ca:	eb 03                	jmp    4087cf <_ZN15CPU_MATHEMATICS11printHelperI23ReferenceScalarAccessorIfS_EEEvT_PKiiNSt7__cxx1112basic_stringIcSt11char_traitsIcESaIcEEEi+0x75e>
  4087cc:	48 89 c3             	mov    %rax,%rbx
  4087cf:	48 8d 45 80          	lea    -0x80(%rbp),%rax
  4087d3:	48 89 c7             	mov    %rax,%rdi
  4087d6:	e8 45 95 ff ff       	callq  401d20 <_ZNSt7__cxx1112basic_stringIcSt11char_traitsIcESaIcEED1Ev@plt>
  4087db:	48 89 d8             	mov    %rbx,%rax
  4087de:	48 89 c7             	mov    %rax,%rdi
  4087e1:	e8 aa 97 ff ff       	callq  401f90 <_Unwind_Resume@plt>
  4087e6:	90                   	nop
  4087e7:	48 8b 45 e8          	mov    -0x18(%rbp),%rax
  4087eb:	64 48 33 04 25 28 00 	xor    %fs:0x28,%rax
  4087f2:	00 00 
  4087f4:	74 05                	je     4087fb <_ZN15CPU_MATHEMATICS11printHelperI23ReferenceScalarAccessorIfS_EEEvT_PKiiNSt7__cxx1112basic_stringIcSt11char_traitsIcESaIcEEEi+0x78a>
  4087f6:	e8 35 96 ff ff       	callq  401e30 <__stack_chk_fail@plt>
  4087fb:	48 81 c4 c8 00 00 00 	add    $0xc8,%rsp
  408802:	5b                   	pop    %rbx
  408803:	5d                   	pop    %rbp
  408804:	c3                   	retq   
  408805:	90                   	nop

0000000000408806 <_ZNK23ReferenceScalarAccessorIf15CPU_MATHEMATICSE4sizeEv>:
  408806:	55                   	push   %rbp
  408807:	48 89 e5             	mov    %rsp,%rbp
  40880a:	48 89 7d f8          	mov    %rdi,-0x8(%rbp)
  40880e:	b8 01 00 00 00       	mov    $0x1,%eax
  408813:	5d                   	pop    %rbp
  408814:	c3                   	retq   

0000000000408815 <_ZThn8_NK23ReferenceScalarAccessorIf15CPU_MATHEMATICSE4sizeEv>:
  408815:	48 83 ef 08          	sub    $0x8,%rdi
  408819:	eb eb                	jmp    408806 <_ZNK23ReferenceScalarAccessorIf15CPU_MATHEMATICSE4sizeEv>
  40881b:	90                   	nop

000000000040881c <_ZNK23ReferenceScalarAccessorIf15CPU_MATHEMATICSEixEi>:
  40881c:	55                   	push   %rbp
  40881d:	48 89 e5             	mov    %rsp,%rbp
  408820:	48 89 7d f8          	mov    %rdi,-0x8(%rbp)
  408824:	89 75 f4             	mov    %esi,-0xc(%rbp)
  408827:	48 8b 45 f8          	mov    -0x8(%rbp),%rax
  40882b:	48 8b 40 10          	mov    0x10(%rax),%rax
  40882f:	5d                   	pop    %rbp
  408830:	c3                   	retq   

0000000000408831 <_ZThn8_NK23ReferenceScalarAccessorIf15CPU_MATHEMATICSEixEi>:
  408831:	48 83 ef 08          	sub    $0x8,%rdi
  408835:	eb e5                	jmp    40881c <_ZNK23ReferenceScalarAccessorIf15CPU_MATHEMATICSEixEi>
  408837:	90                   	nop

0000000000408838 <_ZN11Tensor_KingIf15CPU_MATHEMATICS7pBufferIfS0_10continuousIfS0_E23ReferenceScalarAccessorIfS0_EN9Operation3addIfEEEEC1IIS3_S5_EEEbbDpT_>:
  408838:	55                   	push   %rbp
  408839:	48 89 e5             	mov    %rsp,%rbp
  40883c:	48 83 ec 70          	sub    $0x70,%rsp
  408840:	48 89 7d a8          	mov    %rdi,-0x58(%rbp)
  408844:	89 d0                	mov    %edx,%eax
  408846:	48 89 4d 98          	mov    %rcx,-0x68(%rbp)
  40884a:	4c 89 45 90          	mov    %r8,-0x70(%rbp)
  40884e:	40 88 75 a4          	mov    %sil,-0x5c(%rbp)
  408852:	88 45 a0             	mov    %al,-0x60(%rbp)
  408855:	64 48 8b 04 25 28 00 	mov    %fs:0x28,%rax
  40885c:	00 00 
  40885e:	48 89 45 f8          	mov    %rax,-0x8(%rbp)
  408862:	31 c0                	xor    %eax,%eax
  408864:	48 8b 45 a8          	mov    -0x58(%rbp),%rax
  408868:	48 89 c7             	mov    %rax,%rdi
  40886b:	e8 3a cb ff ff       	callq  4053aa <_ZN10Tensor_AceC1Ev>
  408870:	ba 28 d0 40 00       	mov    $0x40d028,%edx
  408875:	48 8b 45 a8          	mov    -0x58(%rbp),%rax
  408879:	48 89 10             	mov    %rdx,(%rax)
  40887c:	48 8b 55 90          	mov    -0x70(%rbp),%rdx
  408880:	48 8d 45 b0          	lea    -0x50(%rbp),%rax
  408884:	48 89 d6             	mov    %rdx,%rsi
  408887:	48 89 c7             	mov    %rax,%rdi
  40888a:	e8 7f ba ff ff       	callq  40430e <_ZN23ReferenceScalarAccessorIf15CPU_MATHEMATICSEC1ERKS1_>
  40888f:	48 8b 55 98          	mov    -0x68(%rbp),%rdx
  408893:	48 8d 45 d0          	lea    -0x30(%rbp),%rax
  408897:	48 89 d6             	mov    %rdx,%rsi
  40889a:	48 89 c7             	mov    %rax,%rdi
  40889d:	e8 04 ae ff ff       	callq  4036a6 <_ZN10continuousIf15CPU_MATHEMATICSEC1ERKS1_>
  4088a2:	48 8b 45 a8          	mov    -0x58(%rbp),%rax
  4088a6:	48 8d 48 08          	lea    0x8(%rax),%rcx
  4088aa:	48 8d 55 b0          	lea    -0x50(%rbp),%rdx
  4088ae:	48 8d 45 d0          	lea    -0x30(%rbp),%rax
  4088b2:	48 89 c6             	mov    %rax,%rsi
  4088b5:	48 89 cf             	mov    %rcx,%rdi
  4088b8:	e8 e1 1a 00 00       	callq  40a39e <_ZN7pBufferIf15CPU_MATHEMATICS10continuousIfS0_E23ReferenceScalarAccessorIfS0_EN9Operation3addIfEEEC1ES2_S4_>
  4088bd:	48 8d 45 d0          	lea    -0x30(%rbp),%rax
  4088c1:	48 89 c7             	mov    %rax,%rdi
  4088c4:	e8 3d ae ff ff       	callq  403706 <_ZN10continuousIf15CPU_MATHEMATICSED1Ev>
  4088c9:	48 8d 45 b0          	lea    -0x50(%rbp),%rax
  4088cd:	48 89 c7             	mov    %rax,%rdi
  4088d0:	e8 a3 ba ff ff       	callq  404378 <_ZN23ReferenceScalarAccessorIf15CPU_MATHEMATICSED1Ev>
  4088d5:	48 8b 45 a8          	mov    -0x58(%rbp),%rax
  4088d9:	0f b6 55 a4          	movzbl -0x5c(%rbp),%edx
  4088dd:	88 50 50             	mov    %dl,0x50(%rax)
  4088e0:	48 8b 45 a8          	mov    -0x58(%rbp),%rax
  4088e4:	0f b6 55 a0          	movzbl -0x60(%rbp),%edx
  4088e8:	88 50 51             	mov    %dl,0x51(%rax)
  4088eb:	90                   	nop
  4088ec:	48 8b 45 f8          	mov    -0x8(%rbp),%rax
  4088f0:	64 48 33 04 25 28 00 	xor    %fs:0x28,%rax
  4088f7:	00 00 
  4088f9:	74 05                	je     408900 <_ZN11Tensor_KingIf15CPU_MATHEMATICS7pBufferIfS0_10continuousIfS0_E23ReferenceScalarAccessorIfS0_EN9Operation3addIfEEEEC1IIS3_S5_EEEbbDpT_+0xc8>
  4088fb:	e8 30 95 ff ff       	callq  401e30 <__stack_chk_fail@plt>
  408900:	c9                   	leaveq 
  408901:	c3                   	retq   

0000000000408902 <_ZN7pBufferIf15CPU_MATHEMATICS10continuousIfS0_E23ReferenceScalarAccessorIfS0_EN9Operation3addIfEEE7getDataEv>:
  408902:	55                   	push   %rbp
  408903:	48 89 e5             	mov    %rsp,%rbp
  408906:	41 54                	push   %r12
  408908:	53                   	push   %rbx
  408909:	48 83 ec 10          	sub    $0x10,%rsp
  40890d:	48 89 7d e8          	mov    %rdi,-0x18(%rbp)
  408911:	bf 10 00 00 00       	mov    $0x10,%edi
  408916:	e8 f5 93 ff ff       	callq  401d10 <__cxa_allocate_exception@plt>
  40891b:	48 89 c3             	mov    %rax,%rbx
  40891e:	be e0 c8 40 00       	mov    $0x40c8e0,%esi
  408923:	48 89 df             	mov    %rbx,%rdi
  408926:	e8 c5 96 ff ff       	callq  401ff0 <_ZNSt16invalid_argumentC1EPKc@plt>
  40892b:	ba 50 1f 40 00       	mov    $0x401f50,%edx
  408930:	be 20 44 61 00       	mov    $0x614420,%esi
  408935:	48 89 df             	mov    %rbx,%rdi
  408938:	e8 33 96 ff ff       	callq  401f70 <__cxa_throw@plt>
  40893d:	49 89 c4             	mov    %rax,%r12
  408940:	48 89 df             	mov    %rbx,%rdi
  408943:	e8 18 94 ff ff       	callq  401d60 <__cxa_free_exception@plt>
  408948:	4c 89 e0             	mov    %r12,%rax
  40894b:	48 89 c7             	mov    %rax,%rdi
  40894e:	e8 3d 96 ff ff       	callq  401f90 <_Unwind_Resume@plt>
  408953:	90                   	nop

0000000000408954 <_ZN7pBufferIf15CPU_MATHEMATICS10continuousIfS0_E23ReferenceScalarAccessorIfS0_EN9Operation3addIfEEE8getShapeEv>:
  408954:	55                   	push   %rbp
  408955:	48 89 e5             	mov    %rsp,%rbp
  408958:	41 54                	push   %r12
  40895a:	53                   	push   %rbx
  40895b:	48 83 ec 10          	sub    $0x10,%rsp
  40895f:	48 89 7d e8          	mov    %rdi,-0x18(%rbp)
  408963:	bf 10 00 00 00       	mov    $0x10,%edi
  408968:	e8 a3 93 ff ff       	callq  401d10 <__cxa_allocate_exception@plt>
  40896d:	48 89 c3             	mov    %rax,%rbx
  408970:	be 18 c9 40 00       	mov    $0x40c918,%esi
  408975:	48 89 df             	mov    %rbx,%rdi
  408978:	e8 73 96 ff ff       	callq  401ff0 <_ZNSt16invalid_argumentC1EPKc@plt>
  40897d:	ba 50 1f 40 00       	mov    $0x401f50,%edx
  408982:	be 20 44 61 00       	mov    $0x614420,%esi
  408987:	48 89 df             	mov    %rbx,%rdi
  40898a:	e8 e1 95 ff ff       	callq  401f70 <__cxa_throw@plt>
  40898f:	49 89 c4             	mov    %rax,%r12
  408992:	48 89 df             	mov    %rbx,%rdi
  408995:	e8 c6 93 ff ff       	callq  401d60 <__cxa_free_exception@plt>
  40899a:	4c 89 e0             	mov    %r12,%rax
  40899d:	48 89 c7             	mov    %rax,%rdi
  4089a0:	e8 eb 95 ff ff       	callq  401f90 <_Unwind_Resume@plt>
  4089a5:	90                   	nop

00000000004089a6 <_ZNK7pBufferIf15CPU_MATHEMATICS10continuousIfS0_E23ReferenceScalarAccessorIfS0_EN9Operation3addIfEEEixEi>:
  4089a6:	55                   	push   %rbp
  4089a7:	48 89 e5             	mov    %rsp,%rbp
  4089aa:	48 83 ec 10          	sub    $0x10,%rsp
  4089ae:	48 89 7d f8          	mov    %rdi,-0x8(%rbp)
  4089b2:	89 75 f4             	mov    %esi,-0xc(%rbp)
  4089b5:	b9 1c 88 40 00       	mov    $0x40881c,%ecx
  4089ba:	48 8b 45 f8          	mov    -0x8(%rbp),%rax
  4089be:	48 8d 50 30          	lea    0x30(%rax),%rdx
  4089c2:	8b 45 f4             	mov    -0xc(%rbp),%eax
  4089c5:	89 c6                	mov    %eax,%esi
  4089c7:	48 89 d7             	mov    %rdx,%rdi
  4089ca:	ff d1                	callq  *%rcx
  4089cc:	f3 0f 10 10          	movss  (%rax),%xmm2
  4089d0:	f3 0f 11 55 f0       	movss  %xmm2,-0x10(%rbp)
  4089d5:	48 8b 45 f8          	mov    -0x8(%rbp),%rax
  4089d9:	48 8d 50 10          	lea    0x10(%rax),%rdx
  4089dd:	8b 45 f4             	mov    -0xc(%rbp),%eax
  4089e0:	89 c6                	mov    %eax,%esi
  4089e2:	48 89 d7             	mov    %rdx,%rdi
  4089e5:	e8 d4 ef ff ff       	callq  4079be <_ZNK10continuousIf15CPU_MATHEMATICSEixEi>
  4089ea:	8b 00                	mov    (%rax),%eax
  4089ec:	48 8b 55 f8          	mov    -0x8(%rbp),%rdx
  4089f0:	48 83 c2 08          	add    $0x8,%rdx
  4089f4:	f3 0f 10 4d f0       	movss  -0x10(%rbp),%xmm1
  4089f9:	89 45 f0             	mov    %eax,-0x10(%rbp)
  4089fc:	f3 0f 10 45 f0       	movss  -0x10(%rbp),%xmm0
  408a01:	48 89 d7             	mov    %rdx,%rdi
  408a04:	e8 d5 17 00 00       	callq  40a1de <_ZNK9Operation3addIfEclIffEEfT_T0_>
  408a09:	c9                   	leaveq 
  408a0a:	c3                   	retq   
  408a0b:	90                   	nop

0000000000408a0c <_ZNK10continuousIf15CPU_MATHEMATICSE9dimensionEi>:
  408a0c:	55                   	push   %rbp
  408a0d:	48 89 e5             	mov    %rsp,%rbp
  408a10:	48 83 ec 10          	sub    $0x10,%rsp
  408a14:	48 89 7d f8          	mov    %rdi,-0x8(%rbp)
  408a18:	89 75 f4             	mov    %esi,-0xc(%rbp)
  408a1b:	48 8b 45 f8          	mov    -0x8(%rbp),%rax
  408a1f:	48 8b 00             	mov    (%rax),%rax
  408a22:	48 83 c0 18          	add    $0x18,%rax
  408a26:	48 8b 00             	mov    (%rax),%rax
  408a29:	48 8b 55 f8          	mov    -0x8(%rbp),%rdx
  408a2d:	48 89 d7             	mov    %rdx,%rdi
  408a30:	ff d0                	callq  *%rax
  408a32:	3b 45 f4             	cmp    -0xc(%rbp),%eax
  408a35:	7e 19                	jle    408a50 <_ZNK10continuousIf15CPU_MATHEMATICSE9dimensionEi+0x44>
  408a37:	48 8b 45 f8          	mov    -0x8(%rbp),%rax
  408a3b:	48 8b 40 10          	mov    0x10(%rax),%rax
  408a3f:	8b 55 f4             	mov    -0xc(%rbp),%edx
  408a42:	48 63 d2             	movslq %edx,%rdx
  408a45:	48 c1 e2 02          	shl    $0x2,%rdx
  408a49:	48 01 d0             	add    %rdx,%rax
  408a4c:	8b 00                	mov    (%rax),%eax
  408a4e:	eb 05                	jmp    408a55 <_ZNK10continuousIf15CPU_MATHEMATICSE9dimensionEi+0x49>
  408a50:	b8 01 00 00 00       	mov    $0x1,%eax
  408a55:	c9                   	leaveq 
  408a56:	c3                   	retq   

0000000000408a57 <_ZN15CPU_MATHEMATICS4zeroI10continuousIfS_EEEvRT_i>:
  408a57:	55                   	push   %rbp
  408a58:	48 89 e5             	mov    %rsp,%rbp
  408a5b:	48 83 ec 30          	sub    $0x30,%rsp
  408a5f:	48 89 7d d8          	mov    %rdi,-0x28(%rbp)
  408a63:	89 75 d4             	mov    %esi,-0x2c(%rbp)
  408a66:	64 48 8b 04 25 28 00 	mov    %fs:0x28,%rax
  408a6d:	00 00 
  408a6f:	48 89 45 f8          	mov    %rax,-0x8(%rbp)
  408a73:	31 c0                	xor    %eax,%eax
  408a75:	48 8b 45 d8          	mov    -0x28(%rbp),%rax
  408a79:	48 89 45 e0          	mov    %rax,-0x20(%rbp)
  408a7d:	8b 45 d4             	mov    -0x2c(%rbp),%eax
  408a80:	89 45 e8             	mov    %eax,-0x18(%rbp)
  408a83:	48 8d 45 e0          	lea    -0x20(%rbp),%rax
  408a87:	b9 00 00 00 00       	mov    $0x0,%ecx
  408a8c:	ba 00 00 00 00       	mov    $0x0,%edx
  408a91:	48 89 c6             	mov    %rax,%rsi
  408a94:	bf 69 31 40 00       	mov    $0x403169,%edi
  408a99:	e8 52 94 ff ff       	callq  401ef0 <GOMP_parallel@plt>
  408a9e:	8b 45 e8             	mov    -0x18(%rbp),%eax
  408aa1:	89 45 d4             	mov    %eax,-0x2c(%rbp)
  408aa4:	e8 17 95 ff ff       	callq  401fc0 <GOMP_barrier@plt>
  408aa9:	90                   	nop
  408aaa:	48 8b 45 f8          	mov    -0x8(%rbp),%rax
  408aae:	64 48 33 04 25 28 00 	xor    %fs:0x28,%rax
  408ab5:	00 00 
  408ab7:	74 05                	je     408abe <_ZN15CPU_MATHEMATICS4zeroI10continuousIfS_EEEvRT_i+0x67>
  408ab9:	e8 72 93 ff ff       	callq  401e30 <__stack_chk_fail@plt>
  408abe:	c9                   	leaveq 
  408abf:	c3                   	retq   

0000000000408ac0 <_ZN12Tensor_QueenIf15CPU_MATHEMATICS10continuousIfS0_EEC1IIPfPiiEEEbDpT_>:
  408ac0:	55                   	push   %rbp
  408ac1:	48 89 e5             	mov    %rsp,%rbp
  408ac4:	48 83 ec 20          	sub    $0x20,%rsp
  408ac8:	48 89 7d f8          	mov    %rdi,-0x8(%rbp)
  408acc:	89 f0                	mov    %esi,%eax
  408ace:	48 89 55 e8          	mov    %rdx,-0x18(%rbp)
  408ad2:	48 89 4d e0          	mov    %rcx,-0x20(%rbp)
  408ad6:	44 89 45 f0          	mov    %r8d,-0x10(%rbp)
  408ada:	88 45 f4             	mov    %al,-0xc(%rbp)
  408add:	0f b6 55 f4          	movzbl -0xc(%rbp),%edx
  408ae1:	48 8b 45 f8          	mov    -0x8(%rbp),%rax
  408ae5:	8b 7d f0             	mov    -0x10(%rbp),%edi
  408ae8:	48 8b 75 e0          	mov    -0x20(%rbp),%rsi
  408aec:	48 8b 4d e8          	mov    -0x18(%rbp),%rcx
  408af0:	41 89 f9             	mov    %edi,%r9d
  408af3:	49 89 f0             	mov    %rsi,%r8
  408af6:	be 00 00 00 00       	mov    $0x0,%esi
  408afb:	48 89 c7             	mov    %rax,%rdi
  408afe:	e8 f9 18 00 00       	callq  40a3fc <_ZN11Tensor_KingIf15CPU_MATHEMATICS10continuousIfS0_EEC1IIPfPiiEEEbbDpT_>
  408b03:	ba d8 d8 40 00       	mov    $0x40d8d8,%edx
  408b08:	48 8b 45 f8          	mov    -0x8(%rbp),%rax
  408b0c:	48 89 10             	mov    %rdx,(%rax)
  408b0f:	90                   	nop
  408b10:	c9                   	leaveq 
  408b11:	c3                   	retq   

0000000000408b12 <_ZN11Tensor_KingIf15CPU_MATHEMATICS18transpose_accessorIfS0_EEC1II10continuousIfS0_EEEEbbDpT_>:
  408b12:	55                   	push   %rbp
  408b13:	48 89 e5             	mov    %rsp,%rbp
  408b16:	53                   	push   %rbx
  408b17:	48 83 ec 28          	sub    $0x28,%rsp
  408b1b:	48 89 7d e8          	mov    %rdi,-0x18(%rbp)
  408b1f:	89 d0                	mov    %edx,%eax
  408b21:	48 89 4d d8          	mov    %rcx,-0x28(%rbp)
  408b25:	40 88 75 e4          	mov    %sil,-0x1c(%rbp)
  408b29:	88 45 e0             	mov    %al,-0x20(%rbp)
  408b2c:	48 8b 45 e8          	mov    -0x18(%rbp),%rax
  408b30:	48 89 c7             	mov    %rax,%rdi
  408b33:	e8 72 c8 ff ff       	callq  4053aa <_ZN10Tensor_AceC1Ev>
  408b38:	ba f8 ce 40 00       	mov    $0x40cef8,%edx
  408b3d:	48 8b 45 e8          	mov    -0x18(%rbp),%rax
  408b41:	48 89 10             	mov    %rdx,(%rax)
  408b44:	48 8b 45 d8          	mov    -0x28(%rbp),%rax
  408b48:	48 8b 55 e8          	mov    -0x18(%rbp),%rdx
  408b4c:	48 83 c2 08          	add    $0x8,%rdx
  408b50:	48 89 c6             	mov    %rax,%rsi
  408b53:	48 89 d7             	mov    %rdx,%rdi
  408b56:	e8 0f 19 00 00       	callq  40a46a <_ZN18transpose_accessorIf15CPU_MATHEMATICSEC1ER12accessor_aceIfS0_E>
  408b5b:	48 8b 45 e8          	mov    -0x18(%rbp),%rax
  408b5f:	0f b6 55 e4          	movzbl -0x1c(%rbp),%edx
  408b63:	88 50 30             	mov    %dl,0x30(%rax)
  408b66:	48 8b 45 e8          	mov    -0x18(%rbp),%rax
  408b6a:	0f b6 55 e0          	movzbl -0x20(%rbp),%edx
  408b6e:	88 50 31             	mov    %dl,0x31(%rax)
  408b71:	eb 1a                	jmp    408b8d <_ZN11Tensor_KingIf15CPU_MATHEMATICS18transpose_accessorIfS0_EEC1II10continuousIfS0_EEEEbbDpT_+0x7b>
  408b73:	48 89 c3             	mov    %rax,%rbx
  408b76:	48 8b 45 e8          	mov    -0x18(%rbp),%rax
  408b7a:	48 89 c7             	mov    %rax,%rdi
  408b7d:	e8 fe a7 ff ff       	callq  403380 <_ZN10Tensor_AceD1Ev>
  408b82:	48 89 d8             	mov    %rbx,%rax
  408b85:	48 89 c7             	mov    %rax,%rdi
  408b88:	e8 03 94 ff ff       	callq  401f90 <_Unwind_Resume@plt>
  408b8d:	48 83 c4 28          	add    $0x28,%rsp
  408b91:	5b                   	pop    %rbx
  408b92:	5d                   	pop    %rbp
  408b93:	c3                   	retq   

0000000000408b94 <_ZN18transpose_accessorIf15CPU_MATHEMATICSE7getDataEv>:
  408b94:	55                   	push   %rbp
  408b95:	48 89 e5             	mov    %rsp,%rbp
  408b98:	48 83 ec 10          	sub    $0x10,%rsp
  408b9c:	48 89 7d f8          	mov    %rdi,-0x8(%rbp)
  408ba0:	be 80 c9 40 00       	mov    $0x40c980,%esi
  408ba5:	bf 60 42 61 00       	mov    $0x614260,%edi
  408baa:	e8 11 92 ff ff       	callq  401dc0 <_ZStlsISt11char_traitsIcEERSt13basic_ostreamIcT_ES5_PKc@plt>
  408baf:	be d0 c9 40 00       	mov    $0x40c9d0,%esi
  408bb4:	48 89 c7             	mov    %rax,%rdi
  408bb7:	e8 04 92 ff ff       	callq  401dc0 <_ZStlsISt11char_traitsIcEERSt13basic_ostreamIcT_ES5_PKc@plt>
  408bbc:	be 00 1d 40 00       	mov    $0x401d00,%esi
  408bc1:	48 89 c7             	mov    %rax,%rdi
  408bc4:	e8 27 92 ff ff       	callq  401df0 <_ZNSolsEPFRSoS_E@plt>
  408bc9:	48 8b 45 f8          	mov    -0x8(%rbp),%rax
  408bcd:	48 8b 40 08          	mov    0x8(%rax),%rax
  408bd1:	c9                   	leaveq 
  408bd2:	c3                   	retq   
  408bd3:	90                   	nop

0000000000408bd4 <_ZN18transpose_accessorIf15CPU_MATHEMATICSE8getShapeEv>:
  408bd4:	55                   	push   %rbp
  408bd5:	48 89 e5             	mov    %rsp,%rbp
  408bd8:	48 83 ec 10          	sub    $0x10,%rsp
  408bdc:	48 89 7d f8          	mov    %rdi,-0x8(%rbp)
  408be0:	be c8 c7 40 00       	mov    $0x40c7c8,%esi
  408be5:	bf 60 42 61 00       	mov    $0x614260,%edi
  408bea:	e8 d1 91 ff ff       	callq  401dc0 <_ZStlsISt11char_traitsIcEERSt13basic_ostreamIcT_ES5_PKc@plt>
  408bef:	be 18 c8 40 00       	mov    $0x40c818,%esi
  408bf4:	48 89 c7             	mov    %rax,%rdi
  408bf7:	e8 c4 91 ff ff       	callq  401dc0 <_ZStlsISt11char_traitsIcEERSt13basic_ostreamIcT_ES5_PKc@plt>
  408bfc:	be 00 1d 40 00       	mov    $0x401d00,%esi
  408c01:	48 89 c7             	mov    %rax,%rdi
  408c04:	e8 e7 91 ff ff       	callq  401df0 <_ZNSolsEPFRSoS_E@plt>
  408c09:	48 8b 45 f8          	mov    -0x8(%rbp),%rax
  408c0d:	48 8b 40 10          	mov    0x10(%rax),%rax
  408c11:	c9                   	leaveq 
  408c12:	c3                   	retq   
  408c13:	90                   	nop

0000000000408c14 <_ZNK18transpose_accessorIf15CPU_MATHEMATICSE5orderEv>:
  408c14:	55                   	push   %rbp
  408c15:	48 89 e5             	mov    %rsp,%rbp
  408c18:	48 89 7d f8          	mov    %rdi,-0x8(%rbp)
  408c1c:	48 8b 45 f8          	mov    -0x8(%rbp),%rax
  408c20:	8b 40 20             	mov    0x20(%rax),%eax
  408c23:	5d                   	pop    %rbp
  408c24:	c3                   	retq   

0000000000408c25 <_ZN15CPU_MATHEMATICS11printHelperI18transpose_accessorIfS_EEEvT_PKiiNSt7__cxx1112basic_stringIcSt11char_traitsIcESaIcEEEi>:
  408c25:	55                   	push   %rbp
  408c26:	48 89 e5             	mov    %rsp,%rbp
  408c29:	53                   	push   %rbx
  408c2a:	48 81 ec c8 00 00 00 	sub    $0xc8,%rsp
  408c31:	48 89 bd 58 ff ff ff 	mov    %rdi,-0xa8(%rbp)
  408c38:	48 89 b5 50 ff ff ff 	mov    %rsi,-0xb0(%rbp)
  408c3f:	89 95 4c ff ff ff    	mov    %edx,-0xb4(%rbp)
  408c45:	48 89 8d 40 ff ff ff 	mov    %rcx,-0xc0(%rbp)
  408c4c:	44 89 85 48 ff ff ff 	mov    %r8d,-0xb8(%rbp)
  408c53:	64 48 8b 04 25 28 00 	mov    %fs:0x28,%rax
  408c5a:	00 00 
  408c5c:	48 89 45 e8          	mov    %rax,-0x18(%rbp)
  408c60:	31 c0                	xor    %eax,%eax
  408c62:	83 ad 4c ff ff ff 01 	subl   $0x1,-0xb4(%rbp)
  408c69:	83 bd 4c ff ff ff 01 	cmpl   $0x1,-0xb4(%rbp)
  408c70:	0f 8e e6 01 00 00    	jle    408e5c <_ZN15CPU_MATHEMATICS11printHelperI18transpose_accessorIfS_EEEvT_PKiiNSt7__cxx1112basic_stringIcSt11char_traitsIcESaIcEEEi+0x237>
  408c76:	48 8b 85 40 ff ff ff 	mov    -0xc0(%rbp),%rax
  408c7d:	48 89 c6             	mov    %rax,%rsi
  408c80:	bf 60 42 61 00       	mov    $0x614260,%edi
  408c85:	e8 16 91 ff ff       	callq  401da0 <_ZStlsIcSt11char_traitsIcESaIcEERSt13basic_ostreamIT_T0_ES7_RKNSt7__cxx1112basic_stringIS4_S5_T1_EE@plt>
  408c8a:	be aa c8 40 00       	mov    $0x40c8aa,%esi
  408c8f:	48 89 c7             	mov    %rax,%rdi
  408c92:	e8 29 91 ff ff       	callq  401dc0 <_ZStlsISt11char_traitsIcEERSt13basic_ostreamIcT_ES5_PKc@plt>
  408c97:	48 89 c2             	mov    %rax,%rdx
  408c9a:	8b 85 4c ff ff ff    	mov    -0xb4(%rbp),%eax
  408ca0:	89 c6                	mov    %eax,%esi
  408ca2:	48 89 d7             	mov    %rdx,%rdi
  408ca5:	e8 d6 92 ff ff       	callq  401f80 <_ZNSolsEi@plt>
  408caa:	be bf c8 40 00       	mov    $0x40c8bf,%esi
  408caf:	48 89 c7             	mov    %rax,%rdi
  408cb2:	e8 09 91 ff ff       	callq  401dc0 <_ZStlsISt11char_traitsIcEERSt13basic_ostreamIcT_ES5_PKc@plt>
  408cb7:	be 00 1d 40 00       	mov    $0x401d00,%esi
  408cbc:	48 89 c7             	mov    %rax,%rdi
  408cbf:	e8 2c 91 ff ff       	callq  401df0 <_ZNSolsEPFRSoS_E@plt>
  408cc4:	48 8b 85 40 ff ff ff 	mov    -0xc0(%rbp),%rax
  408ccb:	be d4 c8 40 00       	mov    $0x40c8d4,%esi
  408cd0:	48 89 c7             	mov    %rax,%rdi
  408cd3:	e8 d8 90 ff ff       	callq  401db0 <_ZNSt7__cxx1112basic_stringIcSt11char_traitsIcESaIcEEpLEPKc@plt>
  408cd8:	c7 85 70 ff ff ff 00 	movl   $0x0,-0x90(%rbp)
  408cdf:	00 00 00 
  408ce2:	8b 85 4c ff ff ff    	mov    -0xb4(%rbp),%eax
  408ce8:	48 98                	cltq   
  408cea:	48 8d 14 85 00 00 00 	lea    0x0(,%rax,4),%rdx
  408cf1:	00 
  408cf2:	48 8b 85 50 ff ff ff 	mov    -0xb0(%rbp),%rax
  408cf9:	48 01 d0             	add    %rdx,%rax
  408cfc:	8b 00                	mov    (%rax),%eax
  408cfe:	3b 85 70 ff ff ff    	cmp    -0x90(%rbp),%eax
  408d04:	0f 8e 89 00 00 00    	jle    408d93 <_ZN15CPU_MATHEMATICS11printHelperI18transpose_accessorIfS_EEEvT_PKiiNSt7__cxx1112basic_stringIcSt11char_traitsIcESaIcEEEi+0x16e>
  408d0a:	48 8b 95 40 ff ff ff 	mov    -0xc0(%rbp),%rdx
  408d11:	48 8d 45 c0          	lea    -0x40(%rbp),%rax
  408d15:	48 89 d6             	mov    %rdx,%rsi
  408d18:	48 89 c7             	mov    %rax,%rdi
  408d1b:	e8 d0 8f ff ff       	callq  401cf0 <_ZNSt7__cxx1112basic_stringIcSt11char_traitsIcESaIcEEC1ERKS4_@plt>
  408d20:	8b 85 4c ff ff ff    	mov    -0xb4(%rbp),%eax
  408d26:	48 98                	cltq   
  408d28:	48 c1 e0 02          	shl    $0x2,%rax
  408d2c:	48 8d 50 fc          	lea    -0x4(%rax),%rdx
  408d30:	48 8b 85 50 ff ff ff 	mov    -0xb0(%rbp),%rax
  408d37:	48 01 d0             	add    %rdx,%rax
  408d3a:	8b 00                	mov    (%rax),%eax
  408d3c:	0f af 85 70 ff ff ff 	imul   -0x90(%rbp),%eax
  408d43:	89 c2                	mov    %eax,%edx
  408d45:	48 8b 85 58 ff ff ff 	mov    -0xa8(%rbp),%rax
  408d4c:	89 d6                	mov    %edx,%esi
  408d4e:	48 89 c7             	mov    %rax,%rdi
  408d51:	e8 9c 06 00 00       	callq  4093f2 <_ZNK18transpose_accessorIf15CPU_MATHEMATICSEixEi>
  408d56:	48 89 c7             	mov    %rax,%rdi
  408d59:	8b b5 48 ff ff ff    	mov    -0xb8(%rbp),%esi
  408d5f:	48 8d 4d c0          	lea    -0x40(%rbp),%rcx
  408d63:	8b 95 4c ff ff ff    	mov    -0xb4(%rbp),%edx
  408d69:	48 8b 85 50 ff ff ff 	mov    -0xb0(%rbp),%rax
  408d70:	41 89 f0             	mov    %esi,%r8d
  408d73:	48 89 c6             	mov    %rax,%rsi
  408d76:	e8 b0 0b 00 00       	callq  40992b <_ZN15CPU_MATHEMATICS11printHelperIPKfEEvT_PKiiNSt7__cxx1112basic_stringIcSt11char_traitsIcESaIcEEEi>
  408d7b:	48 8d 45 c0          	lea    -0x40(%rbp),%rax
  408d7f:	48 89 c7             	mov    %rax,%rdi
  408d82:	e8 99 8f ff ff       	callq  401d20 <_ZNSt7__cxx1112basic_stringIcSt11char_traitsIcESaIcEED1Ev@plt>
  408d87:	83 85 70 ff ff ff 01 	addl   $0x1,-0x90(%rbp)
  408d8e:	e9 4f ff ff ff       	jmpq   408ce2 <_ZN15CPU_MATHEMATICS11printHelperI18transpose_accessorIfS_EEEvT_PKiiNSt7__cxx1112basic_stringIcSt11char_traitsIcESaIcEEEi+0xbd>
  408d93:	48 8d 45 a0          	lea    -0x60(%rbp),%rax
  408d97:	8b 95 4c ff ff ff    	mov    -0xb4(%rbp),%edx
  408d9d:	89 d6                	mov    %edx,%esi
  408d9f:	48 89 c7             	mov    %rax,%rdi
  408da2:	e8 12 a5 ff ff       	callq  4032b9 <_ZNSt7__cxx119to_stringEi>
  408da7:	48 8d 85 6f ff ff ff 	lea    -0x91(%rbp),%rax
  408dae:	48 89 c7             	mov    %rax,%rdi
  408db1:	e8 ea 91 ff ff       	callq  401fa0 <_ZNSaIcEC1Ev@plt>
  408db6:	48 8d 45 a0          	lea    -0x60(%rbp),%rax
  408dba:	48 89 c7             	mov    %rax,%rdi
  408dbd:	e8 1e 91 ff ff       	callq  401ee0 <_ZNKSt7__cxx1112basic_stringIcSt11char_traitsIcESaIcEE6lengthEv@plt>
  408dc2:	48 89 c6             	mov    %rax,%rsi
  408dc5:	48 8d 95 6f ff ff ff 	lea    -0x91(%rbp),%rdx
  408dcc:	48 8d 45 c0          	lea    -0x40(%rbp),%rax
  408dd0:	48 89 d1             	mov    %rdx,%rcx
  408dd3:	48 89 f2             	mov    %rsi,%rdx
  408dd6:	be d9 c8 40 00       	mov    $0x40c8d9,%esi
  408ddb:	48 89 c7             	mov    %rax,%rdi
  408dde:	e8 5d 90 ff ff       	callq  401e40 <_ZNSt7__cxx1112basic_stringIcSt11char_traitsIcESaIcEEC1EPKcmRKS3_@plt>
  408de3:	48 8d 85 6f ff ff ff 	lea    -0x91(%rbp),%rax
  408dea:	48 89 c7             	mov    %rax,%rdi
  408ded:	e8 1e 90 ff ff       	callq  401e10 <_ZNSaIcED1Ev@plt>
  408df2:	48 8b 85 40 ff ff ff 	mov    -0xc0(%rbp),%rax
  408df9:	48 89 c6             	mov    %rax,%rsi
  408dfc:	bf 60 42 61 00       	mov    $0x614260,%edi
  408e01:	e8 9a 8f ff ff       	callq  401da0 <_ZStlsIcSt11char_traitsIcESaIcEERSt13basic_ostreamIT_T0_ES7_RKNSt7__cxx1112basic_stringIS4_S5_T1_EE@plt>
  408e06:	be aa c8 40 00       	mov    $0x40c8aa,%esi
  408e0b:	48 89 c7             	mov    %rax,%rdi
  408e0e:	e8 ad 8f ff ff       	callq  401dc0 <_ZStlsISt11char_traitsIcEERSt13basic_ostreamIcT_ES5_PKc@plt>
  408e13:	48 89 c2             	mov    %rax,%rdx
  408e16:	48 8d 45 c0          	lea    -0x40(%rbp),%rax
  408e1a:	48 89 c6             	mov    %rax,%rsi
  408e1d:	48 89 d7             	mov    %rdx,%rdi
  408e20:	e8 7b 8f ff ff       	callq  401da0 <_ZStlsIcSt11char_traitsIcESaIcEERSt13basic_ostreamIT_T0_ES7_RKNSt7__cxx1112basic_stringIS4_S5_T1_EE@plt>
  408e25:	be bf c8 40 00       	mov    $0x40c8bf,%esi
  408e2a:	48 89 c7             	mov    %rax,%rdi
  408e2d:	e8 8e 8f ff ff       	callq  401dc0 <_ZStlsISt11char_traitsIcEERSt13basic_ostreamIcT_ES5_PKc@plt>
  408e32:	be 00 1d 40 00       	mov    $0x401d00,%esi
  408e37:	48 89 c7             	mov    %rax,%rdi
  408e3a:	e8 b1 8f ff ff       	callq  401df0 <_ZNSolsEPFRSoS_E@plt>
  408e3f:	48 8d 45 c0          	lea    -0x40(%rbp),%rax
  408e43:	48 89 c7             	mov    %rax,%rdi
  408e46:	e8 d5 8e ff ff       	callq  401d20 <_ZNSt7__cxx1112basic_stringIcSt11char_traitsIcESaIcEED1Ev@plt>
  408e4b:	48 8d 45 a0          	lea    -0x60(%rbp),%rax
  408e4f:	48 89 c7             	mov    %rax,%rdi
  408e52:	e8 c9 8e ff ff       	callq  401d20 <_ZNSt7__cxx1112basic_stringIcSt11char_traitsIcESaIcEED1Ev@plt>
  408e57:	e9 38 05 00 00       	jmpq   409394 <_ZN15CPU_MATHEMATICS11printHelperI18transpose_accessorIfS_EEEvT_PKiiNSt7__cxx1112basic_stringIcSt11char_traitsIcESaIcEEEi+0x76f>
  408e5c:	83 bd 4c ff ff ff 01 	cmpl   $0x1,-0xb4(%rbp)
  408e63:	0f 85 53 02 00 00    	jne    4090bc <_ZN15CPU_MATHEMATICS11printHelperI18transpose_accessorIfS_EEEvT_PKiiNSt7__cxx1112basic_stringIcSt11char_traitsIcESaIcEEEi+0x497>
  408e69:	c7 85 74 ff ff ff 00 	movl   $0x0,-0x8c(%rbp)
  408e70:	00 00 00 
  408e73:	8b 85 4c ff ff ff    	mov    -0xb4(%rbp),%eax
  408e79:	48 98                	cltq   
  408e7b:	48 c1 e0 02          	shl    $0x2,%rax
  408e7f:	48 8d 50 fc          	lea    -0x4(%rax),%rdx
  408e83:	48 8b 85 50 ff ff ff 	mov    -0xb0(%rbp),%rax
  408e8a:	48 01 d0             	add    %rdx,%rax
  408e8d:	8b 00                	mov    (%rax),%eax
  408e8f:	3b 85 74 ff ff ff    	cmp    -0x8c(%rbp),%eax
  408e95:	0f 8e f9 04 00 00    	jle    409394 <_ZN15CPU_MATHEMATICS11printHelperI18transpose_accessorIfS_EEEvT_PKiiNSt7__cxx1112basic_stringIcSt11char_traitsIcESaIcEEEi+0x76f>
  408e9b:	be b8 c7 40 00       	mov    $0x40c7b8,%esi
  408ea0:	bf 60 42 61 00       	mov    $0x614260,%edi
  408ea5:	e8 16 8f ff ff       	callq  401dc0 <_ZStlsISt11char_traitsIcEERSt13basic_ostreamIcT_ES5_PKc@plt>
  408eaa:	c7 85 78 ff ff ff 00 	movl   $0x0,-0x88(%rbp)
  408eb1:	00 00 00 
  408eb4:	8b 85 4c ff ff ff    	mov    -0xb4(%rbp),%eax
  408eba:	48 98                	cltq   
  408ebc:	48 8d 14 85 00 00 00 	lea    0x0(,%rax,4),%rdx
  408ec3:	00 
  408ec4:	48 8b 85 50 ff ff ff 	mov    -0xb0(%rbp),%rax
  408ecb:	48 01 d0             	add    %rdx,%rax
  408ece:	8b 00                	mov    (%rax),%eax
  408ed0:	3b 85 78 ff ff ff    	cmp    -0x88(%rbp),%eax
  408ed6:	0f 8e b6 01 00 00    	jle    409092 <_ZN15CPU_MATHEMATICS11printHelperI18transpose_accessorIfS_EEEvT_PKiiNSt7__cxx1112basic_stringIcSt11char_traitsIcESaIcEEEi+0x46d>
  408edc:	8b 85 4c ff ff ff    	mov    -0xb4(%rbp),%eax
  408ee2:	48 98                	cltq   
  408ee4:	48 c1 e0 02          	shl    $0x2,%rax
  408ee8:	48 8d 50 fc          	lea    -0x4(%rax),%rdx
  408eec:	48 8b 85 50 ff ff ff 	mov    -0xb0(%rbp),%rax
  408ef3:	48 01 d0             	add    %rdx,%rax
  408ef6:	8b 00                	mov    (%rax),%eax
  408ef8:	0f af 85 78 ff ff ff 	imul   -0x88(%rbp),%eax
  408eff:	89 c2                	mov    %eax,%edx
  408f01:	8b 85 74 ff ff ff    	mov    -0x8c(%rbp),%eax
  408f07:	01 c2                	add    %eax,%edx
  408f09:	48 8b 85 58 ff ff ff 	mov    -0xa8(%rbp),%rax
  408f10:	89 d6                	mov    %edx,%esi
  408f12:	48 89 c7             	mov    %rax,%rdi
  408f15:	e8 d8 04 00 00       	callq  4093f2 <_ZNK18transpose_accessorIf15CPU_MATHEMATICSEixEi>
  408f1a:	8b 10                	mov    (%rax),%edx
  408f1c:	48 8d 45 80          	lea    -0x80(%rbp),%rax
  408f20:	89 95 3c ff ff ff    	mov    %edx,-0xc4(%rbp)
  408f26:	f3 0f 10 85 3c ff ff 	movss  -0xc4(%rbp),%xmm0
  408f2d:	ff 
  408f2e:	48 89 c7             	mov    %rax,%rdi
  408f31:	e8 e4 a3 ff ff       	callq  40331a <_ZNSt7__cxx119to_stringEf>
  408f36:	48 8d 45 80          	lea    -0x80(%rbp),%rax
  408f3a:	48 89 c7             	mov    %rax,%rdi
  408f3d:	e8 9e 8f ff ff       	callq  401ee0 <_ZNKSt7__cxx1112basic_stringIcSt11char_traitsIcESaIcEE6lengthEv@plt>
  408f42:	48 89 c2             	mov    %rax,%rdx
  408f45:	8b 85 48 ff ff ff    	mov    -0xb8(%rbp),%eax
  408f4b:	48 98                	cltq   
  408f4d:	48 39 c2             	cmp    %rax,%rdx
  408f50:	73 0e                	jae    408f60 <_ZN15CPU_MATHEMATICS11printHelperI18transpose_accessorIfS_EEEvT_PKiiNSt7__cxx1112basic_stringIcSt11char_traitsIcESaIcEEEi+0x33b>
  408f52:	48 8d 45 80          	lea    -0x80(%rbp),%rax
  408f56:	48 89 c7             	mov    %rax,%rdi
  408f59:	e8 82 8f ff ff       	callq  401ee0 <_ZNKSt7__cxx1112basic_stringIcSt11char_traitsIcESaIcEE6lengthEv@plt>
  408f5e:	eb 08                	jmp    408f68 <_ZN15CPU_MATHEMATICS11printHelperI18transpose_accessorIfS_EEEvT_PKiiNSt7__cxx1112basic_stringIcSt11char_traitsIcESaIcEEEi+0x343>
  408f60:	8b 85 48 ff ff ff    	mov    -0xb8(%rbp),%eax
  408f66:	48 98                	cltq   
  408f68:	48 8d 7d a0          	lea    -0x60(%rbp),%rdi
  408f6c:	48 8d 75 80          	lea    -0x80(%rbp),%rsi
  408f70:	48 89 c1             	mov    %rax,%rcx
  408f73:	ba 00 00 00 00       	mov    $0x0,%edx
  408f78:	e8 63 8e ff ff       	callq  401de0 <_ZNKSt7__cxx1112basic_stringIcSt11char_traitsIcESaIcEE6substrEmm@plt>
  408f7d:	48 8d 55 a0          	lea    -0x60(%rbp),%rdx
  408f81:	48 8d 45 80          	lea    -0x80(%rbp),%rax
  408f85:	48 89 d6             	mov    %rdx,%rsi
  408f88:	48 89 c7             	mov    %rax,%rdi
  408f8b:	e8 c0 8e ff ff       	callq  401e50 <_ZNSt7__cxx1112basic_stringIcSt11char_traitsIcESaIcEEaSEOS4_@plt>
  408f90:	48 8d 45 a0          	lea    -0x60(%rbp),%rax
  408f94:	48 89 c7             	mov    %rax,%rdi
  408f97:	e8 84 8d ff ff       	callq  401d20 <_ZNSt7__cxx1112basic_stringIcSt11char_traitsIcESaIcEED1Ev@plt>
  408f9c:	48 8d 45 80          	lea    -0x80(%rbp),%rax
  408fa0:	48 89 c7             	mov    %rax,%rdi
  408fa3:	e8 38 8f ff ff       	callq  401ee0 <_ZNKSt7__cxx1112basic_stringIcSt11char_traitsIcESaIcEE6lengthEv@plt>
  408fa8:	48 89 c2             	mov    %rax,%rdx
  408fab:	8b 85 48 ff ff ff    	mov    -0xb8(%rbp),%eax
  408fb1:	48 98                	cltq   
  408fb3:	48 39 c2             	cmp    %rax,%rdx
  408fb6:	0f 92 c0             	setb   %al
  408fb9:	84 c0                	test   %al,%al
  408fbb:	74 76                	je     409033 <_ZN15CPU_MATHEMATICS11printHelperI18transpose_accessorIfS_EEEvT_PKiiNSt7__cxx1112basic_stringIcSt11char_traitsIcESaIcEEEi+0x40e>
  408fbd:	48 8d 85 6f ff ff ff 	lea    -0x91(%rbp),%rax
  408fc4:	48 89 c7             	mov    %rax,%rdi
  408fc7:	e8 d4 8f ff ff       	callq  401fa0 <_ZNSaIcEC1Ev@plt>
  408fcc:	8b 85 48 ff ff ff    	mov    -0xb8(%rbp),%eax
  408fd2:	48 63 d8             	movslq %eax,%rbx
  408fd5:	48 8d 45 80          	lea    -0x80(%rbp),%rax
  408fd9:	48 89 c7             	mov    %rax,%rdi
  408fdc:	e8 ff 8e ff ff       	callq  401ee0 <_ZNKSt7__cxx1112basic_stringIcSt11char_traitsIcESaIcEE6lengthEv@plt>
  408fe1:	48 29 c3             	sub    %rax,%rbx
  408fe4:	48 89 de             	mov    %rbx,%rsi
  408fe7:	48 8d 95 6f ff ff ff 	lea    -0x91(%rbp),%rdx
  408fee:	48 8d 45 c0          	lea    -0x40(%rbp),%rax
  408ff2:	48 89 d1             	mov    %rdx,%rcx
  408ff5:	48 89 f2             	mov    %rsi,%rdx
  408ff8:	be d9 c8 40 00       	mov    $0x40c8d9,%esi
  408ffd:	48 89 c7             	mov    %rax,%rdi
  409000:	e8 3b 8e ff ff       	callq  401e40 <_ZNSt7__cxx1112basic_stringIcSt11char_traitsIcESaIcEEC1EPKcmRKS3_@plt>
  409005:	48 8d 55 c0          	lea    -0x40(%rbp),%rdx
  409009:	48 8d 45 80          	lea    -0x80(%rbp),%rax
  40900d:	48 89 d6             	mov    %rdx,%rsi
  409010:	48 89 c7             	mov    %rax,%rdi
  409013:	e8 58 8e ff ff       	callq  401e70 <_ZNSt7__cxx1112basic_stringIcSt11char_traitsIcESaIcEEpLERKS4_@plt>
  409018:	48 8d 45 c0          	lea    -0x40(%rbp),%rax
  40901c:	48 89 c7             	mov    %rax,%rdi
  40901f:	e8 fc 8c ff ff       	callq  401d20 <_ZNSt7__cxx1112basic_stringIcSt11char_traitsIcESaIcEED1Ev@plt>
  409024:	48 8d 85 6f ff ff ff 	lea    -0x91(%rbp),%rax
  40902b:	48 89 c7             	mov    %rax,%rdi
  40902e:	e8 dd 8d ff ff       	callq  401e10 <_ZNSaIcED1Ev@plt>
  409033:	48 8d 45 80          	lea    -0x80(%rbp),%rax
  409037:	48 89 c6             	mov    %rax,%rsi
  40903a:	bf 60 42 61 00       	mov    $0x614260,%edi
  40903f:	e8 5c 8d ff ff       	callq  401da0 <_ZStlsIcSt11char_traitsIcESaIcEERSt13basic_ostreamIT_T0_ES7_RKNSt7__cxx1112basic_stringIS4_S5_T1_EE@plt>
  409044:	8b 85 4c ff ff ff    	mov    -0xb4(%rbp),%eax
  40904a:	48 98                	cltq   
  40904c:	48 8d 14 85 00 00 00 	lea    0x0(,%rax,4),%rdx
  409053:	00 
  409054:	48 8b 85 50 ff ff ff 	mov    -0xb0(%rbp),%rax
  40905b:	48 01 d0             	add    %rdx,%rax
  40905e:	8b 00                	mov    (%rax),%eax
  409060:	83 e8 01             	sub    $0x1,%eax
  409063:	3b 85 78 ff ff ff    	cmp    -0x88(%rbp),%eax
  409069:	7e 0f                	jle    40907a <_ZN15CPU_MATHEMATICS11printHelperI18transpose_accessorIfS_EEEvT_PKiiNSt7__cxx1112basic_stringIcSt11char_traitsIcESaIcEEEi+0x455>
  40906b:	be bb c7 40 00       	mov    $0x40c7bb,%esi
  409070:	bf 60 42 61 00       	mov    $0x614260,%edi
  409075:	e8 46 8d ff ff       	callq  401dc0 <_ZStlsISt11char_traitsIcEERSt13basic_ostreamIcT_ES5_PKc@plt>
  40907a:	48 8d 45 80          	lea    -0x80(%rbp),%rax
  40907e:	48 89 c7             	mov    %rax,%rdi
  409081:	e8 9a 8c ff ff       	callq  401d20 <_ZNSt7__cxx1112basic_stringIcSt11char_traitsIcESaIcEED1Ev@plt>
  409086:	83 85 78 ff ff ff 01 	addl   $0x1,-0x88(%rbp)
  40908d:	e9 22 fe ff ff       	jmpq   408eb4 <_ZN15CPU_MATHEMATICS11printHelperI18transpose_accessorIfS_EEEvT_PKiiNSt7__cxx1112basic_stringIcSt11char_traitsIcESaIcEEEi+0x28f>
  409092:	be bf c7 40 00       	mov    $0x40c7bf,%esi
  409097:	bf 60 42 61 00       	mov    $0x614260,%edi
  40909c:	e8 1f 8d ff ff       	callq  401dc0 <_ZStlsISt11char_traitsIcEERSt13basic_ostreamIcT_ES5_PKc@plt>
  4090a1:	be 00 1d 40 00       	mov    $0x401d00,%esi
  4090a6:	bf 60 42 61 00       	mov    $0x614260,%edi
  4090ab:	e8 40 8d ff ff       	callq  401df0 <_ZNSolsEPFRSoS_E@plt>
  4090b0:	83 85 74 ff ff ff 01 	addl   $0x1,-0x8c(%rbp)
  4090b7:	e9 b7 fd ff ff       	jmpq   408e73 <_ZN15CPU_MATHEMATICS11printHelperI18transpose_accessorIfS_EEEvT_PKiiNSt7__cxx1112basic_stringIcSt11char_traitsIcESaIcEEEi+0x24e>
  4090bc:	be b8 c7 40 00       	mov    $0x40c7b8,%esi
  4090c1:	bf 60 42 61 00       	mov    $0x614260,%edi
  4090c6:	e8 f5 8c ff ff       	callq  401dc0 <_ZStlsISt11char_traitsIcEERSt13basic_ostreamIcT_ES5_PKc@plt>
  4090cb:	c7 85 7c ff ff ff 00 	movl   $0x0,-0x84(%rbp)
  4090d2:	00 00 00 
  4090d5:	8b 85 4c ff ff ff    	mov    -0xb4(%rbp),%eax
  4090db:	48 98                	cltq   
  4090dd:	48 8d 14 85 00 00 00 	lea    0x0(,%rax,4),%rdx
  4090e4:	00 
  4090e5:	48 8b 85 50 ff ff ff 	mov    -0xb0(%rbp),%rax
  4090ec:	48 01 d0             	add    %rdx,%rax
  4090ef:	8b 00                	mov    (%rax),%eax
  4090f1:	3b 85 7c ff ff ff    	cmp    -0x84(%rbp),%eax
  4090f7:	0f 8e 8f 01 00 00    	jle    40928c <_ZN15CPU_MATHEMATICS11printHelperI18transpose_accessorIfS_EEEvT_PKiiNSt7__cxx1112basic_stringIcSt11char_traitsIcESaIcEEEi+0x667>
  4090fd:	8b 95 7c ff ff ff    	mov    -0x84(%rbp),%edx
  409103:	48 8b 85 58 ff ff ff 	mov    -0xa8(%rbp),%rax
  40910a:	89 d6                	mov    %edx,%esi
  40910c:	48 89 c7             	mov    %rax,%rdi
  40910f:	e8 de 02 00 00       	callq  4093f2 <_ZNK18transpose_accessorIf15CPU_MATHEMATICSEixEi>
  409114:	8b 10                	mov    (%rax),%edx
  409116:	48 8d 45 80          	lea    -0x80(%rbp),%rax
  40911a:	89 95 3c ff ff ff    	mov    %edx,-0xc4(%rbp)
  409120:	f3 0f 10 85 3c ff ff 	movss  -0xc4(%rbp),%xmm0
  409127:	ff 
  409128:	48 89 c7             	mov    %rax,%rdi
  40912b:	e8 ea a1 ff ff       	callq  40331a <_ZNSt7__cxx119to_stringEf>
  409130:	48 8d 45 80          	lea    -0x80(%rbp),%rax
  409134:	48 89 c7             	mov    %rax,%rdi
  409137:	e8 a4 8d ff ff       	callq  401ee0 <_ZNKSt7__cxx1112basic_stringIcSt11char_traitsIcESaIcEE6lengthEv@plt>
  40913c:	48 89 c2             	mov    %rax,%rdx
  40913f:	8b 85 48 ff ff ff    	mov    -0xb8(%rbp),%eax
  409145:	48 98                	cltq   
  409147:	48 39 c2             	cmp    %rax,%rdx
  40914a:	73 0e                	jae    40915a <_ZN15CPU_MATHEMATICS11printHelperI18transpose_accessorIfS_EEEvT_PKiiNSt7__cxx1112basic_stringIcSt11char_traitsIcESaIcEEEi+0x535>
  40914c:	48 8d 45 80          	lea    -0x80(%rbp),%rax
  409150:	48 89 c7             	mov    %rax,%rdi
  409153:	e8 88 8d ff ff       	callq  401ee0 <_ZNKSt7__cxx1112basic_stringIcSt11char_traitsIcESaIcEE6lengthEv@plt>
  409158:	eb 08                	jmp    409162 <_ZN15CPU_MATHEMATICS11printHelperI18transpose_accessorIfS_EEEvT_PKiiNSt7__cxx1112basic_stringIcSt11char_traitsIcESaIcEEEi+0x53d>
  40915a:	8b 85 48 ff ff ff    	mov    -0xb8(%rbp),%eax
  409160:	48 98                	cltq   
  409162:	48 8d 7d a0          	lea    -0x60(%rbp),%rdi
  409166:	48 8d 75 80          	lea    -0x80(%rbp),%rsi
  40916a:	48 89 c1             	mov    %rax,%rcx
  40916d:	ba 00 00 00 00       	mov    $0x0,%edx
  409172:	e8 69 8c ff ff       	callq  401de0 <_ZNKSt7__cxx1112basic_stringIcSt11char_traitsIcESaIcEE6substrEmm@plt>
  409177:	48 8d 55 a0          	lea    -0x60(%rbp),%rdx
  40917b:	48 8d 45 80          	lea    -0x80(%rbp),%rax
  40917f:	48 89 d6             	mov    %rdx,%rsi
  409182:	48 89 c7             	mov    %rax,%rdi
  409185:	e8 c6 8c ff ff       	callq  401e50 <_ZNSt7__cxx1112basic_stringIcSt11char_traitsIcESaIcEEaSEOS4_@plt>
  40918a:	48 8d 45 a0          	lea    -0x60(%rbp),%rax
  40918e:	48 89 c7             	mov    %rax,%rdi
  409191:	e8 8a 8b ff ff       	callq  401d20 <_ZNSt7__cxx1112basic_stringIcSt11char_traitsIcESaIcEED1Ev@plt>
  409196:	48 8d 45 80          	lea    -0x80(%rbp),%rax
  40919a:	48 89 c7             	mov    %rax,%rdi
  40919d:	e8 3e 8d ff ff       	callq  401ee0 <_ZNKSt7__cxx1112basic_stringIcSt11char_traitsIcESaIcEE6lengthEv@plt>
  4091a2:	48 89 c2             	mov    %rax,%rdx
  4091a5:	8b 85 48 ff ff ff    	mov    -0xb8(%rbp),%eax
  4091ab:	48 98                	cltq   
  4091ad:	48 39 c2             	cmp    %rax,%rdx
  4091b0:	0f 92 c0             	setb   %al
  4091b3:	84 c0                	test   %al,%al
  4091b5:	74 76                	je     40922d <_ZN15CPU_MATHEMATICS11printHelperI18transpose_accessorIfS_EEEvT_PKiiNSt7__cxx1112basic_stringIcSt11char_traitsIcESaIcEEEi+0x608>
  4091b7:	48 8d 85 6f ff ff ff 	lea    -0x91(%rbp),%rax
  4091be:	48 89 c7             	mov    %rax,%rdi
  4091c1:	e8 da 8d ff ff       	callq  401fa0 <_ZNSaIcEC1Ev@plt>
  4091c6:	8b 85 48 ff ff ff    	mov    -0xb8(%rbp),%eax
  4091cc:	48 63 d8             	movslq %eax,%rbx
  4091cf:	48 8d 45 80          	lea    -0x80(%rbp),%rax
  4091d3:	48 89 c7             	mov    %rax,%rdi
  4091d6:	e8 05 8d ff ff       	callq  401ee0 <_ZNKSt7__cxx1112basic_stringIcSt11char_traitsIcESaIcEE6lengthEv@plt>
  4091db:	48 29 c3             	sub    %rax,%rbx
  4091de:	48 89 de             	mov    %rbx,%rsi
  4091e1:	48 8d 95 6f ff ff ff 	lea    -0x91(%rbp),%rdx
  4091e8:	48 8d 45 c0          	lea    -0x40(%rbp),%rax
  4091ec:	48 89 d1             	mov    %rdx,%rcx
  4091ef:	48 89 f2             	mov    %rsi,%rdx
  4091f2:	be d9 c8 40 00       	mov    $0x40c8d9,%esi
  4091f7:	48 89 c7             	mov    %rax,%rdi
  4091fa:	e8 41 8c ff ff       	callq  401e40 <_ZNSt7__cxx1112basic_stringIcSt11char_traitsIcESaIcEEC1EPKcmRKS3_@plt>
  4091ff:	48 8d 55 c0          	lea    -0x40(%rbp),%rdx
  409203:	48 8d 45 80          	lea    -0x80(%rbp),%rax
  409207:	48 89 d6             	mov    %rdx,%rsi
  40920a:	48 89 c7             	mov    %rax,%rdi
  40920d:	e8 5e 8c ff ff       	callq  401e70 <_ZNSt7__cxx1112basic_stringIcSt11char_traitsIcESaIcEEpLERKS4_@plt>
  409212:	48 8d 45 c0          	lea    -0x40(%rbp),%rax
  409216:	48 89 c7             	mov    %rax,%rdi
  409219:	e8 02 8b ff ff       	callq  401d20 <_ZNSt7__cxx1112basic_stringIcSt11char_traitsIcESaIcEED1Ev@plt>
  40921e:	48 8d 85 6f ff ff ff 	lea    -0x91(%rbp),%rax
  409225:	48 89 c7             	mov    %rax,%rdi
  409228:	e8 e3 8b ff ff       	callq  401e10 <_ZNSaIcED1Ev@plt>
  40922d:	48 8d 45 80          	lea    -0x80(%rbp),%rax
  409231:	48 89 c6             	mov    %rax,%rsi
  409234:	bf 60 42 61 00       	mov    $0x614260,%edi
  409239:	e8 62 8b ff ff       	callq  401da0 <_ZStlsIcSt11char_traitsIcESaIcEERSt13basic_ostreamIT_T0_ES7_RKNSt7__cxx1112basic_stringIS4_S5_T1_EE@plt>
  40923e:	8b 85 4c ff ff ff    	mov    -0xb4(%rbp),%eax
  409244:	48 98                	cltq   
  409246:	48 8d 14 85 00 00 00 	lea    0x0(,%rax,4),%rdx
  40924d:	00 
  40924e:	48 8b 85 50 ff ff ff 	mov    -0xb0(%rbp),%rax
  409255:	48 01 d0             	add    %rdx,%rax
  409258:	8b 00                	mov    (%rax),%eax
  40925a:	83 e8 01             	sub    $0x1,%eax
  40925d:	3b 85 7c ff ff ff    	cmp    -0x84(%rbp),%eax
  409263:	7e 0f                	jle    409274 <_ZN15CPU_MATHEMATICS11printHelperI18transpose_accessorIfS_EEEvT_PKiiNSt7__cxx1112basic_stringIcSt11char_traitsIcESaIcEEEi+0x64f>
  409265:	be bb c7 40 00       	mov    $0x40c7bb,%esi
  40926a:	bf 60 42 61 00       	mov    $0x614260,%edi
  40926f:	e8 4c 8b ff ff       	callq  401dc0 <_ZStlsISt11char_traitsIcEERSt13basic_ostreamIcT_ES5_PKc@plt>
  409274:	48 8d 45 80          	lea    -0x80(%rbp),%rax
  409278:	48 89 c7             	mov    %rax,%rdi
  40927b:	e8 a0 8a ff ff       	callq  401d20 <_ZNSt7__cxx1112basic_stringIcSt11char_traitsIcESaIcEED1Ev@plt>
  409280:	83 85 7c ff ff ff 01 	addl   $0x1,-0x84(%rbp)
  409287:	e9 49 fe ff ff       	jmpq   4090d5 <_ZN15CPU_MATHEMATICS11printHelperI18transpose_accessorIfS_EEEvT_PKiiNSt7__cxx1112basic_stringIcSt11char_traitsIcESaIcEEEi+0x4b0>
  40928c:	be bf c7 40 00       	mov    $0x40c7bf,%esi
  409291:	bf 60 42 61 00       	mov    $0x614260,%edi
  409296:	e8 25 8b ff ff       	callq  401dc0 <_ZStlsISt11char_traitsIcEERSt13basic_ostreamIcT_ES5_PKc@plt>
  40929b:	e9 f4 00 00 00       	jmpq   409394 <_ZN15CPU_MATHEMATICS11printHelperI18transpose_accessorIfS_EEEvT_PKiiNSt7__cxx1112basic_stringIcSt11char_traitsIcESaIcEEEi+0x76f>
  4092a0:	48 89 c3             	mov    %rax,%rbx
  4092a3:	48 8d 45 c0          	lea    -0x40(%rbp),%rax
  4092a7:	48 89 c7             	mov    %rax,%rdi
  4092aa:	e8 71 8a ff ff       	callq  401d20 <_ZNSt7__cxx1112basic_stringIcSt11char_traitsIcESaIcEED1Ev@plt>
  4092af:	48 89 d8             	mov    %rbx,%rax
  4092b2:	48 89 c7             	mov    %rax,%rdi
  4092b5:	e8 d6 8c ff ff       	callq  401f90 <_Unwind_Resume@plt>
  4092ba:	48 89 c3             	mov    %rax,%rbx
  4092bd:	48 8d 85 6f ff ff ff 	lea    -0x91(%rbp),%rax
  4092c4:	48 89 c7             	mov    %rax,%rdi
  4092c7:	e8 44 8b ff ff       	callq  401e10 <_ZNSaIcED1Ev@plt>
  4092cc:	eb 0f                	jmp    4092dd <_ZN15CPU_MATHEMATICS11printHelperI18transpose_accessorIfS_EEEvT_PKiiNSt7__cxx1112basic_stringIcSt11char_traitsIcESaIcEEEi+0x6b8>
  4092ce:	48 89 c3             	mov    %rax,%rbx
  4092d1:	48 8d 45 c0          	lea    -0x40(%rbp),%rax
  4092d5:	48 89 c7             	mov    %rax,%rdi
  4092d8:	e8 43 8a ff ff       	callq  401d20 <_ZNSt7__cxx1112basic_stringIcSt11char_traitsIcESaIcEED1Ev@plt>
  4092dd:	48 8d 45 a0          	lea    -0x60(%rbp),%rax
  4092e1:	48 89 c7             	mov    %rax,%rdi
  4092e4:	e8 37 8a ff ff       	callq  401d20 <_ZNSt7__cxx1112basic_stringIcSt11char_traitsIcESaIcEED1Ev@plt>
  4092e9:	48 89 d8             	mov    %rbx,%rax
  4092ec:	48 89 c7             	mov    %rax,%rdi
  4092ef:	e8 9c 8c ff ff       	callq  401f90 <_Unwind_Resume@plt>
  4092f4:	48 89 c3             	mov    %rax,%rbx
  4092f7:	48 8d 45 a0          	lea    -0x60(%rbp),%rax
  4092fb:	48 89 c7             	mov    %rax,%rdi
  4092fe:	e8 1d 8a ff ff       	callq  401d20 <_ZNSt7__cxx1112basic_stringIcSt11char_traitsIcESaIcEED1Ev@plt>
  409303:	eb 28                	jmp    40932d <_ZN15CPU_MATHEMATICS11printHelperI18transpose_accessorIfS_EEEvT_PKiiNSt7__cxx1112basic_stringIcSt11char_traitsIcESaIcEEEi+0x708>
  409305:	48 89 c3             	mov    %rax,%rbx
  409308:	48 8d 45 c0          	lea    -0x40(%rbp),%rax
  40930c:	48 89 c7             	mov    %rax,%rdi
  40930f:	e8 0c 8a ff ff       	callq  401d20 <_ZNSt7__cxx1112basic_stringIcSt11char_traitsIcESaIcEED1Ev@plt>
  409314:	eb 03                	jmp    409319 <_ZN15CPU_MATHEMATICS11printHelperI18transpose_accessorIfS_EEEvT_PKiiNSt7__cxx1112basic_stringIcSt11char_traitsIcESaIcEEEi+0x6f4>
  409316:	48 89 c3             	mov    %rax,%rbx
  409319:	48 8d 85 6f ff ff ff 	lea    -0x91(%rbp),%rax
  409320:	48 89 c7             	mov    %rax,%rdi
  409323:	e8 e8 8a ff ff       	callq  401e10 <_ZNSaIcED1Ev@plt>
  409328:	eb 03                	jmp    40932d <_ZN15CPU_MATHEMATICS11printHelperI18transpose_accessorIfS_EEEvT_PKiiNSt7__cxx1112basic_stringIcSt11char_traitsIcESaIcEEEi+0x708>
  40932a:	48 89 c3             	mov    %rax,%rbx
  40932d:	48 8d 45 80          	lea    -0x80(%rbp),%rax
  409331:	48 89 c7             	mov    %rax,%rdi
  409334:	e8 e7 89 ff ff       	callq  401d20 <_ZNSt7__cxx1112basic_stringIcSt11char_traitsIcESaIcEED1Ev@plt>
  409339:	48 89 d8             	mov    %rbx,%rax
  40933c:	48 89 c7             	mov    %rax,%rdi
  40933f:	e8 4c 8c ff ff       	callq  401f90 <_Unwind_Resume@plt>
  409344:	48 89 c3             	mov    %rax,%rbx
  409347:	48 8d 45 a0          	lea    -0x60(%rbp),%rax
  40934b:	48 89 c7             	mov    %rax,%rdi
  40934e:	e8 cd 89 ff ff       	callq  401d20 <_ZNSt7__cxx1112basic_stringIcSt11char_traitsIcESaIcEED1Ev@plt>
  409353:	eb 28                	jmp    40937d <_ZN15CPU_MATHEMATICS11printHelperI18transpose_accessorIfS_EEEvT_PKiiNSt7__cxx1112basic_stringIcSt11char_traitsIcESaIcEEEi+0x758>
  409355:	48 89 c3             	mov    %rax,%rbx
  409358:	48 8d 45 c0          	lea    -0x40(%rbp),%rax
  40935c:	48 89 c7             	mov    %rax,%rdi
  40935f:	e8 bc 89 ff ff       	callq  401d20 <_ZNSt7__cxx1112basic_stringIcSt11char_traitsIcESaIcEED1Ev@plt>
  409364:	eb 03                	jmp    409369 <_ZN15CPU_MATHEMATICS11printHelperI18transpose_accessorIfS_EEEvT_PKiiNSt7__cxx1112basic_stringIcSt11char_traitsIcESaIcEEEi+0x744>
  409366:	48 89 c3             	mov    %rax,%rbx
  409369:	48 8d 85 6f ff ff ff 	lea    -0x91(%rbp),%rax
  409370:	48 89 c7             	mov    %rax,%rdi
  409373:	e8 98 8a ff ff       	callq  401e10 <_ZNSaIcED1Ev@plt>
  409378:	eb 03                	jmp    40937d <_ZN15CPU_MATHEMATICS11printHelperI18transpose_accessorIfS_EEEvT_PKiiNSt7__cxx1112basic_stringIcSt11char_traitsIcESaIcEEEi+0x758>
  40937a:	48 89 c3             	mov    %rax,%rbx
  40937d:	48 8d 45 80          	lea    -0x80(%rbp),%rax
  409381:	48 89 c7             	mov    %rax,%rdi
  409384:	e8 97 89 ff ff       	callq  401d20 <_ZNSt7__cxx1112basic_stringIcSt11char_traitsIcESaIcEED1Ev@plt>
  409389:	48 89 d8             	mov    %rbx,%rax
  40938c:	48 89 c7             	mov    %rax,%rdi
  40938f:	e8 fc 8b ff ff       	callq  401f90 <_Unwind_Resume@plt>
  409394:	90                   	nop
  409395:	48 8b 45 e8          	mov    -0x18(%rbp),%rax
  409399:	64 48 33 04 25 28 00 	xor    %fs:0x28,%rax
  4093a0:	00 00 
  4093a2:	74 05                	je     4093a9 <_ZN15CPU_MATHEMATICS11printHelperI18transpose_accessorIfS_EEEvT_PKiiNSt7__cxx1112basic_stringIcSt11char_traitsIcESaIcEEEi+0x784>
  4093a4:	e8 87 8a ff ff       	callq  401e30 <__stack_chk_fail@plt>
  4093a9:	48 81 c4 c8 00 00 00 	add    $0xc8,%rsp
  4093b0:	5b                   	pop    %rbx
  4093b1:	5d                   	pop    %rbp
  4093b2:	c3                   	retq   
  4093b3:	90                   	nop

00000000004093b4 <_ZNK18transpose_accessorIf15CPU_MATHEMATICSE4sizeEv>:
  4093b4:	55                   	push   %rbp
  4093b5:	48 89 e5             	mov    %rsp,%rbp
  4093b8:	53                   	push   %rbx
  4093b9:	48 83 ec 18          	sub    $0x18,%rsp
  4093bd:	48 89 7d e8          	mov    %rdi,-0x18(%rbp)
  4093c1:	48 8b 45 e8          	mov    -0x18(%rbp),%rax
  4093c5:	48 8b 58 10          	mov    0x10(%rax),%rbx
  4093c9:	48 8b 45 e8          	mov    -0x18(%rbp),%rax
  4093cd:	48 8b 00             	mov    (%rax),%rax
  4093d0:	48 83 c0 18          	add    $0x18,%rax
  4093d4:	48 8b 00             	mov    (%rax),%rax
  4093d7:	48 8b 55 e8          	mov    -0x18(%rbp),%rdx
  4093db:	48 89 d7             	mov    %rdx,%rdi
  4093de:	ff d0                	callq  *%rax
  4093e0:	48 98                	cltq   
  4093e2:	48 c1 e0 02          	shl    $0x2,%rax
  4093e6:	48 01 d8             	add    %rbx,%rax
  4093e9:	8b 00                	mov    (%rax),%eax
  4093eb:	48 83 c4 18          	add    $0x18,%rsp
  4093ef:	5b                   	pop    %rbx
  4093f0:	5d                   	pop    %rbp
  4093f1:	c3                   	retq   

00000000004093f2 <_ZNK18transpose_accessorIf15CPU_MATHEMATICSEixEi>:
  4093f2:	55                   	push   %rbp
  4093f3:	48 89 e5             	mov    %rsp,%rbp
  4093f6:	41 55                	push   %r13
  4093f8:	41 54                	push   %r12
  4093fa:	53                   	push   %rbx
  4093fb:	48 83 ec 18          	sub    $0x18,%rsp
  4093ff:	48 89 7d d8          	mov    %rdi,-0x28(%rbp)
  409403:	89 75 d4             	mov    %esi,-0x2c(%rbp)
  409406:	48 8b 45 d8          	mov    -0x28(%rbp),%rax
  40940a:	48 8b 58 08          	mov    0x8(%rax),%rbx
  40940e:	48 8b 45 d8          	mov    -0x28(%rbp),%rax
  409412:	48 89 c7             	mov    %rax,%rdi
  409415:	e8 22 11 00 00       	callq  40a53c <_ZNK18transpose_accessorIf15CPU_MATHEMATICSE3rowEv>
  40941a:	89 c6                	mov    %eax,%esi
  40941c:	8b 45 d4             	mov    -0x2c(%rbp),%eax
  40941f:	99                   	cltd   
  409420:	f7 fe                	idiv   %esi
  409422:	66 0f ef c0          	pxor   %xmm0,%xmm0
  409426:	f2 0f 2a c0          	cvtsi2sd %eax,%xmm0
  40942a:	e8 31 8b ff ff       	callq  401f60 <floor@plt>
  40942f:	f2 44 0f 2c e0       	cvttsd2si %xmm0,%r12d
  409434:	48 8b 45 d8          	mov    -0x28(%rbp),%rax
  409438:	48 89 c7             	mov    %rax,%rdi
  40943b:	e8 fc 10 00 00       	callq  40a53c <_ZNK18transpose_accessorIf15CPU_MATHEMATICSE3rowEv>
  409440:	89 c1                	mov    %eax,%ecx
  409442:	8b 45 d4             	mov    -0x2c(%rbp),%eax
  409445:	99                   	cltd   
  409446:	f7 f9                	idiv   %ecx
  409448:	41 89 d5             	mov    %edx,%r13d
  40944b:	48 8b 45 d8          	mov    -0x28(%rbp),%rax
  40944f:	48 89 c7             	mov    %rax,%rdi
  409452:	e8 fb 10 00 00       	callq  40a552 <_ZNK18transpose_accessorIf15CPU_MATHEMATICSE6ld_rowEv>
  409457:	41 0f af c5          	imul   %r13d,%eax
  40945b:	44 01 e0             	add    %r12d,%eax
  40945e:	48 98                	cltq   
  409460:	48 c1 e0 02          	shl    $0x2,%rax
  409464:	48 01 d8             	add    %rbx,%rax
  409467:	48 83 c4 18          	add    $0x18,%rsp
  40946b:	5b                   	pop    %rbx
  40946c:	41 5c                	pop    %r12
  40946e:	41 5d                	pop    %r13
  409470:	5d                   	pop    %rbp
  409471:	c3                   	retq   

0000000000409472 <_ZN11Tensor_KingId15CPU_MATHEMATICS10continuousIdS0_EEC1IISt16initializer_listIiEEEEbbDpT_>:
  409472:	55                   	push   %rbp
  409473:	48 89 e5             	mov    %rsp,%rbp
  409476:	53                   	push   %rbx
  409477:	48 83 ec 28          	sub    $0x28,%rsp
  40947b:	48 89 7d e8          	mov    %rdi,-0x18(%rbp)
  40947f:	89 f7                	mov    %esi,%edi
  409481:	89 d6                	mov    %edx,%esi
  409483:	48 89 c8             	mov    %rcx,%rax
  409486:	4c 89 c1             	mov    %r8,%rcx
  409489:	48 89 ca             	mov    %rcx,%rdx
  40948c:	48 89 45 d0          	mov    %rax,-0x30(%rbp)
  409490:	48 89 55 d8          	mov    %rdx,-0x28(%rbp)
  409494:	40 88 7d e4          	mov    %dil,-0x1c(%rbp)
  409498:	40 88 75 e0          	mov    %sil,-0x20(%rbp)
  40949c:	48 8b 45 e8          	mov    -0x18(%rbp),%rax
  4094a0:	48 89 c7             	mov    %rax,%rdi
  4094a3:	e8 02 bf ff ff       	callq  4053aa <_ZN10Tensor_AceC1Ev>
  4094a8:	ba 98 cd 40 00       	mov    $0x40cd98,%edx
  4094ad:	48 8b 45 e8          	mov    -0x18(%rbp),%rax
  4094b1:	48 89 10             	mov    %rdx,(%rax)
  4094b4:	48 8b 45 e8          	mov    -0x18(%rbp),%rax
  4094b8:	48 8d 48 08          	lea    0x8(%rax),%rcx
  4094bc:	48 8b 55 d0          	mov    -0x30(%rbp),%rdx
  4094c0:	48 8b 45 d8          	mov    -0x28(%rbp),%rax
  4094c4:	48 89 d6             	mov    %rdx,%rsi
  4094c7:	48 89 c2             	mov    %rax,%rdx
  4094ca:	48 89 cf             	mov    %rcx,%rdi
  4094cd:	e8 bc 10 00 00       	callq  40a58e <_ZN10continuousId15CPU_MATHEMATICSEC1ESt16initializer_listIiE>
  4094d2:	48 8b 45 e8          	mov    -0x18(%rbp),%rax
  4094d6:	0f b6 55 e4          	movzbl -0x1c(%rbp),%edx
  4094da:	88 50 28             	mov    %dl,0x28(%rax)
  4094dd:	48 8b 45 e8          	mov    -0x18(%rbp),%rax
  4094e1:	0f b6 55 e0          	movzbl -0x20(%rbp),%edx
  4094e5:	88 50 29             	mov    %dl,0x29(%rax)
  4094e8:	eb 1a                	jmp    409504 <_ZN11Tensor_KingId15CPU_MATHEMATICS10continuousIdS0_EEC1IISt16initializer_listIiEEEEbbDpT_+0x92>
  4094ea:	48 89 c3             	mov    %rax,%rbx
  4094ed:	48 8b 45 e8          	mov    -0x18(%rbp),%rax
  4094f1:	48 89 c7             	mov    %rax,%rdi
  4094f4:	e8 87 9e ff ff       	callq  403380 <_ZN10Tensor_AceD1Ev>
  4094f9:	48 89 d8             	mov    %rbx,%rax
  4094fc:	48 89 c7             	mov    %rax,%rdi
  4094ff:	e8 8c 8a ff ff       	callq  401f90 <_Unwind_Resume@plt>
  409504:	48 83 c4 28          	add    $0x28,%rsp
  409508:	5b                   	pop    %rbx
  409509:	5d                   	pop    %rbp
  40950a:	c3                   	retq   

000000000040950b <_ZN15CPU_MATHEMATICS7destroyIdEEvPT_>:
  40950b:	55                   	push   %rbp
  40950c:	48 89 e5             	mov    %rsp,%rbp
  40950f:	48 83 ec 10          	sub    $0x10,%rsp
  409513:	48 89 7d f8          	mov    %rdi,-0x8(%rbp)
  409517:	48 83 7d f8 00       	cmpq   $0x0,-0x8(%rbp)
  40951c:	74 0c                	je     40952a <_ZN15CPU_MATHEMATICS7destroyIdEEvPT_+0x1f>
  40951e:	48 8b 45 f8          	mov    -0x8(%rbp),%rax
  409522:	48 89 c7             	mov    %rax,%rdi
  409525:	e8 56 89 ff ff       	callq  401e80 <_ZdaPv@plt>
  40952a:	90                   	nop
  40952b:	c9                   	leaveq 
  40952c:	c3                   	retq   
  40952d:	90                   	nop

000000000040952e <_ZN10continuousId15CPU_MATHEMATICSE8getShapeEv>:
  40952e:	55                   	push   %rbp
  40952f:	48 89 e5             	mov    %rsp,%rbp
  409532:	48 89 7d f8          	mov    %rdi,-0x8(%rbp)
  409536:	48 8b 45 f8          	mov    -0x8(%rbp),%rax
  40953a:	48 8b 40 10          	mov    0x10(%rax),%rax
  40953e:	5d                   	pop    %rbp
  40953f:	c3                   	retq   

0000000000409540 <_ZNK10continuousId15CPU_MATHEMATICSE4sizeEv>:
  409540:	55                   	push   %rbp
  409541:	48 89 e5             	mov    %rsp,%rbp
  409544:	53                   	push   %rbx
  409545:	48 83 ec 18          	sub    $0x18,%rsp
  409549:	48 89 7d e8          	mov    %rdi,-0x18(%rbp)
  40954d:	48 8b 45 e8          	mov    -0x18(%rbp),%rax
  409551:	48 8b 58 10          	mov    0x10(%rax),%rbx
  409555:	48 8b 45 e8          	mov    -0x18(%rbp),%rax
  409559:	48 8b 00             	mov    (%rax),%rax
  40955c:	48 83 c0 18          	add    $0x18,%rax
  409560:	48 8b 00             	mov    (%rax),%rax
  409563:	48 8b 55 e8          	mov    -0x18(%rbp),%rdx
  409567:	48 89 d7             	mov    %rdx,%rdi
  40956a:	ff d0                	callq  *%rax
  40956c:	48 98                	cltq   
  40956e:	48 c1 e0 02          	shl    $0x2,%rax
  409572:	48 01 d8             	add    %rbx,%rax
  409575:	8b 00                	mov    (%rax),%eax
  409577:	48 83 c4 18          	add    $0x18,%rsp
  40957b:	5b                   	pop    %rbx
  40957c:	5d                   	pop    %rbp
  40957d:	c3                   	retq   

000000000040957e <_ZN10continuousId15CPU_MATHEMATICSEixEi>:
  40957e:	55                   	push   %rbp
  40957f:	48 89 e5             	mov    %rsp,%rbp
  409582:	48 89 7d f8          	mov    %rdi,-0x8(%rbp)
  409586:	89 75 f4             	mov    %esi,-0xc(%rbp)
  409589:	48 8b 45 f8          	mov    -0x8(%rbp),%rax
  40958d:	48 8b 40 08          	mov    0x8(%rax),%rax
  409591:	8b 55 f4             	mov    -0xc(%rbp),%edx
  409594:	48 63 d2             	movslq %edx,%rdx
  409597:	48 c1 e2 03          	shl    $0x3,%rdx
  40959b:	48 01 d0             	add    %rdx,%rax
  40959e:	5d                   	pop    %rbp
  40959f:	c3                   	retq   

00000000004095a0 <_ZN11Tensor_KingId15CPU_MATHEMATICS7pBufferIdS0_10continuousIdS0_ES3_N9Operation3addIdEEEEC1IIS3_S3_EEEbbDpT_>:
  4095a0:	55                   	push   %rbp
  4095a1:	48 89 e5             	mov    %rsp,%rbp
  4095a4:	48 83 ec 70          	sub    $0x70,%rsp
  4095a8:	48 89 7d a8          	mov    %rdi,-0x58(%rbp)
  4095ac:	89 d0                	mov    %edx,%eax
  4095ae:	48 89 4d 98          	mov    %rcx,-0x68(%rbp)
  4095b2:	4c 89 45 90          	mov    %r8,-0x70(%rbp)
  4095b6:	40 88 75 a4          	mov    %sil,-0x5c(%rbp)
  4095ba:	88 45 a0             	mov    %al,-0x60(%rbp)
  4095bd:	64 48 8b 04 25 28 00 	mov    %fs:0x28,%rax
  4095c4:	00 00 
  4095c6:	48 89 45 f8          	mov    %rax,-0x8(%rbp)
  4095ca:	31 c0                	xor    %eax,%eax
  4095cc:	48 8b 45 a8          	mov    -0x58(%rbp),%rax
  4095d0:	48 89 c7             	mov    %rax,%rdi
  4095d3:	e8 d2 bd ff ff       	callq  4053aa <_ZN10Tensor_AceC1Ev>
  4095d8:	ba 68 cc 40 00       	mov    $0x40cc68,%edx
  4095dd:	48 8b 45 a8          	mov    -0x58(%rbp),%rax
  4095e1:	48 89 10             	mov    %rdx,(%rax)
  4095e4:	48 8b 55 90          	mov    -0x70(%rbp),%rdx
  4095e8:	48 8d 45 d0          	lea    -0x30(%rbp),%rax
  4095ec:	48 89 d6             	mov    %rdx,%rsi
  4095ef:	48 89 c7             	mov    %rax,%rdi
  4095f2:	e8 e1 b9 ff ff       	callq  404fd8 <_ZN10continuousId15CPU_MATHEMATICSEC1ERKS1_>
  4095f7:	48 8b 55 98          	mov    -0x68(%rbp),%rdx
  4095fb:	48 8d 45 b0          	lea    -0x50(%rbp),%rax
  4095ff:	48 89 d6             	mov    %rdx,%rsi
  409602:	48 89 c7             	mov    %rax,%rdi
  409605:	e8 ce b9 ff ff       	callq  404fd8 <_ZN10continuousId15CPU_MATHEMATICSEC1ERKS1_>
  40960a:	48 8b 45 a8          	mov    -0x58(%rbp),%rax
  40960e:	48 8d 48 08          	lea    0x8(%rax),%rcx
  409612:	48 8d 55 d0          	lea    -0x30(%rbp),%rdx
  409616:	48 8d 45 b0          	lea    -0x50(%rbp),%rax
  40961a:	48 89 c6             	mov    %rax,%rsi
  40961d:	48 89 cf             	mov    %rcx,%rdi
  409620:	e8 97 10 00 00       	callq  40a6bc <_ZN7pBufferId15CPU_MATHEMATICS10continuousIdS0_ES2_N9Operation3addIdEEEC1ES2_S2_>
  409625:	48 8d 45 b0          	lea    -0x50(%rbp),%rax
  409629:	48 89 c7             	mov    %rax,%rdi
  40962c:	e8 07 ba ff ff       	callq  405038 <_ZN10continuousId15CPU_MATHEMATICSED1Ev>
  409631:	48 8d 45 d0          	lea    -0x30(%rbp),%rax
  409635:	48 89 c7             	mov    %rax,%rdi
  409638:	e8 fb b9 ff ff       	callq  405038 <_ZN10continuousId15CPU_MATHEMATICSED1Ev>
  40963d:	48 8b 45 a8          	mov    -0x58(%rbp),%rax
  409641:	0f b6 55 a4          	movzbl -0x5c(%rbp),%edx
  409645:	88 50 58             	mov    %dl,0x58(%rax)
  409648:	48 8b 45 a8          	mov    -0x58(%rbp),%rax
  40964c:	0f b6 55 a0          	movzbl -0x60(%rbp),%edx
  409650:	88 50 59             	mov    %dl,0x59(%rax)
  409653:	90                   	nop
  409654:	48 8b 45 f8          	mov    -0x8(%rbp),%rax
  409658:	64 48 33 04 25 28 00 	xor    %fs:0x28,%rax
  40965f:	00 00 
  409661:	74 05                	je     409668 <_ZN11Tensor_KingId15CPU_MATHEMATICS7pBufferIdS0_10continuousIdS0_ES3_N9Operation3addIdEEEEC1IIS3_S3_EEEbbDpT_+0xc8>
  409663:	e8 c8 87 ff ff       	callq  401e30 <__stack_chk_fail@plt>
  409668:	c9                   	leaveq 
  409669:	c3                   	retq   

000000000040966a <_ZN7pBufferId15CPU_MATHEMATICS10continuousIdS0_ES2_N9Operation3addIdEEE7getDataEv>:
  40966a:	55                   	push   %rbp
  40966b:	48 89 e5             	mov    %rsp,%rbp
  40966e:	41 54                	push   %r12
  409670:	53                   	push   %rbx
  409671:	48 83 ec 10          	sub    $0x10,%rsp
  409675:	48 89 7d e8          	mov    %rdi,-0x18(%rbp)
  409679:	bf 10 00 00 00       	mov    $0x10,%edi
  40967e:	e8 8d 86 ff ff       	callq  401d10 <__cxa_allocate_exception@plt>
  409683:	48 89 c3             	mov    %rax,%rbx
  409686:	be e0 c8 40 00       	mov    $0x40c8e0,%esi
  40968b:	48 89 df             	mov    %rbx,%rdi
  40968e:	e8 5d 89 ff ff       	callq  401ff0 <_ZNSt16invalid_argumentC1EPKc@plt>
  409693:	ba 50 1f 40 00       	mov    $0x401f50,%edx
  409698:	be 20 44 61 00       	mov    $0x614420,%esi
  40969d:	48 89 df             	mov    %rbx,%rdi
  4096a0:	e8 cb 88 ff ff       	callq  401f70 <__cxa_throw@plt>
  4096a5:	49 89 c4             	mov    %rax,%r12
  4096a8:	48 89 df             	mov    %rbx,%rdi
  4096ab:	e8 b0 86 ff ff       	callq  401d60 <__cxa_free_exception@plt>
  4096b0:	4c 89 e0             	mov    %r12,%rax
  4096b3:	48 89 c7             	mov    %rax,%rdi
  4096b6:	e8 d5 88 ff ff       	callq  401f90 <_Unwind_Resume@plt>
  4096bb:	90                   	nop

00000000004096bc <_ZN7pBufferId15CPU_MATHEMATICS10continuousIdS0_ES2_N9Operation3addIdEEE8getShapeEv>:
  4096bc:	55                   	push   %rbp
  4096bd:	48 89 e5             	mov    %rsp,%rbp
  4096c0:	41 54                	push   %r12
  4096c2:	53                   	push   %rbx
  4096c3:	48 83 ec 10          	sub    $0x10,%rsp
  4096c7:	48 89 7d e8          	mov    %rdi,-0x18(%rbp)
  4096cb:	bf 10 00 00 00       	mov    $0x10,%edi
  4096d0:	e8 3b 86 ff ff       	callq  401d10 <__cxa_allocate_exception@plt>
  4096d5:	48 89 c3             	mov    %rax,%rbx
  4096d8:	be 18 c9 40 00       	mov    $0x40c918,%esi
  4096dd:	48 89 df             	mov    %rbx,%rdi
  4096e0:	e8 0b 89 ff ff       	callq  401ff0 <_ZNSt16invalid_argumentC1EPKc@plt>
  4096e5:	ba 50 1f 40 00       	mov    $0x401f50,%edx
  4096ea:	be 20 44 61 00       	mov    $0x614420,%esi
  4096ef:	48 89 df             	mov    %rbx,%rdi
  4096f2:	e8 79 88 ff ff       	callq  401f70 <__cxa_throw@plt>
  4096f7:	49 89 c4             	mov    %rax,%r12
  4096fa:	48 89 df             	mov    %rbx,%rdi
  4096fd:	e8 5e 86 ff ff       	callq  401d60 <__cxa_free_exception@plt>
  409702:	4c 89 e0             	mov    %r12,%rax
  409705:	48 89 c7             	mov    %rax,%rdi
  409708:	e8 83 88 ff ff       	callq  401f90 <_Unwind_Resume@plt>
  40970d:	90                   	nop

000000000040970e <_ZNK7pBufferId15CPU_MATHEMATICS10continuousIdS0_ES2_N9Operation3addIdEEEixEi>:
  40970e:	55                   	push   %rbp
  40970f:	48 89 e5             	mov    %rsp,%rbp
  409712:	48 83 ec 20          	sub    $0x20,%rsp
  409716:	48 89 7d f8          	mov    %rdi,-0x8(%rbp)
  40971a:	89 75 f4             	mov    %esi,-0xc(%rbp)
  40971d:	48 8b 45 f8          	mov    -0x8(%rbp),%rax
  409721:	48 8d 50 30          	lea    0x30(%rax),%rdx
  409725:	8b 45 f4             	mov    -0xc(%rbp),%eax
  409728:	89 c6                	mov    %eax,%esi
  40972a:	48 89 d7             	mov    %rdx,%rdi
  40972d:	e8 e8 0f 00 00       	callq  40a71a <_ZNK10continuousId15CPU_MATHEMATICSEixEi>
  409732:	f2 0f 10 10          	movsd  (%rax),%xmm2
  409736:	f2 0f 11 55 e8       	movsd  %xmm2,-0x18(%rbp)
  40973b:	48 8b 45 f8          	mov    -0x8(%rbp),%rax
  40973f:	48 8d 50 10          	lea    0x10(%rax),%rdx
  409743:	8b 45 f4             	mov    -0xc(%rbp),%eax
  409746:	89 c6                	mov    %eax,%esi
  409748:	48 89 d7             	mov    %rdx,%rdi
  40974b:	e8 ca 0f 00 00       	callq  40a71a <_ZNK10continuousId15CPU_MATHEMATICSEixEi>
  409750:	48 8b 00             	mov    (%rax),%rax
  409753:	48 8b 55 f8          	mov    -0x8(%rbp),%rdx
  409757:	48 83 c2 08          	add    $0x8,%rdx
  40975b:	f2 0f 10 4d e8       	movsd  -0x18(%rbp),%xmm1
  409760:	48 89 45 e8          	mov    %rax,-0x18(%rbp)
  409764:	f2 0f 10 45 e8       	movsd  -0x18(%rbp),%xmm0
  409769:	48 89 d7             	mov    %rdx,%rdi
  40976c:	e8 cb 0f 00 00       	callq  40a73c <_ZNK9Operation3addIdEclIddEEdT_T0_>
  409771:	66 48 0f 7e c0       	movq   %xmm0,%rax
  409776:	48 89 45 e8          	mov    %rax,-0x18(%rbp)
  40977a:	f2 0f 10 45 e8       	movsd  -0x18(%rbp),%xmm0
  40977f:	c9                   	leaveq 
  409780:	c3                   	retq   
  409781:	90                   	nop

0000000000409782 <_ZNSt7__cxx1112basic_stringIcSt11char_traitsIcESaIcEE16_M_construct_auxIPcEEvT_S7_St12__false_type>:
  409782:	55                   	push   %rbp
  409783:	48 89 e5             	mov    %rsp,%rbp
  409786:	48 83 ec 30          	sub    $0x30,%rsp
  40978a:	48 89 7d e8          	mov    %rdi,-0x18(%rbp)
  40978e:	48 89 75 e0          	mov    %rsi,-0x20(%rbp)
  409792:	48 89 55 d8          	mov    %rdx,-0x28(%rbp)
  409796:	64 48 8b 04 25 28 00 	mov    %fs:0x28,%rax
  40979d:	00 00 
  40979f:	48 89 45 f8          	mov    %rax,-0x8(%rbp)
  4097a3:	31 c0                	xor    %eax,%eax
  4097a5:	48 8b 55 d8          	mov    -0x28(%rbp),%rdx
  4097a9:	48 8b 4d e0          	mov    -0x20(%rbp),%rcx
  4097ad:	48 8b 45 e8          	mov    -0x18(%rbp),%rax
  4097b1:	48 83 ec 08          	sub    $0x8,%rsp
  4097b5:	41 50                	push   %r8
  4097b7:	48 89 ce             	mov    %rcx,%rsi
  4097ba:	48 89 c7             	mov    %rax,%rdi
  4097bd:	e8 98 0f 00 00       	callq  40a75a <_ZNSt7__cxx1112basic_stringIcSt11char_traitsIcESaIcEE12_M_constructIPcEEvT_S7_St20forward_iterator_tag>
  4097c2:	48 83 c4 10          	add    $0x10,%rsp
  4097c6:	90                   	nop
  4097c7:	48 8b 45 f8          	mov    -0x8(%rbp),%rax
  4097cb:	64 48 33 04 25 28 00 	xor    %fs:0x28,%rax
  4097d2:	00 00 
  4097d4:	74 05                	je     4097db <_ZNSt7__cxx1112basic_stringIcSt11char_traitsIcESaIcEE16_M_construct_auxIPcEEvT_S7_St12__false_type+0x59>
  4097d6:	e8 55 86 ff ff       	callq  401e30 <__stack_chk_fail@plt>
  4097db:	c9                   	leaveq 
  4097dc:	c3                   	retq   

00000000004097dd <_ZN15CPU_MATHEMATICS18unified_initializeIiEEvRPT_i>:
  4097dd:	55                   	push   %rbp
  4097de:	48 89 e5             	mov    %rsp,%rbp
  4097e1:	48 83 ec 10          	sub    $0x10,%rsp
  4097e5:	48 89 7d f8          	mov    %rdi,-0x8(%rbp)
  4097e9:	89 75 f4             	mov    %esi,-0xc(%rbp)
  4097ec:	8b 45 f4             	mov    -0xc(%rbp),%eax
  4097ef:	48 98                	cltq   
  4097f1:	48 ba 00 00 00 00 00 	movabs $0x1fc0000000000000,%rdx
  4097f8:	00 c0 1f 
  4097fb:	48 39 d0             	cmp    %rdx,%rax
  4097fe:	77 06                	ja     409806 <_ZN15CPU_MATHEMATICS18unified_initializeIiEEvRPT_i+0x29>
  409800:	48 c1 e0 02          	shl    $0x2,%rax
  409804:	eb 05                	jmp    40980b <_ZN15CPU_MATHEMATICS18unified_initializeIiEEvRPT_i+0x2e>
  409806:	e8 b5 86 ff ff       	callq  401ec0 <__cxa_throw_bad_array_new_length@plt>
  40980b:	48 89 c7             	mov    %rax,%rdi
  40980e:	e8 7d 84 ff ff       	callq  401c90 <_Znam@plt>
  409813:	48 89 c2             	mov    %rax,%rdx
  409816:	48 8b 45 f8          	mov    -0x8(%rbp),%rax
  40981a:	48 89 10             	mov    %rdx,(%rax)
  40981d:	90                   	nop
  40981e:	c9                   	leaveq 
  40981f:	c3                   	retq   

0000000000409820 <_ZN15CPU_MATHEMATICS10copy_stackIPiPKiEEvRT_T0_i>:
  409820:	55                   	push   %rbp
  409821:	48 89 e5             	mov    %rsp,%rbp
  409824:	48 83 ec 40          	sub    $0x40,%rsp
  409828:	48 89 7d d8          	mov    %rdi,-0x28(%rbp)
  40982c:	48 89 75 d0          	mov    %rsi,-0x30(%rbp)
  409830:	89 55 cc             	mov    %edx,-0x34(%rbp)
  409833:	64 48 8b 04 25 28 00 	mov    %fs:0x28,%rax
  40983a:	00 00 
  40983c:	48 89 45 f8          	mov    %rax,-0x8(%rbp)
  409840:	31 c0                	xor    %eax,%eax
  409842:	48 8b 45 d8          	mov    -0x28(%rbp),%rax
  409846:	48 89 45 e0          	mov    %rax,-0x20(%rbp)
  40984a:	48 8b 45 d0          	mov    -0x30(%rbp),%rax
  40984e:	48 89 45 e8          	mov    %rax,-0x18(%rbp)
  409852:	8b 45 cc             	mov    -0x34(%rbp),%eax
  409855:	89 45 f0             	mov    %eax,-0x10(%rbp)
  409858:	48 8d 45 e0          	lea    -0x20(%rbp),%rax
  40985c:	b9 00 00 00 00       	mov    $0x0,%ecx
  409861:	ba 00 00 00 00       	mov    $0x0,%edx
  409866:	48 89 c6             	mov    %rax,%rsi
  409869:	bf ee 2f 40 00       	mov    $0x402fee,%edi
  40986e:	e8 7d 86 ff ff       	callq  401ef0 <GOMP_parallel@plt>
  409873:	48 8b 45 e8          	mov    -0x18(%rbp),%rax
  409877:	48 89 45 d0          	mov    %rax,-0x30(%rbp)
  40987b:	8b 45 f0             	mov    -0x10(%rbp),%eax
  40987e:	89 45 cc             	mov    %eax,-0x34(%rbp)
  409881:	e8 3a 87 ff ff       	callq  401fc0 <GOMP_barrier@plt>
  409886:	90                   	nop
  409887:	48 8b 45 f8          	mov    -0x8(%rbp),%rax
  40988b:	64 48 33 04 25 28 00 	xor    %fs:0x28,%rax
  409892:	00 00 
  409894:	74 05                	je     40989b <_ZN15CPU_MATHEMATICS10copy_stackIPiPKiEEvRT_T0_i+0x7b>
  409896:	e8 95 85 ff ff       	callq  401e30 <__stack_chk_fail@plt>
  40989b:	c9                   	leaveq 
  40989c:	c3                   	retq   

000000000040989d <_ZN10continuousIf15CPU_MATHEMATICSE14calculate_sizeEPii>:
  40989d:	55                   	push   %rbp
  40989e:	48 89 e5             	mov    %rsp,%rbp
  4098a1:	48 89 7d e8          	mov    %rdi,-0x18(%rbp)
  4098a5:	89 75 e4             	mov    %esi,-0x1c(%rbp)
  4098a8:	c7 45 f8 01 00 00 00 	movl   $0x1,-0x8(%rbp)
  4098af:	c7 45 fc 00 00 00 00 	movl   $0x0,-0x4(%rbp)
  4098b6:	8b 45 fc             	mov    -0x4(%rbp),%eax
  4098b9:	3b 45 e4             	cmp    -0x1c(%rbp),%eax
  4098bc:	7d 25                	jge    4098e3 <_ZN10continuousIf15CPU_MATHEMATICSE14calculate_sizeEPii+0x46>
  4098be:	8b 45 fc             	mov    -0x4(%rbp),%eax
  4098c1:	48 98                	cltq   
  4098c3:	48 8d 14 85 00 00 00 	lea    0x0(,%rax,4),%rdx
  4098ca:	00 
  4098cb:	48 8b 45 e8          	mov    -0x18(%rbp),%rax
  4098cf:	48 01 d0             	add    %rdx,%rax
  4098d2:	8b 00                	mov    (%rax),%eax
  4098d4:	8b 55 f8             	mov    -0x8(%rbp),%edx
  4098d7:	0f af c2             	imul   %edx,%eax
  4098da:	89 45 f8             	mov    %eax,-0x8(%rbp)
  4098dd:	83 45 fc 01          	addl   $0x1,-0x4(%rbp)
  4098e1:	eb d3                	jmp    4098b6 <_ZN10continuousIf15CPU_MATHEMATICSE14calculate_sizeEPii+0x19>
  4098e3:	8b 45 f8             	mov    -0x8(%rbp),%eax
  4098e6:	5d                   	pop    %rbp
  4098e7:	c3                   	retq   

00000000004098e8 <_ZN15CPU_MATHEMATICS10initializeIfEEvRPT_i>:
  4098e8:	55                   	push   %rbp
  4098e9:	48 89 e5             	mov    %rsp,%rbp
  4098ec:	48 83 ec 10          	sub    $0x10,%rsp
  4098f0:	48 89 7d f8          	mov    %rdi,-0x8(%rbp)
  4098f4:	89 75 f4             	mov    %esi,-0xc(%rbp)
  4098f7:	8b 45 f4             	mov    -0xc(%rbp),%eax
  4098fa:	48 98                	cltq   
  4098fc:	48 ba 00 00 00 00 00 	movabs $0x1fc0000000000000,%rdx
  409903:	00 c0 1f 
  409906:	48 39 d0             	cmp    %rdx,%rax
  409909:	77 06                	ja     409911 <_ZN15CPU_MATHEMATICS10initializeIfEEvRPT_i+0x29>
  40990b:	48 c1 e0 02          	shl    $0x2,%rax
  40990f:	eb 05                	jmp    409916 <_ZN15CPU_MATHEMATICS10initializeIfEEvRPT_i+0x2e>
  409911:	e8 aa 85 ff ff       	callq  401ec0 <__cxa_throw_bad_array_new_length@plt>
  409916:	48 89 c7             	mov    %rax,%rdi
  409919:	e8 72 83 ff ff       	callq  401c90 <_Znam@plt>
  40991e:	48 89 c2             	mov    %rax,%rdx
  409921:	48 8b 45 f8          	mov    -0x8(%rbp),%rax
  409925:	48 89 10             	mov    %rdx,(%rax)
  409928:	90                   	nop
  409929:	c9                   	leaveq 
  40992a:	c3                   	retq   

000000000040992b <_ZN15CPU_MATHEMATICS11printHelperIPKfEEvT_PKiiNSt7__cxx1112basic_stringIcSt11char_traitsIcESaIcEEEi>:
  40992b:	55                   	push   %rbp
  40992c:	48 89 e5             	mov    %rsp,%rbp
  40992f:	53                   	push   %rbx
  409930:	48 81 ec c8 00 00 00 	sub    $0xc8,%rsp
  409937:	48 89 bd 58 ff ff ff 	mov    %rdi,-0xa8(%rbp)
  40993e:	48 89 b5 50 ff ff ff 	mov    %rsi,-0xb0(%rbp)
  409945:	89 95 4c ff ff ff    	mov    %edx,-0xb4(%rbp)
  40994b:	48 89 8d 40 ff ff ff 	mov    %rcx,-0xc0(%rbp)
  409952:	44 89 85 48 ff ff ff 	mov    %r8d,-0xb8(%rbp)
  409959:	64 48 8b 04 25 28 00 	mov    %fs:0x28,%rax
  409960:	00 00 
  409962:	48 89 45 e8          	mov    %rax,-0x18(%rbp)
  409966:	31 c0                	xor    %eax,%eax
  409968:	83 ad 4c ff ff ff 01 	subl   $0x1,-0xb4(%rbp)
  40996f:	83 bd 4c ff ff ff 01 	cmpl   $0x1,-0xb4(%rbp)
  409976:	0f 8e e5 01 00 00    	jle    409b61 <_ZN15CPU_MATHEMATICS11printHelperIPKfEEvT_PKiiNSt7__cxx1112basic_stringIcSt11char_traitsIcESaIcEEEi+0x236>
  40997c:	48 8b 85 40 ff ff ff 	mov    -0xc0(%rbp),%rax
  409983:	48 89 c6             	mov    %rax,%rsi
  409986:	bf 60 42 61 00       	mov    $0x614260,%edi
  40998b:	e8 10 84 ff ff       	callq  401da0 <_ZStlsIcSt11char_traitsIcESaIcEERSt13basic_ostreamIT_T0_ES7_RKNSt7__cxx1112basic_stringIS4_S5_T1_EE@plt>
  409990:	be aa c8 40 00       	mov    $0x40c8aa,%esi
  409995:	48 89 c7             	mov    %rax,%rdi
  409998:	e8 23 84 ff ff       	callq  401dc0 <_ZStlsISt11char_traitsIcEERSt13basic_ostreamIcT_ES5_PKc@plt>
  40999d:	48 89 c2             	mov    %rax,%rdx
  4099a0:	8b 85 4c ff ff ff    	mov    -0xb4(%rbp),%eax
  4099a6:	89 c6                	mov    %eax,%esi
  4099a8:	48 89 d7             	mov    %rdx,%rdi
  4099ab:	e8 d0 85 ff ff       	callq  401f80 <_ZNSolsEi@plt>
  4099b0:	be bf c8 40 00       	mov    $0x40c8bf,%esi
  4099b5:	48 89 c7             	mov    %rax,%rdi
  4099b8:	e8 03 84 ff ff       	callq  401dc0 <_ZStlsISt11char_traitsIcEERSt13basic_ostreamIcT_ES5_PKc@plt>
  4099bd:	be 00 1d 40 00       	mov    $0x401d00,%esi
  4099c2:	48 89 c7             	mov    %rax,%rdi
  4099c5:	e8 26 84 ff ff       	callq  401df0 <_ZNSolsEPFRSoS_E@plt>
  4099ca:	48 8b 85 40 ff ff ff 	mov    -0xc0(%rbp),%rax
  4099d1:	be d4 c8 40 00       	mov    $0x40c8d4,%esi
  4099d6:	48 89 c7             	mov    %rax,%rdi
  4099d9:	e8 d2 83 ff ff       	callq  401db0 <_ZNSt7__cxx1112basic_stringIcSt11char_traitsIcESaIcEEpLEPKc@plt>
  4099de:	c7 85 70 ff ff ff 00 	movl   $0x0,-0x90(%rbp)
  4099e5:	00 00 00 
  4099e8:	8b 85 4c ff ff ff    	mov    -0xb4(%rbp),%eax
  4099ee:	48 98                	cltq   
  4099f0:	48 8d 14 85 00 00 00 	lea    0x0(,%rax,4),%rdx
  4099f7:	00 
  4099f8:	48 8b 85 50 ff ff ff 	mov    -0xb0(%rbp),%rax
  4099ff:	48 01 d0             	add    %rdx,%rax
  409a02:	8b 00                	mov    (%rax),%eax
  409a04:	3b 85 70 ff ff ff    	cmp    -0x90(%rbp),%eax
  409a0a:	0f 8e 88 00 00 00    	jle    409a98 <_ZN15CPU_MATHEMATICS11printHelperIPKfEEvT_PKiiNSt7__cxx1112basic_stringIcSt11char_traitsIcESaIcEEEi+0x16d>
  409a10:	48 8b 95 40 ff ff ff 	mov    -0xc0(%rbp),%rdx
  409a17:	48 8d 45 c0          	lea    -0x40(%rbp),%rax
  409a1b:	48 89 d6             	mov    %rdx,%rsi
  409a1e:	48 89 c7             	mov    %rax,%rdi
  409a21:	e8 ca 82 ff ff       	callq  401cf0 <_ZNSt7__cxx1112basic_stringIcSt11char_traitsIcESaIcEEC1ERKS4_@plt>
  409a26:	8b 85 4c ff ff ff    	mov    -0xb4(%rbp),%eax
  409a2c:	48 98                	cltq   
  409a2e:	48 c1 e0 02          	shl    $0x2,%rax
  409a32:	48 8d 50 fc          	lea    -0x4(%rax),%rdx
  409a36:	48 8b 85 50 ff ff ff 	mov    -0xb0(%rbp),%rax
  409a3d:	48 01 d0             	add    %rdx,%rax
  409a40:	8b 00                	mov    (%rax),%eax
  409a42:	0f af 85 70 ff ff ff 	imul   -0x90(%rbp),%eax
  409a49:	48 98                	cltq   
  409a4b:	48 8d 14 85 00 00 00 	lea    0x0(,%rax,4),%rdx
  409a52:	00 
  409a53:	48 8b 85 58 ff ff ff 	mov    -0xa8(%rbp),%rax
  409a5a:	48 8d 3c 02          	lea    (%rdx,%rax,1),%rdi
  409a5e:	8b b5 48 ff ff ff    	mov    -0xb8(%rbp),%esi
  409a64:	48 8d 4d c0          	lea    -0x40(%rbp),%rcx
  409a68:	8b 95 4c ff ff ff    	mov    -0xb4(%rbp),%edx
  409a6e:	48 8b 85 50 ff ff ff 	mov    -0xb0(%rbp),%rax
  409a75:	41 89 f0             	mov    %esi,%r8d
  409a78:	48 89 c6             	mov    %rax,%rsi
  409a7b:	e8 ab fe ff ff       	callq  40992b <_ZN15CPU_MATHEMATICS11printHelperIPKfEEvT_PKiiNSt7__cxx1112basic_stringIcSt11char_traitsIcESaIcEEEi>
  409a80:	48 8d 45 c0          	lea    -0x40(%rbp),%rax
  409a84:	48 89 c7             	mov    %rax,%rdi
  409a87:	e8 94 82 ff ff       	callq  401d20 <_ZNSt7__cxx1112basic_stringIcSt11char_traitsIcESaIcEED1Ev@plt>
  409a8c:	83 85 70 ff ff ff 01 	addl   $0x1,-0x90(%rbp)
  409a93:	e9 50 ff ff ff       	jmpq   4099e8 <_ZN15CPU_MATHEMATICS11printHelperIPKfEEvT_PKiiNSt7__cxx1112basic_stringIcSt11char_traitsIcESaIcEEEi+0xbd>
  409a98:	48 8d 45 a0          	lea    -0x60(%rbp),%rax
  409a9c:	8b 95 4c ff ff ff    	mov    -0xb4(%rbp),%edx
  409aa2:	89 d6                	mov    %edx,%esi
  409aa4:	48 89 c7             	mov    %rax,%rdi
  409aa7:	e8 0d 98 ff ff       	callq  4032b9 <_ZNSt7__cxx119to_stringEi>
  409aac:	48 8d 85 6f ff ff ff 	lea    -0x91(%rbp),%rax
  409ab3:	48 89 c7             	mov    %rax,%rdi
  409ab6:	e8 e5 84 ff ff       	callq  401fa0 <_ZNSaIcEC1Ev@plt>
  409abb:	48 8d 45 a0          	lea    -0x60(%rbp),%rax
  409abf:	48 89 c7             	mov    %rax,%rdi
  409ac2:	e8 19 84 ff ff       	callq  401ee0 <_ZNKSt7__cxx1112basic_stringIcSt11char_traitsIcESaIcEE6lengthEv@plt>
  409ac7:	48 89 c6             	mov    %rax,%rsi
  409aca:	48 8d 95 6f ff ff ff 	lea    -0x91(%rbp),%rdx
  409ad1:	48 8d 45 c0          	lea    -0x40(%rbp),%rax
  409ad5:	48 89 d1             	mov    %rdx,%rcx
  409ad8:	48 89 f2             	mov    %rsi,%rdx
  409adb:	be d9 c8 40 00       	mov    $0x40c8d9,%esi
  409ae0:	48 89 c7             	mov    %rax,%rdi
  409ae3:	e8 58 83 ff ff       	callq  401e40 <_ZNSt7__cxx1112basic_stringIcSt11char_traitsIcESaIcEEC1EPKcmRKS3_@plt>
  409ae8:	48 8d 85 6f ff ff ff 	lea    -0x91(%rbp),%rax
  409aef:	48 89 c7             	mov    %rax,%rdi
  409af2:	e8 19 83 ff ff       	callq  401e10 <_ZNSaIcED1Ev@plt>
  409af7:	48 8b 85 40 ff ff ff 	mov    -0xc0(%rbp),%rax
  409afe:	48 89 c6             	mov    %rax,%rsi
  409b01:	bf 60 42 61 00       	mov    $0x614260,%edi
  409b06:	e8 95 82 ff ff       	callq  401da0 <_ZStlsIcSt11char_traitsIcESaIcEERSt13basic_ostreamIT_T0_ES7_RKNSt7__cxx1112basic_stringIS4_S5_T1_EE@plt>
  409b0b:	be aa c8 40 00       	mov    $0x40c8aa,%esi
  409b10:	48 89 c7             	mov    %rax,%rdi
  409b13:	e8 a8 82 ff ff       	callq  401dc0 <_ZStlsISt11char_traitsIcEERSt13basic_ostreamIcT_ES5_PKc@plt>
  409b18:	48 89 c2             	mov    %rax,%rdx
  409b1b:	48 8d 45 c0          	lea    -0x40(%rbp),%rax
  409b1f:	48 89 c6             	mov    %rax,%rsi
  409b22:	48 89 d7             	mov    %rdx,%rdi
  409b25:	e8 76 82 ff ff       	callq  401da0 <_ZStlsIcSt11char_traitsIcESaIcEERSt13basic_ostreamIT_T0_ES7_RKNSt7__cxx1112basic_stringIS4_S5_T1_EE@plt>
  409b2a:	be bf c8 40 00       	mov    $0x40c8bf,%esi
  409b2f:	48 89 c7             	mov    %rax,%rdi
  409b32:	e8 89 82 ff ff       	callq  401dc0 <_ZStlsISt11char_traitsIcEERSt13basic_ostreamIcT_ES5_PKc@plt>
  409b37:	be 00 1d 40 00       	mov    $0x401d00,%esi
  409b3c:	48 89 c7             	mov    %rax,%rdi
  409b3f:	e8 ac 82 ff ff       	callq  401df0 <_ZNSolsEPFRSoS_E@plt>
  409b44:	48 8d 45 c0          	lea    -0x40(%rbp),%rax
  409b48:	48 89 c7             	mov    %rax,%rdi
  409b4b:	e8 d0 81 ff ff       	callq  401d20 <_ZNSt7__cxx1112basic_stringIcSt11char_traitsIcESaIcEED1Ev@plt>
  409b50:	48 8d 45 a0          	lea    -0x60(%rbp),%rax
  409b54:	48 89 c7             	mov    %rax,%rdi
  409b57:	e8 c4 81 ff ff       	callq  401d20 <_ZNSt7__cxx1112basic_stringIcSt11char_traitsIcESaIcEED1Ev@plt>
  409b5c:	e9 3e 05 00 00       	jmpq   40a09f <_ZN15CPU_MATHEMATICS11printHelperIPKfEEvT_PKiiNSt7__cxx1112basic_stringIcSt11char_traitsIcESaIcEEEi+0x774>
  409b61:	83 bd 4c ff ff ff 01 	cmpl   $0x1,-0xb4(%rbp)
  409b68:	0f 85 56 02 00 00    	jne    409dc4 <_ZN15CPU_MATHEMATICS11printHelperIPKfEEvT_PKiiNSt7__cxx1112basic_stringIcSt11char_traitsIcESaIcEEEi+0x499>
  409b6e:	c7 85 74 ff ff ff 00 	movl   $0x0,-0x8c(%rbp)
  409b75:	00 00 00 
  409b78:	8b 85 4c ff ff ff    	mov    -0xb4(%rbp),%eax
  409b7e:	48 98                	cltq   
  409b80:	48 c1 e0 02          	shl    $0x2,%rax
  409b84:	48 8d 50 fc          	lea    -0x4(%rax),%rdx
  409b88:	48 8b 85 50 ff ff ff 	mov    -0xb0(%rbp),%rax
  409b8f:	48 01 d0             	add    %rdx,%rax
  409b92:	8b 00                	mov    (%rax),%eax
  409b94:	3b 85 74 ff ff ff    	cmp    -0x8c(%rbp),%eax
  409b9a:	0f 8e ff 04 00 00    	jle    40a09f <_ZN15CPU_MATHEMATICS11printHelperIPKfEEvT_PKiiNSt7__cxx1112basic_stringIcSt11char_traitsIcESaIcEEEi+0x774>
  409ba0:	be b8 c7 40 00       	mov    $0x40c7b8,%esi
  409ba5:	bf 60 42 61 00       	mov    $0x614260,%edi
  409baa:	e8 11 82 ff ff       	callq  401dc0 <_ZStlsISt11char_traitsIcEERSt13basic_ostreamIcT_ES5_PKc@plt>
  409baf:	c7 85 78 ff ff ff 00 	movl   $0x0,-0x88(%rbp)
  409bb6:	00 00 00 
  409bb9:	8b 85 4c ff ff ff    	mov    -0xb4(%rbp),%eax
  409bbf:	48 98                	cltq   
  409bc1:	48 8d 14 85 00 00 00 	lea    0x0(,%rax,4),%rdx
  409bc8:	00 
  409bc9:	48 8b 85 50 ff ff ff 	mov    -0xb0(%rbp),%rax
  409bd0:	48 01 d0             	add    %rdx,%rax
  409bd3:	8b 00                	mov    (%rax),%eax
  409bd5:	3b 85 78 ff ff ff    	cmp    -0x88(%rbp),%eax
  409bdb:	0f 8e b9 01 00 00    	jle    409d9a <_ZN15CPU_MATHEMATICS11printHelperIPKfEEvT_PKiiNSt7__cxx1112basic_stringIcSt11char_traitsIcESaIcEEEi+0x46f>
  409be1:	8b 85 4c ff ff ff    	mov    -0xb4(%rbp),%eax
  409be7:	48 98                	cltq   
  409be9:	48 c1 e0 02          	shl    $0x2,%rax
  409bed:	48 8d 50 fc          	lea    -0x4(%rax),%rdx
  409bf1:	48 8b 85 50 ff ff ff 	mov    -0xb0(%rbp),%rax
  409bf8:	48 01 d0             	add    %rdx,%rax
  409bfb:	8b 00                	mov    (%rax),%eax
  409bfd:	0f af 85 78 ff ff ff 	imul   -0x88(%rbp),%eax
  409c04:	89 c2                	mov    %eax,%edx
  409c06:	8b 85 74 ff ff ff    	mov    -0x8c(%rbp),%eax
  409c0c:	01 d0                	add    %edx,%eax
  409c0e:	48 98                	cltq   
  409c10:	48 8d 14 85 00 00 00 	lea    0x0(,%rax,4),%rdx
  409c17:	00 
  409c18:	48 8b 85 58 ff ff ff 	mov    -0xa8(%rbp),%rax
  409c1f:	48 01 d0             	add    %rdx,%rax
  409c22:	8b 10                	mov    (%rax),%edx
  409c24:	48 8d 45 80          	lea    -0x80(%rbp),%rax
  409c28:	89 95 3c ff ff ff    	mov    %edx,-0xc4(%rbp)
  409c2e:	f3 0f 10 85 3c ff ff 	movss  -0xc4(%rbp),%xmm0
  409c35:	ff 
  409c36:	48 89 c7             	mov    %rax,%rdi
  409c39:	e8 dc 96 ff ff       	callq  40331a <_ZNSt7__cxx119to_stringEf>
  409c3e:	48 8d 45 80          	lea    -0x80(%rbp),%rax
  409c42:	48 89 c7             	mov    %rax,%rdi
  409c45:	e8 96 82 ff ff       	callq  401ee0 <_ZNKSt7__cxx1112basic_stringIcSt11char_traitsIcESaIcEE6lengthEv@plt>
  409c4a:	48 89 c2             	mov    %rax,%rdx
  409c4d:	8b 85 48 ff ff ff    	mov    -0xb8(%rbp),%eax
  409c53:	48 98                	cltq   
  409c55:	48 39 c2             	cmp    %rax,%rdx
  409c58:	73 0e                	jae    409c68 <_ZN15CPU_MATHEMATICS11printHelperIPKfEEvT_PKiiNSt7__cxx1112basic_stringIcSt11char_traitsIcESaIcEEEi+0x33d>
  409c5a:	48 8d 45 80          	lea    -0x80(%rbp),%rax
  409c5e:	48 89 c7             	mov    %rax,%rdi
  409c61:	e8 7a 82 ff ff       	callq  401ee0 <_ZNKSt7__cxx1112basic_stringIcSt11char_traitsIcESaIcEE6lengthEv@plt>
  409c66:	eb 08                	jmp    409c70 <_ZN15CPU_MATHEMATICS11printHelperIPKfEEvT_PKiiNSt7__cxx1112basic_stringIcSt11char_traitsIcESaIcEEEi+0x345>
  409c68:	8b 85 48 ff ff ff    	mov    -0xb8(%rbp),%eax
  409c6e:	48 98                	cltq   
  409c70:	48 8d 7d a0          	lea    -0x60(%rbp),%rdi
  409c74:	48 8d 75 80          	lea    -0x80(%rbp),%rsi
  409c78:	48 89 c1             	mov    %rax,%rcx
  409c7b:	ba 00 00 00 00       	mov    $0x0,%edx
  409c80:	e8 5b 81 ff ff       	callq  401de0 <_ZNKSt7__cxx1112basic_stringIcSt11char_traitsIcESaIcEE6substrEmm@plt>
  409c85:	48 8d 55 a0          	lea    -0x60(%rbp),%rdx
  409c89:	48 8d 45 80          	lea    -0x80(%rbp),%rax
  409c8d:	48 89 d6             	mov    %rdx,%rsi
  409c90:	48 89 c7             	mov    %rax,%rdi
  409c93:	e8 b8 81 ff ff       	callq  401e50 <_ZNSt7__cxx1112basic_stringIcSt11char_traitsIcESaIcEEaSEOS4_@plt>
  409c98:	48 8d 45 a0          	lea    -0x60(%rbp),%rax
  409c9c:	48 89 c7             	mov    %rax,%rdi
  409c9f:	e8 7c 80 ff ff       	callq  401d20 <_ZNSt7__cxx1112basic_stringIcSt11char_traitsIcESaIcEED1Ev@plt>
  409ca4:	48 8d 45 80          	lea    -0x80(%rbp),%rax
  409ca8:	48 89 c7             	mov    %rax,%rdi
  409cab:	e8 30 82 ff ff       	callq  401ee0 <_ZNKSt7__cxx1112basic_stringIcSt11char_traitsIcESaIcEE6lengthEv@plt>
  409cb0:	48 89 c2             	mov    %rax,%rdx
  409cb3:	8b 85 48 ff ff ff    	mov    -0xb8(%rbp),%eax
  409cb9:	48 98                	cltq   
  409cbb:	48 39 c2             	cmp    %rax,%rdx
  409cbe:	0f 92 c0             	setb   %al
  409cc1:	84 c0                	test   %al,%al
  409cc3:	74 76                	je     409d3b <_ZN15CPU_MATHEMATICS11printHelperIPKfEEvT_PKiiNSt7__cxx1112basic_stringIcSt11char_traitsIcESaIcEEEi+0x410>
  409cc5:	48 8d 85 6f ff ff ff 	lea    -0x91(%rbp),%rax
  409ccc:	48 89 c7             	mov    %rax,%rdi
  409ccf:	e8 cc 82 ff ff       	callq  401fa0 <_ZNSaIcEC1Ev@plt>
  409cd4:	8b 85 48 ff ff ff    	mov    -0xb8(%rbp),%eax
  409cda:	48 63 d8             	movslq %eax,%rbx
  409cdd:	48 8d 45 80          	lea    -0x80(%rbp),%rax
  409ce1:	48 89 c7             	mov    %rax,%rdi
  409ce4:	e8 f7 81 ff ff       	callq  401ee0 <_ZNKSt7__cxx1112basic_stringIcSt11char_traitsIcESaIcEE6lengthEv@plt>
  409ce9:	48 29 c3             	sub    %rax,%rbx
  409cec:	48 89 de             	mov    %rbx,%rsi
  409cef:	48 8d 95 6f ff ff ff 	lea    -0x91(%rbp),%rdx
  409cf6:	48 8d 45 c0          	lea    -0x40(%rbp),%rax
  409cfa:	48 89 d1             	mov    %rdx,%rcx
  409cfd:	48 89 f2             	mov    %rsi,%rdx
  409d00:	be d9 c8 40 00       	mov    $0x40c8d9,%esi
  409d05:	48 89 c7             	mov    %rax,%rdi
  409d08:	e8 33 81 ff ff       	callq  401e40 <_ZNSt7__cxx1112basic_stringIcSt11char_traitsIcESaIcEEC1EPKcmRKS3_@plt>
  409d0d:	48 8d 55 c0          	lea    -0x40(%rbp),%rdx
  409d11:	48 8d 45 80          	lea    -0x80(%rbp),%rax
  409d15:	48 89 d6             	mov    %rdx,%rsi
  409d18:	48 89 c7             	mov    %rax,%rdi
  409d1b:	e8 50 81 ff ff       	callq  401e70 <_ZNSt7__cxx1112basic_stringIcSt11char_traitsIcESaIcEEpLERKS4_@plt>
  409d20:	48 8d 45 c0          	lea    -0x40(%rbp),%rax
  409d24:	48 89 c7             	mov    %rax,%rdi
  409d27:	e8 f4 7f ff ff       	callq  401d20 <_ZNSt7__cxx1112basic_stringIcSt11char_traitsIcESaIcEED1Ev@plt>
  409d2c:	48 8d 85 6f ff ff ff 	lea    -0x91(%rbp),%rax
  409d33:	48 89 c7             	mov    %rax,%rdi
  409d36:	e8 d5 80 ff ff       	callq  401e10 <_ZNSaIcED1Ev@plt>
  409d3b:	48 8d 45 80          	lea    -0x80(%rbp),%rax
  409d3f:	48 89 c6             	mov    %rax,%rsi
  409d42:	bf 60 42 61 00       	mov    $0x614260,%edi
  409d47:	e8 54 80 ff ff       	callq  401da0 <_ZStlsIcSt11char_traitsIcESaIcEERSt13basic_ostreamIT_T0_ES7_RKNSt7__cxx1112basic_stringIS4_S5_T1_EE@plt>
  409d4c:	8b 85 4c ff ff ff    	mov    -0xb4(%rbp),%eax
  409d52:	48 98                	cltq   
  409d54:	48 8d 14 85 00 00 00 	lea    0x0(,%rax,4),%rdx
  409d5b:	00 
  409d5c:	48 8b 85 50 ff ff ff 	mov    -0xb0(%rbp),%rax
  409d63:	48 01 d0             	add    %rdx,%rax
  409d66:	8b 00                	mov    (%rax),%eax
  409d68:	83 e8 01             	sub    $0x1,%eax
  409d6b:	3b 85 78 ff ff ff    	cmp    -0x88(%rbp),%eax
  409d71:	7e 0f                	jle    409d82 <_ZN15CPU_MATHEMATICS11printHelperIPKfEEvT_PKiiNSt7__cxx1112basic_stringIcSt11char_traitsIcESaIcEEEi+0x457>
  409d73:	be bb c7 40 00       	mov    $0x40c7bb,%esi
  409d78:	bf 60 42 61 00       	mov    $0x614260,%edi
  409d7d:	e8 3e 80 ff ff       	callq  401dc0 <_ZStlsISt11char_traitsIcEERSt13basic_ostreamIcT_ES5_PKc@plt>
  409d82:	48 8d 45 80          	lea    -0x80(%rbp),%rax
  409d86:	48 89 c7             	mov    %rax,%rdi
  409d89:	e8 92 7f ff ff       	callq  401d20 <_ZNSt7__cxx1112basic_stringIcSt11char_traitsIcESaIcEED1Ev@plt>
  409d8e:	83 85 78 ff ff ff 01 	addl   $0x1,-0x88(%rbp)
  409d95:	e9 1f fe ff ff       	jmpq   409bb9 <_ZN15CPU_MATHEMATICS11printHelperIPKfEEvT_PKiiNSt7__cxx1112basic_stringIcSt11char_traitsIcESaIcEEEi+0x28e>
  409d9a:	be bf c7 40 00       	mov    $0x40c7bf,%esi
  409d9f:	bf 60 42 61 00       	mov    $0x614260,%edi
  409da4:	e8 17 80 ff ff       	callq  401dc0 <_ZStlsISt11char_traitsIcEERSt13basic_ostreamIcT_ES5_PKc@plt>
  409da9:	be 00 1d 40 00       	mov    $0x401d00,%esi
  409dae:	bf 60 42 61 00       	mov    $0x614260,%edi
  409db3:	e8 38 80 ff ff       	callq  401df0 <_ZNSolsEPFRSoS_E@plt>
  409db8:	83 85 74 ff ff ff 01 	addl   $0x1,-0x8c(%rbp)
  409dbf:	e9 b4 fd ff ff       	jmpq   409b78 <_ZN15CPU_MATHEMATICS11printHelperIPKfEEvT_PKiiNSt7__cxx1112basic_stringIcSt11char_traitsIcESaIcEEEi+0x24d>
  409dc4:	be b8 c7 40 00       	mov    $0x40c7b8,%esi
  409dc9:	bf 60 42 61 00       	mov    $0x614260,%edi
  409dce:	e8 ed 7f ff ff       	callq  401dc0 <_ZStlsISt11char_traitsIcEERSt13basic_ostreamIcT_ES5_PKc@plt>
  409dd3:	c7 85 7c ff ff ff 00 	movl   $0x0,-0x84(%rbp)
  409dda:	00 00 00 
  409ddd:	8b 85 4c ff ff ff    	mov    -0xb4(%rbp),%eax
  409de3:	48 98                	cltq   
  409de5:	48 8d 14 85 00 00 00 	lea    0x0(,%rax,4),%rdx
  409dec:	00 
  409ded:	48 8b 85 50 ff ff ff 	mov    -0xb0(%rbp),%rax
  409df4:	48 01 d0             	add    %rdx,%rax
  409df7:	8b 00                	mov    (%rax),%eax
  409df9:	3b 85 7c ff ff ff    	cmp    -0x84(%rbp),%eax
  409dff:	0f 8e 92 01 00 00    	jle    409f97 <_ZN15CPU_MATHEMATICS11printHelperIPKfEEvT_PKiiNSt7__cxx1112basic_stringIcSt11char_traitsIcESaIcEEEi+0x66c>
  409e05:	8b 85 7c ff ff ff    	mov    -0x84(%rbp),%eax
  409e0b:	48 98                	cltq   
  409e0d:	48 8d 14 85 00 00 00 	lea    0x0(,%rax,4),%rdx
  409e14:	00 
  409e15:	48 8b 85 58 ff ff ff 	mov    -0xa8(%rbp),%rax
  409e1c:	48 01 d0             	add    %rdx,%rax
  409e1f:	8b 10                	mov    (%rax),%edx
  409e21:	48 8d 45 80          	lea    -0x80(%rbp),%rax
  409e25:	89 95 3c ff ff ff    	mov    %edx,-0xc4(%rbp)
  409e2b:	f3 0f 10 85 3c ff ff 	movss  -0xc4(%rbp),%xmm0
  409e32:	ff 
  409e33:	48 89 c7             	mov    %rax,%rdi
  409e36:	e8 df 94 ff ff       	callq  40331a <_ZNSt7__cxx119to_stringEf>
  409e3b:	48 8d 45 80          	lea    -0x80(%rbp),%rax
  409e3f:	48 89 c7             	mov    %rax,%rdi
  409e42:	e8 99 80 ff ff       	callq  401ee0 <_ZNKSt7__cxx1112basic_stringIcSt11char_traitsIcESaIcEE6lengthEv@plt>
  409e47:	48 89 c2             	mov    %rax,%rdx
  409e4a:	8b 85 48 ff ff ff    	mov    -0xb8(%rbp),%eax
  409e50:	48 98                	cltq   
  409e52:	48 39 c2             	cmp    %rax,%rdx
  409e55:	73 0e                	jae    409e65 <_ZN15CPU_MATHEMATICS11printHelperIPKfEEvT_PKiiNSt7__cxx1112basic_stringIcSt11char_traitsIcESaIcEEEi+0x53a>
  409e57:	48 8d 45 80          	lea    -0x80(%rbp),%rax
  409e5b:	48 89 c7             	mov    %rax,%rdi
  409e5e:	e8 7d 80 ff ff       	callq  401ee0 <_ZNKSt7__cxx1112basic_stringIcSt11char_traitsIcESaIcEE6lengthEv@plt>
  409e63:	eb 08                	jmp    409e6d <_ZN15CPU_MATHEMATICS11printHelperIPKfEEvT_PKiiNSt7__cxx1112basic_stringIcSt11char_traitsIcESaIcEEEi+0x542>
  409e65:	8b 85 48 ff ff ff    	mov    -0xb8(%rbp),%eax
  409e6b:	48 98                	cltq   
  409e6d:	48 8d 7d a0          	lea    -0x60(%rbp),%rdi
  409e71:	48 8d 75 80          	lea    -0x80(%rbp),%rsi
  409e75:	48 89 c1             	mov    %rax,%rcx
  409e78:	ba 00 00 00 00       	mov    $0x0,%edx
  409e7d:	e8 5e 7f ff ff       	callq  401de0 <_ZNKSt7__cxx1112basic_stringIcSt11char_traitsIcESaIcEE6substrEmm@plt>
  409e82:	48 8d 55 a0          	lea    -0x60(%rbp),%rdx
  409e86:	48 8d 45 80          	lea    -0x80(%rbp),%rax
  409e8a:	48 89 d6             	mov    %rdx,%rsi
  409e8d:	48 89 c7             	mov    %rax,%rdi
  409e90:	e8 bb 7f ff ff       	callq  401e50 <_ZNSt7__cxx1112basic_stringIcSt11char_traitsIcESaIcEEaSEOS4_@plt>
  409e95:	48 8d 45 a0          	lea    -0x60(%rbp),%rax
  409e99:	48 89 c7             	mov    %rax,%rdi
  409e9c:	e8 7f 7e ff ff       	callq  401d20 <_ZNSt7__cxx1112basic_stringIcSt11char_traitsIcESaIcEED1Ev@plt>
  409ea1:	48 8d 45 80          	lea    -0x80(%rbp),%rax
  409ea5:	48 89 c7             	mov    %rax,%rdi
  409ea8:	e8 33 80 ff ff       	callq  401ee0 <_ZNKSt7__cxx1112basic_stringIcSt11char_traitsIcESaIcEE6lengthEv@plt>
  409ead:	48 89 c2             	mov    %rax,%rdx
  409eb0:	8b 85 48 ff ff ff    	mov    -0xb8(%rbp),%eax
  409eb6:	48 98                	cltq   
  409eb8:	48 39 c2             	cmp    %rax,%rdx
  409ebb:	0f 92 c0             	setb   %al
  409ebe:	84 c0                	test   %al,%al
  409ec0:	74 76                	je     409f38 <_ZN15CPU_MATHEMATICS11printHelperIPKfEEvT_PKiiNSt7__cxx1112basic_stringIcSt11char_traitsIcESaIcEEEi+0x60d>
  409ec2:	48 8d 85 6f ff ff ff 	lea    -0x91(%rbp),%rax
  409ec9:	48 89 c7             	mov    %rax,%rdi
  409ecc:	e8 cf 80 ff ff       	callq  401fa0 <_ZNSaIcEC1Ev@plt>
  409ed1:	8b 85 48 ff ff ff    	mov    -0xb8(%rbp),%eax
  409ed7:	48 63 d8             	movslq %eax,%rbx
  409eda:	48 8d 45 80          	lea    -0x80(%rbp),%rax
  409ede:	48 89 c7             	mov    %rax,%rdi
  409ee1:	e8 fa 7f ff ff       	callq  401ee0 <_ZNKSt7__cxx1112basic_stringIcSt11char_traitsIcESaIcEE6lengthEv@plt>
  409ee6:	48 29 c3             	sub    %rax,%rbx
  409ee9:	48 89 de             	mov    %rbx,%rsi
  409eec:	48 8d 95 6f ff ff ff 	lea    -0x91(%rbp),%rdx
  409ef3:	48 8d 45 c0          	lea    -0x40(%rbp),%rax
  409ef7:	48 89 d1             	mov    %rdx,%rcx
  409efa:	48 89 f2             	mov    %rsi,%rdx
  409efd:	be d9 c8 40 00       	mov    $0x40c8d9,%esi
  409f02:	48 89 c7             	mov    %rax,%rdi
  409f05:	e8 36 7f ff ff       	callq  401e40 <_ZNSt7__cxx1112basic_stringIcSt11char_traitsIcESaIcEEC1EPKcmRKS3_@plt>
  409f0a:	48 8d 55 c0          	lea    -0x40(%rbp),%rdx
  409f0e:	48 8d 45 80          	lea    -0x80(%rbp),%rax
  409f12:	48 89 d6             	mov    %rdx,%rsi
  409f15:	48 89 c7             	mov    %rax,%rdi
  409f18:	e8 53 7f ff ff       	callq  401e70 <_ZNSt7__cxx1112basic_stringIcSt11char_traitsIcESaIcEEpLERKS4_@plt>
  409f1d:	48 8d 45 c0          	lea    -0x40(%rbp),%rax
  409f21:	48 89 c7             	mov    %rax,%rdi
  409f24:	e8 f7 7d ff ff       	callq  401d20 <_ZNSt7__cxx1112basic_stringIcSt11char_traitsIcESaIcEED1Ev@plt>
  409f29:	48 8d 85 6f ff ff ff 	lea    -0x91(%rbp),%rax
  409f30:	48 89 c7             	mov    %rax,%rdi
  409f33:	e8 d8 7e ff ff       	callq  401e10 <_ZNSaIcED1Ev@plt>
  409f38:	48 8d 45 80          	lea    -0x80(%rbp),%rax
  409f3c:	48 89 c6             	mov    %rax,%rsi
  409f3f:	bf 60 42 61 00       	mov    $0x614260,%edi
  409f44:	e8 57 7e ff ff       	callq  401da0 <_ZStlsIcSt11char_traitsIcESaIcEERSt13basic_ostreamIT_T0_ES7_RKNSt7__cxx1112basic_stringIS4_S5_T1_EE@plt>
  409f49:	8b 85 4c ff ff ff    	mov    -0xb4(%rbp),%eax
  409f4f:	48 98                	cltq   
  409f51:	48 8d 14 85 00 00 00 	lea    0x0(,%rax,4),%rdx
  409f58:	00 
  409f59:	48 8b 85 50 ff ff ff 	mov    -0xb0(%rbp),%rax
  409f60:	48 01 d0             	add    %rdx,%rax
  409f63:	8b 00                	mov    (%rax),%eax
  409f65:	83 e8 01             	sub    $0x1,%eax
  409f68:	3b 85 7c ff ff ff    	cmp    -0x84(%rbp),%eax
  409f6e:	7e 0f                	jle    409f7f <_ZN15CPU_MATHEMATICS11printHelperIPKfEEvT_PKiiNSt7__cxx1112basic_stringIcSt11char_traitsIcESaIcEEEi+0x654>
  409f70:	be bb c7 40 00       	mov    $0x40c7bb,%esi
  409f75:	bf 60 42 61 00       	mov    $0x614260,%edi
  409f7a:	e8 41 7e ff ff       	callq  401dc0 <_ZStlsISt11char_traitsIcEERSt13basic_ostreamIcT_ES5_PKc@plt>
  409f7f:	48 8d 45 80          	lea    -0x80(%rbp),%rax
  409f83:	48 89 c7             	mov    %rax,%rdi
  409f86:	e8 95 7d ff ff       	callq  401d20 <_ZNSt7__cxx1112basic_stringIcSt11char_traitsIcESaIcEED1Ev@plt>
  409f8b:	83 85 7c ff ff ff 01 	addl   $0x1,-0x84(%rbp)
  409f92:	e9 46 fe ff ff       	jmpq   409ddd <_ZN15CPU_MATHEMATICS11printHelperIPKfEEvT_PKiiNSt7__cxx1112basic_stringIcSt11char_traitsIcESaIcEEEi+0x4b2>
  409f97:	be bf c7 40 00       	mov    $0x40c7bf,%esi
  409f9c:	bf 60 42 61 00       	mov    $0x614260,%edi
  409fa1:	e8 1a 7e ff ff       	callq  401dc0 <_ZStlsISt11char_traitsIcEERSt13basic_ostreamIcT_ES5_PKc@plt>
  409fa6:	e9 f4 00 00 00       	jmpq   40a09f <_ZN15CPU_MATHEMATICS11printHelperIPKfEEvT_PKiiNSt7__cxx1112basic_stringIcSt11char_traitsIcESaIcEEEi+0x774>
  409fab:	48 89 c3             	mov    %rax,%rbx
  409fae:	48 8d 45 c0          	lea    -0x40(%rbp),%rax
  409fb2:	48 89 c7             	mov    %rax,%rdi
  409fb5:	e8 66 7d ff ff       	callq  401d20 <_ZNSt7__cxx1112basic_stringIcSt11char_traitsIcESaIcEED1Ev@plt>
  409fba:	48 89 d8             	mov    %rbx,%rax
  409fbd:	48 89 c7             	mov    %rax,%rdi
  409fc0:	e8 cb 7f ff ff       	callq  401f90 <_Unwind_Resume@plt>
  409fc5:	48 89 c3             	mov    %rax,%rbx
  409fc8:	48 8d 85 6f ff ff ff 	lea    -0x91(%rbp),%rax
  409fcf:	48 89 c7             	mov    %rax,%rdi
  409fd2:	e8 39 7e ff ff       	callq  401e10 <_ZNSaIcED1Ev@plt>
  409fd7:	eb 0f                	jmp    409fe8 <_ZN15CPU_MATHEMATICS11printHelperIPKfEEvT_PKiiNSt7__cxx1112basic_stringIcSt11char_traitsIcESaIcEEEi+0x6bd>
  409fd9:	48 89 c3             	mov    %rax,%rbx
  409fdc:	48 8d 45 c0          	lea    -0x40(%rbp),%rax
  409fe0:	48 89 c7             	mov    %rax,%rdi
  409fe3:	e8 38 7d ff ff       	callq  401d20 <_ZNSt7__cxx1112basic_stringIcSt11char_traitsIcESaIcEED1Ev@plt>
  409fe8:	48 8d 45 a0          	lea    -0x60(%rbp),%rax
  409fec:	48 89 c7             	mov    %rax,%rdi
  409fef:	e8 2c 7d ff ff       	callq  401d20 <_ZNSt7__cxx1112basic_stringIcSt11char_traitsIcESaIcEED1Ev@plt>
  409ff4:	48 89 d8             	mov    %rbx,%rax
  409ff7:	48 89 c7             	mov    %rax,%rdi
  409ffa:	e8 91 7f ff ff       	callq  401f90 <_Unwind_Resume@plt>
  409fff:	48 89 c3             	mov    %rax,%rbx
  40a002:	48 8d 45 a0          	lea    -0x60(%rbp),%rax
  40a006:	48 89 c7             	mov    %rax,%rdi
  40a009:	e8 12 7d ff ff       	callq  401d20 <_ZNSt7__cxx1112basic_stringIcSt11char_traitsIcESaIcEED1Ev@plt>
  40a00e:	eb 28                	jmp    40a038 <_ZN15CPU_MATHEMATICS11printHelperIPKfEEvT_PKiiNSt7__cxx1112basic_stringIcSt11char_traitsIcESaIcEEEi+0x70d>
  40a010:	48 89 c3             	mov    %rax,%rbx
  40a013:	48 8d 45 c0          	lea    -0x40(%rbp),%rax
  40a017:	48 89 c7             	mov    %rax,%rdi
  40a01a:	e8 01 7d ff ff       	callq  401d20 <_ZNSt7__cxx1112basic_stringIcSt11char_traitsIcESaIcEED1Ev@plt>
  40a01f:	eb 03                	jmp    40a024 <_ZN15CPU_MATHEMATICS11printHelperIPKfEEvT_PKiiNSt7__cxx1112basic_stringIcSt11char_traitsIcESaIcEEEi+0x6f9>
  40a021:	48 89 c3             	mov    %rax,%rbx
  40a024:	48 8d 85 6f ff ff ff 	lea    -0x91(%rbp),%rax
  40a02b:	48 89 c7             	mov    %rax,%rdi
  40a02e:	e8 dd 7d ff ff       	callq  401e10 <_ZNSaIcED1Ev@plt>
  40a033:	eb 03                	jmp    40a038 <_ZN15CPU_MATHEMATICS11printHelperIPKfEEvT_PKiiNSt7__cxx1112basic_stringIcSt11char_traitsIcESaIcEEEi+0x70d>
  40a035:	48 89 c3             	mov    %rax,%rbx
  40a038:	48 8d 45 80          	lea    -0x80(%rbp),%rax
  40a03c:	48 89 c7             	mov    %rax,%rdi
  40a03f:	e8 dc 7c ff ff       	callq  401d20 <_ZNSt7__cxx1112basic_stringIcSt11char_traitsIcESaIcEED1Ev@plt>
  40a044:	48 89 d8             	mov    %rbx,%rax
  40a047:	48 89 c7             	mov    %rax,%rdi
  40a04a:	e8 41 7f ff ff       	callq  401f90 <_Unwind_Resume@plt>
  40a04f:	48 89 c3             	mov    %rax,%rbx
  40a052:	48 8d 45 a0          	lea    -0x60(%rbp),%rax
  40a056:	48 89 c7             	mov    %rax,%rdi
  40a059:	e8 c2 7c ff ff       	callq  401d20 <_ZNSt7__cxx1112basic_stringIcSt11char_traitsIcESaIcEED1Ev@plt>
  40a05e:	eb 28                	jmp    40a088 <_ZN15CPU_MATHEMATICS11printHelperIPKfEEvT_PKiiNSt7__cxx1112basic_stringIcSt11char_traitsIcESaIcEEEi+0x75d>
  40a060:	48 89 c3             	mov    %rax,%rbx
  40a063:	48 8d 45 c0          	lea    -0x40(%rbp),%rax
  40a067:	48 89 c7             	mov    %rax,%rdi
  40a06a:	e8 b1 7c ff ff       	callq  401d20 <_ZNSt7__cxx1112basic_stringIcSt11char_traitsIcESaIcEED1Ev@plt>
  40a06f:	eb 03                	jmp    40a074 <_ZN15CPU_MATHEMATICS11printHelperIPKfEEvT_PKiiNSt7__cxx1112basic_stringIcSt11char_traitsIcESaIcEEEi+0x749>
  40a071:	48 89 c3             	mov    %rax,%rbx
  40a074:	48 8d 85 6f ff ff ff 	lea    -0x91(%rbp),%rax
  40a07b:	48 89 c7             	mov    %rax,%rdi
  40a07e:	e8 8d 7d ff ff       	callq  401e10 <_ZNSaIcED1Ev@plt>
  40a083:	eb 03                	jmp    40a088 <_ZN15CPU_MATHEMATICS11printHelperIPKfEEvT_PKiiNSt7__cxx1112basic_stringIcSt11char_traitsIcESaIcEEEi+0x75d>
  40a085:	48 89 c3             	mov    %rax,%rbx
  40a088:	48 8d 45 80          	lea    -0x80(%rbp),%rax
  40a08c:	48 89 c7             	mov    %rax,%rdi
  40a08f:	e8 8c 7c ff ff       	callq  401d20 <_ZNSt7__cxx1112basic_stringIcSt11char_traitsIcESaIcEED1Ev@plt>
  40a094:	48 89 d8             	mov    %rbx,%rax
  40a097:	48 89 c7             	mov    %rax,%rdi
  40a09a:	e8 f1 7e ff ff       	callq  401f90 <_Unwind_Resume@plt>
  40a09f:	90                   	nop
  40a0a0:	48 8b 45 e8          	mov    -0x18(%rbp),%rax
  40a0a4:	64 48 33 04 25 28 00 	xor    %fs:0x28,%rax
  40a0ab:	00 00 
  40a0ad:	74 05                	je     40a0b4 <_ZN15CPU_MATHEMATICS11printHelperIPKfEEvT_PKiiNSt7__cxx1112basic_stringIcSt11char_traitsIcESaIcEEEi+0x789>
  40a0af:	e8 7c 7d ff ff       	callq  401e30 <__stack_chk_fail@plt>
  40a0b4:	48 81 c4 c8 00 00 00 	add    $0xc8,%rsp
  40a0bb:	5b                   	pop    %rbx
  40a0bc:	5d                   	pop    %rbp
  40a0bd:	c3                   	retq   

000000000040a0be <_ZN7pBufferIf15CPU_MATHEMATICS10continuousIfS0_ES2_N9Operation3mulIfEEEC1ES2_S2_>:
  40a0be:	55                   	push   %rbp
  40a0bf:	48 89 e5             	mov    %rsp,%rbp
  40a0c2:	48 83 ec 20          	sub    $0x20,%rsp
  40a0c6:	48 89 7d f8          	mov    %rdi,-0x8(%rbp)
  40a0ca:	48 89 75 f0          	mov    %rsi,-0x10(%rbp)
  40a0ce:	48 89 55 e8          	mov    %rdx,-0x18(%rbp)
  40a0d2:	48 8b 45 f8          	mov    -0x8(%rbp),%rax
  40a0d6:	48 89 c7             	mov    %rax,%rdi
  40a0d9:	e8 94 cf ff ff       	callq  407072 <_ZN12accessor_aceIf15CPU_MATHEMATICSEC1Ev>
  40a0de:	ba 68 d8 40 00       	mov    $0x40d868,%edx
  40a0e3:	48 8b 45 f8          	mov    -0x8(%rbp),%rax
  40a0e7:	48 89 10             	mov    %rdx,(%rax)
  40a0ea:	48 8b 45 f8          	mov    -0x8(%rbp),%rax
  40a0ee:	48 8d 50 10          	lea    0x10(%rax),%rdx
  40a0f2:	48 8b 45 f0          	mov    -0x10(%rbp),%rax
  40a0f6:	48 89 c6             	mov    %rax,%rsi
  40a0f9:	48 89 d7             	mov    %rdx,%rdi
  40a0fc:	e8 a5 95 ff ff       	callq  4036a6 <_ZN10continuousIf15CPU_MATHEMATICSEC1ERKS1_>
  40a101:	48 8b 45 f8          	mov    -0x8(%rbp),%rax
  40a105:	48 8d 50 30          	lea    0x30(%rax),%rdx
  40a109:	48 8b 45 e8          	mov    -0x18(%rbp),%rax
  40a10d:	48 89 c6             	mov    %rax,%rsi
  40a110:	48 89 d7             	mov    %rdx,%rdi
  40a113:	e8 8e 95 ff ff       	callq  4036a6 <_ZN10continuousIf15CPU_MATHEMATICSEC1ERKS1_>
  40a118:	90                   	nop
  40a119:	c9                   	leaveq 
  40a11a:	c3                   	retq   
  40a11b:	90                   	nop

000000000040a11c <_ZN7pBufferIf15CPU_MATHEMATICS10continuousIfS0_ES_IfS0_S2_S2_N9Operation3mulIfEEENS3_3addIfEEEC1ES2_S6_>:
  40a11c:	55                   	push   %rbp
  40a11d:	48 89 e5             	mov    %rsp,%rbp
  40a120:	48 83 ec 20          	sub    $0x20,%rsp
  40a124:	48 89 7d f8          	mov    %rdi,-0x8(%rbp)
  40a128:	48 89 75 f0          	mov    %rsi,-0x10(%rbp)
  40a12c:	48 89 55 e8          	mov    %rdx,-0x18(%rbp)
  40a130:	48 8b 45 f8          	mov    -0x8(%rbp),%rax
  40a134:	48 89 c7             	mov    %rax,%rdi
  40a137:	e8 36 cf ff ff       	callq  407072 <_ZN12accessor_aceIf15CPU_MATHEMATICSEC1Ev>
  40a13c:	ba 78 d7 40 00       	mov    $0x40d778,%edx
  40a141:	48 8b 45 f8          	mov    -0x8(%rbp),%rax
  40a145:	48 89 10             	mov    %rdx,(%rax)
  40a148:	48 8b 45 f8          	mov    -0x8(%rbp),%rax
  40a14c:	48 8d 50 10          	lea    0x10(%rax),%rdx
  40a150:	48 8b 45 f0          	mov    -0x10(%rbp),%rax
  40a154:	48 89 c6             	mov    %rax,%rsi
  40a157:	48 89 d7             	mov    %rdx,%rdi
  40a15a:	e8 47 95 ff ff       	callq  4036a6 <_ZN10continuousIf15CPU_MATHEMATICSEC1ERKS1_>
  40a15f:	48 8b 45 f8          	mov    -0x8(%rbp),%rax
  40a163:	48 8d 50 30          	lea    0x30(%rax),%rdx
  40a167:	48 8b 45 e8          	mov    -0x18(%rbp),%rax
  40a16b:	48 89 c6             	mov    %rax,%rsi
  40a16e:	48 89 d7             	mov    %rdx,%rdi
  40a171:	e8 e6 97 ff ff       	callq  40395c <_ZN7pBufferIf15CPU_MATHEMATICS10continuousIfS0_ES2_N9Operation3mulIfEEEC1ERKS6_>
  40a176:	90                   	nop
  40a177:	c9                   	leaveq 
  40a178:	c3                   	retq   
  40a179:	90                   	nop

000000000040a17a <_ZNK7pBufferIf15CPU_MATHEMATICS10continuousIfS0_ES2_N9Operation3mulIfEEEixEi>:
  40a17a:	55                   	push   %rbp
  40a17b:	48 89 e5             	mov    %rsp,%rbp
  40a17e:	48 83 ec 10          	sub    $0x10,%rsp
  40a182:	48 89 7d f8          	mov    %rdi,-0x8(%rbp)
  40a186:	89 75 f4             	mov    %esi,-0xc(%rbp)
  40a189:	48 8b 45 f8          	mov    -0x8(%rbp),%rax
  40a18d:	48 8d 50 30          	lea    0x30(%rax),%rdx
  40a191:	8b 45 f4             	mov    -0xc(%rbp),%eax
  40a194:	89 c6                	mov    %eax,%esi
  40a196:	48 89 d7             	mov    %rdx,%rdi
  40a199:	e8 20 d8 ff ff       	callq  4079be <_ZNK10continuousIf15CPU_MATHEMATICSEixEi>
  40a19e:	f3 0f 10 10          	movss  (%rax),%xmm2
  40a1a2:	f3 0f 11 55 f0       	movss  %xmm2,-0x10(%rbp)
  40a1a7:	48 8b 45 f8          	mov    -0x8(%rbp),%rax
  40a1ab:	48 8d 50 10          	lea    0x10(%rax),%rdx
  40a1af:	8b 45 f4             	mov    -0xc(%rbp),%eax
  40a1b2:	89 c6                	mov    %eax,%esi
  40a1b4:	48 89 d7             	mov    %rdx,%rdi
  40a1b7:	e8 02 d8 ff ff       	callq  4079be <_ZNK10continuousIf15CPU_MATHEMATICSEixEi>
  40a1bc:	8b 00                	mov    (%rax),%eax
  40a1be:	48 8b 55 f8          	mov    -0x8(%rbp),%rdx
  40a1c2:	48 83 c2 08          	add    $0x8,%rdx
  40a1c6:	f3 0f 10 4d f0       	movss  -0x10(%rbp),%xmm1
  40a1cb:	89 45 f0             	mov    %eax,-0x10(%rbp)
  40a1ce:	f3 0f 10 45 f0       	movss  -0x10(%rbp),%xmm0
  40a1d3:	48 89 d7             	mov    %rdx,%rdi
  40a1d6:	e8 b5 06 00 00       	callq  40a890 <_ZNK9Operation3mulIfEclIffEEfT_T0_>
  40a1db:	c9                   	leaveq 
  40a1dc:	c3                   	retq   
  40a1dd:	90                   	nop

000000000040a1de <_ZNK9Operation3addIfEclIffEEfT_T0_>:
  40a1de:	55                   	push   %rbp
  40a1df:	48 89 e5             	mov    %rsp,%rbp
  40a1e2:	48 89 7d f8          	mov    %rdi,-0x8(%rbp)
  40a1e6:	f3 0f 11 45 f4       	movss  %xmm0,-0xc(%rbp)
  40a1eb:	f3 0f 11 4d f0       	movss  %xmm1,-0x10(%rbp)
  40a1f0:	f3 0f 10 45 f4       	movss  -0xc(%rbp),%xmm0
  40a1f5:	f3 0f 58 45 f0       	addss  -0x10(%rbp),%xmm0
  40a1fa:	5d                   	pop    %rbp
  40a1fb:	c3                   	retq   

000000000040a1fc <_ZN15Scalar_AccessorIf15CPU_MATHEMATICSEC1Ev>:
  40a1fc:	55                   	push   %rbp
  40a1fd:	48 89 e5             	mov    %rsp,%rbp
  40a200:	48 83 ec 10          	sub    $0x10,%rsp
  40a204:	48 89 7d f8          	mov    %rdi,-0x8(%rbp)
  40a208:	48 8b 45 f8          	mov    -0x8(%rbp),%rax
  40a20c:	48 89 c7             	mov    %rax,%rdi
  40a20f:	e8 5e ce ff ff       	callq  407072 <_ZN12accessor_aceIf15CPU_MATHEMATICSEC1Ev>
  40a214:	ba 88 d6 40 00       	mov    $0x40d688,%edx
  40a219:	48 8b 45 f8          	mov    -0x8(%rbp),%rax
  40a21d:	48 89 10             	mov    %rdx,(%rax)
  40a220:	90                   	nop
  40a221:	c9                   	leaveq 
  40a222:	c3                   	retq   
  40a223:	90                   	nop

000000000040a224 <_ZN14value_accessorIf15CPU_MATHEMATICSEC1Ev>:
  40a224:	55                   	push   %rbp
  40a225:	48 89 e5             	mov    %rsp,%rbp
  40a228:	48 83 ec 10          	sub    $0x10,%rsp
  40a22c:	48 89 7d f8          	mov    %rdi,-0x8(%rbp)
  40a230:	48 8b 45 f8          	mov    -0x8(%rbp),%rax
  40a234:	48 89 c7             	mov    %rax,%rdi
  40a237:	e8 36 ce ff ff       	callq  407072 <_ZN12accessor_aceIf15CPU_MATHEMATICSEC1Ev>
  40a23c:	ba 08 d6 40 00       	mov    $0x40d608,%edx
  40a241:	48 8b 45 f8          	mov    -0x8(%rbp),%rax
  40a245:	48 89 10             	mov    %rdx,(%rax)
  40a248:	90                   	nop
  40a249:	c9                   	leaveq 
  40a24a:	c3                   	retq   
  40a24b:	90                   	nop

000000000040a24c <_ZN19StackScalarAccessorIf15CPU_MATHEMATICSEC1Ef>:
  40a24c:	55                   	push   %rbp
  40a24d:	48 89 e5             	mov    %rsp,%rbp
  40a250:	48 83 ec 10          	sub    $0x10,%rsp
  40a254:	48 89 7d f8          	mov    %rdi,-0x8(%rbp)
  40a258:	f3 0f 11 45 f4       	movss  %xmm0,-0xc(%rbp)
  40a25d:	48 8b 45 f8          	mov    -0x8(%rbp),%rax
  40a261:	48 89 c7             	mov    %rax,%rdi
  40a264:	e8 93 ff ff ff       	callq  40a1fc <_ZN15Scalar_AccessorIf15CPU_MATHEMATICSEC1Ev>
  40a269:	48 8b 45 f8          	mov    -0x8(%rbp),%rax
  40a26d:	48 83 c0 08          	add    $0x8,%rax
  40a271:	48 89 c7             	mov    %rax,%rdi
  40a274:	e8 ab ff ff ff       	callq  40a224 <_ZN14value_accessorIf15CPU_MATHEMATICSEC1Ev>
  40a279:	ba 08 d5 40 00       	mov    $0x40d508,%edx
  40a27e:	48 8b 45 f8          	mov    -0x8(%rbp),%rax
  40a282:	48 89 10             	mov    %rdx,(%rax)
  40a285:	ba 88 d5 40 00       	mov    $0x40d588,%edx
  40a28a:	48 8b 45 f8          	mov    -0x8(%rbp),%rax
  40a28e:	48 89 50 08          	mov    %rdx,0x8(%rax)
  40a292:	48 8b 45 f8          	mov    -0x8(%rbp),%rax
  40a296:	f3 0f 10 45 f4       	movss  -0xc(%rbp),%xmm0
  40a29b:	f3 0f 11 40 10       	movss  %xmm0,0x10(%rax)
  40a2a0:	90                   	nop
  40a2a1:	c9                   	leaveq 
  40a2a2:	c3                   	retq   
  40a2a3:	90                   	nop

000000000040a2a4 <_ZN7pBufferIf15CPU_MATHEMATICS19StackScalarAccessorIfS0_E10continuousIfS0_EN9Operation3subIfEEEC1ES2_S4_>:
  40a2a4:	55                   	push   %rbp
  40a2a5:	48 89 e5             	mov    %rsp,%rbp
  40a2a8:	48 83 ec 20          	sub    $0x20,%rsp
  40a2ac:	48 89 7d f8          	mov    %rdi,-0x8(%rbp)
  40a2b0:	48 89 75 f0          	mov    %rsi,-0x10(%rbp)
  40a2b4:	48 89 55 e8          	mov    %rdx,-0x18(%rbp)
  40a2b8:	48 8b 45 f8          	mov    -0x8(%rbp),%rax
  40a2bc:	48 89 c7             	mov    %rax,%rdi
  40a2bf:	e8 ae cd ff ff       	callq  407072 <_ZN12accessor_aceIf15CPU_MATHEMATICSEC1Ev>
  40a2c4:	ba d8 d3 40 00       	mov    $0x40d3d8,%edx
  40a2c9:	48 8b 45 f8          	mov    -0x8(%rbp),%rax
  40a2cd:	48 89 10             	mov    %rdx,(%rax)
  40a2d0:	48 8b 45 f8          	mov    -0x8(%rbp),%rax
  40a2d4:	48 8d 50 10          	lea    0x10(%rax),%rdx
  40a2d8:	48 8b 45 f0          	mov    -0x10(%rbp),%rax
  40a2dc:	48 89 c6             	mov    %rax,%rsi
  40a2df:	48 89 d7             	mov    %rdx,%rdi
  40a2e2:	e8 f7 9b ff ff       	callq  403ede <_ZN19StackScalarAccessorIf15CPU_MATHEMATICSEC1ERKS1_>
  40a2e7:	48 8b 45 f8          	mov    -0x8(%rbp),%rax
  40a2eb:	48 8d 50 28          	lea    0x28(%rax),%rdx
  40a2ef:	48 8b 45 e8          	mov    -0x18(%rbp),%rax
  40a2f3:	48 89 c6             	mov    %rax,%rsi
  40a2f6:	48 89 d7             	mov    %rdx,%rdi
  40a2f9:	e8 a8 93 ff ff       	callq  4036a6 <_ZN10continuousIf15CPU_MATHEMATICSEC1ERKS1_>
  40a2fe:	90                   	nop
  40a2ff:	c9                   	leaveq 
  40a300:	c3                   	retq   
  40a301:	90                   	nop

000000000040a302 <_ZNK19StackScalarAccessorIf15CPU_MATHEMATICSEixEi>:
  40a302:	55                   	push   %rbp
  40a303:	48 89 e5             	mov    %rsp,%rbp
  40a306:	48 89 7d f8          	mov    %rdi,-0x8(%rbp)
  40a30a:	89 75 f4             	mov    %esi,-0xc(%rbp)
  40a30d:	48 8b 45 f8          	mov    -0x8(%rbp),%rax
  40a311:	f3 0f 10 40 10       	movss  0x10(%rax),%xmm0
  40a316:	5d                   	pop    %rbp
  40a317:	c3                   	retq   

000000000040a318 <_ZThn8_NK19StackScalarAccessorIf15CPU_MATHEMATICSEixEi>:
  40a318:	48 83 ef 08          	sub    $0x8,%rdi
  40a31c:	eb e4                	jmp    40a302 <_ZNK19StackScalarAccessorIf15CPU_MATHEMATICSEixEi>

000000000040a31e <_ZNK9Operation3subIfEclIffEEfT_T0_>:
  40a31e:	55                   	push   %rbp
  40a31f:	48 89 e5             	mov    %rsp,%rbp
  40a322:	48 89 7d f8          	mov    %rdi,-0x8(%rbp)
  40a326:	f3 0f 11 45 f4       	movss  %xmm0,-0xc(%rbp)
  40a32b:	f3 0f 11 4d f0       	movss  %xmm1,-0x10(%rbp)
  40a330:	f3 0f 10 45 f4       	movss  -0xc(%rbp),%xmm0
  40a335:	f3 0f 5c 45 f0       	subss  -0x10(%rbp),%xmm0
  40a33a:	5d                   	pop    %rbp
  40a33b:	c3                   	retq   

000000000040a33c <_ZN11Tensor_KingIf15CPU_MATHEMATICS23ReferenceScalarAccessorIfS0_EEC1IIPfEEEbbDpT_>:
  40a33c:	55                   	push   %rbp
  40a33d:	48 89 e5             	mov    %rsp,%rbp
  40a340:	48 83 ec 20          	sub    $0x20,%rsp
  40a344:	48 89 7d f8          	mov    %rdi,-0x8(%rbp)
  40a348:	89 d0                	mov    %edx,%eax
  40a34a:	48 89 4d e8          	mov    %rcx,-0x18(%rbp)
  40a34e:	40 88 75 f4          	mov    %sil,-0xc(%rbp)
  40a352:	88 45 f0             	mov    %al,-0x10(%rbp)
  40a355:	48 8b 45 f8          	mov    -0x8(%rbp),%rax
  40a359:	48 89 c7             	mov    %rax,%rdi
  40a35c:	e8 49 b0 ff ff       	callq  4053aa <_ZN10Tensor_AceC1Ev>
  40a361:	ba 58 d1 40 00       	mov    $0x40d158,%edx
  40a366:	48 8b 45 f8          	mov    -0x8(%rbp),%rax
  40a36a:	48 89 10             	mov    %rdx,(%rax)
  40a36d:	48 8b 45 f8          	mov    -0x8(%rbp),%rax
  40a371:	48 8d 50 08          	lea    0x8(%rax),%rdx
  40a375:	48 8b 45 e8          	mov    -0x18(%rbp),%rax
  40a379:	48 89 c6             	mov    %rax,%rsi
  40a37c:	48 89 d7             	mov    %rdx,%rdi
  40a37f:	e8 52 05 00 00       	callq  40a8d6 <_ZN23ReferenceScalarAccessorIf15CPU_MATHEMATICSEC1EPf>
  40a384:	48 8b 45 f8          	mov    -0x8(%rbp),%rax
  40a388:	0f b6 55 f4          	movzbl -0xc(%rbp),%edx
  40a38c:	88 50 20             	mov    %dl,0x20(%rax)
  40a38f:	48 8b 45 f8          	mov    -0x8(%rbp),%rax
  40a393:	0f b6 55 f0          	movzbl -0x10(%rbp),%edx
  40a397:	88 50 21             	mov    %dl,0x21(%rax)
  40a39a:	90                   	nop
  40a39b:	c9                   	leaveq 
  40a39c:	c3                   	retq   
  40a39d:	90                   	nop

000000000040a39e <_ZN7pBufferIf15CPU_MATHEMATICS10continuousIfS0_E23ReferenceScalarAccessorIfS0_EN9Operation3addIfEEEC1ES2_S4_>:
  40a39e:	55                   	push   %rbp
  40a39f:	48 89 e5             	mov    %rsp,%rbp
  40a3a2:	48 83 ec 20          	sub    $0x20,%rsp
  40a3a6:	48 89 7d f8          	mov    %rdi,-0x8(%rbp)
  40a3aa:	48 89 75 f0          	mov    %rsi,-0x10(%rbp)
  40a3ae:	48 89 55 e8          	mov    %rdx,-0x18(%rbp)
  40a3b2:	48 8b 45 f8          	mov    -0x8(%rbp),%rax
  40a3b6:	48 89 c7             	mov    %rax,%rdi
  40a3b9:	e8 b4 cc ff ff       	callq  407072 <_ZN12accessor_aceIf15CPU_MATHEMATICSEC1Ev>
  40a3be:	ba 68 d0 40 00       	mov    $0x40d068,%edx
  40a3c3:	48 8b 45 f8          	mov    -0x8(%rbp),%rax
  40a3c7:	48 89 10             	mov    %rdx,(%rax)
  40a3ca:	48 8b 45 f8          	mov    -0x8(%rbp),%rax
  40a3ce:	48 8d 50 10          	lea    0x10(%rax),%rdx
  40a3d2:	48 8b 45 f0          	mov    -0x10(%rbp),%rax
  40a3d6:	48 89 c6             	mov    %rax,%rsi
  40a3d9:	48 89 d7             	mov    %rdx,%rdi
  40a3dc:	e8 c5 92 ff ff       	callq  4036a6 <_ZN10continuousIf15CPU_MATHEMATICSEC1ERKS1_>
  40a3e1:	48 8b 45 f8          	mov    -0x8(%rbp),%rax
  40a3e5:	48 8d 50 30          	lea    0x30(%rax),%rdx
  40a3e9:	48 8b 45 e8          	mov    -0x18(%rbp),%rax
  40a3ed:	48 89 c6             	mov    %rax,%rsi
  40a3f0:	48 89 d7             	mov    %rdx,%rdi
  40a3f3:	e8 16 9f ff ff       	callq  40430e <_ZN23ReferenceScalarAccessorIf15CPU_MATHEMATICSEC1ERKS1_>
  40a3f8:	90                   	nop
  40a3f9:	c9                   	leaveq 
  40a3fa:	c3                   	retq   
  40a3fb:	90                   	nop

000000000040a3fc <_ZN11Tensor_KingIf15CPU_MATHEMATICS10continuousIfS0_EEC1IIPfPiiEEEbbDpT_>:
  40a3fc:	55                   	push   %rbp
  40a3fd:	48 89 e5             	mov    %rsp,%rbp
  40a400:	48 83 ec 30          	sub    $0x30,%rsp
  40a404:	48 89 7d f8          	mov    %rdi,-0x8(%rbp)
  40a408:	89 d0                	mov    %edx,%eax
  40a40a:	48 89 4d e8          	mov    %rcx,-0x18(%rbp)
  40a40e:	4c 89 45 e0          	mov    %r8,-0x20(%rbp)
  40a412:	44 89 4d dc          	mov    %r9d,-0x24(%rbp)
  40a416:	40 88 75 f4          	mov    %sil,-0xc(%rbp)
  40a41a:	88 45 f0             	mov    %al,-0x10(%rbp)
  40a41d:	48 8b 45 f8          	mov    -0x8(%rbp),%rax
  40a421:	48 89 c7             	mov    %rax,%rdi
  40a424:	e8 81 af ff ff       	callq  4053aa <_ZN10Tensor_AceC1Ev>
  40a429:	ba 18 d9 40 00       	mov    $0x40d918,%edx
  40a42e:	48 8b 45 f8          	mov    -0x8(%rbp),%rax
  40a432:	48 89 10             	mov    %rdx,(%rax)
  40a435:	48 8b 45 f8          	mov    -0x8(%rbp),%rax
  40a439:	48 8d 78 08          	lea    0x8(%rax),%rdi
  40a43d:	8b 4d dc             	mov    -0x24(%rbp),%ecx
  40a440:	48 8b 55 e0          	mov    -0x20(%rbp),%rdx
  40a444:	48 8b 45 e8          	mov    -0x18(%rbp),%rax
  40a448:	48 89 c6             	mov    %rax,%rsi
  40a44b:	e8 da 04 00 00       	callq  40a92a <_ZN10continuousIf15CPU_MATHEMATICSEC1EPfPii>
  40a450:	48 8b 45 f8          	mov    -0x8(%rbp),%rax
  40a454:	0f b6 55 f4          	movzbl -0xc(%rbp),%edx
  40a458:	88 50 28             	mov    %dl,0x28(%rax)
  40a45b:	48 8b 45 f8          	mov    -0x8(%rbp),%rax
  40a45f:	0f b6 55 f0          	movzbl -0x10(%rbp),%edx
  40a463:	88 50 29             	mov    %dl,0x29(%rax)
  40a466:	90                   	nop
  40a467:	c9                   	leaveq 
  40a468:	c3                   	retq   
  40a469:	90                   	nop

000000000040a46a <_ZN18transpose_accessorIf15CPU_MATHEMATICSEC1ER12accessor_aceIfS0_E>:
  40a46a:	55                   	push   %rbp
  40a46b:	48 89 e5             	mov    %rsp,%rbp
  40a46e:	53                   	push   %rbx
  40a46f:	48 83 ec 18          	sub    $0x18,%rsp
  40a473:	48 89 7d e8          	mov    %rdi,-0x18(%rbp)
  40a477:	48 89 75 e0          	mov    %rsi,-0x20(%rbp)
  40a47b:	48 8b 45 e8          	mov    -0x18(%rbp),%rax
  40a47f:	48 89 c7             	mov    %rax,%rdi
  40a482:	e8 eb cb ff ff       	callq  407072 <_ZN12accessor_aceIf15CPU_MATHEMATICSEC1Ev>
  40a487:	ba 38 cf 40 00       	mov    $0x40cf38,%edx
  40a48c:	48 8b 45 e8          	mov    -0x18(%rbp),%rax
  40a490:	48 89 10             	mov    %rdx,(%rax)
  40a493:	48 8b 45 e0          	mov    -0x20(%rbp),%rax
  40a497:	48 8b 00             	mov    (%rax),%rax
  40a49a:	48 83 c0 48          	add    $0x48,%rax
  40a49e:	48 8b 00             	mov    (%rax),%rax
  40a4a1:	48 8b 55 e0          	mov    -0x20(%rbp),%rdx
  40a4a5:	48 89 d7             	mov    %rdx,%rdi
  40a4a8:	ff d0                	callq  *%rax
  40a4aa:	48 89 c2             	mov    %rax,%rdx
  40a4ad:	48 8b 45 e8          	mov    -0x18(%rbp),%rax
  40a4b1:	48 89 50 08          	mov    %rdx,0x8(%rax)
  40a4b5:	48 8b 45 e0          	mov    -0x20(%rbp),%rax
  40a4b9:	48 8b 00             	mov    (%rax),%rax
  40a4bc:	48 83 c0 58          	add    $0x58,%rax
  40a4c0:	48 8b 00             	mov    (%rax),%rax
  40a4c3:	48 8b 55 e0          	mov    -0x20(%rbp),%rdx
  40a4c7:	48 89 d7             	mov    %rdx,%rdi
  40a4ca:	ff d0                	callq  *%rax
  40a4cc:	48 89 c2             	mov    %rax,%rdx
  40a4cf:	48 8b 45 e8          	mov    -0x18(%rbp),%rax
  40a4d3:	48 89 50 18          	mov    %rdx,0x18(%rax)
  40a4d7:	48 8b 45 e0          	mov    -0x20(%rbp),%rax
  40a4db:	48 8b 00             	mov    (%rax),%rax
  40a4de:	48 83 c0 50          	add    $0x50,%rax
  40a4e2:	48 8b 00             	mov    (%rax),%rax
  40a4e5:	48 8b 55 e0          	mov    -0x20(%rbp),%rdx
  40a4e9:	48 89 d7             	mov    %rdx,%rdi
  40a4ec:	ff d0                	callq  *%rax
  40a4ee:	48 89 c2             	mov    %rax,%rdx
  40a4f1:	48 8b 45 e8          	mov    -0x18(%rbp),%rax
  40a4f5:	48 89 50 10          	mov    %rdx,0x10(%rax)
  40a4f9:	48 8b 45 e0          	mov    -0x20(%rbp),%rax
  40a4fd:	48 8b 00             	mov    (%rax),%rax
  40a500:	48 83 c0 18          	add    $0x18,%rax
  40a504:	48 8b 00             	mov    (%rax),%rax
  40a507:	48 8b 55 e0          	mov    -0x20(%rbp),%rdx
  40a50b:	48 89 d7             	mov    %rdx,%rdi
  40a50e:	ff d0                	callq  *%rax
  40a510:	89 c2                	mov    %eax,%edx
  40a512:	48 8b 45 e8          	mov    -0x18(%rbp),%rax
  40a516:	89 50 20             	mov    %edx,0x20(%rax)
  40a519:	eb 1a                	jmp    40a535 <_ZN18transpose_accessorIf15CPU_MATHEMATICSEC1ER12accessor_aceIfS0_E+0xcb>
  40a51b:	48 89 c3             	mov    %rax,%rbx
  40a51e:	48 8b 45 e8          	mov    -0x18(%rbp),%rax
  40a522:	48 89 c7             	mov    %rax,%rdi
  40a525:	e8 10 91 ff ff       	callq  40363a <_ZN12accessor_aceIf15CPU_MATHEMATICSED1Ev>
  40a52a:	48 89 d8             	mov    %rbx,%rax
  40a52d:	48 89 c7             	mov    %rax,%rdi
  40a530:	e8 5b 7a ff ff       	callq  401f90 <_Unwind_Resume@plt>
  40a535:	48 83 c4 18          	add    $0x18,%rsp
  40a539:	5b                   	pop    %rbx
  40a53a:	5d                   	pop    %rbp
  40a53b:	c3                   	retq   

000000000040a53c <_ZNK18transpose_accessorIf15CPU_MATHEMATICSE3rowEv>:
  40a53c:	55                   	push   %rbp
  40a53d:	48 89 e5             	mov    %rsp,%rbp
  40a540:	48 89 7d f8          	mov    %rdi,-0x8(%rbp)
  40a544:	48 8b 45 f8          	mov    -0x8(%rbp),%rax
  40a548:	48 8b 40 10          	mov    0x10(%rax),%rax
  40a54c:	8b 40 04             	mov    0x4(%rax),%eax
  40a54f:	5d                   	pop    %rbp
  40a550:	c3                   	retq   
  40a551:	90                   	nop

000000000040a552 <_ZNK18transpose_accessorIf15CPU_MATHEMATICSE6ld_rowEv>:
  40a552:	55                   	push   %rbp
  40a553:	48 89 e5             	mov    %rsp,%rbp
  40a556:	48 89 7d f8          	mov    %rdi,-0x8(%rbp)
  40a55a:	48 8b 45 f8          	mov    -0x8(%rbp),%rax
  40a55e:	48 8b 40 18          	mov    0x18(%rax),%rax
  40a562:	8b 00                	mov    (%rax),%eax
  40a564:	5d                   	pop    %rbp
  40a565:	c3                   	retq   

000000000040a566 <_ZN12accessor_aceId15CPU_MATHEMATICSEC1Ev>:
  40a566:	55                   	push   %rbp
  40a567:	48 89 e5             	mov    %rsp,%rbp
  40a56a:	48 83 ec 10          	sub    $0x10,%rsp
  40a56e:	48 89 7d f8          	mov    %rdi,-0x8(%rbp)
  40a572:	48 8b 45 f8          	mov    -0x8(%rbp),%rax
  40a576:	48 89 c7             	mov    %rax,%rdi
  40a579:	e8 2c ae ff ff       	callq  4053aa <_ZN10Tensor_AceC1Ev>
  40a57e:	ba 48 ce 40 00       	mov    $0x40ce48,%edx
  40a583:	48 8b 45 f8          	mov    -0x8(%rbp),%rax
  40a587:	48 89 10             	mov    %rdx,(%rax)
  40a58a:	90                   	nop
  40a58b:	c9                   	leaveq 
  40a58c:	c3                   	retq   
  40a58d:	90                   	nop

000000000040a58e <_ZN10continuousId15CPU_MATHEMATICSEC1ESt16initializer_listIiE>:
  40a58e:	55                   	push   %rbp
  40a58f:	48 89 e5             	mov    %rsp,%rbp
  40a592:	53                   	push   %rbx
  40a593:	48 83 ec 28          	sub    $0x28,%rsp
  40a597:	48 89 7d e8          	mov    %rdi,-0x18(%rbp)
  40a59b:	48 89 f0             	mov    %rsi,%rax
  40a59e:	48 89 d1             	mov    %rdx,%rcx
  40a5a1:	48 89 ca             	mov    %rcx,%rdx
  40a5a4:	48 89 45 d0          	mov    %rax,-0x30(%rbp)
  40a5a8:	48 89 55 d8          	mov    %rdx,-0x28(%rbp)
  40a5ac:	48 8b 45 e8          	mov    -0x18(%rbp),%rax
  40a5b0:	48 89 c7             	mov    %rax,%rdi
  40a5b3:	e8 ae ff ff ff       	callq  40a566 <_ZN12accessor_aceId15CPU_MATHEMATICSEC1Ev>
  40a5b8:	ba d8 cd 40 00       	mov    $0x40cdd8,%edx
  40a5bd:	48 8b 45 e8          	mov    -0x18(%rbp),%rax
  40a5c1:	48 89 10             	mov    %rdx,(%rax)
  40a5c4:	48 8d 45 d0          	lea    -0x30(%rbp),%rax
  40a5c8:	48 89 c7             	mov    %rax,%rdi
  40a5cb:	e8 90 ca ff ff       	callq  407060 <_ZNKSt16initializer_listIiE4sizeEv>
  40a5d0:	89 c2                	mov    %eax,%edx
  40a5d2:	48 8b 45 e8          	mov    -0x18(%rbp),%rax
  40a5d6:	89 50 18             	mov    %edx,0x18(%rax)
  40a5d9:	48 8d 45 d0          	lea    -0x30(%rbp),%rax
  40a5dd:	48 89 c7             	mov    %rax,%rdi
  40a5e0:	e8 7b ca ff ff       	callq  407060 <_ZNKSt16initializer_listIiE4sizeEv>
  40a5e5:	83 c0 01             	add    $0x1,%eax
  40a5e8:	89 c2                	mov    %eax,%edx
  40a5ea:	48 8b 45 e8          	mov    -0x18(%rbp),%rax
  40a5ee:	48 83 c0 10          	add    $0x10,%rax
  40a5f2:	89 d6                	mov    %edx,%esi
  40a5f4:	48 89 c7             	mov    %rax,%rdi
  40a5f7:	e8 e1 f1 ff ff       	callq  4097dd <_ZN15CPU_MATHEMATICS18unified_initializeIiEEvRPT_i>
  40a5fc:	48 8d 45 d0          	lea    -0x30(%rbp),%rax
  40a600:	48 89 c7             	mov    %rax,%rdi
  40a603:	e8 58 ca ff ff       	callq  407060 <_ZNKSt16initializer_listIiE4sizeEv>
  40a608:	89 c3                	mov    %eax,%ebx
  40a60a:	48 8d 45 d0          	lea    -0x30(%rbp),%rax
  40a60e:	48 89 c7             	mov    %rax,%rdi
  40a611:	e8 84 ca ff ff       	callq  40709a <_ZNKSt16initializer_listIiE5beginEv>
  40a616:	48 89 c1             	mov    %rax,%rcx
  40a619:	48 8b 45 e8          	mov    -0x18(%rbp),%rax
  40a61d:	48 83 c0 10          	add    $0x10,%rax
  40a621:	89 da                	mov    %ebx,%edx
  40a623:	48 89 ce             	mov    %rcx,%rsi
  40a626:	48 89 c7             	mov    %rax,%rdi
  40a629:	e8 f2 f1 ff ff       	callq  409820 <_ZN15CPU_MATHEMATICS10copy_stackIPiPKiEEvRT_T0_i>
  40a62e:	48 8b 45 e8          	mov    -0x18(%rbp),%rax
  40a632:	48 8b 58 10          	mov    0x10(%rax),%rbx
  40a636:	48 8b 45 e8          	mov    -0x18(%rbp),%rax
  40a63a:	48 89 c7             	mov    %rax,%rdi
  40a63d:	e8 68 00 00 00       	callq  40a6aa <_ZNK10continuousId15CPU_MATHEMATICSE5orderEv>
  40a642:	48 98                	cltq   
  40a644:	48 c1 e0 02          	shl    $0x2,%rax
  40a648:	48 01 c3             	add    %rax,%rbx
  40a64b:	48 8b 45 e8          	mov    -0x18(%rbp),%rax
  40a64f:	8b 50 18             	mov    0x18(%rax),%edx
  40a652:	48 8b 45 e8          	mov    -0x18(%rbp),%rax
  40a656:	48 8b 40 10          	mov    0x10(%rax),%rax
  40a65a:	89 d6                	mov    %edx,%esi
  40a65c:	48 89 c7             	mov    %rax,%rdi
  40a65f:	e8 1a 03 00 00       	callq  40a97e <_ZN10continuousId15CPU_MATHEMATICSE14calculate_sizeEPii>
  40a664:	89 03                	mov    %eax,(%rbx)
  40a666:	48 8b 45 e8          	mov    -0x18(%rbp),%rax
  40a66a:	48 89 c7             	mov    %rax,%rdi
  40a66d:	e8 ce ee ff ff       	callq  409540 <_ZNK10continuousId15CPU_MATHEMATICSE4sizeEv>
  40a672:	89 c2                	mov    %eax,%edx
  40a674:	48 8b 45 e8          	mov    -0x18(%rbp),%rax
  40a678:	48 83 c0 08          	add    $0x8,%rax
  40a67c:	89 d6                	mov    %edx,%esi
  40a67e:	48 89 c7             	mov    %rax,%rdi
  40a681:	e8 43 03 00 00       	callq  40a9c9 <_ZN15CPU_MATHEMATICS10initializeIdEEvRPT_i>
  40a686:	eb 1a                	jmp    40a6a2 <_ZN10continuousId15CPU_MATHEMATICSEC1ESt16initializer_listIiE+0x114>
  40a688:	48 89 c3             	mov    %rax,%rbx
  40a68b:	48 8b 45 e8          	mov    -0x18(%rbp),%rax
  40a68f:	48 89 c7             	mov    %rax,%rdi
  40a692:	e8 d5 a8 ff ff       	callq  404f6c <_ZN12accessor_aceId15CPU_MATHEMATICSED1Ev>
  40a697:	48 89 d8             	mov    %rbx,%rax
  40a69a:	48 89 c7             	mov    %rax,%rdi
  40a69d:	e8 ee 78 ff ff       	callq  401f90 <_Unwind_Resume@plt>
  40a6a2:	48 83 c4 28          	add    $0x28,%rsp
  40a6a6:	5b                   	pop    %rbx
  40a6a7:	5d                   	pop    %rbp
  40a6a8:	c3                   	retq   
  40a6a9:	90                   	nop

000000000040a6aa <_ZNK10continuousId15CPU_MATHEMATICSE5orderEv>:
  40a6aa:	55                   	push   %rbp
  40a6ab:	48 89 e5             	mov    %rsp,%rbp
  40a6ae:	48 89 7d f8          	mov    %rdi,-0x8(%rbp)
  40a6b2:	48 8b 45 f8          	mov    -0x8(%rbp),%rax
  40a6b6:	8b 40 18             	mov    0x18(%rax),%eax
  40a6b9:	5d                   	pop    %rbp
  40a6ba:	c3                   	retq   
  40a6bb:	90                   	nop

000000000040a6bc <_ZN7pBufferId15CPU_MATHEMATICS10continuousIdS0_ES2_N9Operation3addIdEEEC1ES2_S2_>:
  40a6bc:	55                   	push   %rbp
  40a6bd:	48 89 e5             	mov    %rsp,%rbp
  40a6c0:	48 83 ec 20          	sub    $0x20,%rsp
  40a6c4:	48 89 7d f8          	mov    %rdi,-0x8(%rbp)
  40a6c8:	48 89 75 f0          	mov    %rsi,-0x10(%rbp)
  40a6cc:	48 89 55 e8          	mov    %rdx,-0x18(%rbp)
  40a6d0:	48 8b 45 f8          	mov    -0x8(%rbp),%rax
  40a6d4:	48 89 c7             	mov    %rax,%rdi
  40a6d7:	e8 8a fe ff ff       	callq  40a566 <_ZN12accessor_aceId15CPU_MATHEMATICSEC1Ev>
  40a6dc:	ba a8 cc 40 00       	mov    $0x40cca8,%edx
  40a6e1:	48 8b 45 f8          	mov    -0x8(%rbp),%rax
  40a6e5:	48 89 10             	mov    %rdx,(%rax)
  40a6e8:	48 8b 45 f8          	mov    -0x8(%rbp),%rax
  40a6ec:	48 8d 50 10          	lea    0x10(%rax),%rdx
  40a6f0:	48 8b 45 f0          	mov    -0x10(%rbp),%rax
  40a6f4:	48 89 c6             	mov    %rax,%rsi
  40a6f7:	48 89 d7             	mov    %rdx,%rdi
  40a6fa:	e8 d9 a8 ff ff       	callq  404fd8 <_ZN10continuousId15CPU_MATHEMATICSEC1ERKS1_>
  40a6ff:	48 8b 45 f8          	mov    -0x8(%rbp),%rax
  40a703:	48 8d 50 30          	lea    0x30(%rax),%rdx
  40a707:	48 8b 45 e8          	mov    -0x18(%rbp),%rax
  40a70b:	48 89 c6             	mov    %rax,%rsi
  40a70e:	48 89 d7             	mov    %rdx,%rdi
  40a711:	e8 c2 a8 ff ff       	callq  404fd8 <_ZN10continuousId15CPU_MATHEMATICSEC1ERKS1_>
  40a716:	90                   	nop
  40a717:	c9                   	leaveq 
  40a718:	c3                   	retq   
  40a719:	90                   	nop

000000000040a71a <_ZNK10continuousId15CPU_MATHEMATICSEixEi>:
  40a71a:	55                   	push   %rbp
  40a71b:	48 89 e5             	mov    %rsp,%rbp
  40a71e:	48 89 7d f8          	mov    %rdi,-0x8(%rbp)
  40a722:	89 75 f4             	mov    %esi,-0xc(%rbp)
  40a725:	48 8b 45 f8          	mov    -0x8(%rbp),%rax
  40a729:	48 8b 40 08          	mov    0x8(%rax),%rax
  40a72d:	8b 55 f4             	mov    -0xc(%rbp),%edx
  40a730:	48 63 d2             	movslq %edx,%rdx
  40a733:	48 c1 e2 03          	shl    $0x3,%rdx
  40a737:	48 01 d0             	add    %rdx,%rax
  40a73a:	5d                   	pop    %rbp
  40a73b:	c3                   	retq   

000000000040a73c <_ZNK9Operation3addIdEclIddEEdT_T0_>:
  40a73c:	55                   	push   %rbp
  40a73d:	48 89 e5             	mov    %rsp,%rbp
  40a740:	48 89 7d f8          	mov    %rdi,-0x8(%rbp)
  40a744:	f2 0f 11 45 f0       	movsd  %xmm0,-0x10(%rbp)
  40a749:	f2 0f 11 4d e8       	movsd  %xmm1,-0x18(%rbp)
  40a74e:	f2 0f 10 45 f0       	movsd  -0x10(%rbp),%xmm0
  40a753:	f2 0f 58 45 e8       	addsd  -0x18(%rbp),%xmm0
  40a758:	5d                   	pop    %rbp
  40a759:	c3                   	retq   

000000000040a75a <_ZNSt7__cxx1112basic_stringIcSt11char_traitsIcESaIcEE12_M_constructIPcEEvT_S7_St20forward_iterator_tag>:
  40a75a:	55                   	push   %rbp
  40a75b:	48 89 e5             	mov    %rsp,%rbp
  40a75e:	53                   	push   %rbx
  40a75f:	48 83 ec 38          	sub    $0x38,%rsp
  40a763:	48 89 7d d8          	mov    %rdi,-0x28(%rbp)
  40a767:	48 89 75 d0          	mov    %rsi,-0x30(%rbp)
  40a76b:	48 89 55 c8          	mov    %rdx,-0x38(%rbp)
  40a76f:	64 48 8b 04 25 28 00 	mov    %fs:0x28,%rax
  40a776:	00 00 
  40a778:	48 89 45 e8          	mov    %rax,-0x18(%rbp)
  40a77c:	31 c0                	xor    %eax,%eax
  40a77e:	48 8b 45 d0          	mov    -0x30(%rbp),%rax
  40a782:	48 89 c7             	mov    %rax,%rdi
  40a785:	e8 82 02 00 00       	callq  40aa0c <_ZN9__gnu_cxx17__is_null_pointerIcEEbPT_>
  40a78a:	84 c0                	test   %al,%al
  40a78c:	74 11                	je     40a79f <_ZNSt7__cxx1112basic_stringIcSt11char_traitsIcESaIcEE12_M_constructIPcEEvT_S7_St20forward_iterator_tag+0x45>
  40a78e:	48 8b 45 d0          	mov    -0x30(%rbp),%rax
  40a792:	48 3b 45 c8          	cmp    -0x38(%rbp),%rax
  40a796:	74 07                	je     40a79f <_ZNSt7__cxx1112basic_stringIcSt11char_traitsIcESaIcEE12_M_constructIPcEEvT_S7_St20forward_iterator_tag+0x45>
  40a798:	b8 01 00 00 00       	mov    $0x1,%eax
  40a79d:	eb 05                	jmp    40a7a4 <_ZNSt7__cxx1112basic_stringIcSt11char_traitsIcESaIcEE12_M_constructIPcEEvT_S7_St20forward_iterator_tag+0x4a>
  40a79f:	b8 00 00 00 00       	mov    $0x0,%eax
  40a7a4:	84 c0                	test   %al,%al
  40a7a6:	74 0a                	je     40a7b2 <_ZNSt7__cxx1112basic_stringIcSt11char_traitsIcESaIcEE12_M_constructIPcEEvT_S7_St20forward_iterator_tag+0x58>
  40a7a8:	bf 60 ca 40 00       	mov    $0x40ca60,%edi
  40a7ad:	e8 9e 75 ff ff       	callq  401d50 <_ZSt19__throw_logic_errorPKc@plt>
  40a7b2:	48 8b 55 c8          	mov    -0x38(%rbp),%rdx
  40a7b6:	48 8b 45 d0          	mov    -0x30(%rbp),%rax
  40a7ba:	48 89 d6             	mov    %rdx,%rsi
  40a7bd:	48 89 c7             	mov    %rax,%rdi
  40a7c0:	e8 59 02 00 00       	callq  40aa1e <_ZSt8distanceIPcENSt15iterator_traitsIT_E15difference_typeES2_S2_>
  40a7c5:	48 89 45 e0          	mov    %rax,-0x20(%rbp)
  40a7c9:	48 8b 45 e0          	mov    -0x20(%rbp),%rax
  40a7cd:	48 83 f8 0f          	cmp    $0xf,%rax
  40a7d1:	76 3d                	jbe    40a810 <_ZNSt7__cxx1112basic_stringIcSt11char_traitsIcESaIcEE12_M_constructIPcEEvT_S7_St20forward_iterator_tag+0xb6>
  40a7d3:	48 8d 4d e0          	lea    -0x20(%rbp),%rcx
  40a7d7:	48 8b 45 d8          	mov    -0x28(%rbp),%rax
  40a7db:	ba 00 00 00 00       	mov    $0x0,%edx
  40a7e0:	48 89 ce             	mov    %rcx,%rsi
  40a7e3:	48 89 c7             	mov    %rax,%rdi
  40a7e6:	e8 c5 77 ff ff       	callq  401fb0 <_ZNSt7__cxx1112basic_stringIcSt11char_traitsIcESaIcEE9_M_createERmm@plt>
  40a7eb:	48 89 c2             	mov    %rax,%rdx
  40a7ee:	48 8b 45 d8          	mov    -0x28(%rbp),%rax
  40a7f2:	48 89 d6             	mov    %rdx,%rsi
  40a7f5:	48 89 c7             	mov    %rax,%rdi
  40a7f8:	e8 83 75 ff ff       	callq  401d80 <_ZNSt7__cxx1112basic_stringIcSt11char_traitsIcESaIcEE7_M_dataEPc@plt>
  40a7fd:	48 8b 55 e0          	mov    -0x20(%rbp),%rdx
  40a801:	48 8b 45 d8          	mov    -0x28(%rbp),%rax
  40a805:	48 89 d6             	mov    %rdx,%rsi
  40a808:	48 89 c7             	mov    %rax,%rdi
  40a80b:	e8 00 78 ff ff       	callq  402010 <_ZNSt7__cxx1112basic_stringIcSt11char_traitsIcESaIcEE11_M_capacityEm@plt>
  40a810:	48 8b 45 d8          	mov    -0x28(%rbp),%rax
  40a814:	48 89 c7             	mov    %rax,%rdi
  40a817:	e8 04 76 ff ff       	callq  401e20 <_ZNKSt7__cxx1112basic_stringIcSt11char_traitsIcESaIcEE7_M_dataEv@plt>
  40a81c:	48 89 c1             	mov    %rax,%rcx
  40a81f:	48 8b 55 c8          	mov    -0x38(%rbp),%rdx
  40a823:	48 8b 45 d0          	mov    -0x30(%rbp),%rax
  40a827:	48 89 c6             	mov    %rax,%rsi
  40a82a:	48 89 cf             	mov    %rcx,%rdi
  40a82d:	e8 9e 74 ff ff       	callq  401cd0 <_ZNSt7__cxx1112basic_stringIcSt11char_traitsIcESaIcEE13_S_copy_charsEPcS5_S5_@plt>
  40a832:	48 8b 55 e0          	mov    -0x20(%rbp),%rdx
  40a836:	48 8b 45 d8          	mov    -0x28(%rbp),%rax
  40a83a:	48 89 d6             	mov    %rdx,%rsi
  40a83d:	48 89 c7             	mov    %rax,%rdi
  40a840:	e8 fb 74 ff ff       	callq  401d40 <_ZNSt7__cxx1112basic_stringIcSt11char_traitsIcESaIcEE13_M_set_lengthEm@plt>
  40a845:	90                   	nop
  40a846:	48 8b 45 e8          	mov    -0x18(%rbp),%rax
  40a84a:	64 48 33 04 25 28 00 	xor    %fs:0x28,%rax
  40a851:	00 00 
  40a853:	74 33                	je     40a888 <_ZNSt7__cxx1112basic_stringIcSt11char_traitsIcESaIcEE12_M_constructIPcEEvT_S7_St20forward_iterator_tag+0x12e>
  40a855:	eb 2c                	jmp    40a883 <_ZNSt7__cxx1112basic_stringIcSt11char_traitsIcESaIcEE12_M_constructIPcEEvT_S7_St20forward_iterator_tag+0x129>
  40a857:	48 89 c7             	mov    %rax,%rdi
  40a85a:	e8 81 74 ff ff       	callq  401ce0 <__cxa_begin_catch@plt>
  40a85f:	48 8b 45 d8          	mov    -0x28(%rbp),%rax
  40a863:	48 89 c7             	mov    %rax,%rdi
  40a866:	e8 f5 75 ff ff       	callq  401e60 <_ZNSt7__cxx1112basic_stringIcSt11char_traitsIcESaIcEE10_M_disposeEv@plt>
  40a86b:	e8 60 76 ff ff       	callq  401ed0 <__cxa_rethrow@plt>
  40a870:	48 89 c3             	mov    %rax,%rbx
  40a873:	e8 b8 76 ff ff       	callq  401f30 <__cxa_end_catch@plt>
  40a878:	48 89 d8             	mov    %rbx,%rax
  40a87b:	48 89 c7             	mov    %rax,%rdi
  40a87e:	e8 0d 77 ff ff       	callq  401f90 <_Unwind_Resume@plt>
  40a883:	e8 a8 75 ff ff       	callq  401e30 <__stack_chk_fail@plt>
  40a888:	48 83 c4 38          	add    $0x38,%rsp
  40a88c:	5b                   	pop    %rbx
  40a88d:	5d                   	pop    %rbp
  40a88e:	c3                   	retq   
  40a88f:	90                   	nop

000000000040a890 <_ZNK9Operation3mulIfEclIffEEfT_T0_>:
  40a890:	55                   	push   %rbp
  40a891:	48 89 e5             	mov    %rsp,%rbp
  40a894:	48 89 7d f8          	mov    %rdi,-0x8(%rbp)
  40a898:	f3 0f 11 45 f4       	movss  %xmm0,-0xc(%rbp)
  40a89d:	f3 0f 11 4d f0       	movss  %xmm1,-0x10(%rbp)
  40a8a2:	f3 0f 10 45 f4       	movss  -0xc(%rbp),%xmm0
  40a8a7:	f3 0f 59 45 f0       	mulss  -0x10(%rbp),%xmm0
  40a8ac:	5d                   	pop    %rbp
  40a8ad:	c3                   	retq   

000000000040a8ae <_ZN18reference_accessorIf15CPU_MATHEMATICSEC1Ev>:
  40a8ae:	55                   	push   %rbp
  40a8af:	48 89 e5             	mov    %rsp,%rbp
  40a8b2:	48 83 ec 10          	sub    $0x10,%rsp
  40a8b6:	48 89 7d f8          	mov    %rdi,-0x8(%rbp)
  40a8ba:	48 8b 45 f8          	mov    -0x8(%rbp),%rax
  40a8be:	48 89 c7             	mov    %rax,%rdi
  40a8c1:	e8 ac c7 ff ff       	callq  407072 <_ZN12accessor_aceIf15CPU_MATHEMATICSEC1Ev>
  40a8c6:	ba 98 d2 40 00       	mov    $0x40d298,%edx
  40a8cb:	48 8b 45 f8          	mov    -0x8(%rbp),%rax
  40a8cf:	48 89 10             	mov    %rdx,(%rax)
  40a8d2:	90                   	nop
  40a8d3:	c9                   	leaveq 
  40a8d4:	c3                   	retq   
  40a8d5:	90                   	nop

000000000040a8d6 <_ZN23ReferenceScalarAccessorIf15CPU_MATHEMATICSEC1EPf>:
  40a8d6:	55                   	push   %rbp
  40a8d7:	48 89 e5             	mov    %rsp,%rbp
  40a8da:	48 83 ec 10          	sub    $0x10,%rsp
  40a8de:	48 89 7d f8          	mov    %rdi,-0x8(%rbp)
  40a8e2:	48 89 75 f0          	mov    %rsi,-0x10(%rbp)
  40a8e6:	48 8b 45 f8          	mov    -0x8(%rbp),%rax
  40a8ea:	48 89 c7             	mov    %rax,%rdi
  40a8ed:	e8 0a f9 ff ff       	callq  40a1fc <_ZN15Scalar_AccessorIf15CPU_MATHEMATICSEC1Ev>
  40a8f2:	48 8b 45 f8          	mov    -0x8(%rbp),%rax
  40a8f6:	48 83 c0 08          	add    $0x8,%rax
  40a8fa:	48 89 c7             	mov    %rax,%rdi
  40a8fd:	e8 ac ff ff ff       	callq  40a8ae <_ZN18reference_accessorIf15CPU_MATHEMATICSEC1Ev>
  40a902:	ba 98 d1 40 00       	mov    $0x40d198,%edx
  40a907:	48 8b 45 f8          	mov    -0x8(%rbp),%rax
  40a90b:	48 89 10             	mov    %rdx,(%rax)
  40a90e:	ba 18 d2 40 00       	mov    $0x40d218,%edx
  40a913:	48 8b 45 f8          	mov    -0x8(%rbp),%rax
  40a917:	48 89 50 08          	mov    %rdx,0x8(%rax)
  40a91b:	48 8b 45 f8          	mov    -0x8(%rbp),%rax
  40a91f:	48 8b 55 f0          	mov    -0x10(%rbp),%rdx
  40a923:	48 89 50 10          	mov    %rdx,0x10(%rax)
  40a927:	90                   	nop
  40a928:	c9                   	leaveq 
  40a929:	c3                   	retq   

000000000040a92a <_ZN10continuousIf15CPU_MATHEMATICSEC1EPfPii>:
  40a92a:	55                   	push   %rbp
  40a92b:	48 89 e5             	mov    %rsp,%rbp
  40a92e:	48 83 ec 20          	sub    $0x20,%rsp
  40a932:	48 89 7d f8          	mov    %rdi,-0x8(%rbp)
  40a936:	48 89 75 f0          	mov    %rsi,-0x10(%rbp)
  40a93a:	48 89 55 e8          	mov    %rdx,-0x18(%rbp)
  40a93e:	89 4d e4             	mov    %ecx,-0x1c(%rbp)
  40a941:	48 8b 45 f8          	mov    -0x8(%rbp),%rax
  40a945:	48 89 c7             	mov    %rax,%rdi
  40a948:	e8 25 c7 ff ff       	callq  407072 <_ZN12accessor_aceIf15CPU_MATHEMATICSEC1Ev>
  40a94d:	ba 58 d9 40 00       	mov    $0x40d958,%edx
  40a952:	48 8b 45 f8          	mov    -0x8(%rbp),%rax
  40a956:	48 89 10             	mov    %rdx,(%rax)
  40a959:	48 8b 45 f8          	mov    -0x8(%rbp),%rax
  40a95d:	8b 55 e4             	mov    -0x1c(%rbp),%edx
  40a960:	89 50 18             	mov    %edx,0x18(%rax)
  40a963:	48 8b 45 f8          	mov    -0x8(%rbp),%rax
  40a967:	48 8b 55 f0          	mov    -0x10(%rbp),%rdx
  40a96b:	48 89 50 08          	mov    %rdx,0x8(%rax)
  40a96f:	48 8b 45 f8          	mov    -0x8(%rbp),%rax
  40a973:	48 8b 55 e8          	mov    -0x18(%rbp),%rdx
  40a977:	48 89 50 10          	mov    %rdx,0x10(%rax)
  40a97b:	90                   	nop
  40a97c:	c9                   	leaveq 
  40a97d:	c3                   	retq   

000000000040a97e <_ZN10continuousId15CPU_MATHEMATICSE14calculate_sizeEPii>:
  40a97e:	55                   	push   %rbp
  40a97f:	48 89 e5             	mov    %rsp,%rbp
  40a982:	48 89 7d e8          	mov    %rdi,-0x18(%rbp)
  40a986:	89 75 e4             	mov    %esi,-0x1c(%rbp)
  40a989:	c7 45 f8 01 00 00 00 	movl   $0x1,-0x8(%rbp)
  40a990:	c7 45 fc 00 00 00 00 	movl   $0x0,-0x4(%rbp)
  40a997:	8b 45 fc             	mov    -0x4(%rbp),%eax
  40a99a:	3b 45 e4             	cmp    -0x1c(%rbp),%eax
  40a99d:	7d 25                	jge    40a9c4 <_ZN10continuousId15CPU_MATHEMATICSE14calculate_sizeEPii+0x46>
  40a99f:	8b 45 fc             	mov    -0x4(%rbp),%eax
  40a9a2:	48 98                	cltq   
  40a9a4:	48 8d 14 85 00 00 00 	lea    0x0(,%rax,4),%rdx
  40a9ab:	00 
  40a9ac:	48 8b 45 e8          	mov    -0x18(%rbp),%rax
  40a9b0:	48 01 d0             	add    %rdx,%rax
  40a9b3:	8b 00                	mov    (%rax),%eax
  40a9b5:	8b 55 f8             	mov    -0x8(%rbp),%edx
  40a9b8:	0f af c2             	imul   %edx,%eax
  40a9bb:	89 45 f8             	mov    %eax,-0x8(%rbp)
  40a9be:	83 45 fc 01          	addl   $0x1,-0x4(%rbp)
  40a9c2:	eb d3                	jmp    40a997 <_ZN10continuousId15CPU_MATHEMATICSE14calculate_sizeEPii+0x19>
  40a9c4:	8b 45 f8             	mov    -0x8(%rbp),%eax
  40a9c7:	5d                   	pop    %rbp
  40a9c8:	c3                   	retq   

000000000040a9c9 <_ZN15CPU_MATHEMATICS10initializeIdEEvRPT_i>:
  40a9c9:	55                   	push   %rbp
  40a9ca:	48 89 e5             	mov    %rsp,%rbp
  40a9cd:	48 83 ec 10          	sub    $0x10,%rsp
  40a9d1:	48 89 7d f8          	mov    %rdi,-0x8(%rbp)
  40a9d5:	89 75 f4             	mov    %esi,-0xc(%rbp)
  40a9d8:	8b 45 f4             	mov    -0xc(%rbp),%eax
  40a9db:	48 98                	cltq   
  40a9dd:	48 ba 00 00 00 00 00 	movabs $0xfe0000000000000,%rdx
  40a9e4:	00 e0 0f 
  40a9e7:	48 39 d0             	cmp    %rdx,%rax
  40a9ea:	77 06                	ja     40a9f2 <_ZN15CPU_MATHEMATICS10initializeIdEEvRPT_i+0x29>
  40a9ec:	48 c1 e0 03          	shl    $0x3,%rax
  40a9f0:	eb 05                	jmp    40a9f7 <_ZN15CPU_MATHEMATICS10initializeIdEEvRPT_i+0x2e>
  40a9f2:	e8 c9 74 ff ff       	callq  401ec0 <__cxa_throw_bad_array_new_length@plt>
  40a9f7:	48 89 c7             	mov    %rax,%rdi
  40a9fa:	e8 91 72 ff ff       	callq  401c90 <_Znam@plt>
  40a9ff:	48 89 c2             	mov    %rax,%rdx
  40aa02:	48 8b 45 f8          	mov    -0x8(%rbp),%rax
  40aa06:	48 89 10             	mov    %rdx,(%rax)
  40aa09:	90                   	nop
  40aa0a:	c9                   	leaveq 
  40aa0b:	c3                   	retq   

000000000040aa0c <_ZN9__gnu_cxx17__is_null_pointerIcEEbPT_>:
  40aa0c:	55                   	push   %rbp
  40aa0d:	48 89 e5             	mov    %rsp,%rbp
  40aa10:	48 89 7d f8          	mov    %rdi,-0x8(%rbp)
  40aa14:	48 83 7d f8 00       	cmpq   $0x0,-0x8(%rbp)
  40aa19:	0f 94 c0             	sete   %al
  40aa1c:	5d                   	pop    %rbp
  40aa1d:	c3                   	retq   

000000000040aa1e <_ZSt8distanceIPcENSt15iterator_traitsIT_E15difference_typeES2_S2_>:
  40aa1e:	55                   	push   %rbp
  40aa1f:	48 89 e5             	mov    %rsp,%rbp
  40aa22:	53                   	push   %rbx
  40aa23:	48 83 ec 28          	sub    $0x28,%rsp
  40aa27:	48 89 7d d8          	mov    %rdi,-0x28(%rbp)
  40aa2b:	48 89 75 d0          	mov    %rsi,-0x30(%rbp)
  40aa2f:	64 48 8b 04 25 28 00 	mov    %fs:0x28,%rax
  40aa36:	00 00 
  40aa38:	48 89 45 e8          	mov    %rax,-0x18(%rbp)
  40aa3c:	31 c0                	xor    %eax,%eax
  40aa3e:	48 8d 45 d8          	lea    -0x28(%rbp),%rax
  40aa42:	48 89 c7             	mov    %rax,%rdi
  40aa45:	e8 36 00 00 00       	callq  40aa80 <_ZSt19__iterator_categoryIPcENSt15iterator_traitsIT_E17iterator_categoryERKS2_>
  40aa4a:	48 8b 45 d8          	mov    -0x28(%rbp),%rax
  40aa4e:	48 8b 55 d0          	mov    -0x30(%rbp),%rdx
  40aa52:	48 83 ec 08          	sub    $0x8,%rsp
  40aa56:	53                   	push   %rbx
  40aa57:	48 89 d6             	mov    %rdx,%rsi
  40aa5a:	48 89 c7             	mov    %rax,%rdi
  40aa5d:	e8 28 00 00 00       	callq  40aa8a <_ZSt10__distanceIPcENSt15iterator_traitsIT_E15difference_typeES2_S2_St26random_access_iterator_tag>
  40aa62:	48 83 c4 10          	add    $0x10,%rsp
  40aa66:	48 8b 4d e8          	mov    -0x18(%rbp),%rcx
  40aa6a:	64 48 33 0c 25 28 00 	xor    %fs:0x28,%rcx
  40aa71:	00 00 
  40aa73:	74 05                	je     40aa7a <_ZSt8distanceIPcENSt15iterator_traitsIT_E15difference_typeES2_S2_+0x5c>
  40aa75:	e8 b6 73 ff ff       	callq  401e30 <__stack_chk_fail@plt>
  40aa7a:	48 8b 5d f8          	mov    -0x8(%rbp),%rbx
  40aa7e:	c9                   	leaveq 
  40aa7f:	c3                   	retq   

000000000040aa80 <_ZSt19__iterator_categoryIPcENSt15iterator_traitsIT_E17iterator_categoryERKS2_>:
  40aa80:	55                   	push   %rbp
  40aa81:	48 89 e5             	mov    %rsp,%rbp
  40aa84:	48 89 7d f8          	mov    %rdi,-0x8(%rbp)
  40aa88:	5d                   	pop    %rbp
  40aa89:	c3                   	retq   

000000000040aa8a <_ZSt10__distanceIPcENSt15iterator_traitsIT_E15difference_typeES2_S2_St26random_access_iterator_tag>:
  40aa8a:	55                   	push   %rbp
  40aa8b:	48 89 e5             	mov    %rsp,%rbp
  40aa8e:	48 89 7d f8          	mov    %rdi,-0x8(%rbp)
  40aa92:	48 89 75 f0          	mov    %rsi,-0x10(%rbp)
  40aa96:	48 8b 55 f0          	mov    -0x10(%rbp),%rdx
  40aa9a:	48 8b 45 f8          	mov    -0x8(%rbp),%rax
  40aa9e:	48 29 c2             	sub    %rax,%rdx
  40aaa1:	48 89 d0             	mov    %rdx,%rax
  40aaa4:	5d                   	pop    %rbp
  40aaa5:	c3                   	retq   

000000000040aaa6 <_ZN12Tensor_QueenId15CPU_MATHEMATICS7pBufferIdS0_10continuousIdS0_ES3_N9Operation3addIdEEEED1Ev>:
  40aaa6:	55                   	push   %rbp
  40aaa7:	48 89 e5             	mov    %rsp,%rbp
  40aaaa:	48 83 ec 10          	sub    $0x10,%rsp
  40aaae:	48 89 7d f8          	mov    %rdi,-0x8(%rbp)
  40aab2:	ba 28 cc 40 00       	mov    $0x40cc28,%edx
  40aab7:	48 8b 45 f8          	mov    -0x8(%rbp),%rax
  40aabb:	48 89 10             	mov    %rdx,(%rax)
  40aabe:	48 8b 45 f8          	mov    -0x8(%rbp),%rax
  40aac2:	48 89 c7             	mov    %rax,%rdi
  40aac5:	e8 06 c4 ff ff       	callq  406ed0 <_ZN11Tensor_KingId15CPU_MATHEMATICS7pBufferIdS0_10continuousIdS0_ES3_N9Operation3addIdEEEED1Ev>
  40aaca:	b8 00 00 00 00       	mov    $0x0,%eax
  40aacf:	85 c0                	test   %eax,%eax
  40aad1:	74 11                	je     40aae4 <_ZN12Tensor_QueenId15CPU_MATHEMATICS7pBufferIdS0_10continuousIdS0_ES3_N9Operation3addIdEEEED1Ev+0x3e>
  40aad3:	48 8b 45 f8          	mov    -0x8(%rbp),%rax
  40aad7:	be 60 00 00 00       	mov    $0x60,%esi
  40aadc:	48 89 c7             	mov    %rax,%rdi
  40aadf:	e8 ec 72 ff ff       	callq  401dd0 <_ZdlPvm@plt>
  40aae4:	c9                   	leaveq 
  40aae5:	c3                   	retq   

000000000040aae6 <_ZN12Tensor_QueenId15CPU_MATHEMATICS7pBufferIdS0_10continuousIdS0_ES3_N9Operation3addIdEEEED0Ev>:
  40aae6:	55                   	push   %rbp
  40aae7:	48 89 e5             	mov    %rsp,%rbp
  40aaea:	48 83 ec 10          	sub    $0x10,%rsp
  40aaee:	48 89 7d f8          	mov    %rdi,-0x8(%rbp)
  40aaf2:	48 8b 45 f8          	mov    -0x8(%rbp),%rax
  40aaf6:	48 89 c7             	mov    %rax,%rdi
  40aaf9:	e8 a8 ff ff ff       	callq  40aaa6 <_ZN12Tensor_QueenId15CPU_MATHEMATICS7pBufferIdS0_10continuousIdS0_ES3_N9Operation3addIdEEEED1Ev>
  40aafe:	48 8b 45 f8          	mov    -0x8(%rbp),%rax
  40ab02:	be 60 00 00 00       	mov    $0x60,%esi
  40ab07:	48 89 c7             	mov    %rax,%rdi
  40ab0a:	e8 c1 72 ff ff       	callq  401dd0 <_ZdlPvm@plt>
  40ab0f:	c9                   	leaveq 
  40ab10:	c3                   	retq   
  40ab11:	90                   	nop

000000000040ab12 <_ZN6MatrixId15CPU_MATHEMATICS10continuousIdS0_EED1Ev>:
  40ab12:	55                   	push   %rbp
  40ab13:	48 89 e5             	mov    %rsp,%rbp
  40ab16:	48 83 ec 10          	sub    $0x10,%rsp
  40ab1a:	48 89 7d f8          	mov    %rdi,-0x8(%rbp)
  40ab1e:	ba 18 cd 40 00       	mov    $0x40cd18,%edx
  40ab23:	48 8b 45 f8          	mov    -0x8(%rbp),%rax
  40ab27:	48 89 10             	mov    %rdx,(%rax)
  40ab2a:	48 8b 45 f8          	mov    -0x8(%rbp),%rax
  40ab2e:	48 89 c7             	mov    %rax,%rdi
  40ab31:	e8 1a a3 ff ff       	callq  404e50 <_ZN12Tensor_QueenId15CPU_MATHEMATICS10continuousIdS0_EED1Ev>
  40ab36:	b8 00 00 00 00       	mov    $0x0,%eax
  40ab3b:	85 c0                	test   %eax,%eax
  40ab3d:	74 11                	je     40ab50 <_ZN6MatrixId15CPU_MATHEMATICS10continuousIdS0_EED1Ev+0x3e>
  40ab3f:	48 8b 45 f8          	mov    -0x8(%rbp),%rax
  40ab43:	be 30 00 00 00       	mov    $0x30,%esi
  40ab48:	48 89 c7             	mov    %rax,%rdi
  40ab4b:	e8 80 72 ff ff       	callq  401dd0 <_ZdlPvm@plt>
  40ab50:	c9                   	leaveq 
  40ab51:	c3                   	retq   

000000000040ab52 <_ZN6MatrixId15CPU_MATHEMATICS10continuousIdS0_EED0Ev>:
  40ab52:	55                   	push   %rbp
  40ab53:	48 89 e5             	mov    %rsp,%rbp
  40ab56:	48 83 ec 10          	sub    $0x10,%rsp
  40ab5a:	48 89 7d f8          	mov    %rdi,-0x8(%rbp)
  40ab5e:	48 8b 45 f8          	mov    -0x8(%rbp),%rax
  40ab62:	48 89 c7             	mov    %rax,%rdi
  40ab65:	e8 a8 ff ff ff       	callq  40ab12 <_ZN6MatrixId15CPU_MATHEMATICS10continuousIdS0_EED1Ev>
  40ab6a:	48 8b 45 f8          	mov    -0x8(%rbp),%rax
  40ab6e:	be 30 00 00 00       	mov    $0x30,%esi
  40ab73:	48 89 c7             	mov    %rax,%rdi
  40ab76:	e8 55 72 ff ff       	callq  401dd0 <_ZdlPvm@plt>
  40ab7b:	c9                   	leaveq 
  40ab7c:	c3                   	retq   
  40ab7d:	90                   	nop

000000000040ab7e <_ZN12Tensor_QueenIf15CPU_MATHEMATICS18transpose_accessorIfS0_EED1Ev>:
  40ab7e:	55                   	push   %rbp
  40ab7f:	48 89 e5             	mov    %rsp,%rbp
  40ab82:	48 83 ec 10          	sub    $0x10,%rsp
  40ab86:	48 89 7d f8          	mov    %rdi,-0x8(%rbp)
  40ab8a:	ba b8 ce 40 00       	mov    $0x40ceb8,%edx
  40ab8f:	48 8b 45 f8          	mov    -0x8(%rbp),%rax
  40ab93:	48 89 10             	mov    %rdx,(%rax)
  40ab96:	48 8b 45 f8          	mov    -0x8(%rbp),%rax
  40ab9a:	48 89 c7             	mov    %rax,%rdi
  40ab9d:	e8 4e bc ff ff       	callq  4067f0 <_ZN11Tensor_KingIf15CPU_MATHEMATICS18transpose_accessorIfS0_EED1Ev>
  40aba2:	b8 00 00 00 00       	mov    $0x0,%eax
  40aba7:	85 c0                	test   %eax,%eax
  40aba9:	74 11                	je     40abbc <_ZN12Tensor_QueenIf15CPU_MATHEMATICS18transpose_accessorIfS0_EED1Ev+0x3e>
  40abab:	48 8b 45 f8          	mov    -0x8(%rbp),%rax
  40abaf:	be 38 00 00 00       	mov    $0x38,%esi
  40abb4:	48 89 c7             	mov    %rax,%rdi
  40abb7:	e8 14 72 ff ff       	callq  401dd0 <_ZdlPvm@plt>
  40abbc:	c9                   	leaveq 
  40abbd:	c3                   	retq   

000000000040abbe <_ZN12Tensor_QueenIf15CPU_MATHEMATICS18transpose_accessorIfS0_EED0Ev>:
  40abbe:	55                   	push   %rbp
  40abbf:	48 89 e5             	mov    %rsp,%rbp
  40abc2:	48 83 ec 10          	sub    $0x10,%rsp
  40abc6:	48 89 7d f8          	mov    %rdi,-0x8(%rbp)
  40abca:	48 8b 45 f8          	mov    -0x8(%rbp),%rax
  40abce:	48 89 c7             	mov    %rax,%rdi
  40abd1:	e8 a8 ff ff ff       	callq  40ab7e <_ZN12Tensor_QueenIf15CPU_MATHEMATICS18transpose_accessorIfS0_EED1Ev>
  40abd6:	48 8b 45 f8          	mov    -0x8(%rbp),%rax
  40abda:	be 38 00 00 00       	mov    $0x38,%esi
  40abdf:	48 89 c7             	mov    %rax,%rdi
  40abe2:	e8 e9 71 ff ff       	callq  401dd0 <_ZdlPvm@plt>
  40abe7:	c9                   	leaveq 
  40abe8:	c3                   	retq   
  40abe9:	90                   	nop

000000000040abea <_ZN6MatrixIf15CPU_MATHEMATICS10continuousIfS0_EED1Ev>:
  40abea:	55                   	push   %rbp
  40abeb:	48 89 e5             	mov    %rsp,%rbp
  40abee:	48 83 ec 10          	sub    $0x10,%rsp
  40abf2:	48 89 7d f8          	mov    %rdi,-0x8(%rbp)
  40abf6:	ba a8 cf 40 00       	mov    $0x40cfa8,%edx
  40abfb:	48 8b 45 f8          	mov    -0x8(%rbp),%rax
  40abff:	48 89 10             	mov    %rdx,(%rax)
  40ac02:	48 8b 45 f8          	mov    -0x8(%rbp),%rax
  40ac06:	48 89 c7             	mov    %rax,%rdi
  40ac09:	e8 8a 95 ff ff       	callq  404198 <_ZN12Tensor_QueenIf15CPU_MATHEMATICS10continuousIfS0_EED1Ev>
  40ac0e:	b8 00 00 00 00       	mov    $0x0,%eax
  40ac13:	85 c0                	test   %eax,%eax
  40ac15:	74 11                	je     40ac28 <_ZN6MatrixIf15CPU_MATHEMATICS10continuousIfS0_EED1Ev+0x3e>
  40ac17:	48 8b 45 f8          	mov    -0x8(%rbp),%rax
  40ac1b:	be 30 00 00 00       	mov    $0x30,%esi
  40ac20:	48 89 c7             	mov    %rax,%rdi
  40ac23:	e8 a8 71 ff ff       	callq  401dd0 <_ZdlPvm@plt>
  40ac28:	c9                   	leaveq 
  40ac29:	c3                   	retq   

000000000040ac2a <_ZN6MatrixIf15CPU_MATHEMATICS10continuousIfS0_EED0Ev>:
  40ac2a:	55                   	push   %rbp
  40ac2b:	48 89 e5             	mov    %rsp,%rbp
  40ac2e:	48 83 ec 10          	sub    $0x10,%rsp
  40ac32:	48 89 7d f8          	mov    %rdi,-0x8(%rbp)
  40ac36:	48 8b 45 f8          	mov    -0x8(%rbp),%rax
  40ac3a:	48 89 c7             	mov    %rax,%rdi
  40ac3d:	e8 a8 ff ff ff       	callq  40abea <_ZN6MatrixIf15CPU_MATHEMATICS10continuousIfS0_EED1Ev>
  40ac42:	48 8b 45 f8          	mov    -0x8(%rbp),%rax
  40ac46:	be 30 00 00 00       	mov    $0x30,%esi
  40ac4b:	48 89 c7             	mov    %rax,%rdi
  40ac4e:	e8 7d 71 ff ff       	callq  401dd0 <_ZdlPvm@plt>
  40ac53:	c9                   	leaveq 
  40ac54:	c3                   	retq   
  40ac55:	90                   	nop

000000000040ac56 <_ZN12Tensor_QueenIf15CPU_MATHEMATICS7pBufferIfS0_10continuousIfS0_E23ReferenceScalarAccessorIfS0_EN9Operation3addIfEEEED1Ev>:
  40ac56:	55                   	push   %rbp
  40ac57:	48 89 e5             	mov    %rsp,%rbp
  40ac5a:	48 83 ec 10          	sub    $0x10,%rsp
  40ac5e:	48 89 7d f8          	mov    %rdi,-0x8(%rbp)
  40ac62:	ba e8 cf 40 00       	mov    $0x40cfe8,%edx
  40ac67:	48 8b 45 f8          	mov    -0x8(%rbp),%rax
  40ac6b:	48 89 10             	mov    %rdx,(%rax)
  40ac6e:	48 8b 45 f8          	mov    -0x8(%rbp),%rax
  40ac72:	48 89 c7             	mov    %rax,%rdi
  40ac75:	e8 44 b8 ff ff       	callq  4064be <_ZN11Tensor_KingIf15CPU_MATHEMATICS7pBufferIfS0_10continuousIfS0_E23ReferenceScalarAccessorIfS0_EN9Operation3addIfEEEED1Ev>
  40ac7a:	b8 00 00 00 00       	mov    $0x0,%eax
  40ac7f:	85 c0                	test   %eax,%eax
  40ac81:	74 11                	je     40ac94 <_ZN12Tensor_QueenIf15CPU_MATHEMATICS7pBufferIfS0_10continuousIfS0_E23ReferenceScalarAccessorIfS0_EN9Operation3addIfEEEED1Ev+0x3e>
  40ac83:	48 8b 45 f8          	mov    -0x8(%rbp),%rax
  40ac87:	be 58 00 00 00       	mov    $0x58,%esi
  40ac8c:	48 89 c7             	mov    %rax,%rdi
  40ac8f:	e8 3c 71 ff ff       	callq  401dd0 <_ZdlPvm@plt>
  40ac94:	c9                   	leaveq 
  40ac95:	c3                   	retq   

000000000040ac96 <_ZN12Tensor_QueenIf15CPU_MATHEMATICS7pBufferIfS0_10continuousIfS0_E23ReferenceScalarAccessorIfS0_EN9Operation3addIfEEEED0Ev>:
  40ac96:	55                   	push   %rbp
  40ac97:	48 89 e5             	mov    %rsp,%rbp
  40ac9a:	48 83 ec 10          	sub    $0x10,%rsp
  40ac9e:	48 89 7d f8          	mov    %rdi,-0x8(%rbp)
  40aca2:	48 8b 45 f8          	mov    -0x8(%rbp),%rax
  40aca6:	48 89 c7             	mov    %rax,%rdi
  40aca9:	e8 a8 ff ff ff       	callq  40ac56 <_ZN12Tensor_QueenIf15CPU_MATHEMATICS7pBufferIfS0_10continuousIfS0_E23ReferenceScalarAccessorIfS0_EN9Operation3addIfEEEED1Ev>
  40acae:	48 8b 45 f8          	mov    -0x8(%rbp),%rax
  40acb2:	be 58 00 00 00       	mov    $0x58,%esi
  40acb7:	48 89 c7             	mov    %rax,%rdi
  40acba:	e8 11 71 ff ff       	callq  401dd0 <_ZdlPvm@plt>
  40acbf:	c9                   	leaveq 
  40acc0:	c3                   	retq   
  40acc1:	90                   	nop

000000000040acc2 <_ZN9Id_ScalarIf15CPU_MATHEMATICSED1Ev>:
  40acc2:	55                   	push   %rbp
  40acc3:	48 89 e5             	mov    %rsp,%rbp
  40acc6:	48 83 ec 10          	sub    $0x10,%rsp
  40acca:	48 89 7d f8          	mov    %rdi,-0x8(%rbp)
  40acce:	ba d8 d0 40 00       	mov    $0x40d0d8,%edx
  40acd3:	48 8b 45 f8          	mov    -0x8(%rbp),%rax
  40acd7:	48 89 10             	mov    %rdx,(%rax)
  40acda:	48 8b 45 f8          	mov    -0x8(%rbp),%rax
  40acde:	48 89 c7             	mov    %rax,%rdi
  40ace1:	e8 28 97 ff ff       	callq  40440e <_ZN12Tensor_QueenIf15CPU_MATHEMATICS23ReferenceScalarAccessorIfS0_EED1Ev>
  40ace6:	b8 00 00 00 00       	mov    $0x0,%eax
  40aceb:	85 c0                	test   %eax,%eax
  40aced:	74 11                	je     40ad00 <_ZN9Id_ScalarIf15CPU_MATHEMATICSED1Ev+0x3e>
  40acef:	48 8b 45 f8          	mov    -0x8(%rbp),%rax
  40acf3:	be 28 00 00 00       	mov    $0x28,%esi
  40acf8:	48 89 c7             	mov    %rax,%rdi
  40acfb:	e8 d0 70 ff ff       	callq  401dd0 <_ZdlPvm@plt>
  40ad00:	c9                   	leaveq 
  40ad01:	c3                   	retq   

000000000040ad02 <_ZN9Id_ScalarIf15CPU_MATHEMATICSED0Ev>:
  40ad02:	55                   	push   %rbp
  40ad03:	48 89 e5             	mov    %rsp,%rbp
  40ad06:	48 83 ec 10          	sub    $0x10,%rsp
  40ad0a:	48 89 7d f8          	mov    %rdi,-0x8(%rbp)
  40ad0e:	48 8b 45 f8          	mov    -0x8(%rbp),%rax
  40ad12:	48 89 c7             	mov    %rax,%rdi
  40ad15:	e8 a8 ff ff ff       	callq  40acc2 <_ZN9Id_ScalarIf15CPU_MATHEMATICSED1Ev>
  40ad1a:	48 8b 45 f8          	mov    -0x8(%rbp),%rax
  40ad1e:	be 28 00 00 00       	mov    $0x28,%esi
  40ad23:	48 89 c7             	mov    %rax,%rdi
  40ad26:	e8 a5 70 ff ff       	callq  401dd0 <_ZdlPvm@plt>
  40ad2b:	c9                   	leaveq 
  40ad2c:	c3                   	retq   
  40ad2d:	90                   	nop

000000000040ad2e <_ZN6VectorIf15CPU_MATHEMATICS10continuousIfS0_EED1Ev>:
  40ad2e:	55                   	push   %rbp
  40ad2f:	48 89 e5             	mov    %rsp,%rbp
  40ad32:	48 83 ec 10          	sub    $0x10,%rsp
  40ad36:	48 89 7d f8          	mov    %rdi,-0x8(%rbp)
  40ad3a:	ba 18 d3 40 00       	mov    $0x40d318,%edx
  40ad3f:	48 8b 45 f8          	mov    -0x8(%rbp),%rax
  40ad43:	48 89 10             	mov    %rdx,(%rax)
  40ad46:	48 8b 45 f8          	mov    -0x8(%rbp),%rax
  40ad4a:	48 89 c7             	mov    %rax,%rdi
  40ad4d:	e8 46 94 ff ff       	callq  404198 <_ZN12Tensor_QueenIf15CPU_MATHEMATICS10continuousIfS0_EED1Ev>
  40ad52:	b8 00 00 00 00       	mov    $0x0,%eax
  40ad57:	85 c0                	test   %eax,%eax
  40ad59:	74 11                	je     40ad6c <_ZN6VectorIf15CPU_MATHEMATICS10continuousIfS0_EED1Ev+0x3e>
  40ad5b:	48 8b 45 f8          	mov    -0x8(%rbp),%rax
  40ad5f:	be 30 00 00 00       	mov    $0x30,%esi
  40ad64:	48 89 c7             	mov    %rax,%rdi
  40ad67:	e8 64 70 ff ff       	callq  401dd0 <_ZdlPvm@plt>
  40ad6c:	c9                   	leaveq 
  40ad6d:	c3                   	retq   

000000000040ad6e <_ZN6VectorIf15CPU_MATHEMATICS10continuousIfS0_EED0Ev>:
  40ad6e:	55                   	push   %rbp
  40ad6f:	48 89 e5             	mov    %rsp,%rbp
  40ad72:	48 83 ec 10          	sub    $0x10,%rsp
  40ad76:	48 89 7d f8          	mov    %rdi,-0x8(%rbp)
  40ad7a:	48 8b 45 f8          	mov    -0x8(%rbp),%rax
  40ad7e:	48 89 c7             	mov    %rax,%rdi
  40ad81:	e8 a8 ff ff ff       	callq  40ad2e <_ZN6VectorIf15CPU_MATHEMATICS10continuousIfS0_EED1Ev>
  40ad86:	48 8b 45 f8          	mov    -0x8(%rbp),%rax
  40ad8a:	be 30 00 00 00       	mov    $0x30,%esi
  40ad8f:	48 89 c7             	mov    %rax,%rdi
  40ad92:	e8 39 70 ff ff       	callq  401dd0 <_ZdlPvm@plt>
  40ad97:	c9                   	leaveq 
  40ad98:	c3                   	retq   
  40ad99:	90                   	nop

000000000040ad9a <_ZN12Tensor_QueenIf15CPU_MATHEMATICS7pBufferIfS0_19StackScalarAccessorIfS0_E10continuousIfS0_EN9Operation3subIfEEEED1Ev>:
  40ad9a:	55                   	push   %rbp
  40ad9b:	48 89 e5             	mov    %rsp,%rbp
  40ad9e:	48 83 ec 10          	sub    $0x10,%rsp
  40ada2:	48 89 7d f8          	mov    %rdi,-0x8(%rbp)
  40ada6:	ba 58 d3 40 00       	mov    $0x40d358,%edx
  40adab:	48 8b 45 f8          	mov    -0x8(%rbp),%rax
  40adaf:	48 89 10             	mov    %rdx,(%rax)
  40adb2:	48 8b 45 f8          	mov    -0x8(%rbp),%rax
  40adb6:	48 89 c7             	mov    %rax,%rdi
  40adb9:	e8 c8 b0 ff ff       	callq  405e86 <_ZN11Tensor_KingIf15CPU_MATHEMATICS7pBufferIfS0_19StackScalarAccessorIfS0_E10continuousIfS0_EN9Operation3subIfEEEED1Ev>
  40adbe:	b8 00 00 00 00       	mov    $0x0,%eax
  40adc3:	85 c0                	test   %eax,%eax
  40adc5:	74 11                	je     40add8 <_ZN12Tensor_QueenIf15CPU_MATHEMATICS7pBufferIfS0_19StackScalarAccessorIfS0_E10continuousIfS0_EN9Operation3subIfEEEED1Ev+0x3e>
  40adc7:	48 8b 45 f8          	mov    -0x8(%rbp),%rax
  40adcb:	be 58 00 00 00       	mov    $0x58,%esi
  40add0:	48 89 c7             	mov    %rax,%rdi
  40add3:	e8 f8 6f ff ff       	callq  401dd0 <_ZdlPvm@plt>
  40add8:	c9                   	leaveq 
  40add9:	c3                   	retq   

000000000040adda <_ZN12Tensor_QueenIf15CPU_MATHEMATICS7pBufferIfS0_19StackScalarAccessorIfS0_E10continuousIfS0_EN9Operation3subIfEEEED0Ev>:
  40adda:	55                   	push   %rbp
  40addb:	48 89 e5             	mov    %rsp,%rbp
  40adde:	48 83 ec 10          	sub    $0x10,%rsp
  40ade2:	48 89 7d f8          	mov    %rdi,-0x8(%rbp)
  40ade6:	48 8b 45 f8          	mov    -0x8(%rbp),%rax
  40adea:	48 89 c7             	mov    %rax,%rdi
  40aded:	e8 a8 ff ff ff       	callq  40ad9a <_ZN12Tensor_QueenIf15CPU_MATHEMATICS7pBufferIfS0_19StackScalarAccessorIfS0_E10continuousIfS0_EN9Operation3subIfEEEED1Ev>
  40adf2:	48 8b 45 f8          	mov    -0x8(%rbp),%rax
  40adf6:	be 58 00 00 00       	mov    $0x58,%esi
  40adfb:	48 89 c7             	mov    %rax,%rdi
  40adfe:	e8 cd 6f ff ff       	callq  401dd0 <_ZdlPvm@plt>
  40ae03:	c9                   	leaveq 
  40ae04:	c3                   	retq   
  40ae05:	90                   	nop

000000000040ae06 <_ZN6ScalarIf15CPU_MATHEMATICSED1Ev>:
  40ae06:	55                   	push   %rbp
  40ae07:	48 89 e5             	mov    %rsp,%rbp
  40ae0a:	48 83 ec 10          	sub    $0x10,%rsp
  40ae0e:	48 89 7d f8          	mov    %rdi,-0x8(%rbp)
  40ae12:	ba 48 d4 40 00       	mov    $0x40d448,%edx
  40ae17:	48 8b 45 f8          	mov    -0x8(%rbp),%rax
  40ae1b:	48 89 10             	mov    %rdx,(%rax)
  40ae1e:	48 8b 45 f8          	mov    -0x8(%rbp),%rax
  40ae22:	48 89 c7             	mov    %rax,%rdi
  40ae25:	e8 d0 8e ff ff       	callq  403cfa <_ZN12Tensor_QueenIf15CPU_MATHEMATICS19StackScalarAccessorIfS0_EED1Ev>
  40ae2a:	b8 00 00 00 00       	mov    $0x0,%eax
  40ae2f:	85 c0                	test   %eax,%eax
  40ae31:	74 11                	je     40ae44 <_ZN6ScalarIf15CPU_MATHEMATICSED1Ev+0x3e>
  40ae33:	48 8b 45 f8          	mov    -0x8(%rbp),%rax
  40ae37:	be 28 00 00 00       	mov    $0x28,%esi
  40ae3c:	48 89 c7             	mov    %rax,%rdi
  40ae3f:	e8 8c 6f ff ff       	callq  401dd0 <_ZdlPvm@plt>
  40ae44:	c9                   	leaveq 
  40ae45:	c3                   	retq   

000000000040ae46 <_ZN6ScalarIf15CPU_MATHEMATICSED0Ev>:
  40ae46:	55                   	push   %rbp
  40ae47:	48 89 e5             	mov    %rsp,%rbp
  40ae4a:	48 83 ec 10          	sub    $0x10,%rsp
  40ae4e:	48 89 7d f8          	mov    %rdi,-0x8(%rbp)
  40ae52:	48 8b 45 f8          	mov    -0x8(%rbp),%rax
  40ae56:	48 89 c7             	mov    %rax,%rdi
  40ae59:	e8 a8 ff ff ff       	callq  40ae06 <_ZN6ScalarIf15CPU_MATHEMATICSED1Ev>
  40ae5e:	48 8b 45 f8          	mov    -0x8(%rbp),%rax
  40ae62:	be 28 00 00 00       	mov    $0x28,%esi
  40ae67:	48 89 c7             	mov    %rax,%rdi
  40ae6a:	e8 61 6f ff ff       	callq  401dd0 <_ZdlPvm@plt>
  40ae6f:	c9                   	leaveq 
  40ae70:	c3                   	retq   
  40ae71:	90                   	nop

000000000040ae72 <_ZN12Tensor_QueenIf15CPU_MATHEMATICS7pBufferIfS0_10continuousIfS0_ES1_IfS0_S3_S3_N9Operation3mulIfEEENS4_3addIfEEEED1Ev>:
  40ae72:	55                   	push   %rbp
  40ae73:	48 89 e5             	mov    %rsp,%rbp
  40ae76:	48 83 ec 10          	sub    $0x10,%rsp
  40ae7a:	48 89 7d f8          	mov    %rdi,-0x8(%rbp)
  40ae7e:	ba f8 d6 40 00       	mov    $0x40d6f8,%edx
  40ae83:	48 8b 45 f8          	mov    -0x8(%rbp),%rax
  40ae87:	48 89 10             	mov    %rdx,(%rax)
  40ae8a:	48 8b 45 f8          	mov    -0x8(%rbp),%rax
  40ae8e:	48 89 c7             	mov    %rax,%rdi
  40ae91:	e8 d6 ac ff ff       	callq  405b6c <_ZN11Tensor_KingIf15CPU_MATHEMATICS7pBufferIfS0_10continuousIfS0_ES1_IfS0_S3_S3_N9Operation3mulIfEEENS4_3addIfEEEED1Ev>
  40ae96:	b8 00 00 00 00       	mov    $0x0,%eax
  40ae9b:	85 c0                	test   %eax,%eax
  40ae9d:	74 11                	je     40aeb0 <_ZN12Tensor_QueenIf15CPU_MATHEMATICS7pBufferIfS0_10continuousIfS0_ES1_IfS0_S3_S3_N9Operation3mulIfEEENS4_3addIfEEEED1Ev+0x3e>
  40ae9f:	48 8b 45 f8          	mov    -0x8(%rbp),%rax
  40aea3:	be 90 00 00 00       	mov    $0x90,%esi
  40aea8:	48 89 c7             	mov    %rax,%rdi
  40aeab:	e8 20 6f ff ff       	callq  401dd0 <_ZdlPvm@plt>
  40aeb0:	c9                   	leaveq 
  40aeb1:	c3                   	retq   

000000000040aeb2 <_ZN12Tensor_QueenIf15CPU_MATHEMATICS7pBufferIfS0_10continuousIfS0_ES1_IfS0_S3_S3_N9Operation3mulIfEEENS4_3addIfEEEED0Ev>:
  40aeb2:	55                   	push   %rbp
  40aeb3:	48 89 e5             	mov    %rsp,%rbp
  40aeb6:	48 83 ec 10          	sub    $0x10,%rsp
  40aeba:	48 89 7d f8          	mov    %rdi,-0x8(%rbp)
  40aebe:	48 8b 45 f8          	mov    -0x8(%rbp),%rax
  40aec2:	48 89 c7             	mov    %rax,%rdi
  40aec5:	e8 a8 ff ff ff       	callq  40ae72 <_ZN12Tensor_QueenIf15CPU_MATHEMATICS7pBufferIfS0_10continuousIfS0_ES1_IfS0_S3_S3_N9Operation3mulIfEEENS4_3addIfEEEED1Ev>
  40aeca:	48 8b 45 f8          	mov    -0x8(%rbp),%rax
  40aece:	be 90 00 00 00       	mov    $0x90,%esi
  40aed3:	48 89 c7             	mov    %rax,%rdi
  40aed6:	e8 f5 6e ff ff       	callq  401dd0 <_ZdlPvm@plt>
  40aedb:	c9                   	leaveq 
  40aedc:	c3                   	retq   
  40aedd:	90                   	nop

000000000040aede <_ZN12Tensor_QueenIf15CPU_MATHEMATICS7pBufferIfS0_10continuousIfS0_ES3_N9Operation3mulIfEEEED1Ev>:
  40aede:	55                   	push   %rbp
  40aedf:	48 89 e5             	mov    %rsp,%rbp
  40aee2:	48 83 ec 10          	sub    $0x10,%rsp
  40aee6:	48 89 7d f8          	mov    %rdi,-0x8(%rbp)
  40aeea:	ba e8 d7 40 00       	mov    $0x40d7e8,%edx
  40aeef:	48 8b 45 f8          	mov    -0x8(%rbp),%rax
  40aef3:	48 89 10             	mov    %rdx,(%rax)
  40aef6:	48 8b 45 f8          	mov    -0x8(%rbp),%rax
  40aefa:	48 89 c7             	mov    %rax,%rdi
  40aefd:	e8 a2 aa ff ff       	callq  4059a4 <_ZN11Tensor_KingIf15CPU_MATHEMATICS7pBufferIfS0_10continuousIfS0_ES3_N9Operation3mulIfEEEED1Ev>
  40af02:	b8 00 00 00 00       	mov    $0x0,%eax
  40af07:	85 c0                	test   %eax,%eax
  40af09:	74 11                	je     40af1c <_ZN12Tensor_QueenIf15CPU_MATHEMATICS7pBufferIfS0_10continuousIfS0_ES3_N9Operation3mulIfEEEED1Ev+0x3e>
  40af0b:	48 8b 45 f8          	mov    -0x8(%rbp),%rax
  40af0f:	be 60 00 00 00       	mov    $0x60,%esi
  40af14:	48 89 c7             	mov    %rax,%rdi
  40af17:	e8 b4 6e ff ff       	callq  401dd0 <_ZdlPvm@plt>
  40af1c:	c9                   	leaveq 
  40af1d:	c3                   	retq   

000000000040af1e <_ZN12Tensor_QueenIf15CPU_MATHEMATICS7pBufferIfS0_10continuousIfS0_ES3_N9Operation3mulIfEEEED0Ev>:
  40af1e:	55                   	push   %rbp
  40af1f:	48 89 e5             	mov    %rsp,%rbp
  40af22:	48 83 ec 10          	sub    $0x10,%rsp
  40af26:	48 89 7d f8          	mov    %rdi,-0x8(%rbp)
  40af2a:	48 8b 45 f8          	mov    -0x8(%rbp),%rax
  40af2e:	48 89 c7             	mov    %rax,%rdi
  40af31:	e8 a8 ff ff ff       	callq  40aede <_ZN12Tensor_QueenIf15CPU_MATHEMATICS7pBufferIfS0_10continuousIfS0_ES3_N9Operation3mulIfEEEED1Ev>
  40af36:	48 8b 45 f8          	mov    -0x8(%rbp),%rax
  40af3a:	be 60 00 00 00       	mov    $0x60,%esi
  40af3f:	48 89 c7             	mov    %rax,%rdi
  40af42:	e8 89 6e ff ff       	callq  401dd0 <_ZdlPvm@plt>
  40af47:	c9                   	leaveq 
  40af48:	c3                   	retq   
  40af49:	90                   	nop

000000000040af4a <_ZNK11Tensor_KingId15CPU_MATHEMATICS7pBufferIdS0_10continuousIdS0_ES3_N9Operation3addIdEEEE4sizeEv>:
  40af4a:	55                   	push   %rbp
  40af4b:	48 89 e5             	mov    %rsp,%rbp
  40af4e:	48 83 ec 10          	sub    $0x10,%rsp
  40af52:	48 89 7d f8          	mov    %rdi,-0x8(%rbp)
  40af56:	48 8b 45 f8          	mov    -0x8(%rbp),%rax
  40af5a:	48 83 c0 08          	add    $0x8,%rax
  40af5e:	48 89 c7             	mov    %rax,%rdi
  40af61:	e8 6c 00 00 00       	callq  40afd2 <_ZNK7pBufferId15CPU_MATHEMATICS10continuousIdS0_ES2_N9Operation3addIdEEE4sizeEv>
  40af66:	c9                   	leaveq 
  40af67:	c3                   	retq   

000000000040af68 <_ZNK11Tensor_KingId15CPU_MATHEMATICS7pBufferIdS0_10continuousIdS0_ES3_N9Operation3addIdEEEE9dimensionEi>:
  40af68:	55                   	push   %rbp
  40af69:	48 89 e5             	mov    %rsp,%rbp
  40af6c:	48 83 ec 10          	sub    $0x10,%rsp
  40af70:	48 89 7d f8          	mov    %rdi,-0x8(%rbp)
  40af74:	89 75 f4             	mov    %esi,-0xc(%rbp)
  40af77:	48 8b 45 f8          	mov    -0x8(%rbp),%rax
  40af7b:	48 8d 50 08          	lea    0x8(%rax),%rdx
  40af7f:	8b 45 f4             	mov    -0xc(%rbp),%eax
  40af82:	89 c6                	mov    %eax,%esi
  40af84:	48 89 d7             	mov    %rdx,%rdi
  40af87:	e8 86 00 00 00       	callq  40b012 <_ZNK7pBufferId15CPU_MATHEMATICS10continuousIdS0_ES2_N9Operation3addIdEEE9dimensionEi>
  40af8c:	c9                   	leaveq 
  40af8d:	c3                   	retq   

000000000040af8e <_ZNK11Tensor_KingId15CPU_MATHEMATICS7pBufferIdS0_10continuousIdS0_ES3_N9Operation3addIdEEEE17leading_dimensionEi>:
  40af8e:	55                   	push   %rbp
  40af8f:	48 89 e5             	mov    %rsp,%rbp
  40af92:	48 83 ec 10          	sub    $0x10,%rsp
  40af96:	48 89 7d f8          	mov    %rdi,-0x8(%rbp)
  40af9a:	89 75 f4             	mov    %esi,-0xc(%rbp)
  40af9d:	48 8b 45 f8          	mov    -0x8(%rbp),%rax
  40afa1:	48 8d 50 08          	lea    0x8(%rax),%rdx
  40afa5:	8b 45 f4             	mov    -0xc(%rbp),%eax
  40afa8:	89 c6                	mov    %eax,%esi
  40afaa:	48 89 d7             	mov    %rdx,%rdi
  40afad:	e8 ac 00 00 00       	callq  40b05e <_ZNK7pBufferId15CPU_MATHEMATICS10continuousIdS0_ES2_N9Operation3addIdEEE17leading_dimensionEi>
  40afb2:	c9                   	leaveq 
  40afb3:	c3                   	retq   

000000000040afb4 <_ZNK11Tensor_KingId15CPU_MATHEMATICS7pBufferIdS0_10continuousIdS0_ES3_N9Operation3addIdEEEE5orderEv>:
  40afb4:	55                   	push   %rbp
  40afb5:	48 89 e5             	mov    %rsp,%rbp
  40afb8:	48 83 ec 10          	sub    $0x10,%rsp
  40afbc:	48 89 7d f8          	mov    %rdi,-0x8(%rbp)
  40afc0:	48 8b 45 f8          	mov    -0x8(%rbp),%rax
  40afc4:	48 83 c0 08          	add    $0x8,%rax
  40afc8:	48 89 c7             	mov    %rax,%rdi
  40afcb:	e8 da 00 00 00       	callq  40b0aa <_ZNK7pBufferId15CPU_MATHEMATICS10continuousIdS0_ES2_N9Operation3addIdEEE5orderEv>
  40afd0:	c9                   	leaveq 
  40afd1:	c3                   	retq   

000000000040afd2 <_ZNK7pBufferId15CPU_MATHEMATICS10continuousIdS0_ES2_N9Operation3addIdEEE4sizeEv>:
  40afd2:	55                   	push   %rbp
  40afd3:	48 89 e5             	mov    %rsp,%rbp
  40afd6:	53                   	push   %rbx
  40afd7:	48 83 ec 18          	sub    $0x18,%rsp
  40afdb:	48 89 7d e8          	mov    %rdi,-0x18(%rbp)
  40afdf:	48 8b 45 e8          	mov    -0x18(%rbp),%rax
  40afe3:	48 83 c0 30          	add    $0x30,%rax
  40afe7:	48 89 c7             	mov    %rax,%rdi
  40afea:	e8 51 e5 ff ff       	callq  409540 <_ZNK10continuousId15CPU_MATHEMATICSE4sizeEv>
  40afef:	89 c3                	mov    %eax,%ebx
  40aff1:	48 8b 45 e8          	mov    -0x18(%rbp),%rax
  40aff5:	48 83 c0 10          	add    $0x10,%rax
  40aff9:	48 89 c7             	mov    %rax,%rdi
  40affc:	e8 3f e5 ff ff       	callq  409540 <_ZNK10continuousId15CPU_MATHEMATICSE4sizeEv>
  40b001:	89 de                	mov    %ebx,%esi
  40b003:	89 c7                	mov    %eax,%edi
  40b005:	e8 1e 14 00 00       	callq  40c428 <_ZN7pBufferId15CPU_MATHEMATICS10continuousIdS0_ES2_N9Operation3addIdEEE3maxEii>
  40b00a:	48 83 c4 18          	add    $0x18,%rsp
  40b00e:	5b                   	pop    %rbx
  40b00f:	5d                   	pop    %rbp
  40b010:	c3                   	retq   
  40b011:	90                   	nop

000000000040b012 <_ZNK7pBufferId15CPU_MATHEMATICS10continuousIdS0_ES2_N9Operation3addIdEEE9dimensionEi>:
  40b012:	55                   	push   %rbp
  40b013:	48 89 e5             	mov    %rsp,%rbp
  40b016:	53                   	push   %rbx
  40b017:	48 83 ec 18          	sub    $0x18,%rsp
  40b01b:	48 89 7d e8          	mov    %rdi,-0x18(%rbp)
  40b01f:	89 75 e4             	mov    %esi,-0x1c(%rbp)
  40b022:	48 8b 45 e8          	mov    -0x18(%rbp),%rax
  40b026:	48 8d 50 30          	lea    0x30(%rax),%rdx
  40b02a:	8b 45 e4             	mov    -0x1c(%rbp),%eax
  40b02d:	89 c6                	mov    %eax,%esi
  40b02f:	48 89 d7             	mov    %rdx,%rdi
  40b032:	e8 65 02 00 00       	callq  40b29c <_ZNK10continuousId15CPU_MATHEMATICSE9dimensionEi>
  40b037:	89 c3                	mov    %eax,%ebx
  40b039:	48 8b 45 e8          	mov    -0x18(%rbp),%rax
  40b03d:	48 8d 50 10          	lea    0x10(%rax),%rdx
  40b041:	8b 45 e4             	mov    -0x1c(%rbp),%eax
  40b044:	89 c6                	mov    %eax,%esi
  40b046:	48 89 d7             	mov    %rdx,%rdi
  40b049:	e8 4e 02 00 00       	callq  40b29c <_ZNK10continuousId15CPU_MATHEMATICSE9dimensionEi>
  40b04e:	89 de                	mov    %ebx,%esi
  40b050:	89 c7                	mov    %eax,%edi
  40b052:	e8 d1 13 00 00       	callq  40c428 <_ZN7pBufferId15CPU_MATHEMATICS10continuousIdS0_ES2_N9Operation3addIdEEE3maxEii>
  40b057:	48 83 c4 18          	add    $0x18,%rsp
  40b05b:	5b                   	pop    %rbx
  40b05c:	5d                   	pop    %rbp
  40b05d:	c3                   	retq   

000000000040b05e <_ZNK7pBufferId15CPU_MATHEMATICS10continuousIdS0_ES2_N9Operation3addIdEEE17leading_dimensionEi>:
  40b05e:	55                   	push   %rbp
  40b05f:	48 89 e5             	mov    %rsp,%rbp
  40b062:	53                   	push   %rbx
  40b063:	48 83 ec 18          	sub    $0x18,%rsp
  40b067:	48 89 7d e8          	mov    %rdi,-0x18(%rbp)
  40b06b:	89 75 e4             	mov    %esi,-0x1c(%rbp)
  40b06e:	48 8b 45 e8          	mov    -0x18(%rbp),%rax
  40b072:	48 8d 50 30          	lea    0x30(%rax),%rdx
  40b076:	8b 45 e4             	mov    -0x1c(%rbp),%eax
  40b079:	89 c6                	mov    %eax,%esi
  40b07b:	48 89 d7             	mov    %rdx,%rdi
  40b07e:	e8 65 02 00 00       	callq  40b2e8 <_ZNK10continuousId15CPU_MATHEMATICSE17leading_dimensionEi>
  40b083:	89 c3                	mov    %eax,%ebx
  40b085:	48 8b 45 e8          	mov    -0x18(%rbp),%rax
  40b089:	48 8d 50 10          	lea    0x10(%rax),%rdx
  40b08d:	8b 45 e4             	mov    -0x1c(%rbp),%eax
  40b090:	89 c6                	mov    %eax,%esi
  40b092:	48 89 d7             	mov    %rdx,%rdi
  40b095:	e8 4e 02 00 00       	callq  40b2e8 <_ZNK10continuousId15CPU_MATHEMATICSE17leading_dimensionEi>
  40b09a:	89 de                	mov    %ebx,%esi
  40b09c:	89 c7                	mov    %eax,%edi
  40b09e:	e8 85 13 00 00       	callq  40c428 <_ZN7pBufferId15CPU_MATHEMATICS10continuousIdS0_ES2_N9Operation3addIdEEE3maxEii>
  40b0a3:	48 83 c4 18          	add    $0x18,%rsp
  40b0a7:	5b                   	pop    %rbx
  40b0a8:	5d                   	pop    %rbp
  40b0a9:	c3                   	retq   

000000000040b0aa <_ZNK7pBufferId15CPU_MATHEMATICS10continuousIdS0_ES2_N9Operation3addIdEEE5orderEv>:
  40b0aa:	55                   	push   %rbp
  40b0ab:	48 89 e5             	mov    %rsp,%rbp
  40b0ae:	53                   	push   %rbx
  40b0af:	48 83 ec 18          	sub    $0x18,%rsp
  40b0b3:	48 89 7d e8          	mov    %rdi,-0x18(%rbp)
  40b0b7:	48 8b 45 e8          	mov    -0x18(%rbp),%rax
  40b0bb:	48 83 c0 30          	add    $0x30,%rax
  40b0bf:	48 89 c7             	mov    %rax,%rdi
  40b0c2:	e8 e3 f5 ff ff       	callq  40a6aa <_ZNK10continuousId15CPU_MATHEMATICSE5orderEv>
  40b0c7:	89 c3                	mov    %eax,%ebx
  40b0c9:	48 8b 45 e8          	mov    -0x18(%rbp),%rax
  40b0cd:	48 83 c0 10          	add    $0x10,%rax
  40b0d1:	48 89 c7             	mov    %rax,%rdi
  40b0d4:	e8 d1 f5 ff ff       	callq  40a6aa <_ZNK10continuousId15CPU_MATHEMATICSE5orderEv>
  40b0d9:	89 de                	mov    %ebx,%esi
  40b0db:	89 c7                	mov    %eax,%edi
  40b0dd:	e8 46 13 00 00       	callq  40c428 <_ZN7pBufferId15CPU_MATHEMATICS10continuousIdS0_ES2_N9Operation3addIdEEE3maxEii>
  40b0e2:	48 83 c4 18          	add    $0x18,%rsp
  40b0e6:	5b                   	pop    %rbx
  40b0e7:	5d                   	pop    %rbp
  40b0e8:	c3                   	retq   
  40b0e9:	90                   	nop

000000000040b0ea <_ZNK7pBufferId15CPU_MATHEMATICS10continuousIdS0_ES2_N9Operation3addIdEEE7getDataEv>:
  40b0ea:	55                   	push   %rbp
  40b0eb:	48 89 e5             	mov    %rsp,%rbp
  40b0ee:	41 54                	push   %r12
  40b0f0:	53                   	push   %rbx
  40b0f1:	48 83 ec 10          	sub    $0x10,%rsp
  40b0f5:	48 89 7d e8          	mov    %rdi,-0x18(%rbp)
  40b0f9:	bf 10 00 00 00       	mov    $0x10,%edi
  40b0fe:	e8 0d 6c ff ff       	callq  401d10 <__cxa_allocate_exception@plt>
  40b103:	48 89 c3             	mov    %rax,%rbx
  40b106:	be e0 c8 40 00       	mov    $0x40c8e0,%esi
  40b10b:	48 89 df             	mov    %rbx,%rdi
  40b10e:	e8 dd 6e ff ff       	callq  401ff0 <_ZNSt16invalid_argumentC1EPKc@plt>
  40b113:	ba 50 1f 40 00       	mov    $0x401f50,%edx
  40b118:	be 20 44 61 00       	mov    $0x614420,%esi
  40b11d:	48 89 df             	mov    %rbx,%rdi
  40b120:	e8 4b 6e ff ff       	callq  401f70 <__cxa_throw@plt>
  40b125:	49 89 c4             	mov    %rax,%r12
  40b128:	48 89 df             	mov    %rbx,%rdi
  40b12b:	e8 30 6c ff ff       	callq  401d60 <__cxa_free_exception@plt>
  40b130:	4c 89 e0             	mov    %r12,%rax
  40b133:	48 89 c7             	mov    %rax,%rdi
  40b136:	e8 55 6e ff ff       	callq  401f90 <_Unwind_Resume@plt>
  40b13b:	90                   	nop

000000000040b13c <_ZNK7pBufferId15CPU_MATHEMATICS10continuousIdS0_ES2_N9Operation3addIdEEE8getShapeEv>:
  40b13c:	55                   	push   %rbp
  40b13d:	48 89 e5             	mov    %rsp,%rbp
  40b140:	41 54                	push   %r12
  40b142:	53                   	push   %rbx
  40b143:	48 83 ec 10          	sub    $0x10,%rsp
  40b147:	48 89 7d e8          	mov    %rdi,-0x18(%rbp)
  40b14b:	bf 10 00 00 00       	mov    $0x10,%edi
  40b150:	e8 bb 6b ff ff       	callq  401d10 <__cxa_allocate_exception@plt>
  40b155:	48 89 c3             	mov    %rax,%rbx
  40b158:	be 18 c9 40 00       	mov    $0x40c918,%esi
  40b15d:	48 89 df             	mov    %rbx,%rdi
  40b160:	e8 8b 6e ff ff       	callq  401ff0 <_ZNSt16invalid_argumentC1EPKc@plt>
  40b165:	ba 50 1f 40 00       	mov    $0x401f50,%edx
  40b16a:	be 20 44 61 00       	mov    $0x614420,%esi
  40b16f:	48 89 df             	mov    %rbx,%rdi
  40b172:	e8 f9 6d ff ff       	callq  401f70 <__cxa_throw@plt>
  40b177:	49 89 c4             	mov    %rax,%r12
  40b17a:	48 89 df             	mov    %rbx,%rdi
  40b17d:	e8 de 6b ff ff       	callq  401d60 <__cxa_free_exception@plt>
  40b182:	4c 89 e0             	mov    %r12,%rax
  40b185:	48 89 c7             	mov    %rax,%rdi
  40b188:	e8 03 6e ff ff       	callq  401f90 <_Unwind_Resume@plt>
  40b18d:	90                   	nop

000000000040b18e <_ZNK7pBufferId15CPU_MATHEMATICS10continuousIdS0_ES2_N9Operation3addIdEEE24getLeadingDimensionShapeEv>:
  40b18e:	55                   	push   %rbp
  40b18f:	48 89 e5             	mov    %rsp,%rbp
  40b192:	41 54                	push   %r12
  40b194:	53                   	push   %rbx
  40b195:	48 83 ec 10          	sub    $0x10,%rsp
  40b199:	48 89 7d e8          	mov    %rdi,-0x18(%rbp)
  40b19d:	bf 10 00 00 00       	mov    $0x10,%edi
  40b1a2:	e8 69 6b ff ff       	callq  401d10 <__cxa_allocate_exception@plt>
  40b1a7:	48 89 c3             	mov    %rax,%rbx
  40b1aa:	be b0 ca 40 00       	mov    $0x40cab0,%esi
  40b1af:	48 89 df             	mov    %rbx,%rdi
  40b1b2:	e8 39 6e ff ff       	callq  401ff0 <_ZNSt16invalid_argumentC1EPKc@plt>
  40b1b7:	ba 50 1f 40 00       	mov    $0x401f50,%edx
  40b1bc:	be 20 44 61 00       	mov    $0x614420,%esi
  40b1c1:	48 89 df             	mov    %rbx,%rdi
  40b1c4:	e8 a7 6d ff ff       	callq  401f70 <__cxa_throw@plt>
  40b1c9:	49 89 c4             	mov    %rax,%r12
  40b1cc:	48 89 df             	mov    %rbx,%rdi
  40b1cf:	e8 8c 6b ff ff       	callq  401d60 <__cxa_free_exception@plt>
  40b1d4:	4c 89 e0             	mov    %r12,%rax
  40b1d7:	48 89 c7             	mov    %rax,%rdi
  40b1da:	e8 b1 6d ff ff       	callq  401f90 <_Unwind_Resume@plt>
  40b1df:	90                   	nop

000000000040b1e0 <_ZN7pBufferId15CPU_MATHEMATICS10continuousIdS0_ES2_N9Operation3addIdEEE24getLeadingDimensionShapeEv>:
  40b1e0:	55                   	push   %rbp
  40b1e1:	48 89 e5             	mov    %rsp,%rbp
  40b1e4:	41 54                	push   %r12
  40b1e6:	53                   	push   %rbx
  40b1e7:	48 83 ec 10          	sub    $0x10,%rsp
  40b1eb:	48 89 7d e8          	mov    %rdi,-0x18(%rbp)
  40b1ef:	bf 10 00 00 00       	mov    $0x10,%edi
  40b1f4:	e8 17 6b ff ff       	callq  401d10 <__cxa_allocate_exception@plt>
  40b1f9:	48 89 c3             	mov    %rax,%rbx
  40b1fc:	be b0 ca 40 00       	mov    $0x40cab0,%esi
  40b201:	48 89 df             	mov    %rbx,%rdi
  40b204:	e8 e7 6d ff ff       	callq  401ff0 <_ZNSt16invalid_argumentC1EPKc@plt>
  40b209:	ba 50 1f 40 00       	mov    $0x401f50,%edx
  40b20e:	be 20 44 61 00       	mov    $0x614420,%esi
  40b213:	48 89 df             	mov    %rbx,%rdi
  40b216:	e8 55 6d ff ff       	callq  401f70 <__cxa_throw@plt>
  40b21b:	49 89 c4             	mov    %rax,%r12
  40b21e:	48 89 df             	mov    %rbx,%rdi
  40b221:	e8 3a 6b ff ff       	callq  401d60 <__cxa_free_exception@plt>
  40b226:	4c 89 e0             	mov    %r12,%rax
  40b229:	48 89 c7             	mov    %rax,%rdi
  40b22c:	e8 5f 6d ff ff       	callq  401f90 <_Unwind_Resume@plt>
  40b231:	90                   	nop

000000000040b232 <_ZNK11Tensor_KingId15CPU_MATHEMATICS10continuousIdS0_EE9dimensionEi>:
  40b232:	55                   	push   %rbp
  40b233:	48 89 e5             	mov    %rsp,%rbp
  40b236:	48 83 ec 10          	sub    $0x10,%rsp
  40b23a:	48 89 7d f8          	mov    %rdi,-0x8(%rbp)
  40b23e:	89 75 f4             	mov    %esi,-0xc(%rbp)
  40b241:	48 8b 45 f8          	mov    -0x8(%rbp),%rax
  40b245:	48 8d 50 08          	lea    0x8(%rax),%rdx
  40b249:	8b 45 f4             	mov    -0xc(%rbp),%eax
  40b24c:	89 c6                	mov    %eax,%esi
  40b24e:	48 89 d7             	mov    %rdx,%rdi
  40b251:	e8 46 00 00 00       	callq  40b29c <_ZNK10continuousId15CPU_MATHEMATICSE9dimensionEi>
  40b256:	c9                   	leaveq 
  40b257:	c3                   	retq   

000000000040b258 <_ZNK11Tensor_KingId15CPU_MATHEMATICS10continuousIdS0_EE17leading_dimensionEi>:
  40b258:	55                   	push   %rbp
  40b259:	48 89 e5             	mov    %rsp,%rbp
  40b25c:	48 83 ec 10          	sub    $0x10,%rsp
  40b260:	48 89 7d f8          	mov    %rdi,-0x8(%rbp)
  40b264:	89 75 f4             	mov    %esi,-0xc(%rbp)
  40b267:	48 8b 45 f8          	mov    -0x8(%rbp),%rax
  40b26b:	48 8d 50 08          	lea    0x8(%rax),%rdx
  40b26f:	8b 45 f4             	mov    -0xc(%rbp),%eax
  40b272:	89 c6                	mov    %eax,%esi
  40b274:	48 89 d7             	mov    %rdx,%rdi
  40b277:	e8 6c 00 00 00       	callq  40b2e8 <_ZNK10continuousId15CPU_MATHEMATICSE17leading_dimensionEi>
  40b27c:	c9                   	leaveq 
  40b27d:	c3                   	retq   

000000000040b27e <_ZNK11Tensor_KingId15CPU_MATHEMATICS10continuousIdS0_EE5orderEv>:
  40b27e:	55                   	push   %rbp
  40b27f:	48 89 e5             	mov    %rsp,%rbp
  40b282:	48 83 ec 10          	sub    $0x10,%rsp
  40b286:	48 89 7d f8          	mov    %rdi,-0x8(%rbp)
  40b28a:	48 8b 45 f8          	mov    -0x8(%rbp),%rax
  40b28e:	48 83 c0 08          	add    $0x8,%rax
  40b292:	48 89 c7             	mov    %rax,%rdi
  40b295:	e8 10 f4 ff ff       	callq  40a6aa <_ZNK10continuousId15CPU_MATHEMATICSE5orderEv>
  40b29a:	c9                   	leaveq 
  40b29b:	c3                   	retq   

000000000040b29c <_ZNK10continuousId15CPU_MATHEMATICSE9dimensionEi>:
  40b29c:	55                   	push   %rbp
  40b29d:	48 89 e5             	mov    %rsp,%rbp
  40b2a0:	48 83 ec 10          	sub    $0x10,%rsp
  40b2a4:	48 89 7d f8          	mov    %rdi,-0x8(%rbp)
  40b2a8:	89 75 f4             	mov    %esi,-0xc(%rbp)
  40b2ab:	48 8b 45 f8          	mov    -0x8(%rbp),%rax
  40b2af:	48 8b 00             	mov    (%rax),%rax
  40b2b2:	48 83 c0 18          	add    $0x18,%rax
  40b2b6:	48 8b 00             	mov    (%rax),%rax
  40b2b9:	48 8b 55 f8          	mov    -0x8(%rbp),%rdx
  40b2bd:	48 89 d7             	mov    %rdx,%rdi
  40b2c0:	ff d0                	callq  *%rax
  40b2c2:	3b 45 f4             	cmp    -0xc(%rbp),%eax
  40b2c5:	7e 19                	jle    40b2e0 <_ZNK10continuousId15CPU_MATHEMATICSE9dimensionEi+0x44>
  40b2c7:	48 8b 45 f8          	mov    -0x8(%rbp),%rax
  40b2cb:	48 8b 40 10          	mov    0x10(%rax),%rax
  40b2cf:	8b 55 f4             	mov    -0xc(%rbp),%edx
  40b2d2:	48 63 d2             	movslq %edx,%rdx
  40b2d5:	48 c1 e2 02          	shl    $0x2,%rdx
  40b2d9:	48 01 d0             	add    %rdx,%rax
  40b2dc:	8b 00                	mov    (%rax),%eax
  40b2de:	eb 05                	jmp    40b2e5 <_ZNK10continuousId15CPU_MATHEMATICSE9dimensionEi+0x49>
  40b2e0:	b8 01 00 00 00       	mov    $0x1,%eax
  40b2e5:	c9                   	leaveq 
  40b2e6:	c3                   	retq   
  40b2e7:	90                   	nop

000000000040b2e8 <_ZNK10continuousId15CPU_MATHEMATICSE17leading_dimensionEi>:
  40b2e8:	55                   	push   %rbp
  40b2e9:	48 89 e5             	mov    %rsp,%rbp
  40b2ec:	48 83 ec 10          	sub    $0x10,%rsp
  40b2f0:	48 89 7d f8          	mov    %rdi,-0x8(%rbp)
  40b2f4:	89 75 f4             	mov    %esi,-0xc(%rbp)
  40b2f7:	48 8b 45 f8          	mov    -0x8(%rbp),%rax
  40b2fb:	48 8b 00             	mov    (%rax),%rax
  40b2fe:	48 83 c0 18          	add    $0x18,%rax
  40b302:	48 8b 00             	mov    (%rax),%rax
  40b305:	48 8b 55 f8          	mov    -0x8(%rbp),%rdx
  40b309:	48 89 d7             	mov    %rdx,%rdi
  40b30c:	ff d0                	callq  *%rax
  40b30e:	3b 45 f4             	cmp    -0xc(%rbp),%eax
  40b311:	7e 2a                	jle    40b33d <_ZNK10continuousId15CPU_MATHEMATICSE17leading_dimensionEi+0x55>
  40b313:	83 7d f4 00          	cmpl   $0x0,-0xc(%rbp)
  40b317:	7e 1d                	jle    40b336 <_ZNK10continuousId15CPU_MATHEMATICSE17leading_dimensionEi+0x4e>
  40b319:	48 8b 45 f8          	mov    -0x8(%rbp),%rax
  40b31d:	48 8b 40 10          	mov    0x10(%rax),%rax
  40b321:	8b 55 f4             	mov    -0xc(%rbp),%edx
  40b324:	48 63 d2             	movslq %edx,%rdx
  40b327:	48 c1 e2 02          	shl    $0x2,%rdx
  40b32b:	48 83 ea 04          	sub    $0x4,%rdx
  40b32f:	48 01 d0             	add    %rdx,%rax
  40b332:	8b 00                	mov    (%rax),%eax
  40b334:	eb 0c                	jmp    40b342 <_ZNK10continuousId15CPU_MATHEMATICSE17leading_dimensionEi+0x5a>
  40b336:	b8 00 00 00 00       	mov    $0x0,%eax
  40b33b:	eb 05                	jmp    40b342 <_ZNK10continuousId15CPU_MATHEMATICSE17leading_dimensionEi+0x5a>
  40b33d:	b8 00 00 00 00       	mov    $0x0,%eax
  40b342:	c9                   	leaveq 
  40b343:	c3                   	retq   

000000000040b344 <_ZNK10continuousId15CPU_MATHEMATICSE7getDataEv>:
  40b344:	55                   	push   %rbp
  40b345:	48 89 e5             	mov    %rsp,%rbp
  40b348:	48 89 7d f8          	mov    %rdi,-0x8(%rbp)
  40b34c:	48 8b 45 f8          	mov    -0x8(%rbp),%rax
  40b350:	48 8b 40 08          	mov    0x8(%rax),%rax
  40b354:	5d                   	pop    %rbp
  40b355:	c3                   	retq   

000000000040b356 <_ZNK10continuousId15CPU_MATHEMATICSE8getShapeEv>:
  40b356:	55                   	push   %rbp
  40b357:	48 89 e5             	mov    %rsp,%rbp
  40b35a:	48 89 7d f8          	mov    %rdi,-0x8(%rbp)
  40b35e:	48 8b 45 f8          	mov    -0x8(%rbp),%rax
  40b362:	48 8b 40 10          	mov    0x10(%rax),%rax
  40b366:	5d                   	pop    %rbp
  40b367:	c3                   	retq   

000000000040b368 <_ZNK10continuousId15CPU_MATHEMATICSE24getLeadingDimensionShapeEv>:
  40b368:	55                   	push   %rbp
  40b369:	48 89 e5             	mov    %rsp,%rbp
  40b36c:	48 89 7d f8          	mov    %rdi,-0x8(%rbp)
  40b370:	48 8b 45 f8          	mov    -0x8(%rbp),%rax
  40b374:	48 8b 40 10          	mov    0x10(%rax),%rax
  40b378:	5d                   	pop    %rbp
  40b379:	c3                   	retq   

000000000040b37a <_ZN10continuousId15CPU_MATHEMATICSE24getLeadingDimensionShapeEv>:
  40b37a:	55                   	push   %rbp
  40b37b:	48 89 e5             	mov    %rsp,%rbp
  40b37e:	48 89 7d f8          	mov    %rdi,-0x8(%rbp)
  40b382:	48 8b 45 f8          	mov    -0x8(%rbp),%rax
  40b386:	48 8b 40 10          	mov    0x10(%rax),%rax
  40b38a:	5d                   	pop    %rbp
  40b38b:	c3                   	retq   

000000000040b38c <_ZNK11Tensor_KingIf15CPU_MATHEMATICS18transpose_accessorIfS0_EE9dimensionEi>:
  40b38c:	55                   	push   %rbp
  40b38d:	48 89 e5             	mov    %rsp,%rbp
  40b390:	48 83 ec 10          	sub    $0x10,%rsp
  40b394:	48 89 7d f8          	mov    %rdi,-0x8(%rbp)
  40b398:	89 75 f4             	mov    %esi,-0xc(%rbp)
  40b39b:	48 8b 45 f8          	mov    -0x8(%rbp),%rax
  40b39f:	48 8d 50 08          	lea    0x8(%rax),%rdx
  40b3a3:	8b 45 f4             	mov    -0xc(%rbp),%eax
  40b3a6:	89 c6                	mov    %eax,%esi
  40b3a8:	48 89 d7             	mov    %rdx,%rdi
  40b3ab:	e8 28 00 00 00       	callq  40b3d8 <_ZNK18transpose_accessorIf15CPU_MATHEMATICSE9dimensionEi>
  40b3b0:	c9                   	leaveq 
  40b3b1:	c3                   	retq   

000000000040b3b2 <_ZNK11Tensor_KingIf15CPU_MATHEMATICS18transpose_accessorIfS0_EE17leading_dimensionEi>:
  40b3b2:	55                   	push   %rbp
  40b3b3:	48 89 e5             	mov    %rsp,%rbp
  40b3b6:	48 83 ec 10          	sub    $0x10,%rsp
  40b3ba:	48 89 7d f8          	mov    %rdi,-0x8(%rbp)
  40b3be:	89 75 f4             	mov    %esi,-0xc(%rbp)
  40b3c1:	48 8b 45 f8          	mov    -0x8(%rbp),%rax
  40b3c5:	48 8d 50 08          	lea    0x8(%rax),%rdx
  40b3c9:	8b 45 f4             	mov    -0xc(%rbp),%eax
  40b3cc:	89 c6                	mov    %eax,%esi
  40b3ce:	48 89 d7             	mov    %rdx,%rdi
  40b3d1:	e8 3a 00 00 00       	callq  40b410 <_ZNK18transpose_accessorIf15CPU_MATHEMATICSE17leading_dimensionEi>
  40b3d6:	c9                   	leaveq 
  40b3d7:	c3                   	retq   

000000000040b3d8 <_ZNK18transpose_accessorIf15CPU_MATHEMATICSE9dimensionEi>:
  40b3d8:	55                   	push   %rbp
  40b3d9:	48 89 e5             	mov    %rsp,%rbp
  40b3dc:	48 89 7d f8          	mov    %rdi,-0x8(%rbp)
  40b3e0:	89 75 f4             	mov    %esi,-0xc(%rbp)
  40b3e3:	83 7d f4 01          	cmpl   $0x1,-0xc(%rbp)
  40b3e7:	7e 07                	jle    40b3f0 <_ZNK18transpose_accessorIf15CPU_MATHEMATICSE9dimensionEi+0x18>
  40b3e9:	b8 01 00 00 00       	mov    $0x1,%eax
  40b3ee:	eb 1d                	jmp    40b40d <_ZNK18transpose_accessorIf15CPU_MATHEMATICSE9dimensionEi+0x35>
  40b3f0:	83 7d f4 00          	cmpl   $0x0,-0xc(%rbp)
  40b3f4:	75 0d                	jne    40b403 <_ZNK18transpose_accessorIf15CPU_MATHEMATICSE9dimensionEi+0x2b>
  40b3f6:	48 8b 45 f8          	mov    -0x8(%rbp),%rax
  40b3fa:	48 8b 40 10          	mov    0x10(%rax),%rax
  40b3fe:	8b 40 04             	mov    0x4(%rax),%eax
  40b401:	eb 0a                	jmp    40b40d <_ZNK18transpose_accessorIf15CPU_MATHEMATICSE9dimensionEi+0x35>
  40b403:	48 8b 45 f8          	mov    -0x8(%rbp),%rax
  40b407:	48 8b 40 10          	mov    0x10(%rax),%rax
  40b40b:	8b 00                	mov    (%rax),%eax
  40b40d:	5d                   	pop    %rbp
  40b40e:	c3                   	retq   
  40b40f:	90                   	nop

000000000040b410 <_ZNK18transpose_accessorIf15CPU_MATHEMATICSE17leading_dimensionEi>:
  40b410:	55                   	push   %rbp
  40b411:	48 89 e5             	mov    %rsp,%rbp
  40b414:	48 89 7d f8          	mov    %rdi,-0x8(%rbp)
  40b418:	89 75 f4             	mov    %esi,-0xc(%rbp)
  40b41b:	83 7d f4 01          	cmpl   $0x1,-0xc(%rbp)
  40b41f:	7e 07                	jle    40b428 <_ZNK18transpose_accessorIf15CPU_MATHEMATICSE17leading_dimensionEi+0x18>
  40b421:	b8 01 00 00 00       	mov    $0x1,%eax
  40b426:	eb 1d                	jmp    40b445 <_ZNK18transpose_accessorIf15CPU_MATHEMATICSE17leading_dimensionEi+0x35>
  40b428:	83 7d f4 00          	cmpl   $0x0,-0xc(%rbp)
  40b42c:	75 0d                	jne    40b43b <_ZNK18transpose_accessorIf15CPU_MATHEMATICSE17leading_dimensionEi+0x2b>
  40b42e:	48 8b 45 f8          	mov    -0x8(%rbp),%rax
  40b432:	48 8b 40 18          	mov    0x18(%rax),%rax
  40b436:	8b 40 04             	mov    0x4(%rax),%eax
  40b439:	eb 0a                	jmp    40b445 <_ZNK18transpose_accessorIf15CPU_MATHEMATICSE17leading_dimensionEi+0x35>
  40b43b:	48 8b 45 f8          	mov    -0x8(%rbp),%rax
  40b43f:	48 8b 40 18          	mov    0x18(%rax),%rax
  40b443:	8b 00                	mov    (%rax),%eax
  40b445:	5d                   	pop    %rbp
  40b446:	c3                   	retq   
  40b447:	90                   	nop

000000000040b448 <_ZNK18transpose_accessorIf15CPU_MATHEMATICSE7getDataEv>:
  40b448:	55                   	push   %rbp
  40b449:	48 89 e5             	mov    %rsp,%rbp
  40b44c:	48 83 ec 10          	sub    $0x10,%rsp
  40b450:	48 89 7d f8          	mov    %rdi,-0x8(%rbp)
  40b454:	be 80 c9 40 00       	mov    $0x40c980,%esi
  40b459:	bf 60 42 61 00       	mov    $0x614260,%edi
  40b45e:	e8 5d 69 ff ff       	callq  401dc0 <_ZStlsISt11char_traitsIcEERSt13basic_ostreamIcT_ES5_PKc@plt>
  40b463:	be d0 c9 40 00       	mov    $0x40c9d0,%esi
  40b468:	48 89 c7             	mov    %rax,%rdi
  40b46b:	e8 50 69 ff ff       	callq  401dc0 <_ZStlsISt11char_traitsIcEERSt13basic_ostreamIcT_ES5_PKc@plt>
  40b470:	be 00 1d 40 00       	mov    $0x401d00,%esi
  40b475:	48 89 c7             	mov    %rax,%rdi
  40b478:	e8 73 69 ff ff       	callq  401df0 <_ZNSolsEPFRSoS_E@plt>
  40b47d:	48 8b 45 f8          	mov    -0x8(%rbp),%rax
  40b481:	48 8b 40 08          	mov    0x8(%rax),%rax
  40b485:	c9                   	leaveq 
  40b486:	c3                   	retq   
  40b487:	90                   	nop

000000000040b488 <_ZNK18transpose_accessorIf15CPU_MATHEMATICSE24getLeadingDimensionShapeEv>:
  40b488:	55                   	push   %rbp
  40b489:	48 89 e5             	mov    %rsp,%rbp
  40b48c:	48 83 ec 10          	sub    $0x10,%rsp
  40b490:	48 89 7d f8          	mov    %rdi,-0x8(%rbp)
  40b494:	be f0 ca 40 00       	mov    $0x40caf0,%esi
  40b499:	bf 60 42 61 00       	mov    $0x614260,%edi
  40b49e:	e8 1d 69 ff ff       	callq  401dc0 <_ZStlsISt11char_traitsIcEERSt13basic_ostreamIcT_ES5_PKc@plt>
  40b4a3:	be 50 cb 40 00       	mov    $0x40cb50,%esi
  40b4a8:	48 89 c7             	mov    %rax,%rdi
  40b4ab:	e8 10 69 ff ff       	callq  401dc0 <_ZStlsISt11char_traitsIcEERSt13basic_ostreamIcT_ES5_PKc@plt>
  40b4b0:	be 00 1d 40 00       	mov    $0x401d00,%esi
  40b4b5:	48 89 c7             	mov    %rax,%rdi
  40b4b8:	e8 33 69 ff ff       	callq  401df0 <_ZNSolsEPFRSoS_E@plt>
  40b4bd:	48 8b 45 f8          	mov    -0x8(%rbp),%rax
  40b4c1:	48 8b 40 10          	mov    0x10(%rax),%rax
  40b4c5:	c9                   	leaveq 
  40b4c6:	c3                   	retq   
  40b4c7:	90                   	nop

000000000040b4c8 <_ZN18transpose_accessorIf15CPU_MATHEMATICSE24getLeadingDimensionShapeEv>:
  40b4c8:	55                   	push   %rbp
  40b4c9:	48 89 e5             	mov    %rsp,%rbp
  40b4cc:	48 83 ec 10          	sub    $0x10,%rsp
  40b4d0:	48 89 7d f8          	mov    %rdi,-0x8(%rbp)
  40b4d4:	be f0 ca 40 00       	mov    $0x40caf0,%esi
  40b4d9:	bf 60 42 61 00       	mov    $0x614260,%edi
  40b4de:	e8 dd 68 ff ff       	callq  401dc0 <_ZStlsISt11char_traitsIcEERSt13basic_ostreamIcT_ES5_PKc@plt>
  40b4e3:	be 50 cb 40 00       	mov    $0x40cb50,%esi
  40b4e8:	48 89 c7             	mov    %rax,%rdi
  40b4eb:	e8 d0 68 ff ff       	callq  401dc0 <_ZStlsISt11char_traitsIcEERSt13basic_ostreamIcT_ES5_PKc@plt>
  40b4f0:	be 00 1d 40 00       	mov    $0x401d00,%esi
  40b4f5:	48 89 c7             	mov    %rax,%rdi
  40b4f8:	e8 f3 68 ff ff       	callq  401df0 <_ZNSolsEPFRSoS_E@plt>
  40b4fd:	48 8b 45 f8          	mov    -0x8(%rbp),%rax
  40b501:	48 8b 40 10          	mov    0x10(%rax),%rax
  40b505:	c9                   	leaveq 
  40b506:	c3                   	retq   
  40b507:	90                   	nop

000000000040b508 <_ZNK11Tensor_KingIf15CPU_MATHEMATICS10continuousIfS0_EE17leading_dimensionEi>:
  40b508:	55                   	push   %rbp
  40b509:	48 89 e5             	mov    %rsp,%rbp
  40b50c:	48 83 ec 10          	sub    $0x10,%rsp
  40b510:	48 89 7d f8          	mov    %rdi,-0x8(%rbp)
  40b514:	89 75 f4             	mov    %esi,-0xc(%rbp)
  40b517:	48 8b 45 f8          	mov    -0x8(%rbp),%rax
  40b51b:	48 8d 50 08          	lea    0x8(%rax),%rdx
  40b51f:	8b 45 f4             	mov    -0xc(%rbp),%eax
  40b522:	89 c6                	mov    %eax,%esi
  40b524:	48 89 d7             	mov    %rdx,%rdi
  40b527:	e8 7c 0e 00 00       	callq  40c3a8 <_ZNK10continuousIf15CPU_MATHEMATICSE17leading_dimensionEi>
  40b52c:	c9                   	leaveq 
  40b52d:	c3                   	retq   

000000000040b52e <_ZNK11Tensor_KingIf15CPU_MATHEMATICS7pBufferIfS0_10continuousIfS0_E23ReferenceScalarAccessorIfS0_EN9Operation3addIfEEEE4sizeEv>:
  40b52e:	55                   	push   %rbp
  40b52f:	48 89 e5             	mov    %rsp,%rbp
  40b532:	48 83 ec 10          	sub    $0x10,%rsp
  40b536:	48 89 7d f8          	mov    %rdi,-0x8(%rbp)
  40b53a:	48 8b 45 f8          	mov    -0x8(%rbp),%rax
  40b53e:	48 83 c0 08          	add    $0x8,%rax
  40b542:	48 89 c7             	mov    %rax,%rdi
  40b545:	e8 6c 00 00 00       	callq  40b5b6 <_ZNK7pBufferIf15CPU_MATHEMATICS10continuousIfS0_E23ReferenceScalarAccessorIfS0_EN9Operation3addIfEEE4sizeEv>
  40b54a:	c9                   	leaveq 
  40b54b:	c3                   	retq   

000000000040b54c <_ZNK11Tensor_KingIf15CPU_MATHEMATICS7pBufferIfS0_10continuousIfS0_E23ReferenceScalarAccessorIfS0_EN9Operation3addIfEEEE9dimensionEi>:
  40b54c:	55                   	push   %rbp
  40b54d:	48 89 e5             	mov    %rsp,%rbp
  40b550:	48 83 ec 10          	sub    $0x10,%rsp
  40b554:	48 89 7d f8          	mov    %rdi,-0x8(%rbp)
  40b558:	89 75 f4             	mov    %esi,-0xc(%rbp)
  40b55b:	48 8b 45 f8          	mov    -0x8(%rbp),%rax
  40b55f:	48 8d 50 08          	lea    0x8(%rax),%rdx
  40b563:	8b 45 f4             	mov    -0xc(%rbp),%eax
  40b566:	89 c6                	mov    %eax,%esi
  40b568:	48 89 d7             	mov    %rdx,%rdi
  40b56b:	e8 86 00 00 00       	callq  40b5f6 <_ZNK7pBufferIf15CPU_MATHEMATICS10continuousIfS0_E23ReferenceScalarAccessorIfS0_EN9Operation3addIfEEE9dimensionEi>
  40b570:	c9                   	leaveq 
  40b571:	c3                   	retq   

000000000040b572 <_ZNK11Tensor_KingIf15CPU_MATHEMATICS7pBufferIfS0_10continuousIfS0_E23ReferenceScalarAccessorIfS0_EN9Operation3addIfEEEE17leading_dimensionEi>:
  40b572:	55                   	push   %rbp
  40b573:	48 89 e5             	mov    %rsp,%rbp
  40b576:	48 83 ec 10          	sub    $0x10,%rsp
  40b57a:	48 89 7d f8          	mov    %rdi,-0x8(%rbp)
  40b57e:	89 75 f4             	mov    %esi,-0xc(%rbp)
  40b581:	48 8b 45 f8          	mov    -0x8(%rbp),%rax
  40b585:	48 8d 50 08          	lea    0x8(%rax),%rdx
  40b589:	8b 45 f4             	mov    -0xc(%rbp),%eax
  40b58c:	89 c6                	mov    %eax,%esi
  40b58e:	48 89 d7             	mov    %rdx,%rdi
  40b591:	e8 ac 00 00 00       	callq  40b642 <_ZNK7pBufferIf15CPU_MATHEMATICS10continuousIfS0_E23ReferenceScalarAccessorIfS0_EN9Operation3addIfEEE17leading_dimensionEi>
  40b596:	c9                   	leaveq 
  40b597:	c3                   	retq   

000000000040b598 <_ZNK11Tensor_KingIf15CPU_MATHEMATICS7pBufferIfS0_10continuousIfS0_E23ReferenceScalarAccessorIfS0_EN9Operation3addIfEEEE5orderEv>:
  40b598:	55                   	push   %rbp
  40b599:	48 89 e5             	mov    %rsp,%rbp
  40b59c:	48 83 ec 10          	sub    $0x10,%rsp
  40b5a0:	48 89 7d f8          	mov    %rdi,-0x8(%rbp)
  40b5a4:	48 8b 45 f8          	mov    -0x8(%rbp),%rax
  40b5a8:	48 83 c0 08          	add    $0x8,%rax
  40b5ac:	48 89 c7             	mov    %rax,%rdi
  40b5af:	e8 da 00 00 00       	callq  40b68e <_ZNK7pBufferIf15CPU_MATHEMATICS10continuousIfS0_E23ReferenceScalarAccessorIfS0_EN9Operation3addIfEEE5orderEv>
  40b5b4:	c9                   	leaveq 
  40b5b5:	c3                   	retq   

000000000040b5b6 <_ZNK7pBufferIf15CPU_MATHEMATICS10continuousIfS0_E23ReferenceScalarAccessorIfS0_EN9Operation3addIfEEE4sizeEv>:
  40b5b6:	55                   	push   %rbp
  40b5b7:	48 89 e5             	mov    %rsp,%rbp
  40b5ba:	53                   	push   %rbx
  40b5bb:	48 83 ec 18          	sub    $0x18,%rsp
  40b5bf:	48 89 7d e8          	mov    %rdi,-0x18(%rbp)
  40b5c3:	48 8b 45 e8          	mov    -0x18(%rbp),%rax
  40b5c7:	48 83 c0 30          	add    $0x30,%rax
  40b5cb:	48 89 c7             	mov    %rax,%rdi
  40b5ce:	e8 33 d2 ff ff       	callq  408806 <_ZNK23ReferenceScalarAccessorIf15CPU_MATHEMATICSE4sizeEv>
  40b5d3:	89 c3                	mov    %eax,%ebx
  40b5d5:	48 8b 45 e8          	mov    -0x18(%rbp),%rax
  40b5d9:	48 83 c0 10          	add    $0x10,%rax
  40b5dd:	48 89 c7             	mov    %rax,%rdi
  40b5e0:	e8 0b b0 ff ff       	callq  4065f0 <_ZNK10continuousIf15CPU_MATHEMATICSE4sizeEv>
  40b5e5:	89 de                	mov    %ebx,%esi
  40b5e7:	89 c7                	mov    %eax,%edi
  40b5e9:	e8 56 0e 00 00       	callq  40c444 <_ZN7pBufferIf15CPU_MATHEMATICS10continuousIfS0_E23ReferenceScalarAccessorIfS0_EN9Operation3addIfEEE3maxEii>
  40b5ee:	48 83 c4 18          	add    $0x18,%rsp
  40b5f2:	5b                   	pop    %rbx
  40b5f3:	5d                   	pop    %rbp
  40b5f4:	c3                   	retq   
  40b5f5:	90                   	nop

000000000040b5f6 <_ZNK7pBufferIf15CPU_MATHEMATICS10continuousIfS0_E23ReferenceScalarAccessorIfS0_EN9Operation3addIfEEE9dimensionEi>:
  40b5f6:	55                   	push   %rbp
  40b5f7:	48 89 e5             	mov    %rsp,%rbp
  40b5fa:	53                   	push   %rbx
  40b5fb:	48 83 ec 18          	sub    $0x18,%rsp
  40b5ff:	48 89 7d e8          	mov    %rdi,-0x18(%rbp)
  40b603:	89 75 e4             	mov    %esi,-0x1c(%rbp)
  40b606:	48 8b 45 e8          	mov    -0x18(%rbp),%rax
  40b60a:	48 8d 50 30          	lea    0x30(%rax),%rdx
  40b60e:	8b 45 e4             	mov    -0x1c(%rbp),%eax
  40b611:	89 c6                	mov    %eax,%esi
  40b613:	48 89 d7             	mov    %rdx,%rdi
  40b616:	e8 47 02 00 00       	callq  40b862 <_ZNK23ReferenceScalarAccessorIf15CPU_MATHEMATICSE9dimensionEi>
  40b61b:	89 c3                	mov    %eax,%ebx
  40b61d:	48 8b 45 e8          	mov    -0x18(%rbp),%rax
  40b621:	48 8d 50 10          	lea    0x10(%rax),%rdx
  40b625:	8b 45 e4             	mov    -0x1c(%rbp),%eax
  40b628:	89 c6                	mov    %eax,%esi
  40b62a:	48 89 d7             	mov    %rdx,%rdi
  40b62d:	e8 da d3 ff ff       	callq  408a0c <_ZNK10continuousIf15CPU_MATHEMATICSE9dimensionEi>
  40b632:	89 de                	mov    %ebx,%esi
  40b634:	89 c7                	mov    %eax,%edi
  40b636:	e8 09 0e 00 00       	callq  40c444 <_ZN7pBufferIf15CPU_MATHEMATICS10continuousIfS0_E23ReferenceScalarAccessorIfS0_EN9Operation3addIfEEE3maxEii>
  40b63b:	48 83 c4 18          	add    $0x18,%rsp
  40b63f:	5b                   	pop    %rbx
  40b640:	5d                   	pop    %rbp
  40b641:	c3                   	retq   

000000000040b642 <_ZNK7pBufferIf15CPU_MATHEMATICS10continuousIfS0_E23ReferenceScalarAccessorIfS0_EN9Operation3addIfEEE17leading_dimensionEi>:
  40b642:	55                   	push   %rbp
  40b643:	48 89 e5             	mov    %rsp,%rbp
  40b646:	53                   	push   %rbx
  40b647:	48 83 ec 18          	sub    $0x18,%rsp
  40b64b:	48 89 7d e8          	mov    %rdi,-0x18(%rbp)
  40b64f:	89 75 e4             	mov    %esi,-0x1c(%rbp)
  40b652:	48 8b 45 e8          	mov    -0x18(%rbp),%rax
  40b656:	48 8d 50 30          	lea    0x30(%rax),%rdx
  40b65a:	8b 45 e4             	mov    -0x1c(%rbp),%eax
  40b65d:	89 c6                	mov    %eax,%esi
  40b65f:	48 89 d7             	mov    %rdx,%rdi
  40b662:	e8 13 02 00 00       	callq  40b87a <_ZNK23ReferenceScalarAccessorIf15CPU_MATHEMATICSE17leading_dimensionEi>
  40b667:	89 c3                	mov    %eax,%ebx
  40b669:	48 8b 45 e8          	mov    -0x18(%rbp),%rax
  40b66d:	48 8d 50 10          	lea    0x10(%rax),%rdx
  40b671:	8b 45 e4             	mov    -0x1c(%rbp),%eax
  40b674:	89 c6                	mov    %eax,%esi
  40b676:	48 89 d7             	mov    %rdx,%rdi
  40b679:	e8 2a 0d 00 00       	callq  40c3a8 <_ZNK10continuousIf15CPU_MATHEMATICSE17leading_dimensionEi>
  40b67e:	89 de                	mov    %ebx,%esi
  40b680:	89 c7                	mov    %eax,%edi
  40b682:	e8 bd 0d 00 00       	callq  40c444 <_ZN7pBufferIf15CPU_MATHEMATICS10continuousIfS0_E23ReferenceScalarAccessorIfS0_EN9Operation3addIfEEE3maxEii>
  40b687:	48 83 c4 18          	add    $0x18,%rsp
  40b68b:	5b                   	pop    %rbx
  40b68c:	5d                   	pop    %rbp
  40b68d:	c3                   	retq   

000000000040b68e <_ZNK7pBufferIf15CPU_MATHEMATICS10continuousIfS0_E23ReferenceScalarAccessorIfS0_EN9Operation3addIfEEE5orderEv>:
  40b68e:	55                   	push   %rbp
  40b68f:	48 89 e5             	mov    %rsp,%rbp
  40b692:	53                   	push   %rbx
  40b693:	48 83 ec 18          	sub    $0x18,%rsp
  40b697:	48 89 7d e8          	mov    %rdi,-0x18(%rbp)
  40b69b:	48 8b 45 e8          	mov    -0x18(%rbp),%rax
  40b69f:	48 83 c0 30          	add    $0x30,%rax
  40b6a3:	48 89 c7             	mov    %rax,%rdi
  40b6a6:	e8 b1 c9 ff ff       	callq  40805c <_ZNK23ReferenceScalarAccessorIf15CPU_MATHEMATICSE5orderEv>
  40b6ab:	89 c3                	mov    %eax,%ebx
  40b6ad:	48 8b 45 e8          	mov    -0x18(%rbp),%rax
  40b6b1:	48 83 c0 10          	add    $0x10,%rax
  40b6b5:	48 89 c7             	mov    %rax,%rdi
  40b6b8:	e8 61 bb ff ff       	callq  40721e <_ZNK10continuousIf15CPU_MATHEMATICSE5orderEv>
  40b6bd:	89 de                	mov    %ebx,%esi
  40b6bf:	89 c7                	mov    %eax,%edi
  40b6c1:	e8 7e 0d 00 00       	callq  40c444 <_ZN7pBufferIf15CPU_MATHEMATICS10continuousIfS0_E23ReferenceScalarAccessorIfS0_EN9Operation3addIfEEE3maxEii>
  40b6c6:	48 83 c4 18          	add    $0x18,%rsp
  40b6ca:	5b                   	pop    %rbx
  40b6cb:	5d                   	pop    %rbp
  40b6cc:	c3                   	retq   
  40b6cd:	90                   	nop

000000000040b6ce <_ZNK7pBufferIf15CPU_MATHEMATICS10continuousIfS0_E23ReferenceScalarAccessorIfS0_EN9Operation3addIfEEE7getDataEv>:
  40b6ce:	55                   	push   %rbp
  40b6cf:	48 89 e5             	mov    %rsp,%rbp
  40b6d2:	41 54                	push   %r12
  40b6d4:	53                   	push   %rbx
  40b6d5:	48 83 ec 10          	sub    $0x10,%rsp
  40b6d9:	48 89 7d e8          	mov    %rdi,-0x18(%rbp)
  40b6dd:	bf 10 00 00 00       	mov    $0x10,%edi
  40b6e2:	e8 29 66 ff ff       	callq  401d10 <__cxa_allocate_exception@plt>
  40b6e7:	48 89 c3             	mov    %rax,%rbx
  40b6ea:	be e0 c8 40 00       	mov    $0x40c8e0,%esi
  40b6ef:	48 89 df             	mov    %rbx,%rdi
  40b6f2:	e8 f9 68 ff ff       	callq  401ff0 <_ZNSt16invalid_argumentC1EPKc@plt>
  40b6f7:	ba 50 1f 40 00       	mov    $0x401f50,%edx
  40b6fc:	be 20 44 61 00       	mov    $0x614420,%esi
  40b701:	48 89 df             	mov    %rbx,%rdi
  40b704:	e8 67 68 ff ff       	callq  401f70 <__cxa_throw@plt>
  40b709:	49 89 c4             	mov    %rax,%r12
  40b70c:	48 89 df             	mov    %rbx,%rdi
  40b70f:	e8 4c 66 ff ff       	callq  401d60 <__cxa_free_exception@plt>
  40b714:	4c 89 e0             	mov    %r12,%rax
  40b717:	48 89 c7             	mov    %rax,%rdi
  40b71a:	e8 71 68 ff ff       	callq  401f90 <_Unwind_Resume@plt>
  40b71f:	90                   	nop

000000000040b720 <_ZNK7pBufferIf15CPU_MATHEMATICS10continuousIfS0_E23ReferenceScalarAccessorIfS0_EN9Operation3addIfEEE8getShapeEv>:
  40b720:	55                   	push   %rbp
  40b721:	48 89 e5             	mov    %rsp,%rbp
  40b724:	41 54                	push   %r12
  40b726:	53                   	push   %rbx
  40b727:	48 83 ec 10          	sub    $0x10,%rsp
  40b72b:	48 89 7d e8          	mov    %rdi,-0x18(%rbp)
  40b72f:	bf 10 00 00 00       	mov    $0x10,%edi
  40b734:	e8 d7 65 ff ff       	callq  401d10 <__cxa_allocate_exception@plt>
  40b739:	48 89 c3             	mov    %rax,%rbx
  40b73c:	be 18 c9 40 00       	mov    $0x40c918,%esi
  40b741:	48 89 df             	mov    %rbx,%rdi
  40b744:	e8 a7 68 ff ff       	callq  401ff0 <_ZNSt16invalid_argumentC1EPKc@plt>
  40b749:	ba 50 1f 40 00       	mov    $0x401f50,%edx
  40b74e:	be 20 44 61 00       	mov    $0x614420,%esi
  40b753:	48 89 df             	mov    %rbx,%rdi
  40b756:	e8 15 68 ff ff       	callq  401f70 <__cxa_throw@plt>
  40b75b:	49 89 c4             	mov    %rax,%r12
  40b75e:	48 89 df             	mov    %rbx,%rdi
  40b761:	e8 fa 65 ff ff       	callq  401d60 <__cxa_free_exception@plt>
  40b766:	4c 89 e0             	mov    %r12,%rax
  40b769:	48 89 c7             	mov    %rax,%rdi
  40b76c:	e8 1f 68 ff ff       	callq  401f90 <_Unwind_Resume@plt>
  40b771:	90                   	nop

000000000040b772 <_ZNK7pBufferIf15CPU_MATHEMATICS10continuousIfS0_E23ReferenceScalarAccessorIfS0_EN9Operation3addIfEEE24getLeadingDimensionShapeEv>:
  40b772:	55                   	push   %rbp
  40b773:	48 89 e5             	mov    %rsp,%rbp
  40b776:	41 54                	push   %r12
  40b778:	53                   	push   %rbx
  40b779:	48 83 ec 10          	sub    $0x10,%rsp
  40b77d:	48 89 7d e8          	mov    %rdi,-0x18(%rbp)
  40b781:	bf 10 00 00 00       	mov    $0x10,%edi
  40b786:	e8 85 65 ff ff       	callq  401d10 <__cxa_allocate_exception@plt>
  40b78b:	48 89 c3             	mov    %rax,%rbx
  40b78e:	be b0 ca 40 00       	mov    $0x40cab0,%esi
  40b793:	48 89 df             	mov    %rbx,%rdi
  40b796:	e8 55 68 ff ff       	callq  401ff0 <_ZNSt16invalid_argumentC1EPKc@plt>
  40b79b:	ba 50 1f 40 00       	mov    $0x401f50,%edx
  40b7a0:	be 20 44 61 00       	mov    $0x614420,%esi
  40b7a5:	48 89 df             	mov    %rbx,%rdi
  40b7a8:	e8 c3 67 ff ff       	callq  401f70 <__cxa_throw@plt>
  40b7ad:	49 89 c4             	mov    %rax,%r12
  40b7b0:	48 89 df             	mov    %rbx,%rdi
  40b7b3:	e8 a8 65 ff ff       	callq  401d60 <__cxa_free_exception@plt>
  40b7b8:	4c 89 e0             	mov    %r12,%rax
  40b7bb:	48 89 c7             	mov    %rax,%rdi
  40b7be:	e8 cd 67 ff ff       	callq  401f90 <_Unwind_Resume@plt>
  40b7c3:	90                   	nop

000000000040b7c4 <_ZN7pBufferIf15CPU_MATHEMATICS10continuousIfS0_E23ReferenceScalarAccessorIfS0_EN9Operation3addIfEEE24getLeadingDimensionShapeEv>:
  40b7c4:	55                   	push   %rbp
  40b7c5:	48 89 e5             	mov    %rsp,%rbp
  40b7c8:	41 54                	push   %r12
  40b7ca:	53                   	push   %rbx
  40b7cb:	48 83 ec 10          	sub    $0x10,%rsp
  40b7cf:	48 89 7d e8          	mov    %rdi,-0x18(%rbp)
  40b7d3:	bf 10 00 00 00       	mov    $0x10,%edi
  40b7d8:	e8 33 65 ff ff       	callq  401d10 <__cxa_allocate_exception@plt>
  40b7dd:	48 89 c3             	mov    %rax,%rbx
  40b7e0:	be b0 ca 40 00       	mov    $0x40cab0,%esi
  40b7e5:	48 89 df             	mov    %rbx,%rdi
  40b7e8:	e8 03 68 ff ff       	callq  401ff0 <_ZNSt16invalid_argumentC1EPKc@plt>
  40b7ed:	ba 50 1f 40 00       	mov    $0x401f50,%edx
  40b7f2:	be 20 44 61 00       	mov    $0x614420,%esi
  40b7f7:	48 89 df             	mov    %rbx,%rdi
  40b7fa:	e8 71 67 ff ff       	callq  401f70 <__cxa_throw@plt>
  40b7ff:	49 89 c4             	mov    %rax,%r12
  40b802:	48 89 df             	mov    %rbx,%rdi
  40b805:	e8 56 65 ff ff       	callq  401d60 <__cxa_free_exception@plt>
  40b80a:	4c 89 e0             	mov    %r12,%rax
  40b80d:	48 89 c7             	mov    %rax,%rdi
  40b810:	e8 7b 67 ff ff       	callq  401f90 <_Unwind_Resume@plt>
  40b815:	90                   	nop

000000000040b816 <_ZNK11Tensor_KingIf15CPU_MATHEMATICS23ReferenceScalarAccessorIfS0_EE9dimensionEi>:
  40b816:	55                   	push   %rbp
  40b817:	48 89 e5             	mov    %rsp,%rbp
  40b81a:	48 83 ec 10          	sub    $0x10,%rsp
  40b81e:	48 89 7d f8          	mov    %rdi,-0x8(%rbp)
  40b822:	89 75 f4             	mov    %esi,-0xc(%rbp)
  40b825:	48 8b 45 f8          	mov    -0x8(%rbp),%rax
  40b829:	48 8d 50 08          	lea    0x8(%rax),%rdx
  40b82d:	8b 45 f4             	mov    -0xc(%rbp),%eax
  40b830:	89 c6                	mov    %eax,%esi
  40b832:	48 89 d7             	mov    %rdx,%rdi
  40b835:	e8 28 00 00 00       	callq  40b862 <_ZNK23ReferenceScalarAccessorIf15CPU_MATHEMATICSE9dimensionEi>
  40b83a:	c9                   	leaveq 
  40b83b:	c3                   	retq   

000000000040b83c <_ZNK11Tensor_KingIf15CPU_MATHEMATICS23ReferenceScalarAccessorIfS0_EE17leading_dimensionEi>:
  40b83c:	55                   	push   %rbp
  40b83d:	48 89 e5             	mov    %rsp,%rbp
  40b840:	48 83 ec 10          	sub    $0x10,%rsp
  40b844:	48 89 7d f8          	mov    %rdi,-0x8(%rbp)
  40b848:	89 75 f4             	mov    %esi,-0xc(%rbp)
  40b84b:	48 8b 45 f8          	mov    -0x8(%rbp),%rax
  40b84f:	48 8d 50 08          	lea    0x8(%rax),%rdx
  40b853:	8b 45 f4             	mov    -0xc(%rbp),%eax
  40b856:	89 c6                	mov    %eax,%esi
  40b858:	48 89 d7             	mov    %rdx,%rdi
  40b85b:	e8 1a 00 00 00       	callq  40b87a <_ZNK23ReferenceScalarAccessorIf15CPU_MATHEMATICSE17leading_dimensionEi>
  40b860:	c9                   	leaveq 
  40b861:	c3                   	retq   

000000000040b862 <_ZNK23ReferenceScalarAccessorIf15CPU_MATHEMATICSE9dimensionEi>:
  40b862:	55                   	push   %rbp
  40b863:	48 89 e5             	mov    %rsp,%rbp
  40b866:	48 89 7d f8          	mov    %rdi,-0x8(%rbp)
  40b86a:	89 75 f4             	mov    %esi,-0xc(%rbp)
  40b86d:	b8 01 00 00 00       	mov    $0x1,%eax
  40b872:	5d                   	pop    %rbp
  40b873:	c3                   	retq   

000000000040b874 <_ZThn8_NK23ReferenceScalarAccessorIf15CPU_MATHEMATICSE9dimensionEi>:
  40b874:	48 83 ef 08          	sub    $0x8,%rdi
  40b878:	eb e8                	jmp    40b862 <_ZNK23ReferenceScalarAccessorIf15CPU_MATHEMATICSE9dimensionEi>

000000000040b87a <_ZNK23ReferenceScalarAccessorIf15CPU_MATHEMATICSE17leading_dimensionEi>:
  40b87a:	55                   	push   %rbp
  40b87b:	48 89 e5             	mov    %rsp,%rbp
  40b87e:	48 89 7d f8          	mov    %rdi,-0x8(%rbp)
  40b882:	89 75 f4             	mov    %esi,-0xc(%rbp)
  40b885:	b8 00 00 00 00       	mov    $0x0,%eax
  40b88a:	5d                   	pop    %rbp
  40b88b:	c3                   	retq   

000000000040b88c <_ZThn8_NK23ReferenceScalarAccessorIf15CPU_MATHEMATICSE17leading_dimensionEi>:
  40b88c:	48 83 ef 08          	sub    $0x8,%rdi
  40b890:	eb e8                	jmp    40b87a <_ZNK23ReferenceScalarAccessorIf15CPU_MATHEMATICSE17leading_dimensionEi>

000000000040b892 <_ZNK23ReferenceScalarAccessorIf15CPU_MATHEMATICSE7getDataEv>:
  40b892:	55                   	push   %rbp
  40b893:	48 89 e5             	mov    %rsp,%rbp
  40b896:	48 89 7d f8          	mov    %rdi,-0x8(%rbp)
  40b89a:	48 8b 45 f8          	mov    -0x8(%rbp),%rax
  40b89e:	48 8b 40 10          	mov    0x10(%rax),%rax
  40b8a2:	5d                   	pop    %rbp
  40b8a3:	c3                   	retq   

000000000040b8a4 <_ZThn8_NK23ReferenceScalarAccessorIf15CPU_MATHEMATICSE7getDataEv>:
  40b8a4:	48 83 ef 08          	sub    $0x8,%rdi
  40b8a8:	eb e8                	jmp    40b892 <_ZNK23ReferenceScalarAccessorIf15CPU_MATHEMATICSE7getDataEv>

000000000040b8aa <_ZNK23ReferenceScalarAccessorIf15CPU_MATHEMATICSE24getLeadingDimensionShapeEv>:
  40b8aa:	55                   	push   %rbp
  40b8ab:	48 89 e5             	mov    %rsp,%rbp
  40b8ae:	48 89 7d f8          	mov    %rdi,-0x8(%rbp)
  40b8b2:	b8 00 00 00 00       	mov    $0x0,%eax
  40b8b7:	5d                   	pop    %rbp
  40b8b8:	c3                   	retq   

000000000040b8b9 <_ZThn8_NK23ReferenceScalarAccessorIf15CPU_MATHEMATICSE24getLeadingDimensionShapeEv>:
  40b8b9:	48 83 ef 08          	sub    $0x8,%rdi
  40b8bd:	eb eb                	jmp    40b8aa <_ZNK23ReferenceScalarAccessorIf15CPU_MATHEMATICSE24getLeadingDimensionShapeEv>
  40b8bf:	90                   	nop

000000000040b8c0 <_ZN23ReferenceScalarAccessorIf15CPU_MATHEMATICSE24getLeadingDimensionShapeEv>:
  40b8c0:	55                   	push   %rbp
  40b8c1:	48 89 e5             	mov    %rsp,%rbp
  40b8c4:	48 89 7d f8          	mov    %rdi,-0x8(%rbp)
  40b8c8:	b8 00 00 00 00       	mov    $0x0,%eax
  40b8cd:	5d                   	pop    %rbp
  40b8ce:	c3                   	retq   

000000000040b8cf <_ZThn8_N23ReferenceScalarAccessorIf15CPU_MATHEMATICSE24getLeadingDimensionShapeEv>:
  40b8cf:	48 83 ef 08          	sub    $0x8,%rdi
  40b8d3:	eb eb                	jmp    40b8c0 <_ZN23ReferenceScalarAccessorIf15CPU_MATHEMATICSE24getLeadingDimensionShapeEv>
  40b8d5:	90                   	nop

000000000040b8d6 <_ZN23ReferenceScalarAccessorIf15CPU_MATHEMATICSEixEi>:
  40b8d6:	55                   	push   %rbp
  40b8d7:	48 89 e5             	mov    %rsp,%rbp
  40b8da:	48 89 7d f8          	mov    %rdi,-0x8(%rbp)
  40b8de:	89 75 f4             	mov    %esi,-0xc(%rbp)
  40b8e1:	48 8b 45 f8          	mov    -0x8(%rbp),%rax
  40b8e5:	48 8b 40 10          	mov    0x10(%rax),%rax
  40b8e9:	5d                   	pop    %rbp
  40b8ea:	c3                   	retq   

000000000040b8eb <_ZThn8_N23ReferenceScalarAccessorIf15CPU_MATHEMATICSEixEi>:
  40b8eb:	48 83 ef 08          	sub    $0x8,%rdi
  40b8ef:	eb e5                	jmp    40b8d6 <_ZN23ReferenceScalarAccessorIf15CPU_MATHEMATICSEixEi>
  40b8f1:	90                   	nop

000000000040b8f2 <_ZNK11Tensor_KingIf15CPU_MATHEMATICS7pBufferIfS0_19StackScalarAccessorIfS0_E10continuousIfS0_EN9Operation3subIfEEEE4sizeEv>:
  40b8f2:	55                   	push   %rbp
  40b8f3:	48 89 e5             	mov    %rsp,%rbp
  40b8f6:	48 83 ec 10          	sub    $0x10,%rsp
  40b8fa:	48 89 7d f8          	mov    %rdi,-0x8(%rbp)
  40b8fe:	48 8b 45 f8          	mov    -0x8(%rbp),%rax
  40b902:	48 83 c0 08          	add    $0x8,%rax
  40b906:	48 89 c7             	mov    %rax,%rdi
  40b909:	e8 6c 00 00 00       	callq  40b97a <_ZNK7pBufferIf15CPU_MATHEMATICS19StackScalarAccessorIfS0_E10continuousIfS0_EN9Operation3subIfEEE4sizeEv>
  40b90e:	c9                   	leaveq 
  40b90f:	c3                   	retq   

000000000040b910 <_ZNK11Tensor_KingIf15CPU_MATHEMATICS7pBufferIfS0_19StackScalarAccessorIfS0_E10continuousIfS0_EN9Operation3subIfEEEE9dimensionEi>:
  40b910:	55                   	push   %rbp
  40b911:	48 89 e5             	mov    %rsp,%rbp
  40b914:	48 83 ec 10          	sub    $0x10,%rsp
  40b918:	48 89 7d f8          	mov    %rdi,-0x8(%rbp)
  40b91c:	89 75 f4             	mov    %esi,-0xc(%rbp)
  40b91f:	48 8b 45 f8          	mov    -0x8(%rbp),%rax
  40b923:	48 8d 50 08          	lea    0x8(%rax),%rdx
  40b927:	8b 45 f4             	mov    -0xc(%rbp),%eax
  40b92a:	89 c6                	mov    %eax,%esi
  40b92c:	48 89 d7             	mov    %rdx,%rdi
  40b92f:	e8 86 00 00 00       	callq  40b9ba <_ZNK7pBufferIf15CPU_MATHEMATICS19StackScalarAccessorIfS0_E10continuousIfS0_EN9Operation3subIfEEE9dimensionEi>
  40b934:	c9                   	leaveq 
  40b935:	c3                   	retq   

000000000040b936 <_ZNK11Tensor_KingIf15CPU_MATHEMATICS7pBufferIfS0_19StackScalarAccessorIfS0_E10continuousIfS0_EN9Operation3subIfEEEE17leading_dimensionEi>:
  40b936:	55                   	push   %rbp
  40b937:	48 89 e5             	mov    %rsp,%rbp
  40b93a:	48 83 ec 10          	sub    $0x10,%rsp
  40b93e:	48 89 7d f8          	mov    %rdi,-0x8(%rbp)
  40b942:	89 75 f4             	mov    %esi,-0xc(%rbp)
  40b945:	48 8b 45 f8          	mov    -0x8(%rbp),%rax
  40b949:	48 8d 50 08          	lea    0x8(%rax),%rdx
  40b94d:	8b 45 f4             	mov    -0xc(%rbp),%eax
  40b950:	89 c6                	mov    %eax,%esi
  40b952:	48 89 d7             	mov    %rdx,%rdi
  40b955:	e8 ac 00 00 00       	callq  40ba06 <_ZNK7pBufferIf15CPU_MATHEMATICS19StackScalarAccessorIfS0_E10continuousIfS0_EN9Operation3subIfEEE17leading_dimensionEi>
  40b95a:	c9                   	leaveq 
  40b95b:	c3                   	retq   

000000000040b95c <_ZNK11Tensor_KingIf15CPU_MATHEMATICS7pBufferIfS0_19StackScalarAccessorIfS0_E10continuousIfS0_EN9Operation3subIfEEEE5orderEv>:
  40b95c:	55                   	push   %rbp
  40b95d:	48 89 e5             	mov    %rsp,%rbp
  40b960:	48 83 ec 10          	sub    $0x10,%rsp
  40b964:	48 89 7d f8          	mov    %rdi,-0x8(%rbp)
  40b968:	48 8b 45 f8          	mov    -0x8(%rbp),%rax
  40b96c:	48 83 c0 08          	add    $0x8,%rax
  40b970:	48 89 c7             	mov    %rax,%rdi
  40b973:	e8 da 00 00 00       	callq  40ba52 <_ZNK7pBufferIf15CPU_MATHEMATICS19StackScalarAccessorIfS0_E10continuousIfS0_EN9Operation3subIfEEE5orderEv>
  40b978:	c9                   	leaveq 
  40b979:	c3                   	retq   

000000000040b97a <_ZNK7pBufferIf15CPU_MATHEMATICS19StackScalarAccessorIfS0_E10continuousIfS0_EN9Operation3subIfEEE4sizeEv>:
  40b97a:	55                   	push   %rbp
  40b97b:	48 89 e5             	mov    %rsp,%rbp
  40b97e:	53                   	push   %rbx
  40b97f:	48 83 ec 18          	sub    $0x18,%rsp
  40b983:	48 89 7d e8          	mov    %rdi,-0x18(%rbp)
  40b987:	48 8b 45 e8          	mov    -0x18(%rbp),%rax
  40b98b:	48 83 c0 28          	add    $0x28,%rax
  40b98f:	48 89 c7             	mov    %rax,%rdi
  40b992:	e8 59 ac ff ff       	callq  4065f0 <_ZNK10continuousIf15CPU_MATHEMATICSE4sizeEv>
  40b997:	89 c3                	mov    %eax,%ebx
  40b999:	48 8b 45 e8          	mov    -0x18(%rbp),%rax
  40b99d:	48 83 c0 10          	add    $0x10,%rax
  40b9a1:	48 89 c7             	mov    %rax,%rdi
  40b9a4:	e8 b9 02 00 00       	callq  40bc62 <_ZNK19StackScalarAccessorIf15CPU_MATHEMATICSE4sizeEv>
  40b9a9:	89 de                	mov    %ebx,%esi
  40b9ab:	89 c7                	mov    %eax,%edi
  40b9ad:	e8 ae 0a 00 00       	callq  40c460 <_ZN7pBufferIf15CPU_MATHEMATICS19StackScalarAccessorIfS0_E10continuousIfS0_EN9Operation3subIfEEE3maxEii>
  40b9b2:	48 83 c4 18          	add    $0x18,%rsp
  40b9b6:	5b                   	pop    %rbx
  40b9b7:	5d                   	pop    %rbp
  40b9b8:	c3                   	retq   
  40b9b9:	90                   	nop

000000000040b9ba <_ZNK7pBufferIf15CPU_MATHEMATICS19StackScalarAccessorIfS0_E10continuousIfS0_EN9Operation3subIfEEE9dimensionEi>:
  40b9ba:	55                   	push   %rbp
  40b9bb:	48 89 e5             	mov    %rsp,%rbp
  40b9be:	53                   	push   %rbx
  40b9bf:	48 83 ec 18          	sub    $0x18,%rsp
  40b9c3:	48 89 7d e8          	mov    %rdi,-0x18(%rbp)
  40b9c7:	89 75 e4             	mov    %esi,-0x1c(%rbp)
  40b9ca:	48 8b 45 e8          	mov    -0x18(%rbp),%rax
  40b9ce:	48 8d 50 28          	lea    0x28(%rax),%rdx
  40b9d2:	8b 45 e4             	mov    -0x1c(%rbp),%eax
  40b9d5:	89 c6                	mov    %eax,%esi
  40b9d7:	48 89 d7             	mov    %rdx,%rdi
  40b9da:	e8 2d d0 ff ff       	callq  408a0c <_ZNK10continuousIf15CPU_MATHEMATICSE9dimensionEi>
  40b9df:	89 c3                	mov    %eax,%ebx
  40b9e1:	48 8b 45 e8          	mov    -0x18(%rbp),%rax
  40b9e5:	48 8d 50 10          	lea    0x10(%rax),%rdx
  40b9e9:	8b 45 e4             	mov    -0x1c(%rbp),%eax
  40b9ec:	89 c6                	mov    %eax,%esi
  40b9ee:	48 89 d7             	mov    %rdx,%rdi
  40b9f1:	e8 82 02 00 00       	callq  40bc78 <_ZNK19StackScalarAccessorIf15CPU_MATHEMATICSE9dimensionEi>
  40b9f6:	89 de                	mov    %ebx,%esi
  40b9f8:	89 c7                	mov    %eax,%edi
  40b9fa:	e8 61 0a 00 00       	callq  40c460 <_ZN7pBufferIf15CPU_MATHEMATICS19StackScalarAccessorIfS0_E10continuousIfS0_EN9Operation3subIfEEE3maxEii>
  40b9ff:	48 83 c4 18          	add    $0x18,%rsp
  40ba03:	5b                   	pop    %rbx
  40ba04:	5d                   	pop    %rbp
  40ba05:	c3                   	retq   

000000000040ba06 <_ZNK7pBufferIf15CPU_MATHEMATICS19StackScalarAccessorIfS0_E10continuousIfS0_EN9Operation3subIfEEE17leading_dimensionEi>:
  40ba06:	55                   	push   %rbp
  40ba07:	48 89 e5             	mov    %rsp,%rbp
  40ba0a:	53                   	push   %rbx
  40ba0b:	48 83 ec 18          	sub    $0x18,%rsp
  40ba0f:	48 89 7d e8          	mov    %rdi,-0x18(%rbp)
  40ba13:	89 75 e4             	mov    %esi,-0x1c(%rbp)
  40ba16:	48 8b 45 e8          	mov    -0x18(%rbp),%rax
  40ba1a:	48 8d 50 28          	lea    0x28(%rax),%rdx
  40ba1e:	8b 45 e4             	mov    -0x1c(%rbp),%eax
  40ba21:	89 c6                	mov    %eax,%esi
  40ba23:	48 89 d7             	mov    %rdx,%rdi
  40ba26:	e8 7d 09 00 00       	callq  40c3a8 <_ZNK10continuousIf15CPU_MATHEMATICSE17leading_dimensionEi>
  40ba2b:	89 c3                	mov    %eax,%ebx
  40ba2d:	48 8b 45 e8          	mov    -0x18(%rbp),%rax
  40ba31:	48 8d 50 10          	lea    0x10(%rax),%rdx
  40ba35:	8b 45 e4             	mov    -0x1c(%rbp),%eax
  40ba38:	89 c6                	mov    %eax,%esi
  40ba3a:	48 89 d7             	mov    %rdx,%rdi
  40ba3d:	e8 4e 02 00 00       	callq  40bc90 <_ZNK19StackScalarAccessorIf15CPU_MATHEMATICSE17leading_dimensionEi>
  40ba42:	89 de                	mov    %ebx,%esi
  40ba44:	89 c7                	mov    %eax,%edi
  40ba46:	e8 15 0a 00 00       	callq  40c460 <_ZN7pBufferIf15CPU_MATHEMATICS19StackScalarAccessorIfS0_E10continuousIfS0_EN9Operation3subIfEEE3maxEii>
  40ba4b:	48 83 c4 18          	add    $0x18,%rsp
  40ba4f:	5b                   	pop    %rbx
  40ba50:	5d                   	pop    %rbp
  40ba51:	c3                   	retq   

000000000040ba52 <_ZNK7pBufferIf15CPU_MATHEMATICS19StackScalarAccessorIfS0_E10continuousIfS0_EN9Operation3subIfEEE5orderEv>:
  40ba52:	55                   	push   %rbp
  40ba53:	48 89 e5             	mov    %rsp,%rbp
  40ba56:	53                   	push   %rbx
  40ba57:	48 83 ec 18          	sub    $0x18,%rsp
  40ba5b:	48 89 7d e8          	mov    %rdi,-0x18(%rbp)
  40ba5f:	48 8b 45 e8          	mov    -0x18(%rbp),%rax
  40ba63:	48 83 c0 28          	add    $0x28,%rax
  40ba67:	48 89 c7             	mov    %rax,%rdi
  40ba6a:	e8 af b7 ff ff       	callq  40721e <_ZNK10continuousIf15CPU_MATHEMATICSE5orderEv>
  40ba6f:	89 c3                	mov    %eax,%ebx
  40ba71:	48 8b 45 e8          	mov    -0x18(%rbp),%rax
  40ba75:	48 83 c0 10          	add    $0x10,%rax
  40ba79:	48 89 c7             	mov    %rax,%rdi
  40ba7c:	e8 27 02 00 00       	callq  40bca8 <_ZNK19StackScalarAccessorIf15CPU_MATHEMATICSE5orderEv>
  40ba81:	89 de                	mov    %ebx,%esi
  40ba83:	89 c7                	mov    %eax,%edi
  40ba85:	e8 d6 09 00 00       	callq  40c460 <_ZN7pBufferIf15CPU_MATHEMATICS19StackScalarAccessorIfS0_E10continuousIfS0_EN9Operation3subIfEEE3maxEii>
  40ba8a:	48 83 c4 18          	add    $0x18,%rsp
  40ba8e:	5b                   	pop    %rbx
  40ba8f:	5d                   	pop    %rbp
  40ba90:	c3                   	retq   
  40ba91:	90                   	nop

000000000040ba92 <_ZNK7pBufferIf15CPU_MATHEMATICS19StackScalarAccessorIfS0_E10continuousIfS0_EN9Operation3subIfEEE7getDataEv>:
  40ba92:	55                   	push   %rbp
  40ba93:	48 89 e5             	mov    %rsp,%rbp
  40ba96:	41 54                	push   %r12
  40ba98:	53                   	push   %rbx
  40ba99:	48 83 ec 10          	sub    $0x10,%rsp
  40ba9d:	48 89 7d e8          	mov    %rdi,-0x18(%rbp)
  40baa1:	bf 10 00 00 00       	mov    $0x10,%edi
  40baa6:	e8 65 62 ff ff       	callq  401d10 <__cxa_allocate_exception@plt>
  40baab:	48 89 c3             	mov    %rax,%rbx
  40baae:	be e0 c8 40 00       	mov    $0x40c8e0,%esi
  40bab3:	48 89 df             	mov    %rbx,%rdi
  40bab6:	e8 35 65 ff ff       	callq  401ff0 <_ZNSt16invalid_argumentC1EPKc@plt>
  40babb:	ba 50 1f 40 00       	mov    $0x401f50,%edx
  40bac0:	be 20 44 61 00       	mov    $0x614420,%esi
  40bac5:	48 89 df             	mov    %rbx,%rdi
  40bac8:	e8 a3 64 ff ff       	callq  401f70 <__cxa_throw@plt>
  40bacd:	49 89 c4             	mov    %rax,%r12
  40bad0:	48 89 df             	mov    %rbx,%rdi
  40bad3:	e8 88 62 ff ff       	callq  401d60 <__cxa_free_exception@plt>
  40bad8:	4c 89 e0             	mov    %r12,%rax
  40badb:	48 89 c7             	mov    %rax,%rdi
  40bade:	e8 ad 64 ff ff       	callq  401f90 <_Unwind_Resume@plt>
  40bae3:	90                   	nop

000000000040bae4 <_ZNK7pBufferIf15CPU_MATHEMATICS19StackScalarAccessorIfS0_E10continuousIfS0_EN9Operation3subIfEEE8getShapeEv>:
  40bae4:	55                   	push   %rbp
  40bae5:	48 89 e5             	mov    %rsp,%rbp
  40bae8:	41 54                	push   %r12
  40baea:	53                   	push   %rbx
  40baeb:	48 83 ec 10          	sub    $0x10,%rsp
  40baef:	48 89 7d e8          	mov    %rdi,-0x18(%rbp)
  40baf3:	bf 10 00 00 00       	mov    $0x10,%edi
  40baf8:	e8 13 62 ff ff       	callq  401d10 <__cxa_allocate_exception@plt>
  40bafd:	48 89 c3             	mov    %rax,%rbx
  40bb00:	be 18 c9 40 00       	mov    $0x40c918,%esi
  40bb05:	48 89 df             	mov    %rbx,%rdi
  40bb08:	e8 e3 64 ff ff       	callq  401ff0 <_ZNSt16invalid_argumentC1EPKc@plt>
  40bb0d:	ba 50 1f 40 00       	mov    $0x401f50,%edx
  40bb12:	be 20 44 61 00       	mov    $0x614420,%esi
  40bb17:	48 89 df             	mov    %rbx,%rdi
  40bb1a:	e8 51 64 ff ff       	callq  401f70 <__cxa_throw@plt>
  40bb1f:	49 89 c4             	mov    %rax,%r12
  40bb22:	48 89 df             	mov    %rbx,%rdi
  40bb25:	e8 36 62 ff ff       	callq  401d60 <__cxa_free_exception@plt>
  40bb2a:	4c 89 e0             	mov    %r12,%rax
  40bb2d:	48 89 c7             	mov    %rax,%rdi
  40bb30:	e8 5b 64 ff ff       	callq  401f90 <_Unwind_Resume@plt>
  40bb35:	90                   	nop

000000000040bb36 <_ZNK7pBufferIf15CPU_MATHEMATICS19StackScalarAccessorIfS0_E10continuousIfS0_EN9Operation3subIfEEE24getLeadingDimensionShapeEv>:
  40bb36:	55                   	push   %rbp
  40bb37:	48 89 e5             	mov    %rsp,%rbp
  40bb3a:	41 54                	push   %r12
  40bb3c:	53                   	push   %rbx
  40bb3d:	48 83 ec 10          	sub    $0x10,%rsp
  40bb41:	48 89 7d e8          	mov    %rdi,-0x18(%rbp)
  40bb45:	bf 10 00 00 00       	mov    $0x10,%edi
  40bb4a:	e8 c1 61 ff ff       	callq  401d10 <__cxa_allocate_exception@plt>
  40bb4f:	48 89 c3             	mov    %rax,%rbx
  40bb52:	be b0 ca 40 00       	mov    $0x40cab0,%esi
  40bb57:	48 89 df             	mov    %rbx,%rdi
  40bb5a:	e8 91 64 ff ff       	callq  401ff0 <_ZNSt16invalid_argumentC1EPKc@plt>
  40bb5f:	ba 50 1f 40 00       	mov    $0x401f50,%edx
  40bb64:	be 20 44 61 00       	mov    $0x614420,%esi
  40bb69:	48 89 df             	mov    %rbx,%rdi
  40bb6c:	e8 ff 63 ff ff       	callq  401f70 <__cxa_throw@plt>
  40bb71:	49 89 c4             	mov    %rax,%r12
  40bb74:	48 89 df             	mov    %rbx,%rdi
  40bb77:	e8 e4 61 ff ff       	callq  401d60 <__cxa_free_exception@plt>
  40bb7c:	4c 89 e0             	mov    %r12,%rax
  40bb7f:	48 89 c7             	mov    %rax,%rdi
  40bb82:	e8 09 64 ff ff       	callq  401f90 <_Unwind_Resume@plt>
  40bb87:	90                   	nop

000000000040bb88 <_ZN7pBufferIf15CPU_MATHEMATICS19StackScalarAccessorIfS0_E10continuousIfS0_EN9Operation3subIfEEE24getLeadingDimensionShapeEv>:
  40bb88:	55                   	push   %rbp
  40bb89:	48 89 e5             	mov    %rsp,%rbp
  40bb8c:	41 54                	push   %r12
  40bb8e:	53                   	push   %rbx
  40bb8f:	48 83 ec 10          	sub    $0x10,%rsp
  40bb93:	48 89 7d e8          	mov    %rdi,-0x18(%rbp)
  40bb97:	bf 10 00 00 00       	mov    $0x10,%edi
  40bb9c:	e8 6f 61 ff ff       	callq  401d10 <__cxa_allocate_exception@plt>
  40bba1:	48 89 c3             	mov    %rax,%rbx
  40bba4:	be b0 ca 40 00       	mov    $0x40cab0,%esi
  40bba9:	48 89 df             	mov    %rbx,%rdi
  40bbac:	e8 3f 64 ff ff       	callq  401ff0 <_ZNSt16invalid_argumentC1EPKc@plt>
  40bbb1:	ba 50 1f 40 00       	mov    $0x401f50,%edx
  40bbb6:	be 20 44 61 00       	mov    $0x614420,%esi
  40bbbb:	48 89 df             	mov    %rbx,%rdi
  40bbbe:	e8 ad 63 ff ff       	callq  401f70 <__cxa_throw@plt>
  40bbc3:	49 89 c4             	mov    %rax,%r12
  40bbc6:	48 89 df             	mov    %rbx,%rdi
  40bbc9:	e8 92 61 ff ff       	callq  401d60 <__cxa_free_exception@plt>
  40bbce:	4c 89 e0             	mov    %r12,%rax
  40bbd1:	48 89 c7             	mov    %rax,%rdi
  40bbd4:	e8 b7 63 ff ff       	callq  401f90 <_Unwind_Resume@plt>
  40bbd9:	90                   	nop

000000000040bbda <_ZNK11Tensor_KingIf15CPU_MATHEMATICS19StackScalarAccessorIfS0_EE4sizeEv>:
  40bbda:	55                   	push   %rbp
  40bbdb:	48 89 e5             	mov    %rsp,%rbp
  40bbde:	48 83 ec 10          	sub    $0x10,%rsp
  40bbe2:	48 89 7d f8          	mov    %rdi,-0x8(%rbp)
  40bbe6:	48 8b 45 f8          	mov    -0x8(%rbp),%rax
  40bbea:	48 83 c0 08          	add    $0x8,%rax
  40bbee:	48 89 c7             	mov    %rax,%rdi
  40bbf1:	e8 6c 00 00 00       	callq  40bc62 <_ZNK19StackScalarAccessorIf15CPU_MATHEMATICSE4sizeEv>
  40bbf6:	c9                   	leaveq 
  40bbf7:	c3                   	retq   

000000000040bbf8 <_ZNK11Tensor_KingIf15CPU_MATHEMATICS19StackScalarAccessorIfS0_EE9dimensionEi>:
  40bbf8:	55                   	push   %rbp
  40bbf9:	48 89 e5             	mov    %rsp,%rbp
  40bbfc:	48 83 ec 10          	sub    $0x10,%rsp
  40bc00:	48 89 7d f8          	mov    %rdi,-0x8(%rbp)
  40bc04:	89 75 f4             	mov    %esi,-0xc(%rbp)
  40bc07:	48 8b 45 f8          	mov    -0x8(%rbp),%rax
  40bc0b:	48 8d 50 08          	lea    0x8(%rax),%rdx
  40bc0f:	8b 45 f4             	mov    -0xc(%rbp),%eax
  40bc12:	89 c6                	mov    %eax,%esi
  40bc14:	48 89 d7             	mov    %rdx,%rdi
  40bc17:	e8 5c 00 00 00       	callq  40bc78 <_ZNK19StackScalarAccessorIf15CPU_MATHEMATICSE9dimensionEi>
  40bc1c:	c9                   	leaveq 
  40bc1d:	c3                   	retq   

000000000040bc1e <_ZNK11Tensor_KingIf15CPU_MATHEMATICS19StackScalarAccessorIfS0_EE17leading_dimensionEi>:
  40bc1e:	55                   	push   %rbp
  40bc1f:	48 89 e5             	mov    %rsp,%rbp
  40bc22:	48 83 ec 10          	sub    $0x10,%rsp
  40bc26:	48 89 7d f8          	mov    %rdi,-0x8(%rbp)
  40bc2a:	89 75 f4             	mov    %esi,-0xc(%rbp)
  40bc2d:	48 8b 45 f8          	mov    -0x8(%rbp),%rax
  40bc31:	48 8d 50 08          	lea    0x8(%rax),%rdx
  40bc35:	8b 45 f4             	mov    -0xc(%rbp),%eax
  40bc38:	89 c6                	mov    %eax,%esi
  40bc3a:	48 89 d7             	mov    %rdx,%rdi
  40bc3d:	e8 4e 00 00 00       	callq  40bc90 <_ZNK19StackScalarAccessorIf15CPU_MATHEMATICSE17leading_dimensionEi>
  40bc42:	c9                   	leaveq 
  40bc43:	c3                   	retq   

000000000040bc44 <_ZNK11Tensor_KingIf15CPU_MATHEMATICS19StackScalarAccessorIfS0_EE5orderEv>:
  40bc44:	55                   	push   %rbp
  40bc45:	48 89 e5             	mov    %rsp,%rbp
  40bc48:	48 83 ec 10          	sub    $0x10,%rsp
  40bc4c:	48 89 7d f8          	mov    %rdi,-0x8(%rbp)
  40bc50:	48 8b 45 f8          	mov    -0x8(%rbp),%rax
  40bc54:	48 83 c0 08          	add    $0x8,%rax
  40bc58:	48 89 c7             	mov    %rax,%rdi
  40bc5b:	e8 48 00 00 00       	callq  40bca8 <_ZNK19StackScalarAccessorIf15CPU_MATHEMATICSE5orderEv>
  40bc60:	c9                   	leaveq 
  40bc61:	c3                   	retq   

000000000040bc62 <_ZNK19StackScalarAccessorIf15CPU_MATHEMATICSE4sizeEv>:
  40bc62:	55                   	push   %rbp
  40bc63:	48 89 e5             	mov    %rsp,%rbp
  40bc66:	48 89 7d f8          	mov    %rdi,-0x8(%rbp)
  40bc6a:	b8 01 00 00 00       	mov    $0x1,%eax
  40bc6f:	5d                   	pop    %rbp
  40bc70:	c3                   	retq   

000000000040bc71 <_ZThn8_NK19StackScalarAccessorIf15CPU_MATHEMATICSE4sizeEv>:
  40bc71:	48 83 ef 08          	sub    $0x8,%rdi
  40bc75:	eb eb                	jmp    40bc62 <_ZNK19StackScalarAccessorIf15CPU_MATHEMATICSE4sizeEv>
  40bc77:	90                   	nop

000000000040bc78 <_ZNK19StackScalarAccessorIf15CPU_MATHEMATICSE9dimensionEi>:
  40bc78:	55                   	push   %rbp
  40bc79:	48 89 e5             	mov    %rsp,%rbp
  40bc7c:	48 89 7d f8          	mov    %rdi,-0x8(%rbp)
  40bc80:	89 75 f4             	mov    %esi,-0xc(%rbp)
  40bc83:	b8 01 00 00 00       	mov    $0x1,%eax
  40bc88:	5d                   	pop    %rbp
  40bc89:	c3                   	retq   

000000000040bc8a <_ZThn8_NK19StackScalarAccessorIf15CPU_MATHEMATICSE9dimensionEi>:
  40bc8a:	48 83 ef 08          	sub    $0x8,%rdi
  40bc8e:	eb e8                	jmp    40bc78 <_ZNK19StackScalarAccessorIf15CPU_MATHEMATICSE9dimensionEi>

000000000040bc90 <_ZNK19StackScalarAccessorIf15CPU_MATHEMATICSE17leading_dimensionEi>:
  40bc90:	55                   	push   %rbp
  40bc91:	48 89 e5             	mov    %rsp,%rbp
  40bc94:	48 89 7d f8          	mov    %rdi,-0x8(%rbp)
  40bc98:	89 75 f4             	mov    %esi,-0xc(%rbp)
  40bc9b:	b8 00 00 00 00       	mov    $0x0,%eax
  40bca0:	5d                   	pop    %rbp
  40bca1:	c3                   	retq   

000000000040bca2 <_ZThn8_NK19StackScalarAccessorIf15CPU_MATHEMATICSE17leading_dimensionEi>:
  40bca2:	48 83 ef 08          	sub    $0x8,%rdi
  40bca6:	eb e8                	jmp    40bc90 <_ZNK19StackScalarAccessorIf15CPU_MATHEMATICSE17leading_dimensionEi>

000000000040bca8 <_ZNK19StackScalarAccessorIf15CPU_MATHEMATICSE5orderEv>:
  40bca8:	55                   	push   %rbp
  40bca9:	48 89 e5             	mov    %rsp,%rbp
  40bcac:	48 89 7d f8          	mov    %rdi,-0x8(%rbp)
  40bcb0:	b8 01 00 00 00       	mov    $0x1,%eax
  40bcb5:	5d                   	pop    %rbp
  40bcb6:	c3                   	retq   

000000000040bcb7 <_ZThn8_NK19StackScalarAccessorIf15CPU_MATHEMATICSE5orderEv>:
  40bcb7:	48 83 ef 08          	sub    $0x8,%rdi
  40bcbb:	eb eb                	jmp    40bca8 <_ZNK19StackScalarAccessorIf15CPU_MATHEMATICSE5orderEv>
  40bcbd:	90                   	nop

000000000040bcbe <_ZNK19StackScalarAccessorIf15CPU_MATHEMATICSE7getDataEv>:
  40bcbe:	55                   	push   %rbp
  40bcbf:	48 89 e5             	mov    %rsp,%rbp
  40bcc2:	41 54                	push   %r12
  40bcc4:	53                   	push   %rbx
  40bcc5:	48 83 ec 10          	sub    $0x10,%rsp
  40bcc9:	48 89 7d e8          	mov    %rdi,-0x18(%rbp)
  40bccd:	bf 10 00 00 00       	mov    $0x10,%edi
  40bcd2:	e8 39 60 ff ff       	callq  401d10 <__cxa_allocate_exception@plt>
  40bcd7:	48 89 c3             	mov    %rax,%rbx
  40bcda:	be 50 c9 40 00       	mov    $0x40c950,%esi
  40bcdf:	48 89 df             	mov    %rbx,%rdi
  40bce2:	e8 09 63 ff ff       	callq  401ff0 <_ZNSt16invalid_argumentC1EPKc@plt>
  40bce7:	ba 50 1f 40 00       	mov    $0x401f50,%edx
  40bcec:	be 20 44 61 00       	mov    $0x614420,%esi
  40bcf1:	48 89 df             	mov    %rbx,%rdi
  40bcf4:	e8 77 62 ff ff       	callq  401f70 <__cxa_throw@plt>
  40bcf9:	49 89 c4             	mov    %rax,%r12
  40bcfc:	48 89 df             	mov    %rbx,%rdi
  40bcff:	e8 5c 60 ff ff       	callq  401d60 <__cxa_free_exception@plt>
  40bd04:	4c 89 e0             	mov    %r12,%rax
  40bd07:	48 89 c7             	mov    %rax,%rdi
  40bd0a:	e8 81 62 ff ff       	callq  401f90 <_Unwind_Resume@plt>

000000000040bd0f <_ZThn8_NK19StackScalarAccessorIf15CPU_MATHEMATICSE7getDataEv>:
  40bd0f:	48 83 ef 08          	sub    $0x8,%rdi
  40bd13:	eb a9                	jmp    40bcbe <_ZNK19StackScalarAccessorIf15CPU_MATHEMATICSE7getDataEv>
  40bd15:	90                   	nop

000000000040bd16 <_ZNK19StackScalarAccessorIf15CPU_MATHEMATICSE8getShapeEv>:
  40bd16:	55                   	push   %rbp
  40bd17:	48 89 e5             	mov    %rsp,%rbp
  40bd1a:	48 89 7d f8          	mov    %rdi,-0x8(%rbp)
  40bd1e:	b8 00 00 00 00       	mov    $0x0,%eax
  40bd23:	5d                   	pop    %rbp
  40bd24:	c3                   	retq   

000000000040bd25 <_ZThn8_NK19StackScalarAccessorIf15CPU_MATHEMATICSE8getShapeEv>:
  40bd25:	48 83 ef 08          	sub    $0x8,%rdi
  40bd29:	eb eb                	jmp    40bd16 <_ZNK19StackScalarAccessorIf15CPU_MATHEMATICSE8getShapeEv>
  40bd2b:	90                   	nop

000000000040bd2c <_ZNK19StackScalarAccessorIf15CPU_MATHEMATICSE24getLeadingDimensionShapeEv>:
  40bd2c:	55                   	push   %rbp
  40bd2d:	48 89 e5             	mov    %rsp,%rbp
  40bd30:	48 89 7d f8          	mov    %rdi,-0x8(%rbp)
  40bd34:	b8 00 00 00 00       	mov    $0x0,%eax
  40bd39:	5d                   	pop    %rbp
  40bd3a:	c3                   	retq   

000000000040bd3b <_ZThn8_NK19StackScalarAccessorIf15CPU_MATHEMATICSE24getLeadingDimensionShapeEv>:
  40bd3b:	48 83 ef 08          	sub    $0x8,%rdi
  40bd3f:	eb eb                	jmp    40bd2c <_ZNK19StackScalarAccessorIf15CPU_MATHEMATICSE24getLeadingDimensionShapeEv>
  40bd41:	90                   	nop

000000000040bd42 <_ZN19StackScalarAccessorIf15CPU_MATHEMATICSE24getLeadingDimensionShapeEv>:
  40bd42:	55                   	push   %rbp
  40bd43:	48 89 e5             	mov    %rsp,%rbp
  40bd46:	48 89 7d f8          	mov    %rdi,-0x8(%rbp)
  40bd4a:	b8 00 00 00 00       	mov    $0x0,%eax
  40bd4f:	5d                   	pop    %rbp
  40bd50:	c3                   	retq   

000000000040bd51 <_ZThn8_N19StackScalarAccessorIf15CPU_MATHEMATICSE24getLeadingDimensionShapeEv>:
  40bd51:	48 83 ef 08          	sub    $0x8,%rdi
  40bd55:	eb eb                	jmp    40bd42 <_ZN19StackScalarAccessorIf15CPU_MATHEMATICSE24getLeadingDimensionShapeEv>
  40bd57:	90                   	nop

000000000040bd58 <_ZN19StackScalarAccessorIf15CPU_MATHEMATICSEixEi>:
  40bd58:	55                   	push   %rbp
  40bd59:	48 89 e5             	mov    %rsp,%rbp
  40bd5c:	48 89 7d f8          	mov    %rdi,-0x8(%rbp)
  40bd60:	89 75 f4             	mov    %esi,-0xc(%rbp)
  40bd63:	48 8b 45 f8          	mov    -0x8(%rbp),%rax
  40bd67:	f3 0f 10 40 10       	movss  0x10(%rax),%xmm0
  40bd6c:	5d                   	pop    %rbp
  40bd6d:	c3                   	retq   

000000000040bd6e <_ZThn8_N19StackScalarAccessorIf15CPU_MATHEMATICSEixEi>:
  40bd6e:	48 83 ef 08          	sub    $0x8,%rdi
  40bd72:	eb e4                	jmp    40bd58 <_ZN19StackScalarAccessorIf15CPU_MATHEMATICSEixEi>

000000000040bd74 <_ZNK15Scalar_AccessorIf15CPU_MATHEMATICSE4sizeEv>:
  40bd74:	55                   	push   %rbp
  40bd75:	48 89 e5             	mov    %rsp,%rbp
  40bd78:	48 89 7d f8          	mov    %rdi,-0x8(%rbp)
  40bd7c:	b8 01 00 00 00       	mov    $0x1,%eax
  40bd81:	5d                   	pop    %rbp
  40bd82:	c3                   	retq   
  40bd83:	90                   	nop

000000000040bd84 <_ZNK15Scalar_AccessorIf15CPU_MATHEMATICSE9dimensionEi>:
  40bd84:	55                   	push   %rbp
  40bd85:	48 89 e5             	mov    %rsp,%rbp
  40bd88:	48 89 7d f8          	mov    %rdi,-0x8(%rbp)
  40bd8c:	89 75 f4             	mov    %esi,-0xc(%rbp)
  40bd8f:	b8 01 00 00 00       	mov    $0x1,%eax
  40bd94:	5d                   	pop    %rbp
  40bd95:	c3                   	retq   

000000000040bd96 <_ZNK15Scalar_AccessorIf15CPU_MATHEMATICSE17leading_dimensionEi>:
  40bd96:	55                   	push   %rbp
  40bd97:	48 89 e5             	mov    %rsp,%rbp
  40bd9a:	48 89 7d f8          	mov    %rdi,-0x8(%rbp)
  40bd9e:	89 75 f4             	mov    %esi,-0xc(%rbp)
  40bda1:	b8 00 00 00 00       	mov    $0x0,%eax
  40bda6:	5d                   	pop    %rbp
  40bda7:	c3                   	retq   

000000000040bda8 <_ZNK15Scalar_AccessorIf15CPU_MATHEMATICSE5orderEv>:
  40bda8:	55                   	push   %rbp
  40bda9:	48 89 e5             	mov    %rsp,%rbp
  40bdac:	48 89 7d f8          	mov    %rdi,-0x8(%rbp)
  40bdb0:	b8 01 00 00 00       	mov    $0x1,%eax
  40bdb5:	5d                   	pop    %rbp
  40bdb6:	c3                   	retq   
  40bdb7:	90                   	nop

000000000040bdb8 <_ZNK15Scalar_AccessorIf15CPU_MATHEMATICSE8getShapeEv>:
  40bdb8:	55                   	push   %rbp
  40bdb9:	48 89 e5             	mov    %rsp,%rbp
  40bdbc:	48 89 7d f8          	mov    %rdi,-0x8(%rbp)
  40bdc0:	b8 00 00 00 00       	mov    $0x0,%eax
  40bdc5:	5d                   	pop    %rbp
  40bdc6:	c3                   	retq   
  40bdc7:	90                   	nop

000000000040bdc8 <_ZNK15Scalar_AccessorIf15CPU_MATHEMATICSE24getLeadingDimensionShapeEv>:
  40bdc8:	55                   	push   %rbp
  40bdc9:	48 89 e5             	mov    %rsp,%rbp
  40bdcc:	48 89 7d f8          	mov    %rdi,-0x8(%rbp)
  40bdd0:	b8 00 00 00 00       	mov    $0x0,%eax
  40bdd5:	5d                   	pop    %rbp
  40bdd6:	c3                   	retq   
  40bdd7:	90                   	nop

000000000040bdd8 <_ZNK11Tensor_KingIf15CPU_MATHEMATICS7pBufferIfS0_10continuousIfS0_ES1_IfS0_S3_S3_N9Operation3mulIfEEENS4_3addIfEEEE4sizeEv>:
  40bdd8:	55                   	push   %rbp
  40bdd9:	48 89 e5             	mov    %rsp,%rbp
  40bddc:	48 83 ec 10          	sub    $0x10,%rsp
  40bde0:	48 89 7d f8          	mov    %rdi,-0x8(%rbp)
  40bde4:	48 8b 45 f8          	mov    -0x8(%rbp),%rax
  40bde8:	48 83 c0 08          	add    $0x8,%rax
  40bdec:	48 89 c7             	mov    %rax,%rdi
  40bdef:	e8 6c 00 00 00       	callq  40be60 <_ZNK7pBufferIf15CPU_MATHEMATICS10continuousIfS0_ES_IfS0_S2_S2_N9Operation3mulIfEEENS3_3addIfEEE4sizeEv>
  40bdf4:	c9                   	leaveq 
  40bdf5:	c3                   	retq   

000000000040bdf6 <_ZNK11Tensor_KingIf15CPU_MATHEMATICS7pBufferIfS0_10continuousIfS0_ES1_IfS0_S3_S3_N9Operation3mulIfEEENS4_3addIfEEEE9dimensionEi>:
  40bdf6:	55                   	push   %rbp
  40bdf7:	48 89 e5             	mov    %rsp,%rbp
  40bdfa:	48 83 ec 10          	sub    $0x10,%rsp
  40bdfe:	48 89 7d f8          	mov    %rdi,-0x8(%rbp)
  40be02:	89 75 f4             	mov    %esi,-0xc(%rbp)
  40be05:	48 8b 45 f8          	mov    -0x8(%rbp),%rax
  40be09:	48 8d 50 08          	lea    0x8(%rax),%rdx
  40be0d:	8b 45 f4             	mov    -0xc(%rbp),%eax
  40be10:	89 c6                	mov    %eax,%esi
  40be12:	48 89 d7             	mov    %rdx,%rdi
  40be15:	e8 86 00 00 00       	callq  40bea0 <_ZNK7pBufferIf15CPU_MATHEMATICS10continuousIfS0_ES_IfS0_S2_S2_N9Operation3mulIfEEENS3_3addIfEEE9dimensionEi>
  40be1a:	c9                   	leaveq 
  40be1b:	c3                   	retq   

000000000040be1c <_ZNK11Tensor_KingIf15CPU_MATHEMATICS7pBufferIfS0_10continuousIfS0_ES1_IfS0_S3_S3_N9Operation3mulIfEEENS4_3addIfEEEE17leading_dimensionEi>:
  40be1c:	55                   	push   %rbp
  40be1d:	48 89 e5             	mov    %rsp,%rbp
  40be20:	48 83 ec 10          	sub    $0x10,%rsp
  40be24:	48 89 7d f8          	mov    %rdi,-0x8(%rbp)
  40be28:	89 75 f4             	mov    %esi,-0xc(%rbp)
  40be2b:	48 8b 45 f8          	mov    -0x8(%rbp),%rax
  40be2f:	48 8d 50 08          	lea    0x8(%rax),%rdx
  40be33:	8b 45 f4             	mov    -0xc(%rbp),%eax
  40be36:	89 c6                	mov    %eax,%esi
  40be38:	48 89 d7             	mov    %rdx,%rdi
  40be3b:	e8 ac 00 00 00       	callq  40beec <_ZNK7pBufferIf15CPU_MATHEMATICS10continuousIfS0_ES_IfS0_S2_S2_N9Operation3mulIfEEENS3_3addIfEEE17leading_dimensionEi>
  40be40:	c9                   	leaveq 
  40be41:	c3                   	retq   

000000000040be42 <_ZNK11Tensor_KingIf15CPU_MATHEMATICS7pBufferIfS0_10continuousIfS0_ES1_IfS0_S3_S3_N9Operation3mulIfEEENS4_3addIfEEEE5orderEv>:
  40be42:	55                   	push   %rbp
  40be43:	48 89 e5             	mov    %rsp,%rbp
  40be46:	48 83 ec 10          	sub    $0x10,%rsp
  40be4a:	48 89 7d f8          	mov    %rdi,-0x8(%rbp)
  40be4e:	48 8b 45 f8          	mov    -0x8(%rbp),%rax
  40be52:	48 83 c0 08          	add    $0x8,%rax
  40be56:	48 89 c7             	mov    %rax,%rdi
  40be59:	e8 da 00 00 00       	callq  40bf38 <_ZNK7pBufferIf15CPU_MATHEMATICS10continuousIfS0_ES_IfS0_S2_S2_N9Operation3mulIfEEENS3_3addIfEEE5orderEv>
  40be5e:	c9                   	leaveq 
  40be5f:	c3                   	retq   

000000000040be60 <_ZNK7pBufferIf15CPU_MATHEMATICS10continuousIfS0_ES_IfS0_S2_S2_N9Operation3mulIfEEENS3_3addIfEEE4sizeEv>:
  40be60:	55                   	push   %rbp
  40be61:	48 89 e5             	mov    %rsp,%rbp
  40be64:	53                   	push   %rbx
  40be65:	48 83 ec 18          	sub    $0x18,%rsp
  40be69:	48 89 7d e8          	mov    %rdi,-0x18(%rbp)
  40be6d:	48 8b 45 e8          	mov    -0x18(%rbp),%rax
  40be71:	48 83 c0 30          	add    $0x30,%rax
  40be75:	48 89 c7             	mov    %rax,%rdi
  40be78:	e8 cb 02 00 00       	callq  40c148 <_ZNK7pBufferIf15CPU_MATHEMATICS10continuousIfS0_ES2_N9Operation3mulIfEEE4sizeEv>
  40be7d:	89 c3                	mov    %eax,%ebx
  40be7f:	48 8b 45 e8          	mov    -0x18(%rbp),%rax
  40be83:	48 83 c0 10          	add    $0x10,%rax
  40be87:	48 89 c7             	mov    %rax,%rdi
  40be8a:	e8 61 a7 ff ff       	callq  4065f0 <_ZNK10continuousIf15CPU_MATHEMATICSE4sizeEv>
  40be8f:	89 de                	mov    %ebx,%esi
  40be91:	89 c7                	mov    %eax,%edi
  40be93:	e8 e4 05 00 00       	callq  40c47c <_ZN7pBufferIf15CPU_MATHEMATICS10continuousIfS0_ES_IfS0_S2_S2_N9Operation3mulIfEEENS3_3addIfEEE3maxEii>
  40be98:	48 83 c4 18          	add    $0x18,%rsp
  40be9c:	5b                   	pop    %rbx
  40be9d:	5d                   	pop    %rbp
  40be9e:	c3                   	retq   
  40be9f:	90                   	nop

000000000040bea0 <_ZNK7pBufferIf15CPU_MATHEMATICS10continuousIfS0_ES_IfS0_S2_S2_N9Operation3mulIfEEENS3_3addIfEEE9dimensionEi>:
  40bea0:	55                   	push   %rbp
  40bea1:	48 89 e5             	mov    %rsp,%rbp
  40bea4:	53                   	push   %rbx
  40bea5:	48 83 ec 18          	sub    $0x18,%rsp
  40bea9:	48 89 7d e8          	mov    %rdi,-0x18(%rbp)
  40bead:	89 75 e4             	mov    %esi,-0x1c(%rbp)
  40beb0:	48 8b 45 e8          	mov    -0x18(%rbp),%rax
  40beb4:	48 8d 50 30          	lea    0x30(%rax),%rdx
  40beb8:	8b 45 e4             	mov    -0x1c(%rbp),%eax
  40bebb:	89 c6                	mov    %eax,%esi
  40bebd:	48 89 d7             	mov    %rdx,%rdi
  40bec0:	e8 c3 02 00 00       	callq  40c188 <_ZNK7pBufferIf15CPU_MATHEMATICS10continuousIfS0_ES2_N9Operation3mulIfEEE9dimensionEi>
  40bec5:	89 c3                	mov    %eax,%ebx
  40bec7:	48 8b 45 e8          	mov    -0x18(%rbp),%rax
  40becb:	48 8d 50 10          	lea    0x10(%rax),%rdx
  40becf:	8b 45 e4             	mov    -0x1c(%rbp),%eax
  40bed2:	89 c6                	mov    %eax,%esi
  40bed4:	48 89 d7             	mov    %rdx,%rdi
  40bed7:	e8 30 cb ff ff       	callq  408a0c <_ZNK10continuousIf15CPU_MATHEMATICSE9dimensionEi>
  40bedc:	89 de                	mov    %ebx,%esi
  40bede:	89 c7                	mov    %eax,%edi
  40bee0:	e8 97 05 00 00       	callq  40c47c <_ZN7pBufferIf15CPU_MATHEMATICS10continuousIfS0_ES_IfS0_S2_S2_N9Operation3mulIfEEENS3_3addIfEEE3maxEii>
  40bee5:	48 83 c4 18          	add    $0x18,%rsp
  40bee9:	5b                   	pop    %rbx
  40beea:	5d                   	pop    %rbp
  40beeb:	c3                   	retq   

000000000040beec <_ZNK7pBufferIf15CPU_MATHEMATICS10continuousIfS0_ES_IfS0_S2_S2_N9Operation3mulIfEEENS3_3addIfEEE17leading_dimensionEi>:
  40beec:	55                   	push   %rbp
  40beed:	48 89 e5             	mov    %rsp,%rbp
  40bef0:	53                   	push   %rbx
  40bef1:	48 83 ec 18          	sub    $0x18,%rsp
  40bef5:	48 89 7d e8          	mov    %rdi,-0x18(%rbp)
  40bef9:	89 75 e4             	mov    %esi,-0x1c(%rbp)
  40befc:	48 8b 45 e8          	mov    -0x18(%rbp),%rax
  40bf00:	48 8d 50 30          	lea    0x30(%rax),%rdx
  40bf04:	8b 45 e4             	mov    -0x1c(%rbp),%eax
  40bf07:	89 c6                	mov    %eax,%esi
  40bf09:	48 89 d7             	mov    %rdx,%rdi
  40bf0c:	e8 c3 02 00 00       	callq  40c1d4 <_ZNK7pBufferIf15CPU_MATHEMATICS10continuousIfS0_ES2_N9Operation3mulIfEEE17leading_dimensionEi>
  40bf11:	89 c3                	mov    %eax,%ebx
  40bf13:	48 8b 45 e8          	mov    -0x18(%rbp),%rax
  40bf17:	48 8d 50 10          	lea    0x10(%rax),%rdx
  40bf1b:	8b 45 e4             	mov    -0x1c(%rbp),%eax
  40bf1e:	89 c6                	mov    %eax,%esi
  40bf20:	48 89 d7             	mov    %rdx,%rdi
  40bf23:	e8 80 04 00 00       	callq  40c3a8 <_ZNK10continuousIf15CPU_MATHEMATICSE17leading_dimensionEi>
  40bf28:	89 de                	mov    %ebx,%esi
  40bf2a:	89 c7                	mov    %eax,%edi
  40bf2c:	e8 4b 05 00 00       	callq  40c47c <_ZN7pBufferIf15CPU_MATHEMATICS10continuousIfS0_ES_IfS0_S2_S2_N9Operation3mulIfEEENS3_3addIfEEE3maxEii>
  40bf31:	48 83 c4 18          	add    $0x18,%rsp
  40bf35:	5b                   	pop    %rbx
  40bf36:	5d                   	pop    %rbp
  40bf37:	c3                   	retq   

000000000040bf38 <_ZNK7pBufferIf15CPU_MATHEMATICS10continuousIfS0_ES_IfS0_S2_S2_N9Operation3mulIfEEENS3_3addIfEEE5orderEv>:
  40bf38:	55                   	push   %rbp
  40bf39:	48 89 e5             	mov    %rsp,%rbp
  40bf3c:	53                   	push   %rbx
  40bf3d:	48 83 ec 18          	sub    $0x18,%rsp
  40bf41:	48 89 7d e8          	mov    %rdi,-0x18(%rbp)
  40bf45:	48 8b 45 e8          	mov    -0x18(%rbp),%rax
  40bf49:	48 83 c0 30          	add    $0x30,%rax
  40bf4d:	48 89 c7             	mov    %rax,%rdi
  40bf50:	e8 cb 02 00 00       	callq  40c220 <_ZNK7pBufferIf15CPU_MATHEMATICS10continuousIfS0_ES2_N9Operation3mulIfEEE5orderEv>
  40bf55:	89 c3                	mov    %eax,%ebx
  40bf57:	48 8b 45 e8          	mov    -0x18(%rbp),%rax
  40bf5b:	48 83 c0 10          	add    $0x10,%rax
  40bf5f:	48 89 c7             	mov    %rax,%rdi
  40bf62:	e8 b7 b2 ff ff       	callq  40721e <_ZNK10continuousIf15CPU_MATHEMATICSE5orderEv>
  40bf67:	89 de                	mov    %ebx,%esi
  40bf69:	89 c7                	mov    %eax,%edi
  40bf6b:	e8 0c 05 00 00       	callq  40c47c <_ZN7pBufferIf15CPU_MATHEMATICS10continuousIfS0_ES_IfS0_S2_S2_N9Operation3mulIfEEENS3_3addIfEEE3maxEii>
  40bf70:	48 83 c4 18          	add    $0x18,%rsp
  40bf74:	5b                   	pop    %rbx
  40bf75:	5d                   	pop    %rbp
  40bf76:	c3                   	retq   
  40bf77:	90                   	nop

000000000040bf78 <_ZNK7pBufferIf15CPU_MATHEMATICS10continuousIfS0_ES_IfS0_S2_S2_N9Operation3mulIfEEENS3_3addIfEEE7getDataEv>:
  40bf78:	55                   	push   %rbp
  40bf79:	48 89 e5             	mov    %rsp,%rbp
  40bf7c:	41 54                	push   %r12
  40bf7e:	53                   	push   %rbx
  40bf7f:	48 83 ec 10          	sub    $0x10,%rsp
  40bf83:	48 89 7d e8          	mov    %rdi,-0x18(%rbp)
  40bf87:	bf 10 00 00 00       	mov    $0x10,%edi
  40bf8c:	e8 7f 5d ff ff       	callq  401d10 <__cxa_allocate_exception@plt>
  40bf91:	48 89 c3             	mov    %rax,%rbx
  40bf94:	be e0 c8 40 00       	mov    $0x40c8e0,%esi
  40bf99:	48 89 df             	mov    %rbx,%rdi
  40bf9c:	e8 4f 60 ff ff       	callq  401ff0 <_ZNSt16invalid_argumentC1EPKc@plt>
  40bfa1:	ba 50 1f 40 00       	mov    $0x401f50,%edx
  40bfa6:	be 20 44 61 00       	mov    $0x614420,%esi
  40bfab:	48 89 df             	mov    %rbx,%rdi
  40bfae:	e8 bd 5f ff ff       	callq  401f70 <__cxa_throw@plt>
  40bfb3:	49 89 c4             	mov    %rax,%r12
  40bfb6:	48 89 df             	mov    %rbx,%rdi
  40bfb9:	e8 a2 5d ff ff       	callq  401d60 <__cxa_free_exception@plt>
  40bfbe:	4c 89 e0             	mov    %r12,%rax
  40bfc1:	48 89 c7             	mov    %rax,%rdi
  40bfc4:	e8 c7 5f ff ff       	callq  401f90 <_Unwind_Resume@plt>
  40bfc9:	90                   	nop

000000000040bfca <_ZNK7pBufferIf15CPU_MATHEMATICS10continuousIfS0_ES_IfS0_S2_S2_N9Operation3mulIfEEENS3_3addIfEEE8getShapeEv>:
  40bfca:	55                   	push   %rbp
  40bfcb:	48 89 e5             	mov    %rsp,%rbp
  40bfce:	41 54                	push   %r12
  40bfd0:	53                   	push   %rbx
  40bfd1:	48 83 ec 10          	sub    $0x10,%rsp
  40bfd5:	48 89 7d e8          	mov    %rdi,-0x18(%rbp)
  40bfd9:	bf 10 00 00 00       	mov    $0x10,%edi
  40bfde:	e8 2d 5d ff ff       	callq  401d10 <__cxa_allocate_exception@plt>
  40bfe3:	48 89 c3             	mov    %rax,%rbx
  40bfe6:	be 18 c9 40 00       	mov    $0x40c918,%esi
  40bfeb:	48 89 df             	mov    %rbx,%rdi
  40bfee:	e8 fd 5f ff ff       	callq  401ff0 <_ZNSt16invalid_argumentC1EPKc@plt>
  40bff3:	ba 50 1f 40 00       	mov    $0x401f50,%edx
  40bff8:	be 20 44 61 00       	mov    $0x614420,%esi
  40bffd:	48 89 df             	mov    %rbx,%rdi
  40c000:	e8 6b 5f ff ff       	callq  401f70 <__cxa_throw@plt>
  40c005:	49 89 c4             	mov    %rax,%r12
  40c008:	48 89 df             	mov    %rbx,%rdi
  40c00b:	e8 50 5d ff ff       	callq  401d60 <__cxa_free_exception@plt>
  40c010:	4c 89 e0             	mov    %r12,%rax
  40c013:	48 89 c7             	mov    %rax,%rdi
  40c016:	e8 75 5f ff ff       	callq  401f90 <_Unwind_Resume@plt>
  40c01b:	90                   	nop

000000000040c01c <_ZNK7pBufferIf15CPU_MATHEMATICS10continuousIfS0_ES_IfS0_S2_S2_N9Operation3mulIfEEENS3_3addIfEEE24getLeadingDimensionShapeEv>:
  40c01c:	55                   	push   %rbp
  40c01d:	48 89 e5             	mov    %rsp,%rbp
  40c020:	41 54                	push   %r12
  40c022:	53                   	push   %rbx
  40c023:	48 83 ec 10          	sub    $0x10,%rsp
  40c027:	48 89 7d e8          	mov    %rdi,-0x18(%rbp)
  40c02b:	bf 10 00 00 00       	mov    $0x10,%edi
  40c030:	e8 db 5c ff ff       	callq  401d10 <__cxa_allocate_exception@plt>
  40c035:	48 89 c3             	mov    %rax,%rbx
  40c038:	be b0 ca 40 00       	mov    $0x40cab0,%esi
  40c03d:	48 89 df             	mov    %rbx,%rdi
  40c040:	e8 ab 5f ff ff       	callq  401ff0 <_ZNSt16invalid_argumentC1EPKc@plt>
  40c045:	ba 50 1f 40 00       	mov    $0x401f50,%edx
  40c04a:	be 20 44 61 00       	mov    $0x614420,%esi
  40c04f:	48 89 df             	mov    %rbx,%rdi
  40c052:	e8 19 5f ff ff       	callq  401f70 <__cxa_throw@plt>
  40c057:	49 89 c4             	mov    %rax,%r12
  40c05a:	48 89 df             	mov    %rbx,%rdi
  40c05d:	e8 fe 5c ff ff       	callq  401d60 <__cxa_free_exception@plt>
  40c062:	4c 89 e0             	mov    %r12,%rax
  40c065:	48 89 c7             	mov    %rax,%rdi
  40c068:	e8 23 5f ff ff       	callq  401f90 <_Unwind_Resume@plt>
  40c06d:	90                   	nop

000000000040c06e <_ZN7pBufferIf15CPU_MATHEMATICS10continuousIfS0_ES_IfS0_S2_S2_N9Operation3mulIfEEENS3_3addIfEEE24getLeadingDimensionShapeEv>:
  40c06e:	55                   	push   %rbp
  40c06f:	48 89 e5             	mov    %rsp,%rbp
  40c072:	41 54                	push   %r12
  40c074:	53                   	push   %rbx
  40c075:	48 83 ec 10          	sub    $0x10,%rsp
  40c079:	48 89 7d e8          	mov    %rdi,-0x18(%rbp)
  40c07d:	bf 10 00 00 00       	mov    $0x10,%edi
  40c082:	e8 89 5c ff ff       	callq  401d10 <__cxa_allocate_exception@plt>
  40c087:	48 89 c3             	mov    %rax,%rbx
  40c08a:	be b0 ca 40 00       	mov    $0x40cab0,%esi
  40c08f:	48 89 df             	mov    %rbx,%rdi
  40c092:	e8 59 5f ff ff       	callq  401ff0 <_ZNSt16invalid_argumentC1EPKc@plt>
  40c097:	ba 50 1f 40 00       	mov    $0x401f50,%edx
  40c09c:	be 20 44 61 00       	mov    $0x614420,%esi
  40c0a1:	48 89 df             	mov    %rbx,%rdi
  40c0a4:	e8 c7 5e ff ff       	callq  401f70 <__cxa_throw@plt>
  40c0a9:	49 89 c4             	mov    %rax,%r12
  40c0ac:	48 89 df             	mov    %rbx,%rdi
  40c0af:	e8 ac 5c ff ff       	callq  401d60 <__cxa_free_exception@plt>
  40c0b4:	4c 89 e0             	mov    %r12,%rax
  40c0b7:	48 89 c7             	mov    %rax,%rdi
  40c0ba:	e8 d1 5e ff ff       	callq  401f90 <_Unwind_Resume@plt>
  40c0bf:	90                   	nop

000000000040c0c0 <_ZNK11Tensor_KingIf15CPU_MATHEMATICS7pBufferIfS0_10continuousIfS0_ES3_N9Operation3mulIfEEEE4sizeEv>:
  40c0c0:	55                   	push   %rbp
  40c0c1:	48 89 e5             	mov    %rsp,%rbp
  40c0c4:	48 83 ec 10          	sub    $0x10,%rsp
  40c0c8:	48 89 7d f8          	mov    %rdi,-0x8(%rbp)
  40c0cc:	48 8b 45 f8          	mov    -0x8(%rbp),%rax
  40c0d0:	48 83 c0 08          	add    $0x8,%rax
  40c0d4:	48 89 c7             	mov    %rax,%rdi
  40c0d7:	e8 6c 00 00 00       	callq  40c148 <_ZNK7pBufferIf15CPU_MATHEMATICS10continuousIfS0_ES2_N9Operation3mulIfEEE4sizeEv>
  40c0dc:	c9                   	leaveq 
  40c0dd:	c3                   	retq   

000000000040c0de <_ZNK11Tensor_KingIf15CPU_MATHEMATICS7pBufferIfS0_10continuousIfS0_ES3_N9Operation3mulIfEEEE9dimensionEi>:
  40c0de:	55                   	push   %rbp
  40c0df:	48 89 e5             	mov    %rsp,%rbp
  40c0e2:	48 83 ec 10          	sub    $0x10,%rsp
  40c0e6:	48 89 7d f8          	mov    %rdi,-0x8(%rbp)
  40c0ea:	89 75 f4             	mov    %esi,-0xc(%rbp)
  40c0ed:	48 8b 45 f8          	mov    -0x8(%rbp),%rax
  40c0f1:	48 8d 50 08          	lea    0x8(%rax),%rdx
  40c0f5:	8b 45 f4             	mov    -0xc(%rbp),%eax
  40c0f8:	89 c6                	mov    %eax,%esi
  40c0fa:	48 89 d7             	mov    %rdx,%rdi
  40c0fd:	e8 86 00 00 00       	callq  40c188 <_ZNK7pBufferIf15CPU_MATHEMATICS10continuousIfS0_ES2_N9Operation3mulIfEEE9dimensionEi>
  40c102:	c9                   	leaveq 
  40c103:	c3                   	retq   

000000000040c104 <_ZNK11Tensor_KingIf15CPU_MATHEMATICS7pBufferIfS0_10continuousIfS0_ES3_N9Operation3mulIfEEEE17leading_dimensionEi>:
  40c104:	55                   	push   %rbp
  40c105:	48 89 e5             	mov    %rsp,%rbp
  40c108:	48 83 ec 10          	sub    $0x10,%rsp
  40c10c:	48 89 7d f8          	mov    %rdi,-0x8(%rbp)
  40c110:	89 75 f4             	mov    %esi,-0xc(%rbp)
  40c113:	48 8b 45 f8          	mov    -0x8(%rbp),%rax
  40c117:	48 8d 50 08          	lea    0x8(%rax),%rdx
  40c11b:	8b 45 f4             	mov    -0xc(%rbp),%eax
  40c11e:	89 c6                	mov    %eax,%esi
  40c120:	48 89 d7             	mov    %rdx,%rdi
  40c123:	e8 ac 00 00 00       	callq  40c1d4 <_ZNK7pBufferIf15CPU_MATHEMATICS10continuousIfS0_ES2_N9Operation3mulIfEEE17leading_dimensionEi>
  40c128:	c9                   	leaveq 
  40c129:	c3                   	retq   

000000000040c12a <_ZNK11Tensor_KingIf15CPU_MATHEMATICS7pBufferIfS0_10continuousIfS0_ES3_N9Operation3mulIfEEEE5orderEv>:
  40c12a:	55                   	push   %rbp
  40c12b:	48 89 e5             	mov    %rsp,%rbp
  40c12e:	48 83 ec 10          	sub    $0x10,%rsp
  40c132:	48 89 7d f8          	mov    %rdi,-0x8(%rbp)
  40c136:	48 8b 45 f8          	mov    -0x8(%rbp),%rax
  40c13a:	48 83 c0 08          	add    $0x8,%rax
  40c13e:	48 89 c7             	mov    %rax,%rdi
  40c141:	e8 da 00 00 00       	callq  40c220 <_ZNK7pBufferIf15CPU_MATHEMATICS10continuousIfS0_ES2_N9Operation3mulIfEEE5orderEv>
  40c146:	c9                   	leaveq 
  40c147:	c3                   	retq   

000000000040c148 <_ZNK7pBufferIf15CPU_MATHEMATICS10continuousIfS0_ES2_N9Operation3mulIfEEE4sizeEv>:
  40c148:	55                   	push   %rbp
  40c149:	48 89 e5             	mov    %rsp,%rbp
  40c14c:	53                   	push   %rbx
  40c14d:	48 83 ec 18          	sub    $0x18,%rsp
  40c151:	48 89 7d e8          	mov    %rdi,-0x18(%rbp)
  40c155:	48 8b 45 e8          	mov    -0x18(%rbp),%rax
  40c159:	48 83 c0 30          	add    $0x30,%rax
  40c15d:	48 89 c7             	mov    %rax,%rdi
  40c160:	e8 8b a4 ff ff       	callq  4065f0 <_ZNK10continuousIf15CPU_MATHEMATICSE4sizeEv>
  40c165:	89 c3                	mov    %eax,%ebx
  40c167:	48 8b 45 e8          	mov    -0x18(%rbp),%rax
  40c16b:	48 83 c0 10          	add    $0x10,%rax
  40c16f:	48 89 c7             	mov    %rax,%rdi
  40c172:	e8 79 a4 ff ff       	callq  4065f0 <_ZNK10continuousIf15CPU_MATHEMATICSE4sizeEv>
  40c177:	89 de                	mov    %ebx,%esi
  40c179:	89 c7                	mov    %eax,%edi
  40c17b:	e8 18 03 00 00       	callq  40c498 <_ZN7pBufferIf15CPU_MATHEMATICS10continuousIfS0_ES2_N9Operation3mulIfEEE3maxEii>
  40c180:	48 83 c4 18          	add    $0x18,%rsp
  40c184:	5b                   	pop    %rbx
  40c185:	5d                   	pop    %rbp
  40c186:	c3                   	retq   
  40c187:	90                   	nop

000000000040c188 <_ZNK7pBufferIf15CPU_MATHEMATICS10continuousIfS0_ES2_N9Operation3mulIfEEE9dimensionEi>:
  40c188:	55                   	push   %rbp
  40c189:	48 89 e5             	mov    %rsp,%rbp
  40c18c:	53                   	push   %rbx
  40c18d:	48 83 ec 18          	sub    $0x18,%rsp
  40c191:	48 89 7d e8          	mov    %rdi,-0x18(%rbp)
  40c195:	89 75 e4             	mov    %esi,-0x1c(%rbp)
  40c198:	48 8b 45 e8          	mov    -0x18(%rbp),%rax
  40c19c:	48 8d 50 30          	lea    0x30(%rax),%rdx
  40c1a0:	8b 45 e4             	mov    -0x1c(%rbp),%eax
  40c1a3:	89 c6                	mov    %eax,%esi
  40c1a5:	48 89 d7             	mov    %rdx,%rdi
  40c1a8:	e8 5f c8 ff ff       	callq  408a0c <_ZNK10continuousIf15CPU_MATHEMATICSE9dimensionEi>
  40c1ad:	89 c3                	mov    %eax,%ebx
  40c1af:	48 8b 45 e8          	mov    -0x18(%rbp),%rax
  40c1b3:	48 8d 50 10          	lea    0x10(%rax),%rdx
  40c1b7:	8b 45 e4             	mov    -0x1c(%rbp),%eax
  40c1ba:	89 c6                	mov    %eax,%esi
  40c1bc:	48 89 d7             	mov    %rdx,%rdi
  40c1bf:	e8 48 c8 ff ff       	callq  408a0c <_ZNK10continuousIf15CPU_MATHEMATICSE9dimensionEi>
  40c1c4:	89 de                	mov    %ebx,%esi
  40c1c6:	89 c7                	mov    %eax,%edi
  40c1c8:	e8 cb 02 00 00       	callq  40c498 <_ZN7pBufferIf15CPU_MATHEMATICS10continuousIfS0_ES2_N9Operation3mulIfEEE3maxEii>
  40c1cd:	48 83 c4 18          	add    $0x18,%rsp
  40c1d1:	5b                   	pop    %rbx
  40c1d2:	5d                   	pop    %rbp
  40c1d3:	c3                   	retq   

000000000040c1d4 <_ZNK7pBufferIf15CPU_MATHEMATICS10continuousIfS0_ES2_N9Operation3mulIfEEE17leading_dimensionEi>:
  40c1d4:	55                   	push   %rbp
  40c1d5:	48 89 e5             	mov    %rsp,%rbp
  40c1d8:	53                   	push   %rbx
  40c1d9:	48 83 ec 18          	sub    $0x18,%rsp
  40c1dd:	48 89 7d e8          	mov    %rdi,-0x18(%rbp)
  40c1e1:	89 75 e4             	mov    %esi,-0x1c(%rbp)
  40c1e4:	48 8b 45 e8          	mov    -0x18(%rbp),%rax
  40c1e8:	48 8d 50 30          	lea    0x30(%rax),%rdx
  40c1ec:	8b 45 e4             	mov    -0x1c(%rbp),%eax
  40c1ef:	89 c6                	mov    %eax,%esi
  40c1f1:	48 89 d7             	mov    %rdx,%rdi
  40c1f4:	e8 af 01 00 00       	callq  40c3a8 <_ZNK10continuousIf15CPU_MATHEMATICSE17leading_dimensionEi>
  40c1f9:	89 c3                	mov    %eax,%ebx
  40c1fb:	48 8b 45 e8          	mov    -0x18(%rbp),%rax
  40c1ff:	48 8d 50 10          	lea    0x10(%rax),%rdx
  40c203:	8b 45 e4             	mov    -0x1c(%rbp),%eax
  40c206:	89 c6                	mov    %eax,%esi
  40c208:	48 89 d7             	mov    %rdx,%rdi
  40c20b:	e8 98 01 00 00       	callq  40c3a8 <_ZNK10continuousIf15CPU_MATHEMATICSE17leading_dimensionEi>
  40c210:	89 de                	mov    %ebx,%esi
  40c212:	89 c7                	mov    %eax,%edi
  40c214:	e8 7f 02 00 00       	callq  40c498 <_ZN7pBufferIf15CPU_MATHEMATICS10continuousIfS0_ES2_N9Operation3mulIfEEE3maxEii>
  40c219:	48 83 c4 18          	add    $0x18,%rsp
  40c21d:	5b                   	pop    %rbx
  40c21e:	5d                   	pop    %rbp
  40c21f:	c3                   	retq   

000000000040c220 <_ZNK7pBufferIf15CPU_MATHEMATICS10continuousIfS0_ES2_N9Operation3mulIfEEE5orderEv>:
  40c220:	55                   	push   %rbp
  40c221:	48 89 e5             	mov    %rsp,%rbp
  40c224:	53                   	push   %rbx
  40c225:	48 83 ec 18          	sub    $0x18,%rsp
  40c229:	48 89 7d e8          	mov    %rdi,-0x18(%rbp)
  40c22d:	48 8b 45 e8          	mov    -0x18(%rbp),%rax
  40c231:	48 83 c0 30          	add    $0x30,%rax
  40c235:	48 89 c7             	mov    %rax,%rdi
  40c238:	e8 e1 af ff ff       	callq  40721e <_ZNK10continuousIf15CPU_MATHEMATICSE5orderEv>
  40c23d:	89 c3                	mov    %eax,%ebx
  40c23f:	48 8b 45 e8          	mov    -0x18(%rbp),%rax
  40c243:	48 83 c0 10          	add    $0x10,%rax
  40c247:	48 89 c7             	mov    %rax,%rdi
  40c24a:	e8 cf af ff ff       	callq  40721e <_ZNK10continuousIf15CPU_MATHEMATICSE5orderEv>
  40c24f:	89 de                	mov    %ebx,%esi
  40c251:	89 c7                	mov    %eax,%edi
  40c253:	e8 40 02 00 00       	callq  40c498 <_ZN7pBufferIf15CPU_MATHEMATICS10continuousIfS0_ES2_N9Operation3mulIfEEE3maxEii>
  40c258:	48 83 c4 18          	add    $0x18,%rsp
  40c25c:	5b                   	pop    %rbx
  40c25d:	5d                   	pop    %rbp
  40c25e:	c3                   	retq   
  40c25f:	90                   	nop

000000000040c260 <_ZNK7pBufferIf15CPU_MATHEMATICS10continuousIfS0_ES2_N9Operation3mulIfEEE7getDataEv>:
  40c260:	55                   	push   %rbp
  40c261:	48 89 e5             	mov    %rsp,%rbp
  40c264:	41 54                	push   %r12
  40c266:	53                   	push   %rbx
  40c267:	48 83 ec 10          	sub    $0x10,%rsp
  40c26b:	48 89 7d e8          	mov    %rdi,-0x18(%rbp)
  40c26f:	bf 10 00 00 00       	mov    $0x10,%edi
  40c274:	e8 97 5a ff ff       	callq  401d10 <__cxa_allocate_exception@plt>
  40c279:	48 89 c3             	mov    %rax,%rbx
  40c27c:	be e0 c8 40 00       	mov    $0x40c8e0,%esi
  40c281:	48 89 df             	mov    %rbx,%rdi
  40c284:	e8 67 5d ff ff       	callq  401ff0 <_ZNSt16invalid_argumentC1EPKc@plt>
  40c289:	ba 50 1f 40 00       	mov    $0x401f50,%edx
  40c28e:	be 20 44 61 00       	mov    $0x614420,%esi
  40c293:	48 89 df             	mov    %rbx,%rdi
  40c296:	e8 d5 5c ff ff       	callq  401f70 <__cxa_throw@plt>
  40c29b:	49 89 c4             	mov    %rax,%r12
  40c29e:	48 89 df             	mov    %rbx,%rdi
  40c2a1:	e8 ba 5a ff ff       	callq  401d60 <__cxa_free_exception@plt>
  40c2a6:	4c 89 e0             	mov    %r12,%rax
  40c2a9:	48 89 c7             	mov    %rax,%rdi
  40c2ac:	e8 df 5c ff ff       	callq  401f90 <_Unwind_Resume@plt>
  40c2b1:	90                   	nop

000000000040c2b2 <_ZNK7pBufferIf15CPU_MATHEMATICS10continuousIfS0_ES2_N9Operation3mulIfEEE8getShapeEv>:
  40c2b2:	55                   	push   %rbp
  40c2b3:	48 89 e5             	mov    %rsp,%rbp
  40c2b6:	41 54                	push   %r12
  40c2b8:	53                   	push   %rbx
  40c2b9:	48 83 ec 10          	sub    $0x10,%rsp
  40c2bd:	48 89 7d e8          	mov    %rdi,-0x18(%rbp)
  40c2c1:	bf 10 00 00 00       	mov    $0x10,%edi
  40c2c6:	e8 45 5a ff ff       	callq  401d10 <__cxa_allocate_exception@plt>
  40c2cb:	48 89 c3             	mov    %rax,%rbx
  40c2ce:	be 18 c9 40 00       	mov    $0x40c918,%esi
  40c2d3:	48 89 df             	mov    %rbx,%rdi
  40c2d6:	e8 15 5d ff ff       	callq  401ff0 <_ZNSt16invalid_argumentC1EPKc@plt>
  40c2db:	ba 50 1f 40 00       	mov    $0x401f50,%edx
  40c2e0:	be 20 44 61 00       	mov    $0x614420,%esi
  40c2e5:	48 89 df             	mov    %rbx,%rdi
  40c2e8:	e8 83 5c ff ff       	callq  401f70 <__cxa_throw@plt>
  40c2ed:	49 89 c4             	mov    %rax,%r12
  40c2f0:	48 89 df             	mov    %rbx,%rdi
  40c2f3:	e8 68 5a ff ff       	callq  401d60 <__cxa_free_exception@plt>
  40c2f8:	4c 89 e0             	mov    %r12,%rax
  40c2fb:	48 89 c7             	mov    %rax,%rdi
  40c2fe:	e8 8d 5c ff ff       	callq  401f90 <_Unwind_Resume@plt>
  40c303:	90                   	nop

000000000040c304 <_ZNK7pBufferIf15CPU_MATHEMATICS10continuousIfS0_ES2_N9Operation3mulIfEEE24getLeadingDimensionShapeEv>:
  40c304:	55                   	push   %rbp
  40c305:	48 89 e5             	mov    %rsp,%rbp
  40c308:	41 54                	push   %r12
  40c30a:	53                   	push   %rbx
  40c30b:	48 83 ec 10          	sub    $0x10,%rsp
  40c30f:	48 89 7d e8          	mov    %rdi,-0x18(%rbp)
  40c313:	bf 10 00 00 00       	mov    $0x10,%edi
  40c318:	e8 f3 59 ff ff       	callq  401d10 <__cxa_allocate_exception@plt>
  40c31d:	48 89 c3             	mov    %rax,%rbx
  40c320:	be b0 ca 40 00       	mov    $0x40cab0,%esi
  40c325:	48 89 df             	mov    %rbx,%rdi
  40c328:	e8 c3 5c ff ff       	callq  401ff0 <_ZNSt16invalid_argumentC1EPKc@plt>
  40c32d:	ba 50 1f 40 00       	mov    $0x401f50,%edx
  40c332:	be 20 44 61 00       	mov    $0x614420,%esi
  40c337:	48 89 df             	mov    %rbx,%rdi
  40c33a:	e8 31 5c ff ff       	callq  401f70 <__cxa_throw@plt>
  40c33f:	49 89 c4             	mov    %rax,%r12
  40c342:	48 89 df             	mov    %rbx,%rdi
  40c345:	e8 16 5a ff ff       	callq  401d60 <__cxa_free_exception@plt>
  40c34a:	4c 89 e0             	mov    %r12,%rax
  40c34d:	48 89 c7             	mov    %rax,%rdi
  40c350:	e8 3b 5c ff ff       	callq  401f90 <_Unwind_Resume@plt>
  40c355:	90                   	nop

000000000040c356 <_ZN7pBufferIf15CPU_MATHEMATICS10continuousIfS0_ES2_N9Operation3mulIfEEE24getLeadingDimensionShapeEv>:
  40c356:	55                   	push   %rbp
  40c357:	48 89 e5             	mov    %rsp,%rbp
  40c35a:	41 54                	push   %r12
  40c35c:	53                   	push   %rbx
  40c35d:	48 83 ec 10          	sub    $0x10,%rsp
  40c361:	48 89 7d e8          	mov    %rdi,-0x18(%rbp)
  40c365:	bf 10 00 00 00       	mov    $0x10,%edi
  40c36a:	e8 a1 59 ff ff       	callq  401d10 <__cxa_allocate_exception@plt>
  40c36f:	48 89 c3             	mov    %rax,%rbx
  40c372:	be b0 ca 40 00       	mov    $0x40cab0,%esi
  40c377:	48 89 df             	mov    %rbx,%rdi
  40c37a:	e8 71 5c ff ff       	callq  401ff0 <_ZNSt16invalid_argumentC1EPKc@plt>
  40c37f:	ba 50 1f 40 00       	mov    $0x401f50,%edx
  40c384:	be 20 44 61 00       	mov    $0x614420,%esi
  40c389:	48 89 df             	mov    %rbx,%rdi
  40c38c:	e8 df 5b ff ff       	callq  401f70 <__cxa_throw@plt>
  40c391:	49 89 c4             	mov    %rax,%r12
  40c394:	48 89 df             	mov    %rbx,%rdi
  40c397:	e8 c4 59 ff ff       	callq  401d60 <__cxa_free_exception@plt>
  40c39c:	4c 89 e0             	mov    %r12,%rax
  40c39f:	48 89 c7             	mov    %rax,%rdi
  40c3a2:	e8 e9 5b ff ff       	callq  401f90 <_Unwind_Resume@plt>
  40c3a7:	90                   	nop

000000000040c3a8 <_ZNK10continuousIf15CPU_MATHEMATICSE17leading_dimensionEi>:
  40c3a8:	55                   	push   %rbp
  40c3a9:	48 89 e5             	mov    %rsp,%rbp
  40c3ac:	48 83 ec 10          	sub    $0x10,%rsp
  40c3b0:	48 89 7d f8          	mov    %rdi,-0x8(%rbp)
  40c3b4:	89 75 f4             	mov    %esi,-0xc(%rbp)
  40c3b7:	48 8b 45 f8          	mov    -0x8(%rbp),%rax
  40c3bb:	48 8b 00             	mov    (%rax),%rax
  40c3be:	48 83 c0 18          	add    $0x18,%rax
  40c3c2:	48 8b 00             	mov    (%rax),%rax
  40c3c5:	48 8b 55 f8          	mov    -0x8(%rbp),%rdx
  40c3c9:	48 89 d7             	mov    %rdx,%rdi
  40c3cc:	ff d0                	callq  *%rax
  40c3ce:	3b 45 f4             	cmp    -0xc(%rbp),%eax
  40c3d1:	7e 2a                	jle    40c3fd <_ZNK10continuousIf15CPU_MATHEMATICSE17leading_dimensionEi+0x55>
  40c3d3:	83 7d f4 00          	cmpl   $0x0,-0xc(%rbp)
  40c3d7:	7e 1d                	jle    40c3f6 <_ZNK10continuousIf15CPU_MATHEMATICSE17leading_dimensionEi+0x4e>
  40c3d9:	48 8b 45 f8          	mov    -0x8(%rbp),%rax
  40c3dd:	48 8b 40 10          	mov    0x10(%rax),%rax
  40c3e1:	8b 55 f4             	mov    -0xc(%rbp),%edx
  40c3e4:	48 63 d2             	movslq %edx,%rdx
  40c3e7:	48 c1 e2 02          	shl    $0x2,%rdx
  40c3eb:	48 83 ea 04          	sub    $0x4,%rdx
  40c3ef:	48 01 d0             	add    %rdx,%rax
  40c3f2:	8b 00                	mov    (%rax),%eax
  40c3f4:	eb 0c                	jmp    40c402 <_ZNK10continuousIf15CPU_MATHEMATICSE17leading_dimensionEi+0x5a>
  40c3f6:	b8 00 00 00 00       	mov    $0x0,%eax
  40c3fb:	eb 05                	jmp    40c402 <_ZNK10continuousIf15CPU_MATHEMATICSE17leading_dimensionEi+0x5a>
  40c3fd:	b8 00 00 00 00       	mov    $0x0,%eax
  40c402:	c9                   	leaveq 
  40c403:	c3                   	retq   

000000000040c404 <_ZNK10continuousIf15CPU_MATHEMATICSE24getLeadingDimensionShapeEv>:
  40c404:	55                   	push   %rbp
  40c405:	48 89 e5             	mov    %rsp,%rbp
  40c408:	48 89 7d f8          	mov    %rdi,-0x8(%rbp)
  40c40c:	48 8b 45 f8          	mov    -0x8(%rbp),%rax
  40c410:	48 8b 40 10          	mov    0x10(%rax),%rax
  40c414:	5d                   	pop    %rbp
  40c415:	c3                   	retq   

000000000040c416 <_ZN10continuousIf15CPU_MATHEMATICSE24getLeadingDimensionShapeEv>:
  40c416:	55                   	push   %rbp
  40c417:	48 89 e5             	mov    %rsp,%rbp
  40c41a:	48 89 7d f8          	mov    %rdi,-0x8(%rbp)
  40c41e:	48 8b 45 f8          	mov    -0x8(%rbp),%rax
  40c422:	48 8b 40 10          	mov    0x10(%rax),%rax
  40c426:	5d                   	pop    %rbp
  40c427:	c3                   	retq   

000000000040c428 <_ZN7pBufferId15CPU_MATHEMATICS10continuousIdS0_ES2_N9Operation3addIdEEE3maxEii>:
  40c428:	55                   	push   %rbp
  40c429:	48 89 e5             	mov    %rsp,%rbp
  40c42c:	89 7d fc             	mov    %edi,-0x4(%rbp)
  40c42f:	89 75 f8             	mov    %esi,-0x8(%rbp)
  40c432:	8b 45 fc             	mov    -0x4(%rbp),%eax
  40c435:	3b 45 f8             	cmp    -0x8(%rbp),%eax
  40c438:	7e 05                	jle    40c43f <_ZN7pBufferId15CPU_MATHEMATICS10continuousIdS0_ES2_N9Operation3addIdEEE3maxEii+0x17>
  40c43a:	8b 45 fc             	mov    -0x4(%rbp),%eax
  40c43d:	eb 03                	jmp    40c442 <_ZN7pBufferId15CPU_MATHEMATICS10continuousIdS0_ES2_N9Operation3addIdEEE3maxEii+0x1a>
  40c43f:	8b 45 f8             	mov    -0x8(%rbp),%eax
  40c442:	5d                   	pop    %rbp
  40c443:	c3                   	retq   

000000000040c444 <_ZN7pBufferIf15CPU_MATHEMATICS10continuousIfS0_E23ReferenceScalarAccessorIfS0_EN9Operation3addIfEEE3maxEii>:
  40c444:	55                   	push   %rbp
  40c445:	48 89 e5             	mov    %rsp,%rbp
  40c448:	89 7d fc             	mov    %edi,-0x4(%rbp)
  40c44b:	89 75 f8             	mov    %esi,-0x8(%rbp)
  40c44e:	8b 45 fc             	mov    -0x4(%rbp),%eax
  40c451:	3b 45 f8             	cmp    -0x8(%rbp),%eax
  40c454:	7e 05                	jle    40c45b <_ZN7pBufferIf15CPU_MATHEMATICS10continuousIfS0_E23ReferenceScalarAccessorIfS0_EN9Operation3addIfEEE3maxEii+0x17>
  40c456:	8b 45 fc             	mov    -0x4(%rbp),%eax
  40c459:	eb 03                	jmp    40c45e <_ZN7pBufferIf15CPU_MATHEMATICS10continuousIfS0_E23ReferenceScalarAccessorIfS0_EN9Operation3addIfEEE3maxEii+0x1a>
  40c45b:	8b 45 f8             	mov    -0x8(%rbp),%eax
  40c45e:	5d                   	pop    %rbp
  40c45f:	c3                   	retq   

000000000040c460 <_ZN7pBufferIf15CPU_MATHEMATICS19StackScalarAccessorIfS0_E10continuousIfS0_EN9Operation3subIfEEE3maxEii>:
  40c460:	55                   	push   %rbp
  40c461:	48 89 e5             	mov    %rsp,%rbp
  40c464:	89 7d fc             	mov    %edi,-0x4(%rbp)
  40c467:	89 75 f8             	mov    %esi,-0x8(%rbp)
  40c46a:	8b 45 fc             	mov    -0x4(%rbp),%eax
  40c46d:	3b 45 f8             	cmp    -0x8(%rbp),%eax
  40c470:	7e 05                	jle    40c477 <_ZN7pBufferIf15CPU_MATHEMATICS19StackScalarAccessorIfS0_E10continuousIfS0_EN9Operation3subIfEEE3maxEii+0x17>
  40c472:	8b 45 fc             	mov    -0x4(%rbp),%eax
  40c475:	eb 03                	jmp    40c47a <_ZN7pBufferIf15CPU_MATHEMATICS19StackScalarAccessorIfS0_E10continuousIfS0_EN9Operation3subIfEEE3maxEii+0x1a>
  40c477:	8b 45 f8             	mov    -0x8(%rbp),%eax
  40c47a:	5d                   	pop    %rbp
  40c47b:	c3                   	retq   

000000000040c47c <_ZN7pBufferIf15CPU_MATHEMATICS10continuousIfS0_ES_IfS0_S2_S2_N9Operation3mulIfEEENS3_3addIfEEE3maxEii>:
  40c47c:	55                   	push   %rbp
  40c47d:	48 89 e5             	mov    %rsp,%rbp
  40c480:	89 7d fc             	mov    %edi,-0x4(%rbp)
  40c483:	89 75 f8             	mov    %esi,-0x8(%rbp)
  40c486:	8b 45 fc             	mov    -0x4(%rbp),%eax
  40c489:	3b 45 f8             	cmp    -0x8(%rbp),%eax
  40c48c:	7e 05                	jle    40c493 <_ZN7pBufferIf15CPU_MATHEMATICS10continuousIfS0_ES_IfS0_S2_S2_N9Operation3mulIfEEENS3_3addIfEEE3maxEii+0x17>
  40c48e:	8b 45 fc             	mov    -0x4(%rbp),%eax
  40c491:	eb 03                	jmp    40c496 <_ZN7pBufferIf15CPU_MATHEMATICS10continuousIfS0_ES_IfS0_S2_S2_N9Operation3mulIfEEENS3_3addIfEEE3maxEii+0x1a>
  40c493:	8b 45 f8             	mov    -0x8(%rbp),%eax
  40c496:	5d                   	pop    %rbp
  40c497:	c3                   	retq   

000000000040c498 <_ZN7pBufferIf15CPU_MATHEMATICS10continuousIfS0_ES2_N9Operation3mulIfEEE3maxEii>:
  40c498:	55                   	push   %rbp
  40c499:	48 89 e5             	mov    %rsp,%rbp
  40c49c:	89 7d fc             	mov    %edi,-0x4(%rbp)
  40c49f:	89 75 f8             	mov    %esi,-0x8(%rbp)
  40c4a2:	8b 45 fc             	mov    -0x4(%rbp),%eax
  40c4a5:	3b 45 f8             	cmp    -0x8(%rbp),%eax
  40c4a8:	7e 05                	jle    40c4af <_ZN7pBufferIf15CPU_MATHEMATICS10continuousIfS0_ES2_N9Operation3mulIfEEE3maxEii+0x17>
  40c4aa:	8b 45 fc             	mov    -0x4(%rbp),%eax
  40c4ad:	eb 03                	jmp    40c4b2 <_ZN7pBufferIf15CPU_MATHEMATICS10continuousIfS0_ES2_N9Operation3mulIfEEE3maxEii+0x1a>
  40c4af:	8b 45 f8             	mov    -0x8(%rbp),%eax
  40c4b2:	5d                   	pop    %rbp
  40c4b3:	c3                   	retq   

000000000040c4b4 <_ZN15CPU_MATHEMATICS10matmulBLASEPdPKdiiS2_i>:
  40c4b4:	55                   	push   %rbp
  40c4b5:	48 89 e5             	mov    %rsp,%rbp
  40c4b8:	48 83 ec 30          	sub    $0x30,%rsp
  40c4bc:	48 89 7d f8          	mov    %rdi,-0x8(%rbp)
  40c4c0:	48 89 75 f0          	mov    %rsi,-0x10(%rbp)
  40c4c4:	89 55 ec             	mov    %edx,-0x14(%rbp)
  40c4c7:	89 4d e8             	mov    %ecx,-0x18(%rbp)
  40c4ca:	4c 89 45 e0          	mov    %r8,-0x20(%rbp)
  40c4ce:	44 89 4d dc          	mov    %r9d,-0x24(%rbp)
  40c4d2:	8b 75 e8             	mov    -0x18(%rbp),%esi
  40c4d5:	8b 4d dc             	mov    -0x24(%rbp),%ecx
  40c4d8:	8b 45 ec             	mov    -0x14(%rbp),%eax
  40c4db:	8b 55 ec             	mov    -0x14(%rbp),%edx
  40c4de:	52                   	push   %rdx
  40c4df:	ff 75 f8             	pushq  -0x8(%rbp)
  40c4e2:	8b 55 e8             	mov    -0x18(%rbp),%edx
  40c4e5:	52                   	push   %rdx
  40c4e6:	ff 75 e0             	pushq  -0x20(%rbp)
  40c4e9:	8b 55 ec             	mov    -0x14(%rbp),%edx
  40c4ec:	52                   	push   %rdx
  40c4ed:	ff 75 f0             	pushq  -0x10(%rbp)
  40c4f0:	f2 0f 10 0d 38 26 00 	movsd  0x2638(%rip),%xmm1        # 40eb30 <_ZStL19piecewise_construct+0x8>
  40c4f7:	00 
  40c4f8:	f2 0f 10 05 30 26 00 	movsd  0x2630(%rip),%xmm0        # 40eb30 <_ZStL19piecewise_construct+0x8>
  40c4ff:	00 
  40c500:	41 89 f1             	mov    %esi,%r9d
  40c503:	41 89 c8             	mov    %ecx,%r8d
  40c506:	89 c1                	mov    %eax,%ecx
  40c508:	ba 6f 00 00 00       	mov    $0x6f,%edx
  40c50d:	be 6f 00 00 00       	mov    $0x6f,%esi
  40c512:	bf 66 00 00 00       	mov    $0x66,%edi
  40c517:	e8 94 59 ff ff       	callq  401eb0 <cblas_dgemm@plt>
  40c51c:	48 83 c4 30          	add    $0x30,%rsp
  40c520:	90                   	nop
  40c521:	c9                   	leaveq 
  40c522:	c3                   	retq   
  40c523:	90                   	nop

000000000040c524 <_ZN15CPU_MATHEMATICS10matmulBLASEPfPKfiiS2_i>:
  40c524:	55                   	push   %rbp
  40c525:	48 89 e5             	mov    %rsp,%rbp
  40c528:	48 83 ec 30          	sub    $0x30,%rsp
  40c52c:	48 89 7d f8          	mov    %rdi,-0x8(%rbp)
  40c530:	48 89 75 f0          	mov    %rsi,-0x10(%rbp)
  40c534:	89 55 ec             	mov    %edx,-0x14(%rbp)
  40c537:	89 4d e8             	mov    %ecx,-0x18(%rbp)
  40c53a:	4c 89 45 e0          	mov    %r8,-0x20(%rbp)
  40c53e:	44 89 4d dc          	mov    %r9d,-0x24(%rbp)
  40c542:	8b 75 e8             	mov    -0x18(%rbp),%esi
  40c545:	8b 4d dc             	mov    -0x24(%rbp),%ecx
  40c548:	8b 45 ec             	mov    -0x14(%rbp),%eax
  40c54b:	8b 55 ec             	mov    -0x14(%rbp),%edx
  40c54e:	52                   	push   %rdx
  40c54f:	ff 75 f8             	pushq  -0x8(%rbp)
  40c552:	8b 55 e8             	mov    -0x18(%rbp),%edx
  40c555:	52                   	push   %rdx
  40c556:	ff 75 e0             	pushq  -0x20(%rbp)
  40c559:	8b 55 ec             	mov    -0x14(%rbp),%edx
  40c55c:	52                   	push   %rdx
  40c55d:	ff 75 f0             	pushq  -0x10(%rbp)
  40c560:	f3 0f 10 0d d0 25 00 	movss  0x25d0(%rip),%xmm1        # 40eb38 <_ZStL19piecewise_construct+0x10>
  40c567:	00 
  40c568:	f3 0f 10 05 c8 25 00 	movss  0x25c8(%rip),%xmm0        # 40eb38 <_ZStL19piecewise_construct+0x10>
  40c56f:	00 
  40c570:	41 89 f1             	mov    %esi,%r9d
  40c573:	41 89 c8             	mov    %ecx,%r8d
  40c576:	89 c1                	mov    %eax,%ecx
  40c578:	ba 6f 00 00 00       	mov    $0x6f,%edx
  40c57d:	be 6f 00 00 00       	mov    $0x6f,%esi
  40c582:	bf 66 00 00 00       	mov    $0x66,%edi
  40c587:	e8 04 59 ff ff       	callq  401e90 <cblas_sgemm@plt>
  40c58c:	48 83 c4 30          	add    $0x30,%rsp
  40c590:	90                   	nop
  40c591:	c9                   	leaveq 
  40c592:	c3                   	retq   

000000000040c593 <_Z41__static_initialization_and_destruction_0ii>:
  40c593:	55                   	push   %rbp
  40c594:	48 89 e5             	mov    %rsp,%rbp
  40c597:	48 83 ec 10          	sub    $0x10,%rsp
  40c59b:	89 7d fc             	mov    %edi,-0x4(%rbp)
  40c59e:	89 75 f8             	mov    %esi,-0x8(%rbp)
  40c5a1:	83 7d fc 01          	cmpl   $0x1,-0x4(%rbp)
  40c5a5:	75 27                	jne    40c5ce <_Z41__static_initialization_and_destruction_0ii+0x3b>
  40c5a7:	81 7d f8 ff ff 00 00 	cmpl   $0xffff,-0x8(%rbp)
  40c5ae:	75 1e                	jne    40c5ce <_Z41__static_initialization_and_destruction_0ii+0x3b>
  40c5b0:	bf 3a 44 61 00       	mov    $0x61443a,%edi
  40c5b5:	e8 46 59 ff ff       	callq  401f00 <_ZNSt8ios_base4InitC1Ev@plt>
  40c5ba:	ba f0 41 61 00       	mov    $0x6141f0,%edx
  40c5bf:	be 3a 44 61 00       	mov    $0x61443a,%esi
  40c5c4:	bf 20 20 40 00       	mov    $0x402020,%edi
  40c5c9:	e8 c2 57 ff ff       	callq  401d90 <__cxa_atexit@plt>
  40c5ce:	90                   	nop
  40c5cf:	c9                   	leaveq 
  40c5d0:	c3                   	retq   

000000000040c5d1 <_GLOBAL__sub_I__ZN15CPU_MATHEMATICS10matmulBLASEPdPKdiiS2_i>:
  40c5d1:	55                   	push   %rbp
  40c5d2:	48 89 e5             	mov    %rsp,%rbp
  40c5d5:	be ff ff 00 00       	mov    $0xffff,%esi
  40c5da:	bf 01 00 00 00       	mov    $0x1,%edi
  40c5df:	e8 af ff ff ff       	callq  40c593 <_Z41__static_initialization_and_destruction_0ii>
  40c5e4:	5d                   	pop    %rbp
  40c5e5:	c3                   	retq   
  40c5e6:	66 2e 0f 1f 84 00 00 	nopw   %cs:0x0(%rax,%rax,1)
  40c5ed:	00 00 00 

000000000040c5f0 <__libc_csu_init>:
  40c5f0:	41 57                	push   %r15
  40c5f2:	41 56                	push   %r14
  40c5f4:	41 89 ff             	mov    %edi,%r15d
  40c5f7:	41 55                	push   %r13
  40c5f9:	41 54                	push   %r12
  40c5fb:	4c 8d 25 ae 77 20 00 	lea    0x2077ae(%rip),%r12        # 613db0 <__frame_dummy_init_array_entry>
  40c602:	55                   	push   %rbp
  40c603:	48 8d 2d be 77 20 00 	lea    0x2077be(%rip),%rbp        # 613dc8 <__init_array_end>
  40c60a:	53                   	push   %rbx
  40c60b:	49 89 f6             	mov    %rsi,%r14
  40c60e:	49 89 d5             	mov    %rdx,%r13
  40c611:	4c 29 e5             	sub    %r12,%rbp
  40c614:	48 83 ec 08          	sub    $0x8,%rsp
  40c618:	48 c1 fd 03          	sar    $0x3,%rbp
  40c61c:	e8 3f 56 ff ff       	callq  401c60 <_init>
  40c621:	48 85 ed             	test   %rbp,%rbp
  40c624:	74 20                	je     40c646 <__libc_csu_init+0x56>
  40c626:	31 db                	xor    %ebx,%ebx
  40c628:	0f 1f 84 00 00 00 00 	nopl   0x0(%rax,%rax,1)
  40c62f:	00 
  40c630:	4c 89 ea             	mov    %r13,%rdx
  40c633:	4c 89 f6             	mov    %r14,%rsi
  40c636:	44 89 ff             	mov    %r15d,%edi
  40c639:	41 ff 14 dc          	callq  *(%r12,%rbx,8)
  40c63d:	48 83 c3 01          	add    $0x1,%rbx
  40c641:	48 39 eb             	cmp    %rbp,%rbx
  40c644:	75 ea                	jne    40c630 <__libc_csu_init+0x40>
  40c646:	48 83 c4 08          	add    $0x8,%rsp
  40c64a:	5b                   	pop    %rbx
  40c64b:	5d                   	pop    %rbp
  40c64c:	41 5c                	pop    %r12
  40c64e:	41 5d                	pop    %r13
  40c650:	41 5e                	pop    %r14
  40c652:	41 5f                	pop    %r15
  40c654:	c3                   	retq   
  40c655:	90                   	nop
  40c656:	66 2e 0f 1f 84 00 00 	nopw   %cs:0x0(%rax,%rax,1)
  40c65d:	00 00 00 

000000000040c660 <__libc_csu_fini>:
  40c660:	f3 c3                	repz retq 

Disassembly of section .fini:

000000000040c664 <_fini>:
  40c664:	48 83 ec 08          	sub    $0x8,%rsp
  40c668:	48 83 c4 08          	add    $0x8,%rsp
  40c66c:	c3                   	retq   
